ARM GAS  /tmp/cc1FqXos.s 			page 1


   1              		.cpu cortex-m4
   2              		.eabi_attribute 27, 1
   3              		.eabi_attribute 28, 1
   4              		.eabi_attribute 20, 1
   5              		.eabi_attribute 21, 1
   6              		.eabi_attribute 23, 3
   7              		.eabi_attribute 24, 1
   8              		.eabi_attribute 25, 1
   9              		.eabi_attribute 26, 1
  10              		.eabi_attribute 30, 1
  11              		.eabi_attribute 34, 1
  12              		.eabi_attribute 18, 4
  13              		.file	"stm32l4xx_hal_opamp.c"
  14              		.text
  15              	.Ltext0:
  16              		.cfi_sections	.debug_frame
  17              		.section	.text.HAL_OPAMP_MspInit,"ax",%progbits
  18              		.align	1
  19              		.weak	HAL_OPAMP_MspInit
  20              		.arch armv7e-m
  21              		.syntax unified
  22              		.thumb
  23              		.thumb_func
  24              		.fpu fpv4-sp-d16
  26              	HAL_OPAMP_MspInit:
  27              	.LVL0:
  28              	.LFB311:
  29              		.file 1 "Drivers/STM32L4xx_HAL_Driver/Src/stm32l4xx_hal_opamp.c"
   1:Drivers/STM32L4xx_HAL_Driver/Src/stm32l4xx_hal_opamp.c **** /**
   2:Drivers/STM32L4xx_HAL_Driver/Src/stm32l4xx_hal_opamp.c ****   ******************************************************************************
   3:Drivers/STM32L4xx_HAL_Driver/Src/stm32l4xx_hal_opamp.c ****   * @file    stm32l4xx_hal_opamp.c
   4:Drivers/STM32L4xx_HAL_Driver/Src/stm32l4xx_hal_opamp.c ****   * @author  MCD Application Team
   5:Drivers/STM32L4xx_HAL_Driver/Src/stm32l4xx_hal_opamp.c ****   * @brief   OPAMP HAL module driver.
   6:Drivers/STM32L4xx_HAL_Driver/Src/stm32l4xx_hal_opamp.c ****   *          This file provides firmware functions to manage the following 
   7:Drivers/STM32L4xx_HAL_Driver/Src/stm32l4xx_hal_opamp.c ****   *          functionalities of the operational amplifier(s) peripheral: 
   8:Drivers/STM32L4xx_HAL_Driver/Src/stm32l4xx_hal_opamp.c ****   *           + OPAMP configuration
   9:Drivers/STM32L4xx_HAL_Driver/Src/stm32l4xx_hal_opamp.c ****   *           + OPAMP calibration
  10:Drivers/STM32L4xx_HAL_Driver/Src/stm32l4xx_hal_opamp.c ****   *          Thanks to
  11:Drivers/STM32L4xx_HAL_Driver/Src/stm32l4xx_hal_opamp.c ****   *           + Initialization and de-initialization functions
  12:Drivers/STM32L4xx_HAL_Driver/Src/stm32l4xx_hal_opamp.c ****   *           + IO operation functions
  13:Drivers/STM32L4xx_HAL_Driver/Src/stm32l4xx_hal_opamp.c ****   *           + Peripheral Control functions
  14:Drivers/STM32L4xx_HAL_Driver/Src/stm32l4xx_hal_opamp.c ****   *           + Peripheral State functions
  15:Drivers/STM32L4xx_HAL_Driver/Src/stm32l4xx_hal_opamp.c ****   *         
  16:Drivers/STM32L4xx_HAL_Driver/Src/stm32l4xx_hal_opamp.c ****   @verbatim
  17:Drivers/STM32L4xx_HAL_Driver/Src/stm32l4xx_hal_opamp.c **** ================================================================================
  18:Drivers/STM32L4xx_HAL_Driver/Src/stm32l4xx_hal_opamp.c ****           ##### OPAMP Peripheral Features #####
  19:Drivers/STM32L4xx_HAL_Driver/Src/stm32l4xx_hal_opamp.c **** ================================================================================
  20:Drivers/STM32L4xx_HAL_Driver/Src/stm32l4xx_hal_opamp.c ****            
  21:Drivers/STM32L4xx_HAL_Driver/Src/stm32l4xx_hal_opamp.c ****   [..] The device integrates 1 or 2 operational amplifiers OPAMP1 & OPAMP2
  22:Drivers/STM32L4xx_HAL_Driver/Src/stm32l4xx_hal_opamp.c ****        
  23:Drivers/STM32L4xx_HAL_Driver/Src/stm32l4xx_hal_opamp.c ****        (#) The OPAMP(s) provide(s) several exclusive running modes.       
  24:Drivers/STM32L4xx_HAL_Driver/Src/stm32l4xx_hal_opamp.c ****        (++) 1 OPAMP: STM32L431xx STM32L432xx STM32L433xx STM32L442xx STM32L443xx
  25:Drivers/STM32L4xx_HAL_Driver/Src/stm32l4xx_hal_opamp.c ****        (++) 2 OPAMP: STM32L471xx STM32L475xx STM32L476xx STM32L485xx STM32L486xx
  26:Drivers/STM32L4xx_HAL_Driver/Src/stm32l4xx_hal_opamp.c **** 
  27:Drivers/STM32L4xx_HAL_Driver/Src/stm32l4xx_hal_opamp.c ****        (#) The OPAMP(s) provide(s) several exclusive running modes.
  28:Drivers/STM32L4xx_HAL_Driver/Src/stm32l4xx_hal_opamp.c ****        (++) Standalone mode
  29:Drivers/STM32L4xx_HAL_Driver/Src/stm32l4xx_hal_opamp.c ****        (++) Programmable Gain Amplifier (PGA) mode (Resistor feedback output)
ARM GAS  /tmp/cc1FqXos.s 			page 2


  30:Drivers/STM32L4xx_HAL_Driver/Src/stm32l4xx_hal_opamp.c ****        (++) Follower mode
  31:Drivers/STM32L4xx_HAL_Driver/Src/stm32l4xx_hal_opamp.c **** 
  32:Drivers/STM32L4xx_HAL_Driver/Src/stm32l4xx_hal_opamp.c ****        (#) All OPAMP (same for all OPAMPs) can operate in
  33:Drivers/STM32L4xx_HAL_Driver/Src/stm32l4xx_hal_opamp.c ****        (++) Either Low range (VDDA < 2.4V) power supply
  34:Drivers/STM32L4xx_HAL_Driver/Src/stm32l4xx_hal_opamp.c ****        (++) Or High range (VDDA > 2.4V) power supply
  35:Drivers/STM32L4xx_HAL_Driver/Src/stm32l4xx_hal_opamp.c **** 
  36:Drivers/STM32L4xx_HAL_Driver/Src/stm32l4xx_hal_opamp.c ****        (#) Each OPAMP(s) can be configured in normal and low power mode.
  37:Drivers/STM32L4xx_HAL_Driver/Src/stm32l4xx_hal_opamp.c **** 
  38:Drivers/STM32L4xx_HAL_Driver/Src/stm32l4xx_hal_opamp.c ****        (#) The OPAMP(s) provide(s) calibration capabilities.  
  39:Drivers/STM32L4xx_HAL_Driver/Src/stm32l4xx_hal_opamp.c ****        (++) Calibration aims at correcting some offset for running mode.
  40:Drivers/STM32L4xx_HAL_Driver/Src/stm32l4xx_hal_opamp.c ****        (++) The OPAMP uses either factory calibration settings OR user defined 
  41:Drivers/STM32L4xx_HAL_Driver/Src/stm32l4xx_hal_opamp.c ****            calibration (trimming) settings (i.e. trimming mode).
  42:Drivers/STM32L4xx_HAL_Driver/Src/stm32l4xx_hal_opamp.c ****        (++) The user defined settings can be figured out using self calibration 
  43:Drivers/STM32L4xx_HAL_Driver/Src/stm32l4xx_hal_opamp.c ****            handled by HAL_OPAMP_SelfCalibrate, HAL_OPAMPEx_SelfCalibrateAll
  44:Drivers/STM32L4xx_HAL_Driver/Src/stm32l4xx_hal_opamp.c ****        (++) HAL_OPAMP_SelfCalibrate:
  45:Drivers/STM32L4xx_HAL_Driver/Src/stm32l4xx_hal_opamp.c ****        (+++) Runs automatically the calibration.
  46:Drivers/STM32L4xx_HAL_Driver/Src/stm32l4xx_hal_opamp.c ****        (+++) Enables the user trimming mode
  47:Drivers/STM32L4xx_HAL_Driver/Src/stm32l4xx_hal_opamp.c ****        (+++) Updates the init structure with trimming values with fresh calibration 
  48:Drivers/STM32L4xx_HAL_Driver/Src/stm32l4xx_hal_opamp.c ****             results. 
  49:Drivers/STM32L4xx_HAL_Driver/Src/stm32l4xx_hal_opamp.c ****             The user may store the calibration results for larger 
  50:Drivers/STM32L4xx_HAL_Driver/Src/stm32l4xx_hal_opamp.c ****             (ex monitoring the trimming as a function of temperature 
  51:Drivers/STM32L4xx_HAL_Driver/Src/stm32l4xx_hal_opamp.c ****             for instance)
  52:Drivers/STM32L4xx_HAL_Driver/Src/stm32l4xx_hal_opamp.c ****        (+++) HAL_OPAMPEx_SelfCalibrateAll
  53:Drivers/STM32L4xx_HAL_Driver/Src/stm32l4xx_hal_opamp.c ****             runs calibration of all OPAMPs in parallel to save search time.
  54:Drivers/STM32L4xx_HAL_Driver/Src/stm32l4xx_hal_opamp.c ****                     
  55:Drivers/STM32L4xx_HAL_Driver/Src/stm32l4xx_hal_opamp.c ****        (#) Running mode: Standalone mode 
  56:Drivers/STM32L4xx_HAL_Driver/Src/stm32l4xx_hal_opamp.c ****        (++) Gain is set externally (gain depends on external loads).
  57:Drivers/STM32L4xx_HAL_Driver/Src/stm32l4xx_hal_opamp.c ****        (++) Follower mode also possible externally by connecting the inverting input to
  58:Drivers/STM32L4xx_HAL_Driver/Src/stm32l4xx_hal_opamp.c ****            the output.
  59:Drivers/STM32L4xx_HAL_Driver/Src/stm32l4xx_hal_opamp.c ****        
  60:Drivers/STM32L4xx_HAL_Driver/Src/stm32l4xx_hal_opamp.c ****        (#) Running mode: Follower mode
  61:Drivers/STM32L4xx_HAL_Driver/Src/stm32l4xx_hal_opamp.c ****        (++) No Inverting Input is connected.
  62:Drivers/STM32L4xx_HAL_Driver/Src/stm32l4xx_hal_opamp.c ****        
  63:Drivers/STM32L4xx_HAL_Driver/Src/stm32l4xx_hal_opamp.c ****        (#) Running mode: Programmable Gain Amplifier (PGA) mode 
  64:Drivers/STM32L4xx_HAL_Driver/Src/stm32l4xx_hal_opamp.c ****            (Resistor feedback output)
  65:Drivers/STM32L4xx_HAL_Driver/Src/stm32l4xx_hal_opamp.c ****        (++) The OPAMP(s) output(s) can be internally connected to resistor feedback
  66:Drivers/STM32L4xx_HAL_Driver/Src/stm32l4xx_hal_opamp.c ****            output.
  67:Drivers/STM32L4xx_HAL_Driver/Src/stm32l4xx_hal_opamp.c ****        (++) OPAMP gain is either 2, 4, 8 or 16.
  68:Drivers/STM32L4xx_HAL_Driver/Src/stm32l4xx_hal_opamp.c ****         
  69:Drivers/STM32L4xx_HAL_Driver/Src/stm32l4xx_hal_opamp.c ****        (#) The OPAMPs inverting input can be selected according to the Reference Manual 
  70:Drivers/STM32L4xx_HAL_Driver/Src/stm32l4xx_hal_opamp.c ****            "OPAMP function description" chapter.
  71:Drivers/STM32L4xx_HAL_Driver/Src/stm32l4xx_hal_opamp.c ****        
  72:Drivers/STM32L4xx_HAL_Driver/Src/stm32l4xx_hal_opamp.c ****        (#) The OPAMPs non inverting input can be selected according to the Reference Manual 
  73:Drivers/STM32L4xx_HAL_Driver/Src/stm32l4xx_hal_opamp.c ****            "OPAMP function description" chapter.
  74:Drivers/STM32L4xx_HAL_Driver/Src/stm32l4xx_hal_opamp.c ****        
  75:Drivers/STM32L4xx_HAL_Driver/Src/stm32l4xx_hal_opamp.c ****       
  76:Drivers/STM32L4xx_HAL_Driver/Src/stm32l4xx_hal_opamp.c ****             ##### How to use this driver #####
  77:Drivers/STM32L4xx_HAL_Driver/Src/stm32l4xx_hal_opamp.c **** ================================================================================
  78:Drivers/STM32L4xx_HAL_Driver/Src/stm32l4xx_hal_opamp.c ****   [..] 
  79:Drivers/STM32L4xx_HAL_Driver/Src/stm32l4xx_hal_opamp.c **** 
  80:Drivers/STM32L4xx_HAL_Driver/Src/stm32l4xx_hal_opamp.c ****     *** Power supply range ***
  81:Drivers/STM32L4xx_HAL_Driver/Src/stm32l4xx_hal_opamp.c ****     ============================================
  82:Drivers/STM32L4xx_HAL_Driver/Src/stm32l4xx_hal_opamp.c ****     [..] To run in low power mode:
  83:Drivers/STM32L4xx_HAL_Driver/Src/stm32l4xx_hal_opamp.c **** 
  84:Drivers/STM32L4xx_HAL_Driver/Src/stm32l4xx_hal_opamp.c ****       (#) Configure the OPAMP using HAL_OPAMP_Init() function:
  85:Drivers/STM32L4xx_HAL_Driver/Src/stm32l4xx_hal_opamp.c ****       (++) Select OPAMP_POWERSUPPLY_LOW (VDDA lower than 2.4V)
  86:Drivers/STM32L4xx_HAL_Driver/Src/stm32l4xx_hal_opamp.c ****       (++) Otherwise select OPAMP_POWERSUPPLY_HIGH (VDDA higher than 2.4V)
ARM GAS  /tmp/cc1FqXos.s 			page 3


  87:Drivers/STM32L4xx_HAL_Driver/Src/stm32l4xx_hal_opamp.c **** 
  88:Drivers/STM32L4xx_HAL_Driver/Src/stm32l4xx_hal_opamp.c ****     *** Low / normal power mode ***
  89:Drivers/STM32L4xx_HAL_Driver/Src/stm32l4xx_hal_opamp.c ****     ============================================
  90:Drivers/STM32L4xx_HAL_Driver/Src/stm32l4xx_hal_opamp.c ****     [..] To run in low power mode:
  91:Drivers/STM32L4xx_HAL_Driver/Src/stm32l4xx_hal_opamp.c **** 
  92:Drivers/STM32L4xx_HAL_Driver/Src/stm32l4xx_hal_opamp.c ****       (#) Configure the OPAMP using HAL_OPAMP_Init() function:
  93:Drivers/STM32L4xx_HAL_Driver/Src/stm32l4xx_hal_opamp.c ****       (++) Select OPAMP_POWERMODE_LOWPOWER
  94:Drivers/STM32L4xx_HAL_Driver/Src/stm32l4xx_hal_opamp.c ****       (++) Otherwise select OPAMP_POWERMODE_NORMAL
  95:Drivers/STM32L4xx_HAL_Driver/Src/stm32l4xx_hal_opamp.c **** 
  96:Drivers/STM32L4xx_HAL_Driver/Src/stm32l4xx_hal_opamp.c ****     *** Calibration ***
  97:Drivers/STM32L4xx_HAL_Driver/Src/stm32l4xx_hal_opamp.c ****     ============================================
  98:Drivers/STM32L4xx_HAL_Driver/Src/stm32l4xx_hal_opamp.c ****     [..] To run the OPAMP calibration self calibration:
  99:Drivers/STM32L4xx_HAL_Driver/Src/stm32l4xx_hal_opamp.c **** 
 100:Drivers/STM32L4xx_HAL_Driver/Src/stm32l4xx_hal_opamp.c ****       (#) Start calibration using HAL_OPAMP_SelfCalibrate. 
 101:Drivers/STM32L4xx_HAL_Driver/Src/stm32l4xx_hal_opamp.c ****            Store the calibration results.
 102:Drivers/STM32L4xx_HAL_Driver/Src/stm32l4xx_hal_opamp.c **** 
 103:Drivers/STM32L4xx_HAL_Driver/Src/stm32l4xx_hal_opamp.c ****     *** Running mode ***
 104:Drivers/STM32L4xx_HAL_Driver/Src/stm32l4xx_hal_opamp.c ****     ============================================
 105:Drivers/STM32L4xx_HAL_Driver/Src/stm32l4xx_hal_opamp.c ****       
 106:Drivers/STM32L4xx_HAL_Driver/Src/stm32l4xx_hal_opamp.c ****     [..] To use the OPAMP, perform the following steps:
 107:Drivers/STM32L4xx_HAL_Driver/Src/stm32l4xx_hal_opamp.c ****             
 108:Drivers/STM32L4xx_HAL_Driver/Src/stm32l4xx_hal_opamp.c ****       (#) Fill in the HAL_OPAMP_MspInit() to
 109:Drivers/STM32L4xx_HAL_Driver/Src/stm32l4xx_hal_opamp.c ****       (++) Enable the OPAMP Peripheral clock using macro __HAL_RCC_OPAMP_CLK_ENABLE()
 110:Drivers/STM32L4xx_HAL_Driver/Src/stm32l4xx_hal_opamp.c ****       (++) Configure the OPAMP input AND output in analog mode using 
 111:Drivers/STM32L4xx_HAL_Driver/Src/stm32l4xx_hal_opamp.c ****            HAL_GPIO_Init() to map the OPAMP output to the GPIO pin.
 112:Drivers/STM32L4xx_HAL_Driver/Src/stm32l4xx_hal_opamp.c ****   
 113:Drivers/STM32L4xx_HAL_Driver/Src/stm32l4xx_hal_opamp.c ****       (#) Registrate Callbacks
 114:Drivers/STM32L4xx_HAL_Driver/Src/stm32l4xx_hal_opamp.c ****       (++) The compilation define  USE_HAL_OPAMP_REGISTER_CALLBACKS when set to 1
 115:Drivers/STM32L4xx_HAL_Driver/Src/stm32l4xx_hal_opamp.c ****            allows the user to configure dynamically the driver callbacks.
 116:Drivers/STM32L4xx_HAL_Driver/Src/stm32l4xx_hal_opamp.c **** 
 117:Drivers/STM32L4xx_HAL_Driver/Src/stm32l4xx_hal_opamp.c ****       (++) Use Functions @ref HAL_OPAMP_RegisterCallback() to register a user callback,
 118:Drivers/STM32L4xx_HAL_Driver/Src/stm32l4xx_hal_opamp.c ****            it allows to register following callbacks:
 119:Drivers/STM32L4xx_HAL_Driver/Src/stm32l4xx_hal_opamp.c ****       (+++) MspInitCallback         : OPAMP MspInit.  
 120:Drivers/STM32L4xx_HAL_Driver/Src/stm32l4xx_hal_opamp.c ****       (+++) MspDeInitCallback       : OPAMP MspFeInit.
 121:Drivers/STM32L4xx_HAL_Driver/Src/stm32l4xx_hal_opamp.c ****            This function takes as parameters the HAL peripheral handle, the Callback ID
 122:Drivers/STM32L4xx_HAL_Driver/Src/stm32l4xx_hal_opamp.c ****            and a pointer to the user callback function.
 123:Drivers/STM32L4xx_HAL_Driver/Src/stm32l4xx_hal_opamp.c **** 
 124:Drivers/STM32L4xx_HAL_Driver/Src/stm32l4xx_hal_opamp.c ****       (++) Use function @ref HAL_OPAMP_UnRegisterCallback() to reset a callback to the default
 125:Drivers/STM32L4xx_HAL_Driver/Src/stm32l4xx_hal_opamp.c ****            weak (surcharged) function. It allows to reset following callbacks:
 126:Drivers/STM32L4xx_HAL_Driver/Src/stm32l4xx_hal_opamp.c ****       (+++) MspInitCallback         : OPAMP MspInit.  
 127:Drivers/STM32L4xx_HAL_Driver/Src/stm32l4xx_hal_opamp.c ****       (+++) MspDeInitCallback       : OPAMP MspdeInit.
 128:Drivers/STM32L4xx_HAL_Driver/Src/stm32l4xx_hal_opamp.c ****       (+++) All Callbacks
 129:Drivers/STM32L4xx_HAL_Driver/Src/stm32l4xx_hal_opamp.c **** 
 130:Drivers/STM32L4xx_HAL_Driver/Src/stm32l4xx_hal_opamp.c ****       (#) Configure the OPAMP using HAL_OPAMP_Init() function:
 131:Drivers/STM32L4xx_HAL_Driver/Src/stm32l4xx_hal_opamp.c ****       (++) Select the mode
 132:Drivers/STM32L4xx_HAL_Driver/Src/stm32l4xx_hal_opamp.c ****       (++) Select the inverting input
 133:Drivers/STM32L4xx_HAL_Driver/Src/stm32l4xx_hal_opamp.c ****       (++) Select the non-inverting input 
 134:Drivers/STM32L4xx_HAL_Driver/Src/stm32l4xx_hal_opamp.c ****       (++) If PGA mode is enabled, Select if inverting input is connected.
 135:Drivers/STM32L4xx_HAL_Driver/Src/stm32l4xx_hal_opamp.c ****       (++) Select either factory or user defined trimming mode.
 136:Drivers/STM32L4xx_HAL_Driver/Src/stm32l4xx_hal_opamp.c ****       (++) If the user-defined trimming mode is enabled, select PMOS & NMOS trimming values
 137:Drivers/STM32L4xx_HAL_Driver/Src/stm32l4xx_hal_opamp.c ****           (typically values set by HAL_OPAMP_SelfCalibrate function).
 138:Drivers/STM32L4xx_HAL_Driver/Src/stm32l4xx_hal_opamp.c ****       
 139:Drivers/STM32L4xx_HAL_Driver/Src/stm32l4xx_hal_opamp.c ****       (#) Enable the OPAMP using HAL_OPAMP_Start() function.
 140:Drivers/STM32L4xx_HAL_Driver/Src/stm32l4xx_hal_opamp.c ****            
 141:Drivers/STM32L4xx_HAL_Driver/Src/stm32l4xx_hal_opamp.c ****       (#) Disable the OPAMP using HAL_OPAMP_Stop() function.
 142:Drivers/STM32L4xx_HAL_Driver/Src/stm32l4xx_hal_opamp.c ****       
 143:Drivers/STM32L4xx_HAL_Driver/Src/stm32l4xx_hal_opamp.c ****       (#) Lock the OPAMP in running mode using HAL_OPAMP_Lock() function.
ARM GAS  /tmp/cc1FqXos.s 			page 4


 144:Drivers/STM32L4xx_HAL_Driver/Src/stm32l4xx_hal_opamp.c ****           Caution: On STM32L4, HAL OPAMP lock is software lock only (not 
 145:Drivers/STM32L4xx_HAL_Driver/Src/stm32l4xx_hal_opamp.c ****           hardware lock as on some other STM32 devices)
 146:Drivers/STM32L4xx_HAL_Driver/Src/stm32l4xx_hal_opamp.c **** 
 147:Drivers/STM32L4xx_HAL_Driver/Src/stm32l4xx_hal_opamp.c ****       (#) If needed, unlock the OPAMP using HAL_OPAMPEx_Unlock() function.
 148:Drivers/STM32L4xx_HAL_Driver/Src/stm32l4xx_hal_opamp.c **** 
 149:Drivers/STM32L4xx_HAL_Driver/Src/stm32l4xx_hal_opamp.c ****     *** Running mode: change of configuration while OPAMP ON  ***
 150:Drivers/STM32L4xx_HAL_Driver/Src/stm32l4xx_hal_opamp.c ****     ============================================
 151:Drivers/STM32L4xx_HAL_Driver/Src/stm32l4xx_hal_opamp.c ****     [..] To Re-configure OPAMP when OPAMP is ON (change on the fly)
 152:Drivers/STM32L4xx_HAL_Driver/Src/stm32l4xx_hal_opamp.c ****       (#) If needed, fill in the HAL_OPAMP_MspInit()
 153:Drivers/STM32L4xx_HAL_Driver/Src/stm32l4xx_hal_opamp.c ****       (++) This is the case for instance if you wish to use new OPAMP I/O
 154:Drivers/STM32L4xx_HAL_Driver/Src/stm32l4xx_hal_opamp.c **** 
 155:Drivers/STM32L4xx_HAL_Driver/Src/stm32l4xx_hal_opamp.c ****       (#) Configure the OPAMP using HAL_OPAMP_Init() function:
 156:Drivers/STM32L4xx_HAL_Driver/Src/stm32l4xx_hal_opamp.c ****       (++) As in configure case, select first the parameters you wish to modify.
 157:Drivers/STM32L4xx_HAL_Driver/Src/stm32l4xx_hal_opamp.c ****       
 158:Drivers/STM32L4xx_HAL_Driver/Src/stm32l4xx_hal_opamp.c ****       (#) Change from low power mode to normal power mode (& vice versa) requires  
 159:Drivers/STM32L4xx_HAL_Driver/Src/stm32l4xx_hal_opamp.c ****           first HAL_OPAMP_DeInit() (force OPAMP OFF) and then HAL_OPAMP_Init(). 
 160:Drivers/STM32L4xx_HAL_Driver/Src/stm32l4xx_hal_opamp.c ****           In other words, of OPAMP is ON, HAL_OPAMP_Init can NOT change power mode
 161:Drivers/STM32L4xx_HAL_Driver/Src/stm32l4xx_hal_opamp.c ****           alone.
 162:Drivers/STM32L4xx_HAL_Driver/Src/stm32l4xx_hal_opamp.c **** 
 163:Drivers/STM32L4xx_HAL_Driver/Src/stm32l4xx_hal_opamp.c ****   @endverbatim
 164:Drivers/STM32L4xx_HAL_Driver/Src/stm32l4xx_hal_opamp.c ****   ******************************************************************************
 165:Drivers/STM32L4xx_HAL_Driver/Src/stm32l4xx_hal_opamp.c **** 
 166:Drivers/STM32L4xx_HAL_Driver/Src/stm32l4xx_hal_opamp.c ****       Table 1.  OPAMPs inverting/non-inverting inputs for the STM32L4 devices:
 167:Drivers/STM32L4xx_HAL_Driver/Src/stm32l4xx_hal_opamp.c ****       +------------------------------------------------------------------------|     
 168:Drivers/STM32L4xx_HAL_Driver/Src/stm32l4xx_hal_opamp.c ****       |                 |         | OPAMP1               | OPAMP2              |
 169:Drivers/STM32L4xx_HAL_Driver/Src/stm32l4xx_hal_opamp.c ****       |-----------------|---------|----------------------|---------------------|
 170:Drivers/STM32L4xx_HAL_Driver/Src/stm32l4xx_hal_opamp.c ****       | Inverting Input | VM_SEL  |                      |                     |
 171:Drivers/STM32L4xx_HAL_Driver/Src/stm32l4xx_hal_opamp.c ****       |                 |         |  IO0-> PA1           | IO0-> PA7           |
 172:Drivers/STM32L4xx_HAL_Driver/Src/stm32l4xx_hal_opamp.c ****       |                 |         |  LOW LEAKAGE IO (2)  | LOW LEAKAGE IO (2)  |
 173:Drivers/STM32L4xx_HAL_Driver/Src/stm32l4xx_hal_opamp.c ****       |                 |         |  Not connected       | Not connected       |
 174:Drivers/STM32L4xx_HAL_Driver/Src/stm32l4xx_hal_opamp.c ****       | (1)             |         |    PGA mode only     |   PGA mode only     |
 175:Drivers/STM32L4xx_HAL_Driver/Src/stm32l4xx_hal_opamp.c ****       |-----------------|---------|----------------------|---------------------|
 176:Drivers/STM32L4xx_HAL_Driver/Src/stm32l4xx_hal_opamp.c ****       |  Non Inverting  | VP_SEL  |                      |                     |
 177:Drivers/STM32L4xx_HAL_Driver/Src/stm32l4xx_hal_opamp.c ****       |                 |         |  IO0-> PA0 (GPIO)    | IO0-> PA6  (GPIO)   |
 178:Drivers/STM32L4xx_HAL_Driver/Src/stm32l4xx_hal_opamp.c ****       |    Input        |         |  DAC1_OUT1 internal  | DAC1_OUT2 internal  |
 179:Drivers/STM32L4xx_HAL_Driver/Src/stm32l4xx_hal_opamp.c ****       +------------------------------------------------------------------------|
 180:Drivers/STM32L4xx_HAL_Driver/Src/stm32l4xx_hal_opamp.c ****        (1): NA in follower mode.
 181:Drivers/STM32L4xx_HAL_Driver/Src/stm32l4xx_hal_opamp.c ****        (2): Available on some package only (ex. BGA132).
 182:Drivers/STM32L4xx_HAL_Driver/Src/stm32l4xx_hal_opamp.c ****            
 183:Drivers/STM32L4xx_HAL_Driver/Src/stm32l4xx_hal_opamp.c ****            
 184:Drivers/STM32L4xx_HAL_Driver/Src/stm32l4xx_hal_opamp.c ****       Table 2.  OPAMPs outputs for the STM32L4 devices:
 185:Drivers/STM32L4xx_HAL_Driver/Src/stm32l4xx_hal_opamp.c **** 
 186:Drivers/STM32L4xx_HAL_Driver/Src/stm32l4xx_hal_opamp.c ****       +-------------------------------------------------------------------------     
 187:Drivers/STM32L4xx_HAL_Driver/Src/stm32l4xx_hal_opamp.c ****       |                 |        | OPAMP1                | OPAMP2              |
 188:Drivers/STM32L4xx_HAL_Driver/Src/stm32l4xx_hal_opamp.c ****       |-----------------|--------|-----------------------|---------------------|
 189:Drivers/STM32L4xx_HAL_Driver/Src/stm32l4xx_hal_opamp.c ****       | Output          |  VOUT  |  PA3                  |  PB0                |
 190:Drivers/STM32L4xx_HAL_Driver/Src/stm32l4xx_hal_opamp.c ****       |                 |        |  & (1) ADC12_IN if    | & (1) ADC12_IN if   |
 191:Drivers/STM32L4xx_HAL_Driver/Src/stm32l4xx_hal_opamp.c ****       |                 |        |  connected internally | connected internally|
 192:Drivers/STM32L4xx_HAL_Driver/Src/stm32l4xx_hal_opamp.c ****       |-----------------|--------|-----------------------|---------------------|
 193:Drivers/STM32L4xx_HAL_Driver/Src/stm32l4xx_hal_opamp.c ****        (1): ADC1 or ADC2 shall select IN15.
 194:Drivers/STM32L4xx_HAL_Driver/Src/stm32l4xx_hal_opamp.c **** 
 195:Drivers/STM32L4xx_HAL_Driver/Src/stm32l4xx_hal_opamp.c ****   ******************************************************************************
 196:Drivers/STM32L4xx_HAL_Driver/Src/stm32l4xx_hal_opamp.c ****   * @attention
 197:Drivers/STM32L4xx_HAL_Driver/Src/stm32l4xx_hal_opamp.c ****   *
 198:Drivers/STM32L4xx_HAL_Driver/Src/stm32l4xx_hal_opamp.c ****   * <h2><center>&copy; COPYRIGHT(c) 2017 STMicroelectronics</center></h2>
 199:Drivers/STM32L4xx_HAL_Driver/Src/stm32l4xx_hal_opamp.c ****   *
 200:Drivers/STM32L4xx_HAL_Driver/Src/stm32l4xx_hal_opamp.c ****   * Redistribution and use in source and binary forms, with or without modification,
ARM GAS  /tmp/cc1FqXos.s 			page 5


 201:Drivers/STM32L4xx_HAL_Driver/Src/stm32l4xx_hal_opamp.c ****   * are permitted provided that the following conditions are met:
 202:Drivers/STM32L4xx_HAL_Driver/Src/stm32l4xx_hal_opamp.c ****   *   1. Redistributions of source code must retain the above copyright notice,
 203:Drivers/STM32L4xx_HAL_Driver/Src/stm32l4xx_hal_opamp.c ****   *      this list of conditions and the following disclaimer.
 204:Drivers/STM32L4xx_HAL_Driver/Src/stm32l4xx_hal_opamp.c ****   *   2. Redistributions in binary form must reproduce the above copyright notice,
 205:Drivers/STM32L4xx_HAL_Driver/Src/stm32l4xx_hal_opamp.c ****   *      this list of conditions and the following disclaimer in the documentation
 206:Drivers/STM32L4xx_HAL_Driver/Src/stm32l4xx_hal_opamp.c ****   *      and/or other materials provided with the distribution.
 207:Drivers/STM32L4xx_HAL_Driver/Src/stm32l4xx_hal_opamp.c ****   *   3. Neither the name of STMicroelectronics nor the names of its contributors
 208:Drivers/STM32L4xx_HAL_Driver/Src/stm32l4xx_hal_opamp.c ****   *      may be used to endorse or promote products derived from this software
 209:Drivers/STM32L4xx_HAL_Driver/Src/stm32l4xx_hal_opamp.c ****   *      without specific prior written permission.
 210:Drivers/STM32L4xx_HAL_Driver/Src/stm32l4xx_hal_opamp.c ****   *
 211:Drivers/STM32L4xx_HAL_Driver/Src/stm32l4xx_hal_opamp.c ****   * THIS SOFTWARE IS PROVIDED BY THE COPYRIGHT HOLDERS AND CONTRIBUTORS "AS IS"
 212:Drivers/STM32L4xx_HAL_Driver/Src/stm32l4xx_hal_opamp.c ****   * AND ANY EXPRESS OR IMPLIED WARRANTIES, INCLUDING, BUT NOT LIMITED TO, THE
 213:Drivers/STM32L4xx_HAL_Driver/Src/stm32l4xx_hal_opamp.c ****   * IMPLIED WARRANTIES OF MERCHANTABILITY AND FITNESS FOR A PARTICULAR PURPOSE ARE
 214:Drivers/STM32L4xx_HAL_Driver/Src/stm32l4xx_hal_opamp.c ****   * DISCLAIMED. IN NO EVENT SHALL THE COPYRIGHT HOLDER OR CONTRIBUTORS BE LIABLE
 215:Drivers/STM32L4xx_HAL_Driver/Src/stm32l4xx_hal_opamp.c ****   * FOR ANY DIRECT, INDIRECT, INCIDENTAL, SPECIAL, EXEMPLARY, OR CONSEQUENTIAL
 216:Drivers/STM32L4xx_HAL_Driver/Src/stm32l4xx_hal_opamp.c ****   * DAMAGES (INCLUDING, BUT NOT LIMITED TO, PROCUREMENT OF SUBSTITUTE GOODS OR
 217:Drivers/STM32L4xx_HAL_Driver/Src/stm32l4xx_hal_opamp.c ****   * SERVICES; LOSS OF USE, DATA, OR PROFITS; OR BUSINESS INTERRUPTION) HOWEVER
 218:Drivers/STM32L4xx_HAL_Driver/Src/stm32l4xx_hal_opamp.c ****   * CAUSED AND ON ANY THEORY OF LIABILITY, WHETHER IN CONTRACT, STRICT LIABILITY,
 219:Drivers/STM32L4xx_HAL_Driver/Src/stm32l4xx_hal_opamp.c ****   * OR TORT (INCLUDING NEGLIGENCE OR OTHERWISE) ARISING IN ANY WAY OUT OF THE USE
 220:Drivers/STM32L4xx_HAL_Driver/Src/stm32l4xx_hal_opamp.c ****   * OF THIS SOFTWARE, EVEN IF ADVISED OF THE POSSIBILITY OF SUCH DAMAGE.
 221:Drivers/STM32L4xx_HAL_Driver/Src/stm32l4xx_hal_opamp.c ****   *
 222:Drivers/STM32L4xx_HAL_Driver/Src/stm32l4xx_hal_opamp.c ****   ******************************************************************************  
 223:Drivers/STM32L4xx_HAL_Driver/Src/stm32l4xx_hal_opamp.c ****   */
 224:Drivers/STM32L4xx_HAL_Driver/Src/stm32l4xx_hal_opamp.c **** 
 225:Drivers/STM32L4xx_HAL_Driver/Src/stm32l4xx_hal_opamp.c **** /* Includes ------------------------------------------------------------------*/
 226:Drivers/STM32L4xx_HAL_Driver/Src/stm32l4xx_hal_opamp.c **** #include "stm32l4xx_hal.h"
 227:Drivers/STM32L4xx_HAL_Driver/Src/stm32l4xx_hal_opamp.c ****     
 228:Drivers/STM32L4xx_HAL_Driver/Src/stm32l4xx_hal_opamp.c **** /** @addtogroup STM32L4xx_HAL_Driver
 229:Drivers/STM32L4xx_HAL_Driver/Src/stm32l4xx_hal_opamp.c ****   * @{
 230:Drivers/STM32L4xx_HAL_Driver/Src/stm32l4xx_hal_opamp.c ****   */
 231:Drivers/STM32L4xx_HAL_Driver/Src/stm32l4xx_hal_opamp.c **** 
 232:Drivers/STM32L4xx_HAL_Driver/Src/stm32l4xx_hal_opamp.c **** /** @defgroup OPAMP OPAMP
 233:Drivers/STM32L4xx_HAL_Driver/Src/stm32l4xx_hal_opamp.c ****   * @brief OPAMP module driver
 234:Drivers/STM32L4xx_HAL_Driver/Src/stm32l4xx_hal_opamp.c ****   * @{
 235:Drivers/STM32L4xx_HAL_Driver/Src/stm32l4xx_hal_opamp.c ****   */
 236:Drivers/STM32L4xx_HAL_Driver/Src/stm32l4xx_hal_opamp.c **** 
 237:Drivers/STM32L4xx_HAL_Driver/Src/stm32l4xx_hal_opamp.c **** #ifdef HAL_OPAMP_MODULE_ENABLED
 238:Drivers/STM32L4xx_HAL_Driver/Src/stm32l4xx_hal_opamp.c **** 
 239:Drivers/STM32L4xx_HAL_Driver/Src/stm32l4xx_hal_opamp.c **** /* Private types -------------------------------------------------------------*/
 240:Drivers/STM32L4xx_HAL_Driver/Src/stm32l4xx_hal_opamp.c **** /* Private variables ---------------------------------------------------------*/
 241:Drivers/STM32L4xx_HAL_Driver/Src/stm32l4xx_hal_opamp.c **** /* Private constants ---------------------------------------------------------*/
 242:Drivers/STM32L4xx_HAL_Driver/Src/stm32l4xx_hal_opamp.c **** /** @addtogroup OPAMP_Private_Constants
 243:Drivers/STM32L4xx_HAL_Driver/Src/stm32l4xx_hal_opamp.c ****   * @{
 244:Drivers/STM32L4xx_HAL_Driver/Src/stm32l4xx_hal_opamp.c ****   */
 245:Drivers/STM32L4xx_HAL_Driver/Src/stm32l4xx_hal_opamp.c **** 
 246:Drivers/STM32L4xx_HAL_Driver/Src/stm32l4xx_hal_opamp.c **** /* CSR register reset value */ 
 247:Drivers/STM32L4xx_HAL_Driver/Src/stm32l4xx_hal_opamp.c **** #define OPAMP_CSR_RESET_VALUE             ((uint32_t)0x00000000)
 248:Drivers/STM32L4xx_HAL_Driver/Src/stm32l4xx_hal_opamp.c **** 
 249:Drivers/STM32L4xx_HAL_Driver/Src/stm32l4xx_hal_opamp.c **** #define OPAMP_CSR_RESET_BITS    (OPAMP_CSR_OPAMPxEN | OPAMP_CSR_OPALPM | OPAMP_CSR_OPAMODE \
 250:Drivers/STM32L4xx_HAL_Driver/Src/stm32l4xx_hal_opamp.c ****                                | OPAMP_CSR_PGGAIN | OPAMP_CSR_VMSEL | OPAMP_CSR_VPSEL \
 251:Drivers/STM32L4xx_HAL_Driver/Src/stm32l4xx_hal_opamp.c ****                                | OPAMP_CSR_CALON | OPAMP_CSR_USERTRIM)
 252:Drivers/STM32L4xx_HAL_Driver/Src/stm32l4xx_hal_opamp.c **** 
 253:Drivers/STM32L4xx_HAL_Driver/Src/stm32l4xx_hal_opamp.c **** /* CSR Init masks */
 254:Drivers/STM32L4xx_HAL_Driver/Src/stm32l4xx_hal_opamp.c **** #define OPAMP_CSR_INIT_MASK_PGA (OPAMP_CSR_OPALPM | OPAMP_CSR_OPAMODE| OPAMP_CSR_PGGAIN \
 255:Drivers/STM32L4xx_HAL_Driver/Src/stm32l4xx_hal_opamp.c ****                                | OPAMP_CSR_VMSEL | OPAMP_CSR_VPSEL | OPAMP_CSR_USERTRIM)
 256:Drivers/STM32L4xx_HAL_Driver/Src/stm32l4xx_hal_opamp.c **** 
 257:Drivers/STM32L4xx_HAL_Driver/Src/stm32l4xx_hal_opamp.c **** #define OPAMP_CSR_INIT_MASK_FOLLOWER (OPAMP_CSR_OPALPM | OPAMP_CSR_OPAMODE| OPAMP_CSR_VPSEL \
ARM GAS  /tmp/cc1FqXos.s 			page 6


 258:Drivers/STM32L4xx_HAL_Driver/Src/stm32l4xx_hal_opamp.c ****                                     | OPAMP_CSR_USERTRIM)
 259:Drivers/STM32L4xx_HAL_Driver/Src/stm32l4xx_hal_opamp.c **** 
 260:Drivers/STM32L4xx_HAL_Driver/Src/stm32l4xx_hal_opamp.c **** #define OPAMP_CSR_INIT_MASK_STANDALONE (OPAMP_CSR_OPALPM | OPAMP_CSR_OPAMODE| OPAMP_CSR_VPSEL \
 261:Drivers/STM32L4xx_HAL_Driver/Src/stm32l4xx_hal_opamp.c ****                                       | OPAMP_CSR_VMSEL | OPAMP_CSR_USERTRIM)
 262:Drivers/STM32L4xx_HAL_Driver/Src/stm32l4xx_hal_opamp.c **** 
 263:Drivers/STM32L4xx_HAL_Driver/Src/stm32l4xx_hal_opamp.c **** 
 264:Drivers/STM32L4xx_HAL_Driver/Src/stm32l4xx_hal_opamp.c **** /**
 265:Drivers/STM32L4xx_HAL_Driver/Src/stm32l4xx_hal_opamp.c ****   * @}
 266:Drivers/STM32L4xx_HAL_Driver/Src/stm32l4xx_hal_opamp.c ****   */ 
 267:Drivers/STM32L4xx_HAL_Driver/Src/stm32l4xx_hal_opamp.c **** 
 268:Drivers/STM32L4xx_HAL_Driver/Src/stm32l4xx_hal_opamp.c **** /* Private macros ------------------------------------------------------------*/
 269:Drivers/STM32L4xx_HAL_Driver/Src/stm32l4xx_hal_opamp.c **** /* Private functions ---------------------------------------------------------*/
 270:Drivers/STM32L4xx_HAL_Driver/Src/stm32l4xx_hal_opamp.c **** /* Exported functions --------------------------------------------------------*/
 271:Drivers/STM32L4xx_HAL_Driver/Src/stm32l4xx_hal_opamp.c **** 
 272:Drivers/STM32L4xx_HAL_Driver/Src/stm32l4xx_hal_opamp.c **** /** @defgroup OPAMP_Exported_Functions OPAMP Exported Functions
 273:Drivers/STM32L4xx_HAL_Driver/Src/stm32l4xx_hal_opamp.c ****   * @{
 274:Drivers/STM32L4xx_HAL_Driver/Src/stm32l4xx_hal_opamp.c ****   */
 275:Drivers/STM32L4xx_HAL_Driver/Src/stm32l4xx_hal_opamp.c **** 
 276:Drivers/STM32L4xx_HAL_Driver/Src/stm32l4xx_hal_opamp.c **** /** @defgroup OPAMP_Exported_Functions_Group1 Initialization and de-initialization functions 
 277:Drivers/STM32L4xx_HAL_Driver/Src/stm32l4xx_hal_opamp.c ****  *  @brief    Initialization and Configuration functions 
 278:Drivers/STM32L4xx_HAL_Driver/Src/stm32l4xx_hal_opamp.c ****  *
 279:Drivers/STM32L4xx_HAL_Driver/Src/stm32l4xx_hal_opamp.c **** @verbatim    
 280:Drivers/STM32L4xx_HAL_Driver/Src/stm32l4xx_hal_opamp.c ****   ==============================================================================
 281:Drivers/STM32L4xx_HAL_Driver/Src/stm32l4xx_hal_opamp.c ****               ##### Initialization and de-initialization functions #####
 282:Drivers/STM32L4xx_HAL_Driver/Src/stm32l4xx_hal_opamp.c ****   ==============================================================================
 283:Drivers/STM32L4xx_HAL_Driver/Src/stm32l4xx_hal_opamp.c ****  
 284:Drivers/STM32L4xx_HAL_Driver/Src/stm32l4xx_hal_opamp.c **** @endverbatim
 285:Drivers/STM32L4xx_HAL_Driver/Src/stm32l4xx_hal_opamp.c ****   * @{
 286:Drivers/STM32L4xx_HAL_Driver/Src/stm32l4xx_hal_opamp.c ****   */
 287:Drivers/STM32L4xx_HAL_Driver/Src/stm32l4xx_hal_opamp.c **** 
 288:Drivers/STM32L4xx_HAL_Driver/Src/stm32l4xx_hal_opamp.c **** /**
 289:Drivers/STM32L4xx_HAL_Driver/Src/stm32l4xx_hal_opamp.c ****   * @brief  Initializes the OPAMP according to the specified
 290:Drivers/STM32L4xx_HAL_Driver/Src/stm32l4xx_hal_opamp.c ****   *         parameters in the OPAMP_InitTypeDef and initialize the associated handle.
 291:Drivers/STM32L4xx_HAL_Driver/Src/stm32l4xx_hal_opamp.c ****   * @note   If the selected opamp is locked, initialization can't be performed.
 292:Drivers/STM32L4xx_HAL_Driver/Src/stm32l4xx_hal_opamp.c ****   *         To unlock the configuration, perform a system reset.
 293:Drivers/STM32L4xx_HAL_Driver/Src/stm32l4xx_hal_opamp.c ****   * @param  hopamp: OPAMP handle
 294:Drivers/STM32L4xx_HAL_Driver/Src/stm32l4xx_hal_opamp.c ****   * @retval HAL status
 295:Drivers/STM32L4xx_HAL_Driver/Src/stm32l4xx_hal_opamp.c ****   */
 296:Drivers/STM32L4xx_HAL_Driver/Src/stm32l4xx_hal_opamp.c **** HAL_StatusTypeDef HAL_OPAMP_Init(OPAMP_HandleTypeDef *hopamp)
 297:Drivers/STM32L4xx_HAL_Driver/Src/stm32l4xx_hal_opamp.c **** { 
 298:Drivers/STM32L4xx_HAL_Driver/Src/stm32l4xx_hal_opamp.c ****   HAL_StatusTypeDef status = HAL_OK;
 299:Drivers/STM32L4xx_HAL_Driver/Src/stm32l4xx_hal_opamp.c ****   uint32_t updateotrlpotr = 0;
 300:Drivers/STM32L4xx_HAL_Driver/Src/stm32l4xx_hal_opamp.c **** 
 301:Drivers/STM32L4xx_HAL_Driver/Src/stm32l4xx_hal_opamp.c ****   /* Check the OPAMP handle allocation and lock status */
 302:Drivers/STM32L4xx_HAL_Driver/Src/stm32l4xx_hal_opamp.c ****   /* Init not allowed if calibration is ongoing */
 303:Drivers/STM32L4xx_HAL_Driver/Src/stm32l4xx_hal_opamp.c ****   if((hopamp == NULL) || (hopamp->State == HAL_OPAMP_STATE_BUSYLOCKED)
 304:Drivers/STM32L4xx_HAL_Driver/Src/stm32l4xx_hal_opamp.c ****                       || (hopamp->State == HAL_OPAMP_STATE_CALIBBUSY))
 305:Drivers/STM32L4xx_HAL_Driver/Src/stm32l4xx_hal_opamp.c ****   {
 306:Drivers/STM32L4xx_HAL_Driver/Src/stm32l4xx_hal_opamp.c ****     return HAL_ERROR;
 307:Drivers/STM32L4xx_HAL_Driver/Src/stm32l4xx_hal_opamp.c ****   }
 308:Drivers/STM32L4xx_HAL_Driver/Src/stm32l4xx_hal_opamp.c ****   else
 309:Drivers/STM32L4xx_HAL_Driver/Src/stm32l4xx_hal_opamp.c ****   {
 310:Drivers/STM32L4xx_HAL_Driver/Src/stm32l4xx_hal_opamp.c ****     /* Check the parameter */
 311:Drivers/STM32L4xx_HAL_Driver/Src/stm32l4xx_hal_opamp.c ****     assert_param(IS_OPAMP_ALL_INSTANCE(hopamp->Instance));
 312:Drivers/STM32L4xx_HAL_Driver/Src/stm32l4xx_hal_opamp.c ****        
 313:Drivers/STM32L4xx_HAL_Driver/Src/stm32l4xx_hal_opamp.c ****     /* Set OPAMP parameters */
 314:Drivers/STM32L4xx_HAL_Driver/Src/stm32l4xx_hal_opamp.c ****     assert_param(IS_OPAMP_POWER_SUPPLY_RANGE(hopamp->Init.PowerSupplyRange));
ARM GAS  /tmp/cc1FqXos.s 			page 7


 315:Drivers/STM32L4xx_HAL_Driver/Src/stm32l4xx_hal_opamp.c ****     assert_param(IS_OPAMP_POWERMODE(hopamp->Init.PowerMode));
 316:Drivers/STM32L4xx_HAL_Driver/Src/stm32l4xx_hal_opamp.c ****     assert_param(IS_OPAMP_FUNCTIONAL_NORMALMODE(hopamp->Init.Mode));
 317:Drivers/STM32L4xx_HAL_Driver/Src/stm32l4xx_hal_opamp.c ****     assert_param(IS_OPAMP_NONINVERTING_INPUT(hopamp->Init.NonInvertingInput));
 318:Drivers/STM32L4xx_HAL_Driver/Src/stm32l4xx_hal_opamp.c ****     
 319:Drivers/STM32L4xx_HAL_Driver/Src/stm32l4xx_hal_opamp.c ****     if(hopamp->State == HAL_OPAMP_STATE_RESET)
 320:Drivers/STM32L4xx_HAL_Driver/Src/stm32l4xx_hal_opamp.c ****     {  
 321:Drivers/STM32L4xx_HAL_Driver/Src/stm32l4xx_hal_opamp.c **** #if (USE_HAL_OPAMP_REGISTER_CALLBACKS == 1)
 322:Drivers/STM32L4xx_HAL_Driver/Src/stm32l4xx_hal_opamp.c ****     if(hopamp->MspInitCallback == NULL)
 323:Drivers/STM32L4xx_HAL_Driver/Src/stm32l4xx_hal_opamp.c ****     {
 324:Drivers/STM32L4xx_HAL_Driver/Src/stm32l4xx_hal_opamp.c ****       hopamp->MspInitCallback               = HAL_OPAMP_MspInit;
 325:Drivers/STM32L4xx_HAL_Driver/Src/stm32l4xx_hal_opamp.c ****     } 
 326:Drivers/STM32L4xx_HAL_Driver/Src/stm32l4xx_hal_opamp.c **** #endif /* USE_HAL_OPAMP_REGISTER_CALLBACKS */
 327:Drivers/STM32L4xx_HAL_Driver/Src/stm32l4xx_hal_opamp.c ****     }
 328:Drivers/STM32L4xx_HAL_Driver/Src/stm32l4xx_hal_opamp.c ****     
 329:Drivers/STM32L4xx_HAL_Driver/Src/stm32l4xx_hal_opamp.c ****     if ((hopamp->Init.Mode) == OPAMP_STANDALONE_MODE)
 330:Drivers/STM32L4xx_HAL_Driver/Src/stm32l4xx_hal_opamp.c ****     {
 331:Drivers/STM32L4xx_HAL_Driver/Src/stm32l4xx_hal_opamp.c ****       assert_param(IS_OPAMP_INVERTING_INPUT_STANDALONE(hopamp->Init.InvertingInput));
 332:Drivers/STM32L4xx_HAL_Driver/Src/stm32l4xx_hal_opamp.c ****     }
 333:Drivers/STM32L4xx_HAL_Driver/Src/stm32l4xx_hal_opamp.c **** 
 334:Drivers/STM32L4xx_HAL_Driver/Src/stm32l4xx_hal_opamp.c ****     if ((hopamp->Init.Mode) == OPAMP_PGA_MODE)      
 335:Drivers/STM32L4xx_HAL_Driver/Src/stm32l4xx_hal_opamp.c ****     {
 336:Drivers/STM32L4xx_HAL_Driver/Src/stm32l4xx_hal_opamp.c ****       assert_param(IS_OPAMP_INVERTING_INPUT_PGA(hopamp->Init.InvertingInput));
 337:Drivers/STM32L4xx_HAL_Driver/Src/stm32l4xx_hal_opamp.c ****     }
 338:Drivers/STM32L4xx_HAL_Driver/Src/stm32l4xx_hal_opamp.c ****     
 339:Drivers/STM32L4xx_HAL_Driver/Src/stm32l4xx_hal_opamp.c ****     if ((hopamp->Init.Mode) == OPAMP_PGA_MODE)
 340:Drivers/STM32L4xx_HAL_Driver/Src/stm32l4xx_hal_opamp.c ****     {
 341:Drivers/STM32L4xx_HAL_Driver/Src/stm32l4xx_hal_opamp.c ****       assert_param(IS_OPAMP_PGA_GAIN(hopamp->Init.PgaGain));
 342:Drivers/STM32L4xx_HAL_Driver/Src/stm32l4xx_hal_opamp.c ****     }
 343:Drivers/STM32L4xx_HAL_Driver/Src/stm32l4xx_hal_opamp.c ****     
 344:Drivers/STM32L4xx_HAL_Driver/Src/stm32l4xx_hal_opamp.c ****     assert_param(IS_OPAMP_TRIMMING(hopamp->Init.UserTrimming)); 
 345:Drivers/STM32L4xx_HAL_Driver/Src/stm32l4xx_hal_opamp.c ****     if ((hopamp->Init.UserTrimming) == OPAMP_TRIMMING_USER)
 346:Drivers/STM32L4xx_HAL_Driver/Src/stm32l4xx_hal_opamp.c ****     {
 347:Drivers/STM32L4xx_HAL_Driver/Src/stm32l4xx_hal_opamp.c ****       if (hopamp->Init.PowerMode == OPAMP_POWERMODE_NORMAL)
 348:Drivers/STM32L4xx_HAL_Driver/Src/stm32l4xx_hal_opamp.c ****       {
 349:Drivers/STM32L4xx_HAL_Driver/Src/stm32l4xx_hal_opamp.c ****         assert_param(IS_OPAMP_TRIMMINGVALUE(hopamp->Init.TrimmingValueP));
 350:Drivers/STM32L4xx_HAL_Driver/Src/stm32l4xx_hal_opamp.c ****         assert_param(IS_OPAMP_TRIMMINGVALUE(hopamp->Init.TrimmingValueN));
 351:Drivers/STM32L4xx_HAL_Driver/Src/stm32l4xx_hal_opamp.c ****       }
 352:Drivers/STM32L4xx_HAL_Driver/Src/stm32l4xx_hal_opamp.c ****     else
 353:Drivers/STM32L4xx_HAL_Driver/Src/stm32l4xx_hal_opamp.c ****       {
 354:Drivers/STM32L4xx_HAL_Driver/Src/stm32l4xx_hal_opamp.c ****         assert_param(IS_OPAMP_TRIMMINGVALUE(hopamp->Init.TrimmingValuePLowPower));
 355:Drivers/STM32L4xx_HAL_Driver/Src/stm32l4xx_hal_opamp.c ****         assert_param(IS_OPAMP_TRIMMINGVALUE(hopamp->Init.TrimmingValueNLowPower));
 356:Drivers/STM32L4xx_HAL_Driver/Src/stm32l4xx_hal_opamp.c ****       }
 357:Drivers/STM32L4xx_HAL_Driver/Src/stm32l4xx_hal_opamp.c ****     }
 358:Drivers/STM32L4xx_HAL_Driver/Src/stm32l4xx_hal_opamp.c ****      
 359:Drivers/STM32L4xx_HAL_Driver/Src/stm32l4xx_hal_opamp.c ****     if(hopamp->State == HAL_OPAMP_STATE_RESET)
 360:Drivers/STM32L4xx_HAL_Driver/Src/stm32l4xx_hal_opamp.c ****     {
 361:Drivers/STM32L4xx_HAL_Driver/Src/stm32l4xx_hal_opamp.c ****       /* Allocate lock resource and initialize it */
 362:Drivers/STM32L4xx_HAL_Driver/Src/stm32l4xx_hal_opamp.c ****       hopamp->Lock = HAL_UNLOCKED;
 363:Drivers/STM32L4xx_HAL_Driver/Src/stm32l4xx_hal_opamp.c ****     }
 364:Drivers/STM32L4xx_HAL_Driver/Src/stm32l4xx_hal_opamp.c **** 
 365:Drivers/STM32L4xx_HAL_Driver/Src/stm32l4xx_hal_opamp.c **** #if (USE_HAL_OPAMP_REGISTER_CALLBACKS == 1)
 366:Drivers/STM32L4xx_HAL_Driver/Src/stm32l4xx_hal_opamp.c ****     hopamp->MspInitCallback(hopamp);    
 367:Drivers/STM32L4xx_HAL_Driver/Src/stm32l4xx_hal_opamp.c **** #else    
 368:Drivers/STM32L4xx_HAL_Driver/Src/stm32l4xx_hal_opamp.c ****     /* Call MSP init function */
 369:Drivers/STM32L4xx_HAL_Driver/Src/stm32l4xx_hal_opamp.c ****     HAL_OPAMP_MspInit(hopamp);
 370:Drivers/STM32L4xx_HAL_Driver/Src/stm32l4xx_hal_opamp.c **** #endif /* USE_HAL_OPAMP_REGISTER_CALLBACKS */
 371:Drivers/STM32L4xx_HAL_Driver/Src/stm32l4xx_hal_opamp.c **** 
ARM GAS  /tmp/cc1FqXos.s 			page 8


 372:Drivers/STM32L4xx_HAL_Driver/Src/stm32l4xx_hal_opamp.c ****     /* Set operating mode */
 373:Drivers/STM32L4xx_HAL_Driver/Src/stm32l4xx_hal_opamp.c ****     CLEAR_BIT(hopamp->Instance->CSR, OPAMP_CSR_CALON);
 374:Drivers/STM32L4xx_HAL_Driver/Src/stm32l4xx_hal_opamp.c ****                                               
 375:Drivers/STM32L4xx_HAL_Driver/Src/stm32l4xx_hal_opamp.c ****     if (hopamp->Init.Mode == OPAMP_PGA_MODE)
 376:Drivers/STM32L4xx_HAL_Driver/Src/stm32l4xx_hal_opamp.c ****     {
 377:Drivers/STM32L4xx_HAL_Driver/Src/stm32l4xx_hal_opamp.c ****       MODIFY_REG(hopamp->Instance->CSR, OPAMP_CSR_INIT_MASK_PGA, \
 378:Drivers/STM32L4xx_HAL_Driver/Src/stm32l4xx_hal_opamp.c ****                                         hopamp->Init.PowerMode | \
 379:Drivers/STM32L4xx_HAL_Driver/Src/stm32l4xx_hal_opamp.c ****                                         hopamp->Init.Mode | \
 380:Drivers/STM32L4xx_HAL_Driver/Src/stm32l4xx_hal_opamp.c ****                                         hopamp->Init.PgaGain | \
 381:Drivers/STM32L4xx_HAL_Driver/Src/stm32l4xx_hal_opamp.c ****                                         hopamp->Init.InvertingInput    | \
 382:Drivers/STM32L4xx_HAL_Driver/Src/stm32l4xx_hal_opamp.c ****                                         hopamp->Init.NonInvertingInput | \
 383:Drivers/STM32L4xx_HAL_Driver/Src/stm32l4xx_hal_opamp.c ****                                         hopamp->Init.UserTrimming);
 384:Drivers/STM32L4xx_HAL_Driver/Src/stm32l4xx_hal_opamp.c ****     }
 385:Drivers/STM32L4xx_HAL_Driver/Src/stm32l4xx_hal_opamp.c ****     
 386:Drivers/STM32L4xx_HAL_Driver/Src/stm32l4xx_hal_opamp.c ****     if (hopamp->Init.Mode == OPAMP_FOLLOWER_MODE)
 387:Drivers/STM32L4xx_HAL_Driver/Src/stm32l4xx_hal_opamp.c ****     {
 388:Drivers/STM32L4xx_HAL_Driver/Src/stm32l4xx_hal_opamp.c ****     /* In Follower mode InvertingInput is Not Applicable  */
 389:Drivers/STM32L4xx_HAL_Driver/Src/stm32l4xx_hal_opamp.c ****     MODIFY_REG(hopamp->Instance->CSR, OPAMP_CSR_INIT_MASK_FOLLOWER, \
 390:Drivers/STM32L4xx_HAL_Driver/Src/stm32l4xx_hal_opamp.c ****                                         hopamp->Init.PowerMode | \
 391:Drivers/STM32L4xx_HAL_Driver/Src/stm32l4xx_hal_opamp.c ****                                         hopamp->Init.Mode | \
 392:Drivers/STM32L4xx_HAL_Driver/Src/stm32l4xx_hal_opamp.c ****                                         hopamp->Init.NonInvertingInput | \
 393:Drivers/STM32L4xx_HAL_Driver/Src/stm32l4xx_hal_opamp.c ****                                         hopamp->Init.UserTrimming);     
 394:Drivers/STM32L4xx_HAL_Driver/Src/stm32l4xx_hal_opamp.c ****     }     
 395:Drivers/STM32L4xx_HAL_Driver/Src/stm32l4xx_hal_opamp.c ****     
 396:Drivers/STM32L4xx_HAL_Driver/Src/stm32l4xx_hal_opamp.c ****     if (hopamp->Init.Mode == OPAMP_STANDALONE_MODE)
 397:Drivers/STM32L4xx_HAL_Driver/Src/stm32l4xx_hal_opamp.c ****     {
 398:Drivers/STM32L4xx_HAL_Driver/Src/stm32l4xx_hal_opamp.c ****       MODIFY_REG(hopamp->Instance->CSR, OPAMP_CSR_INIT_MASK_STANDALONE, \
 399:Drivers/STM32L4xx_HAL_Driver/Src/stm32l4xx_hal_opamp.c ****                                         hopamp->Init.PowerMode | \
 400:Drivers/STM32L4xx_HAL_Driver/Src/stm32l4xx_hal_opamp.c ****                                         hopamp->Init.Mode | \
 401:Drivers/STM32L4xx_HAL_Driver/Src/stm32l4xx_hal_opamp.c ****                                         hopamp->Init.InvertingInput    | \
 402:Drivers/STM32L4xx_HAL_Driver/Src/stm32l4xx_hal_opamp.c ****                                         hopamp->Init.NonInvertingInput | \
 403:Drivers/STM32L4xx_HAL_Driver/Src/stm32l4xx_hal_opamp.c ****                                         hopamp->Init.UserTrimming);
 404:Drivers/STM32L4xx_HAL_Driver/Src/stm32l4xx_hal_opamp.c ****     } 
 405:Drivers/STM32L4xx_HAL_Driver/Src/stm32l4xx_hal_opamp.c ****     
 406:Drivers/STM32L4xx_HAL_Driver/Src/stm32l4xx_hal_opamp.c ****     if (hopamp->Init.UserTrimming == OPAMP_TRIMMING_USER)
 407:Drivers/STM32L4xx_HAL_Driver/Src/stm32l4xx_hal_opamp.c ****     {
 408:Drivers/STM32L4xx_HAL_Driver/Src/stm32l4xx_hal_opamp.c ****       /* Set power mode and associated calibration parameters */
 409:Drivers/STM32L4xx_HAL_Driver/Src/stm32l4xx_hal_opamp.c ****       if (hopamp->Init.PowerMode != OPAMP_POWERMODE_LOWPOWER)
 410:Drivers/STM32L4xx_HAL_Driver/Src/stm32l4xx_hal_opamp.c ****       {
 411:Drivers/STM32L4xx_HAL_Driver/Src/stm32l4xx_hal_opamp.c ****         /* OPAMP_POWERMODE_NORMAL */
 412:Drivers/STM32L4xx_HAL_Driver/Src/stm32l4xx_hal_opamp.c ****         /* Set calibration mode (factory or user) and values for            */
 413:Drivers/STM32L4xx_HAL_Driver/Src/stm32l4xx_hal_opamp.c ****         /* transistors differential pair high (PMOS) and low (NMOS) for     */
 414:Drivers/STM32L4xx_HAL_Driver/Src/stm32l4xx_hal_opamp.c ****         /* normal mode.                                                     */
 415:Drivers/STM32L4xx_HAL_Driver/Src/stm32l4xx_hal_opamp.c ****         updateotrlpotr = (((hopamp->Init.TrimmingValueP) << (OPAMP_INPUT_NONINVERTING)) \
 416:Drivers/STM32L4xx_HAL_Driver/Src/stm32l4xx_hal_opamp.c ****                          | (hopamp->Init.TrimmingValueN)); 
 417:Drivers/STM32L4xx_HAL_Driver/Src/stm32l4xx_hal_opamp.c ****         MODIFY_REG(hopamp->Instance->OTR, OPAMP_OTR_TRIMOFFSETN | OPAMP_OTR_TRIMOFFSETP, updateotrl
 418:Drivers/STM32L4xx_HAL_Driver/Src/stm32l4xx_hal_opamp.c ****       }
 419:Drivers/STM32L4xx_HAL_Driver/Src/stm32l4xx_hal_opamp.c ****       else
 420:Drivers/STM32L4xx_HAL_Driver/Src/stm32l4xx_hal_opamp.c ****       {
 421:Drivers/STM32L4xx_HAL_Driver/Src/stm32l4xx_hal_opamp.c ****         /* OPAMP_POWERMODE_LOWPOWER */
 422:Drivers/STM32L4xx_HAL_Driver/Src/stm32l4xx_hal_opamp.c ****         /* transistors differential pair high (PMOS) and low (NMOS) for     */
 423:Drivers/STM32L4xx_HAL_Driver/Src/stm32l4xx_hal_opamp.c ****         /* low power mode.                                                     */
 424:Drivers/STM32L4xx_HAL_Driver/Src/stm32l4xx_hal_opamp.c ****         updateotrlpotr = (((hopamp->Init.TrimmingValuePLowPower) << (OPAMP_INPUT_NONINVERTING)) \
 425:Drivers/STM32L4xx_HAL_Driver/Src/stm32l4xx_hal_opamp.c ****                          | (hopamp->Init.TrimmingValueNLowPower)); 
 426:Drivers/STM32L4xx_HAL_Driver/Src/stm32l4xx_hal_opamp.c ****         MODIFY_REG(hopamp->Instance->LPOTR, OPAMP_OTR_TRIMOFFSETN | OPAMP_OTR_TRIMOFFSETP, updateot
 427:Drivers/STM32L4xx_HAL_Driver/Src/stm32l4xx_hal_opamp.c ****       }
 428:Drivers/STM32L4xx_HAL_Driver/Src/stm32l4xx_hal_opamp.c ****     } 
ARM GAS  /tmp/cc1FqXos.s 			page 9


 429:Drivers/STM32L4xx_HAL_Driver/Src/stm32l4xx_hal_opamp.c **** 
 430:Drivers/STM32L4xx_HAL_Driver/Src/stm32l4xx_hal_opamp.c ****     /* Configure the power supply range */
 431:Drivers/STM32L4xx_HAL_Driver/Src/stm32l4xx_hal_opamp.c ****     /* The OPAMP_CSR_OPARANGE is common configuration for all OPAMPs */
 432:Drivers/STM32L4xx_HAL_Driver/Src/stm32l4xx_hal_opamp.c ****     /* bit OPAMP1_CSR_OPARANGE is used for both OPAMPs */
 433:Drivers/STM32L4xx_HAL_Driver/Src/stm32l4xx_hal_opamp.c ****     MODIFY_REG(OPAMP1->CSR, OPAMP1_CSR_OPARANGE, hopamp->Init.PowerSupplyRange);
 434:Drivers/STM32L4xx_HAL_Driver/Src/stm32l4xx_hal_opamp.c ****     
 435:Drivers/STM32L4xx_HAL_Driver/Src/stm32l4xx_hal_opamp.c ****     /* Update the OPAMP state*/
 436:Drivers/STM32L4xx_HAL_Driver/Src/stm32l4xx_hal_opamp.c ****     if (hopamp->State == HAL_OPAMP_STATE_RESET)
 437:Drivers/STM32L4xx_HAL_Driver/Src/stm32l4xx_hal_opamp.c ****     {
 438:Drivers/STM32L4xx_HAL_Driver/Src/stm32l4xx_hal_opamp.c ****       /* From RESET state to READY State */
 439:Drivers/STM32L4xx_HAL_Driver/Src/stm32l4xx_hal_opamp.c ****       hopamp->State = HAL_OPAMP_STATE_READY;
 440:Drivers/STM32L4xx_HAL_Driver/Src/stm32l4xx_hal_opamp.c ****     }
 441:Drivers/STM32L4xx_HAL_Driver/Src/stm32l4xx_hal_opamp.c ****     /* else: remain in READY or BUSY state (no update) */
 442:Drivers/STM32L4xx_HAL_Driver/Src/stm32l4xx_hal_opamp.c ****     return status;
 443:Drivers/STM32L4xx_HAL_Driver/Src/stm32l4xx_hal_opamp.c ****   }
 444:Drivers/STM32L4xx_HAL_Driver/Src/stm32l4xx_hal_opamp.c **** }
 445:Drivers/STM32L4xx_HAL_Driver/Src/stm32l4xx_hal_opamp.c **** 
 446:Drivers/STM32L4xx_HAL_Driver/Src/stm32l4xx_hal_opamp.c **** /**
 447:Drivers/STM32L4xx_HAL_Driver/Src/stm32l4xx_hal_opamp.c ****   * @brief  DeInitialize the OPAMP peripheral.
 448:Drivers/STM32L4xx_HAL_Driver/Src/stm32l4xx_hal_opamp.c ****   * @note   Deinitialization can be performed if the OPAMP configuration is locked.
 449:Drivers/STM32L4xx_HAL_Driver/Src/stm32l4xx_hal_opamp.c ****   *         (the lock is SW in L4)
 450:Drivers/STM32L4xx_HAL_Driver/Src/stm32l4xx_hal_opamp.c ****   * @param  hopamp: OPAMP handle
 451:Drivers/STM32L4xx_HAL_Driver/Src/stm32l4xx_hal_opamp.c ****   * @retval HAL status
 452:Drivers/STM32L4xx_HAL_Driver/Src/stm32l4xx_hal_opamp.c ****   */
 453:Drivers/STM32L4xx_HAL_Driver/Src/stm32l4xx_hal_opamp.c **** HAL_StatusTypeDef HAL_OPAMP_DeInit(OPAMP_HandleTypeDef *hopamp)
 454:Drivers/STM32L4xx_HAL_Driver/Src/stm32l4xx_hal_opamp.c **** {
 455:Drivers/STM32L4xx_HAL_Driver/Src/stm32l4xx_hal_opamp.c ****   HAL_StatusTypeDef status = HAL_OK;
 456:Drivers/STM32L4xx_HAL_Driver/Src/stm32l4xx_hal_opamp.c ****   
 457:Drivers/STM32L4xx_HAL_Driver/Src/stm32l4xx_hal_opamp.c ****   /* Check the OPAMP handle allocation */
 458:Drivers/STM32L4xx_HAL_Driver/Src/stm32l4xx_hal_opamp.c ****   /* DeInit not allowed if calibration is ongoing */
 459:Drivers/STM32L4xx_HAL_Driver/Src/stm32l4xx_hal_opamp.c ****   if((hopamp == NULL) || (hopamp->State == HAL_OPAMP_STATE_CALIBBUSY))
 460:Drivers/STM32L4xx_HAL_Driver/Src/stm32l4xx_hal_opamp.c ****   {
 461:Drivers/STM32L4xx_HAL_Driver/Src/stm32l4xx_hal_opamp.c ****     status = HAL_ERROR;
 462:Drivers/STM32L4xx_HAL_Driver/Src/stm32l4xx_hal_opamp.c ****   }
 463:Drivers/STM32L4xx_HAL_Driver/Src/stm32l4xx_hal_opamp.c ****   else
 464:Drivers/STM32L4xx_HAL_Driver/Src/stm32l4xx_hal_opamp.c ****   {
 465:Drivers/STM32L4xx_HAL_Driver/Src/stm32l4xx_hal_opamp.c ****     /* Check the parameter */
 466:Drivers/STM32L4xx_HAL_Driver/Src/stm32l4xx_hal_opamp.c ****     assert_param(IS_OPAMP_ALL_INSTANCE(hopamp->Instance));
 467:Drivers/STM32L4xx_HAL_Driver/Src/stm32l4xx_hal_opamp.c **** 
 468:Drivers/STM32L4xx_HAL_Driver/Src/stm32l4xx_hal_opamp.c ****     /* Set OPAMP_CSR register to reset value */
 469:Drivers/STM32L4xx_HAL_Driver/Src/stm32l4xx_hal_opamp.c ****     /* Mind that OPAMP1_CSR_OPARANGE of CSR of OPAMP1 remains unchanged (applies to both OPAMPs) */
 470:Drivers/STM32L4xx_HAL_Driver/Src/stm32l4xx_hal_opamp.c ****     /* OPAMP shall be disabled first separately */     
 471:Drivers/STM32L4xx_HAL_Driver/Src/stm32l4xx_hal_opamp.c ****     CLEAR_BIT(hopamp->Instance->CSR, OPAMP_CSR_OPAMPxEN);
 472:Drivers/STM32L4xx_HAL_Driver/Src/stm32l4xx_hal_opamp.c ****     MODIFY_REG(hopamp->Instance->CSR, OPAMP_CSR_RESET_BITS, OPAMP_CSR_RESET_VALUE);
 473:Drivers/STM32L4xx_HAL_Driver/Src/stm32l4xx_hal_opamp.c ****     
 474:Drivers/STM32L4xx_HAL_Driver/Src/stm32l4xx_hal_opamp.c **** #if (USE_HAL_OPAMP_REGISTER_CALLBACKS == 1)
 475:Drivers/STM32L4xx_HAL_Driver/Src/stm32l4xx_hal_opamp.c ****   if(hopamp->MspDeInitCallback == NULL)
 476:Drivers/STM32L4xx_HAL_Driver/Src/stm32l4xx_hal_opamp.c ****   {
 477:Drivers/STM32L4xx_HAL_Driver/Src/stm32l4xx_hal_opamp.c ****     hopamp->MspDeInitCallback = HAL_OPAMP_MspDeInit;
 478:Drivers/STM32L4xx_HAL_Driver/Src/stm32l4xx_hal_opamp.c ****   }
 479:Drivers/STM32L4xx_HAL_Driver/Src/stm32l4xx_hal_opamp.c ****   /* DeInit the low level hardware */
 480:Drivers/STM32L4xx_HAL_Driver/Src/stm32l4xx_hal_opamp.c ****   hopamp->MspDeInitCallback(hopamp);
 481:Drivers/STM32L4xx_HAL_Driver/Src/stm32l4xx_hal_opamp.c **** #else
 482:Drivers/STM32L4xx_HAL_Driver/Src/stm32l4xx_hal_opamp.c ****     /* DeInit the low level hardware: GPIO, CLOCK and NVIC */
 483:Drivers/STM32L4xx_HAL_Driver/Src/stm32l4xx_hal_opamp.c ****     HAL_OPAMP_MspDeInit(hopamp);
 484:Drivers/STM32L4xx_HAL_Driver/Src/stm32l4xx_hal_opamp.c **** #endif /* USE_HAL_OPAMP_REGISTER_CALLBACKS */
 485:Drivers/STM32L4xx_HAL_Driver/Src/stm32l4xx_hal_opamp.c ****     /* Update the OPAMP state*/
ARM GAS  /tmp/cc1FqXos.s 			page 10


 486:Drivers/STM32L4xx_HAL_Driver/Src/stm32l4xx_hal_opamp.c ****     hopamp->State = HAL_OPAMP_STATE_RESET;   
 487:Drivers/STM32L4xx_HAL_Driver/Src/stm32l4xx_hal_opamp.c ****     
 488:Drivers/STM32L4xx_HAL_Driver/Src/stm32l4xx_hal_opamp.c ****     /* Process unlocked */
 489:Drivers/STM32L4xx_HAL_Driver/Src/stm32l4xx_hal_opamp.c ****     __HAL_UNLOCK(hopamp);
 490:Drivers/STM32L4xx_HAL_Driver/Src/stm32l4xx_hal_opamp.c ****   }
 491:Drivers/STM32L4xx_HAL_Driver/Src/stm32l4xx_hal_opamp.c ****   return status;
 492:Drivers/STM32L4xx_HAL_Driver/Src/stm32l4xx_hal_opamp.c **** }
 493:Drivers/STM32L4xx_HAL_Driver/Src/stm32l4xx_hal_opamp.c **** 
 494:Drivers/STM32L4xx_HAL_Driver/Src/stm32l4xx_hal_opamp.c **** /**
 495:Drivers/STM32L4xx_HAL_Driver/Src/stm32l4xx_hal_opamp.c ****   * @brief  Initialize the OPAMP MSP.
 496:Drivers/STM32L4xx_HAL_Driver/Src/stm32l4xx_hal_opamp.c ****   * @param  hopamp: OPAMP handle
 497:Drivers/STM32L4xx_HAL_Driver/Src/stm32l4xx_hal_opamp.c ****   * @retval None
 498:Drivers/STM32L4xx_HAL_Driver/Src/stm32l4xx_hal_opamp.c ****   */
 499:Drivers/STM32L4xx_HAL_Driver/Src/stm32l4xx_hal_opamp.c **** __weak void HAL_OPAMP_MspInit(OPAMP_HandleTypeDef *hopamp)
 500:Drivers/STM32L4xx_HAL_Driver/Src/stm32l4xx_hal_opamp.c **** {
  30              		.loc 1 500 1 view -0
  31              		.cfi_startproc
  32              		@ args = 0, pretend = 0, frame = 0
  33              		@ frame_needed = 0, uses_anonymous_args = 0
  34              		@ link register save eliminated.
 501:Drivers/STM32L4xx_HAL_Driver/Src/stm32l4xx_hal_opamp.c ****   /* Prevent unused argument(s) compilation warning */
 502:Drivers/STM32L4xx_HAL_Driver/Src/stm32l4xx_hal_opamp.c ****   UNUSED(hopamp);
  35              		.loc 1 502 3 view .LVU1
 503:Drivers/STM32L4xx_HAL_Driver/Src/stm32l4xx_hal_opamp.c **** 
 504:Drivers/STM32L4xx_HAL_Driver/Src/stm32l4xx_hal_opamp.c ****   /* NOTE : This function should not be modified, when the callback is needed,
 505:Drivers/STM32L4xx_HAL_Driver/Src/stm32l4xx_hal_opamp.c ****             the function "HAL_OPAMP_MspInit()" must be implemented in the user file.
 506:Drivers/STM32L4xx_HAL_Driver/Src/stm32l4xx_hal_opamp.c ****    */
 507:Drivers/STM32L4xx_HAL_Driver/Src/stm32l4xx_hal_opamp.c **** }
  36              		.loc 1 507 1 is_stmt 0 view .LVU2
  37 0000 7047     		bx	lr
  38              		.cfi_endproc
  39              	.LFE311:
  41              		.section	.text.HAL_OPAMP_Init,"ax",%progbits
  42              		.align	1
  43              		.global	HAL_OPAMP_Init
  44              		.syntax unified
  45              		.thumb
  46              		.thumb_func
  47              		.fpu fpv4-sp-d16
  49              	HAL_OPAMP_Init:
  50              	.LVL1:
  51              	.LFB309:
 297:Drivers/STM32L4xx_HAL_Driver/Src/stm32l4xx_hal_opamp.c ****   HAL_StatusTypeDef status = HAL_OK;
  52              		.loc 1 297 1 is_stmt 1 view -0
  53              		.cfi_startproc
  54              		@ args = 0, pretend = 0, frame = 0
  55              		@ frame_needed = 0, uses_anonymous_args = 0
 298:Drivers/STM32L4xx_HAL_Driver/Src/stm32l4xx_hal_opamp.c ****   uint32_t updateotrlpotr = 0;
  56              		.loc 1 298 3 view .LVU4
 299:Drivers/STM32L4xx_HAL_Driver/Src/stm32l4xx_hal_opamp.c **** 
  57              		.loc 1 299 3 view .LVU5
 303:Drivers/STM32L4xx_HAL_Driver/Src/stm32l4xx_hal_opamp.c ****                       || (hopamp->State == HAL_OPAMP_STATE_CALIBBUSY))
  58              		.loc 1 303 3 view .LVU6
 303:Drivers/STM32L4xx_HAL_Driver/Src/stm32l4xx_hal_opamp.c ****                       || (hopamp->State == HAL_OPAMP_STATE_CALIBBUSY))
  59              		.loc 1 303 5 is_stmt 0 view .LVU7
  60 0000 0028     		cmp	r0, #0
  61 0002 00F08580 		beq	.L11
ARM GAS  /tmp/cc1FqXos.s 			page 11


 297:Drivers/STM32L4xx_HAL_Driver/Src/stm32l4xx_hal_opamp.c ****   HAL_StatusTypeDef status = HAL_OK;
  62              		.loc 1 297 1 discriminator 1 view .LVU8
  63 0006 10B5     		push	{r4, lr}
  64              	.LCFI0:
  65              		.cfi_def_cfa_offset 8
  66              		.cfi_offset 4, -8
  67              		.cfi_offset 14, -4
  68 0008 0446     		mov	r4, r0
 303:Drivers/STM32L4xx_HAL_Driver/Src/stm32l4xx_hal_opamp.c ****                       || (hopamp->State == HAL_OPAMP_STATE_CALIBBUSY))
  69              		.loc 1 303 33 discriminator 1 view .LVU9
  70 000a 90F83230 		ldrb	r3, [r0, #50]	@ zero_extendqisi2
  71 000e DBB2     		uxtb	r3, r3
 303:Drivers/STM32L4xx_HAL_Driver/Src/stm32l4xx_hal_opamp.c ****                       || (hopamp->State == HAL_OPAMP_STATE_CALIBBUSY))
  72              		.loc 1 303 23 discriminator 1 view .LVU10
  73 0010 052B     		cmp	r3, #5
  74 0012 7FD0     		beq	.L12
 304:Drivers/STM32L4xx_HAL_Driver/Src/stm32l4xx_hal_opamp.c ****   {
  75              		.loc 1 304 33 view .LVU11
  76 0014 90F83230 		ldrb	r3, [r0, #50]	@ zero_extendqisi2
  77 0018 DBB2     		uxtb	r3, r3
 304:Drivers/STM32L4xx_HAL_Driver/Src/stm32l4xx_hal_opamp.c ****   {
  78              		.loc 1 304 23 view .LVU12
  79 001a 022B     		cmp	r3, #2
  80 001c 7CD0     		beq	.L13
 311:Drivers/STM32L4xx_HAL_Driver/Src/stm32l4xx_hal_opamp.c ****        
  81              		.loc 1 311 5 is_stmt 1 view .LVU13
 314:Drivers/STM32L4xx_HAL_Driver/Src/stm32l4xx_hal_opamp.c ****     assert_param(IS_OPAMP_POWERMODE(hopamp->Init.PowerMode));
  82              		.loc 1 314 5 view .LVU14
 315:Drivers/STM32L4xx_HAL_Driver/Src/stm32l4xx_hal_opamp.c ****     assert_param(IS_OPAMP_FUNCTIONAL_NORMALMODE(hopamp->Init.Mode));
  83              		.loc 1 315 5 view .LVU15
 316:Drivers/STM32L4xx_HAL_Driver/Src/stm32l4xx_hal_opamp.c ****     assert_param(IS_OPAMP_NONINVERTING_INPUT(hopamp->Init.NonInvertingInput));
  84              		.loc 1 316 5 view .LVU16
 317:Drivers/STM32L4xx_HAL_Driver/Src/stm32l4xx_hal_opamp.c ****     
  85              		.loc 1 317 5 view .LVU17
 319:Drivers/STM32L4xx_HAL_Driver/Src/stm32l4xx_hal_opamp.c ****     {  
  86              		.loc 1 319 5 view .LVU18
 319:Drivers/STM32L4xx_HAL_Driver/Src/stm32l4xx_hal_opamp.c ****     {  
  87              		.loc 1 319 14 is_stmt 0 view .LVU19
  88 001e 90F83230 		ldrb	r3, [r0, #50]	@ zero_extendqisi2
 327:Drivers/STM32L4xx_HAL_Driver/Src/stm32l4xx_hal_opamp.c ****     
  89              		.loc 1 327 5 is_stmt 1 view .LVU20
 329:Drivers/STM32L4xx_HAL_Driver/Src/stm32l4xx_hal_opamp.c ****     {
  90              		.loc 1 329 5 view .LVU21
 331:Drivers/STM32L4xx_HAL_Driver/Src/stm32l4xx_hal_opamp.c ****     }
  91              		.loc 1 331 7 view .LVU22
 334:Drivers/STM32L4xx_HAL_Driver/Src/stm32l4xx_hal_opamp.c ****     {
  92              		.loc 1 334 5 view .LVU23
 336:Drivers/STM32L4xx_HAL_Driver/Src/stm32l4xx_hal_opamp.c ****     }
  93              		.loc 1 336 7 view .LVU24
 339:Drivers/STM32L4xx_HAL_Driver/Src/stm32l4xx_hal_opamp.c ****     {
  94              		.loc 1 339 5 view .LVU25
 341:Drivers/STM32L4xx_HAL_Driver/Src/stm32l4xx_hal_opamp.c ****     }
  95              		.loc 1 341 7 view .LVU26
 344:Drivers/STM32L4xx_HAL_Driver/Src/stm32l4xx_hal_opamp.c ****     if ((hopamp->Init.UserTrimming) == OPAMP_TRIMMING_USER)
  96              		.loc 1 344 5 view .LVU27
 345:Drivers/STM32L4xx_HAL_Driver/Src/stm32l4xx_hal_opamp.c ****     {
  97              		.loc 1 345 5 view .LVU28
ARM GAS  /tmp/cc1FqXos.s 			page 12


 354:Drivers/STM32L4xx_HAL_Driver/Src/stm32l4xx_hal_opamp.c ****         assert_param(IS_OPAMP_TRIMMINGVALUE(hopamp->Init.TrimmingValueNLowPower));
  98              		.loc 1 354 9 view .LVU29
 355:Drivers/STM32L4xx_HAL_Driver/Src/stm32l4xx_hal_opamp.c ****       }
  99              		.loc 1 355 9 view .LVU30
 359:Drivers/STM32L4xx_HAL_Driver/Src/stm32l4xx_hal_opamp.c ****     {
 100              		.loc 1 359 5 view .LVU31
 359:Drivers/STM32L4xx_HAL_Driver/Src/stm32l4xx_hal_opamp.c ****     {
 101              		.loc 1 359 14 is_stmt 0 view .LVU32
 102 0022 90F83230 		ldrb	r3, [r0, #50]	@ zero_extendqisi2
 359:Drivers/STM32L4xx_HAL_Driver/Src/stm32l4xx_hal_opamp.c ****     {
 103              		.loc 1 359 7 view .LVU33
 104 0026 0BB9     		cbnz	r3, .L4
 362:Drivers/STM32L4xx_HAL_Driver/Src/stm32l4xx_hal_opamp.c ****     }
 105              		.loc 1 362 7 is_stmt 1 view .LVU34
 362:Drivers/STM32L4xx_HAL_Driver/Src/stm32l4xx_hal_opamp.c ****     }
 106              		.loc 1 362 20 is_stmt 0 view .LVU35
 107 0028 80F83130 		strb	r3, [r0, #49]
 108              	.L4:
 369:Drivers/STM32L4xx_HAL_Driver/Src/stm32l4xx_hal_opamp.c **** #endif /* USE_HAL_OPAMP_REGISTER_CALLBACKS */
 109              		.loc 1 369 5 is_stmt 1 view .LVU36
 110 002c 2046     		mov	r0, r4
 111              	.LVL2:
 369:Drivers/STM32L4xx_HAL_Driver/Src/stm32l4xx_hal_opamp.c **** #endif /* USE_HAL_OPAMP_REGISTER_CALLBACKS */
 112              		.loc 1 369 5 is_stmt 0 view .LVU37
 113 002e FFF7FEFF 		bl	HAL_OPAMP_MspInit
 114              	.LVL3:
 373:Drivers/STM32L4xx_HAL_Driver/Src/stm32l4xx_hal_opamp.c ****                                               
 115              		.loc 1 373 5 is_stmt 1 view .LVU38
 116 0032 2268     		ldr	r2, [r4]
 117 0034 1368     		ldr	r3, [r2]
 118 0036 23F48053 		bic	r3, r3, #4096
 119 003a 1360     		str	r3, [r2]
 375:Drivers/STM32L4xx_HAL_Driver/Src/stm32l4xx_hal_opamp.c ****     {
 120              		.loc 1 375 5 view .LVU39
 375:Drivers/STM32L4xx_HAL_Driver/Src/stm32l4xx_hal_opamp.c ****     {
 121              		.loc 1 375 21 is_stmt 0 view .LVU40
 122 003c E368     		ldr	r3, [r4, #12]
 375:Drivers/STM32L4xx_HAL_Driver/Src/stm32l4xx_hal_opamp.c ****     {
 123              		.loc 1 375 8 view .LVU41
 124 003e 082B     		cmp	r3, #8
 125 0040 27D0     		beq	.L18
 126              	.L5:
 386:Drivers/STM32L4xx_HAL_Driver/Src/stm32l4xx_hal_opamp.c ****     {
 127              		.loc 1 386 5 is_stmt 1 view .LVU42
 386:Drivers/STM32L4xx_HAL_Driver/Src/stm32l4xx_hal_opamp.c ****     {
 128              		.loc 1 386 21 is_stmt 0 view .LVU43
 129 0042 E368     		ldr	r3, [r4, #12]
 386:Drivers/STM32L4xx_HAL_Driver/Src/stm32l4xx_hal_opamp.c ****     {
 130              		.loc 1 386 8 view .LVU44
 131 0044 0C2B     		cmp	r3, #12
 132 0046 37D0     		beq	.L19
 133              	.L6:
 396:Drivers/STM32L4xx_HAL_Driver/Src/stm32l4xx_hal_opamp.c ****     {
 134              		.loc 1 396 5 is_stmt 1 view .LVU45
 396:Drivers/STM32L4xx_HAL_Driver/Src/stm32l4xx_hal_opamp.c ****     {
 135              		.loc 1 396 21 is_stmt 0 view .LVU46
 136 0048 E368     		ldr	r3, [r4, #12]
ARM GAS  /tmp/cc1FqXos.s 			page 13


 396:Drivers/STM32L4xx_HAL_Driver/Src/stm32l4xx_hal_opamp.c ****     {
 137              		.loc 1 396 8 view .LVU47
 138 004a 7BB9     		cbnz	r3, .L7
 398:Drivers/STM32L4xx_HAL_Driver/Src/stm32l4xx_hal_opamp.c ****                                         hopamp->Init.PowerMode | \
 139              		.loc 1 398 7 is_stmt 1 view .LVU48
 140 004c 2168     		ldr	r1, [r4]
 141 004e 0A68     		ldr	r2, [r1]
 142 0050 22F48E42 		bic	r2, r2, #18176
 143 0054 22F00E02 		bic	r2, r2, #14
 144 0058 A068     		ldr	r0, [r4, #8]
 145 005a 0343     		orrs	r3, r3, r0
 146 005c 2069     		ldr	r0, [r4, #16]
 147 005e 0343     		orrs	r3, r3, r0
 148 0060 6069     		ldr	r0, [r4, #20]
 149 0062 0343     		orrs	r3, r3, r0
 150 0064 E069     		ldr	r0, [r4, #28]
 151 0066 0343     		orrs	r3, r3, r0
 152 0068 1343     		orrs	r3, r3, r2
 153 006a 0B60     		str	r3, [r1]
 154              	.L7:
 406:Drivers/STM32L4xx_HAL_Driver/Src/stm32l4xx_hal_opamp.c ****     {
 155              		.loc 1 406 5 view .LVU49
 406:Drivers/STM32L4xx_HAL_Driver/Src/stm32l4xx_hal_opamp.c ****     {
 156              		.loc 1 406 21 is_stmt 0 view .LVU50
 157 006c E369     		ldr	r3, [r4, #28]
 406:Drivers/STM32L4xx_HAL_Driver/Src/stm32l4xx_hal_opamp.c ****     {
 158              		.loc 1 406 8 view .LVU51
 159 006e B3F5804F 		cmp	r3, #16384
 160 0072 30D0     		beq	.L20
 161              	.LVL4:
 162              	.L8:
 433:Drivers/STM32L4xx_HAL_Driver/Src/stm32l4xx_hal_opamp.c ****     
 163              		.loc 1 433 5 is_stmt 1 view .LVU52
 164 0074 294A     		ldr	r2, .L21
 165 0076 1368     		ldr	r3, [r2]
 166 0078 23F00043 		bic	r3, r3, #-2147483648
 167 007c 6168     		ldr	r1, [r4, #4]
 168 007e 0B43     		orrs	r3, r3, r1
 169 0080 1360     		str	r3, [r2]
 436:Drivers/STM32L4xx_HAL_Driver/Src/stm32l4xx_hal_opamp.c ****     {
 170              		.loc 1 436 5 view .LVU53
 436:Drivers/STM32L4xx_HAL_Driver/Src/stm32l4xx_hal_opamp.c ****     {
 171              		.loc 1 436 15 is_stmt 0 view .LVU54
 172 0082 94F83230 		ldrb	r3, [r4, #50]	@ zero_extendqisi2
 436:Drivers/STM32L4xx_HAL_Driver/Src/stm32l4xx_hal_opamp.c ****     {
 173              		.loc 1 436 8 view .LVU55
 174 0086 13B9     		cbnz	r3, .L10
 439:Drivers/STM32L4xx_HAL_Driver/Src/stm32l4xx_hal_opamp.c ****     }
 175              		.loc 1 439 7 is_stmt 1 view .LVU56
 439:Drivers/STM32L4xx_HAL_Driver/Src/stm32l4xx_hal_opamp.c ****     }
 176              		.loc 1 439 21 is_stmt 0 view .LVU57
 177 0088 0123     		movs	r3, #1
 178 008a 84F83230 		strb	r3, [r4, #50]
 179              	.L10:
 442:Drivers/STM32L4xx_HAL_Driver/Src/stm32l4xx_hal_opamp.c ****   }
 180              		.loc 1 442 5 is_stmt 1 view .LVU58
 442:Drivers/STM32L4xx_HAL_Driver/Src/stm32l4xx_hal_opamp.c ****   }
ARM GAS  /tmp/cc1FqXos.s 			page 14


 181              		.loc 1 442 12 is_stmt 0 view .LVU59
 182 008e 0020     		movs	r0, #0
 183              	.L3:
 444:Drivers/STM32L4xx_HAL_Driver/Src/stm32l4xx_hal_opamp.c **** 
 184              		.loc 1 444 1 view .LVU60
 185 0090 10BD     		pop	{r4, pc}
 186              	.LVL5:
 187              	.L18:
 377:Drivers/STM32L4xx_HAL_Driver/Src/stm32l4xx_hal_opamp.c ****                                         hopamp->Init.PowerMode | \
 188              		.loc 1 377 7 is_stmt 1 view .LVU61
 189 0092 2168     		ldr	r1, [r4]
 190 0094 0A68     		ldr	r2, [r1]
 191 0096 22F48E42 		bic	r2, r2, #18176
 192 009a 22F03E02 		bic	r2, r2, #62
 193 009e A068     		ldr	r0, [r4, #8]
 194 00a0 0343     		orrs	r3, r3, r0
 195 00a2 A069     		ldr	r0, [r4, #24]
 196 00a4 0343     		orrs	r3, r3, r0
 197 00a6 2069     		ldr	r0, [r4, #16]
 198 00a8 0343     		orrs	r3, r3, r0
 199 00aa 6069     		ldr	r0, [r4, #20]
 200 00ac 0343     		orrs	r3, r3, r0
 201 00ae E069     		ldr	r0, [r4, #28]
 202 00b0 0343     		orrs	r3, r3, r0
 203 00b2 1343     		orrs	r3, r3, r2
 204 00b4 0B60     		str	r3, [r1]
 205 00b6 C4E7     		b	.L5
 206              	.L19:
 389:Drivers/STM32L4xx_HAL_Driver/Src/stm32l4xx_hal_opamp.c ****                                         hopamp->Init.PowerMode | \
 207              		.loc 1 389 5 view .LVU62
 208 00b8 2168     		ldr	r1, [r4]
 209 00ba 0A68     		ldr	r2, [r1]
 210 00bc 22F48842 		bic	r2, r2, #17408
 211 00c0 22F00E02 		bic	r2, r2, #14
 212 00c4 A068     		ldr	r0, [r4, #8]
 213 00c6 0343     		orrs	r3, r3, r0
 214 00c8 6069     		ldr	r0, [r4, #20]
 215 00ca 0343     		orrs	r3, r3, r0
 216 00cc E069     		ldr	r0, [r4, #28]
 217 00ce 0343     		orrs	r3, r3, r0
 218 00d0 1343     		orrs	r3, r3, r2
 219 00d2 0B60     		str	r3, [r1]
 220 00d4 B8E7     		b	.L6
 221              	.L20:
 409:Drivers/STM32L4xx_HAL_Driver/Src/stm32l4xx_hal_opamp.c ****       {
 222              		.loc 1 409 7 view .LVU63
 409:Drivers/STM32L4xx_HAL_Driver/Src/stm32l4xx_hal_opamp.c ****       {
 223              		.loc 1 409 23 is_stmt 0 view .LVU64
 224 00d6 A368     		ldr	r3, [r4, #8]
 409:Drivers/STM32L4xx_HAL_Driver/Src/stm32l4xx_hal_opamp.c ****       {
 225              		.loc 1 409 10 view .LVU65
 226 00d8 022B     		cmp	r3, #2
 227 00da 0CD0     		beq	.L9
 415:Drivers/STM32L4xx_HAL_Driver/Src/stm32l4xx_hal_opamp.c ****                          | (hopamp->Init.TrimmingValueN)); 
 228              		.loc 1 415 9 is_stmt 1 view .LVU66
 415:Drivers/STM32L4xx_HAL_Driver/Src/stm32l4xx_hal_opamp.c ****                          | (hopamp->Init.TrimmingValueN)); 
 229              		.loc 1 415 41 is_stmt 0 view .LVU67
ARM GAS  /tmp/cc1FqXos.s 			page 15


 230 00dc 226A     		ldr	r2, [r4, #32]
 416:Drivers/STM32L4xx_HAL_Driver/Src/stm32l4xx_hal_opamp.c ****         MODIFY_REG(hopamp->Instance->OTR, OPAMP_OTR_TRIMOFFSETN | OPAMP_OTR_TRIMOFFSETP, updateotrl
 231              		.loc 1 416 41 view .LVU68
 232 00de 636A     		ldr	r3, [r4, #36]
 415:Drivers/STM32L4xx_HAL_Driver/Src/stm32l4xx_hal_opamp.c ****                          | (hopamp->Init.TrimmingValueN)); 
 233              		.loc 1 415 24 view .LVU69
 234 00e0 43EA0222 		orr	r2, r3, r2, lsl #8
 235              	.LVL6:
 417:Drivers/STM32L4xx_HAL_Driver/Src/stm32l4xx_hal_opamp.c ****       }
 236              		.loc 1 417 9 is_stmt 1 view .LVU70
 237 00e4 2168     		ldr	r1, [r4]
 238 00e6 4B68     		ldr	r3, [r1, #4]
 239 00e8 23F4F853 		bic	r3, r3, #7936
 240 00ec 23F01F03 		bic	r3, r3, #31
 241 00f0 1343     		orrs	r3, r3, r2
 242 00f2 4B60     		str	r3, [r1, #4]
 243 00f4 BEE7     		b	.L8
 244              	.LVL7:
 245              	.L9:
 424:Drivers/STM32L4xx_HAL_Driver/Src/stm32l4xx_hal_opamp.c ****                          | (hopamp->Init.TrimmingValueNLowPower)); 
 246              		.loc 1 424 9 view .LVU71
 424:Drivers/STM32L4xx_HAL_Driver/Src/stm32l4xx_hal_opamp.c ****                          | (hopamp->Init.TrimmingValueNLowPower)); 
 247              		.loc 1 424 41 is_stmt 0 view .LVU72
 248 00f6 A26A     		ldr	r2, [r4, #40]
 425:Drivers/STM32L4xx_HAL_Driver/Src/stm32l4xx_hal_opamp.c ****         MODIFY_REG(hopamp->Instance->LPOTR, OPAMP_OTR_TRIMOFFSETN | OPAMP_OTR_TRIMOFFSETP, updateot
 249              		.loc 1 425 41 view .LVU73
 250 00f8 E36A     		ldr	r3, [r4, #44]
 424:Drivers/STM32L4xx_HAL_Driver/Src/stm32l4xx_hal_opamp.c ****                          | (hopamp->Init.TrimmingValueNLowPower)); 
 251              		.loc 1 424 24 view .LVU74
 252 00fa 43EA0222 		orr	r2, r3, r2, lsl #8
 253              	.LVL8:
 426:Drivers/STM32L4xx_HAL_Driver/Src/stm32l4xx_hal_opamp.c ****       }
 254              		.loc 1 426 9 is_stmt 1 view .LVU75
 255 00fe 2168     		ldr	r1, [r4]
 256 0100 8B68     		ldr	r3, [r1, #8]
 257 0102 23F4F853 		bic	r3, r3, #7936
 258 0106 23F01F03 		bic	r3, r3, #31
 259 010a 1343     		orrs	r3, r3, r2
 260 010c 8B60     		str	r3, [r1, #8]
 261 010e B1E7     		b	.L8
 262              	.LVL9:
 263              	.L11:
 264              	.LCFI1:
 265              		.cfi_def_cfa_offset 0
 266              		.cfi_restore 4
 267              		.cfi_restore 14
 306:Drivers/STM32L4xx_HAL_Driver/Src/stm32l4xx_hal_opamp.c ****   }
 268              		.loc 1 306 12 is_stmt 0 view .LVU76
 269 0110 0120     		movs	r0, #1
 270              	.LVL10:
 444:Drivers/STM32L4xx_HAL_Driver/Src/stm32l4xx_hal_opamp.c **** 
 271              		.loc 1 444 1 view .LVU77
 272 0112 7047     		bx	lr
 273              	.LVL11:
 274              	.L12:
 275              	.LCFI2:
 276              		.cfi_def_cfa_offset 8
ARM GAS  /tmp/cc1FqXos.s 			page 16


 277              		.cfi_offset 4, -8
 278              		.cfi_offset 14, -4
 306:Drivers/STM32L4xx_HAL_Driver/Src/stm32l4xx_hal_opamp.c ****   }
 279              		.loc 1 306 12 view .LVU78
 280 0114 0120     		movs	r0, #1
 281              	.LVL12:
 306:Drivers/STM32L4xx_HAL_Driver/Src/stm32l4xx_hal_opamp.c ****   }
 282              		.loc 1 306 12 view .LVU79
 283 0116 BBE7     		b	.L3
 284              	.LVL13:
 285              	.L13:
 306:Drivers/STM32L4xx_HAL_Driver/Src/stm32l4xx_hal_opamp.c ****   }
 286              		.loc 1 306 12 view .LVU80
 287 0118 0120     		movs	r0, #1
 288              	.LVL14:
 306:Drivers/STM32L4xx_HAL_Driver/Src/stm32l4xx_hal_opamp.c ****   }
 289              		.loc 1 306 12 view .LVU81
 290 011a B9E7     		b	.L3
 291              	.L22:
 292              		.align	2
 293              	.L21:
 294 011c 00780040 		.word	1073772544
 295              		.cfi_endproc
 296              	.LFE309:
 298              		.section	.text.HAL_OPAMP_MspDeInit,"ax",%progbits
 299              		.align	1
 300              		.weak	HAL_OPAMP_MspDeInit
 301              		.syntax unified
 302              		.thumb
 303              		.thumb_func
 304              		.fpu fpv4-sp-d16
 306              	HAL_OPAMP_MspDeInit:
 307              	.LVL15:
 308              	.LFB312:
 508:Drivers/STM32L4xx_HAL_Driver/Src/stm32l4xx_hal_opamp.c **** 
 509:Drivers/STM32L4xx_HAL_Driver/Src/stm32l4xx_hal_opamp.c **** /**
 510:Drivers/STM32L4xx_HAL_Driver/Src/stm32l4xx_hal_opamp.c ****   * @brief  DeInitialize OPAMP MSP.
 511:Drivers/STM32L4xx_HAL_Driver/Src/stm32l4xx_hal_opamp.c ****   * @param  hopamp: OPAMP handle
 512:Drivers/STM32L4xx_HAL_Driver/Src/stm32l4xx_hal_opamp.c ****   * @retval None
 513:Drivers/STM32L4xx_HAL_Driver/Src/stm32l4xx_hal_opamp.c ****   */
 514:Drivers/STM32L4xx_HAL_Driver/Src/stm32l4xx_hal_opamp.c **** __weak void HAL_OPAMP_MspDeInit(OPAMP_HandleTypeDef *hopamp)
 515:Drivers/STM32L4xx_HAL_Driver/Src/stm32l4xx_hal_opamp.c **** {
 309              		.loc 1 515 1 is_stmt 1 view -0
 310              		.cfi_startproc
 311              		@ args = 0, pretend = 0, frame = 0
 312              		@ frame_needed = 0, uses_anonymous_args = 0
 313              		@ link register save eliminated.
 516:Drivers/STM32L4xx_HAL_Driver/Src/stm32l4xx_hal_opamp.c ****   /* Prevent unused argument(s) compilation warning */
 517:Drivers/STM32L4xx_HAL_Driver/Src/stm32l4xx_hal_opamp.c ****   UNUSED(hopamp);
 314              		.loc 1 517 3 view .LVU83
 518:Drivers/STM32L4xx_HAL_Driver/Src/stm32l4xx_hal_opamp.c **** 
 519:Drivers/STM32L4xx_HAL_Driver/Src/stm32l4xx_hal_opamp.c ****   /* NOTE : This function should not be modified, when the callback is needed,
 520:Drivers/STM32L4xx_HAL_Driver/Src/stm32l4xx_hal_opamp.c ****             the function "HAL_OPAMP_MspDeInit()" must be implemented in the user file.
 521:Drivers/STM32L4xx_HAL_Driver/Src/stm32l4xx_hal_opamp.c ****    */
 522:Drivers/STM32L4xx_HAL_Driver/Src/stm32l4xx_hal_opamp.c **** }
 315              		.loc 1 522 1 is_stmt 0 view .LVU84
 316 0000 7047     		bx	lr
ARM GAS  /tmp/cc1FqXos.s 			page 17


 317              		.cfi_endproc
 318              	.LFE312:
 320              		.section	.text.HAL_OPAMP_DeInit,"ax",%progbits
 321              		.align	1
 322              		.global	HAL_OPAMP_DeInit
 323              		.syntax unified
 324              		.thumb
 325              		.thumb_func
 326              		.fpu fpv4-sp-d16
 328              	HAL_OPAMP_DeInit:
 329              	.LVL16:
 330              	.LFB310:
 454:Drivers/STM32L4xx_HAL_Driver/Src/stm32l4xx_hal_opamp.c ****   HAL_StatusTypeDef status = HAL_OK;
 331              		.loc 1 454 1 is_stmt 1 view -0
 332              		.cfi_startproc
 333              		@ args = 0, pretend = 0, frame = 0
 334              		@ frame_needed = 0, uses_anonymous_args = 0
 455:Drivers/STM32L4xx_HAL_Driver/Src/stm32l4xx_hal_opamp.c ****   
 335              		.loc 1 455 3 view .LVU86
 459:Drivers/STM32L4xx_HAL_Driver/Src/stm32l4xx_hal_opamp.c ****   {
 336              		.loc 1 459 3 view .LVU87
 459:Drivers/STM32L4xx_HAL_Driver/Src/stm32l4xx_hal_opamp.c ****   {
 337              		.loc 1 459 5 is_stmt 0 view .LVU88
 338 0000 E0B1     		cbz	r0, .L26
 454:Drivers/STM32L4xx_HAL_Driver/Src/stm32l4xx_hal_opamp.c ****   HAL_StatusTypeDef status = HAL_OK;
 339              		.loc 1 454 1 discriminator 1 view .LVU89
 340 0002 10B5     		push	{r4, lr}
 341              	.LCFI3:
 342              		.cfi_def_cfa_offset 8
 343              		.cfi_offset 4, -8
 344              		.cfi_offset 14, -4
 345 0004 0446     		mov	r4, r0
 459:Drivers/STM32L4xx_HAL_Driver/Src/stm32l4xx_hal_opamp.c ****   {
 346              		.loc 1 459 33 discriminator 1 view .LVU90
 347 0006 90F83230 		ldrb	r3, [r0, #50]	@ zero_extendqisi2
 348 000a DBB2     		uxtb	r3, r3
 459:Drivers/STM32L4xx_HAL_Driver/Src/stm32l4xx_hal_opamp.c ****   {
 349              		.loc 1 459 23 discriminator 1 view .LVU91
 350 000c 022B     		cmp	r3, #2
 351 000e 01D1     		bne	.L32
 461:Drivers/STM32L4xx_HAL_Driver/Src/stm32l4xx_hal_opamp.c ****   }
 352              		.loc 1 461 12 view .LVU92
 353 0010 0120     		movs	r0, #1
 354              	.LVL17:
 355              	.L25:
 489:Drivers/STM32L4xx_HAL_Driver/Src/stm32l4xx_hal_opamp.c ****   }
 356              		.loc 1 489 5 is_stmt 1 discriminator 1 view .LVU93
 491:Drivers/STM32L4xx_HAL_Driver/Src/stm32l4xx_hal_opamp.c **** }
 357              		.loc 1 491 3 discriminator 1 view .LVU94
 492:Drivers/STM32L4xx_HAL_Driver/Src/stm32l4xx_hal_opamp.c **** 
 358              		.loc 1 492 1 is_stmt 0 discriminator 1 view .LVU95
 359 0012 10BD     		pop	{r4, pc}
 360              	.LVL18:
 361              	.L32:
 466:Drivers/STM32L4xx_HAL_Driver/Src/stm32l4xx_hal_opamp.c **** 
 362              		.loc 1 466 5 is_stmt 1 view .LVU96
 471:Drivers/STM32L4xx_HAL_Driver/Src/stm32l4xx_hal_opamp.c ****     MODIFY_REG(hopamp->Instance->CSR, OPAMP_CSR_RESET_BITS, OPAMP_CSR_RESET_VALUE);
ARM GAS  /tmp/cc1FqXos.s 			page 18


 363              		.loc 1 471 5 view .LVU97
 364 0014 0268     		ldr	r2, [r0]
 365 0016 1368     		ldr	r3, [r2]
 366 0018 23F00103 		bic	r3, r3, #1
 367 001c 1360     		str	r3, [r2]
 472:Drivers/STM32L4xx_HAL_Driver/Src/stm32l4xx_hal_opamp.c ****     
 368              		.loc 1 472 5 view .LVU98
 369 001e 0268     		ldr	r2, [r0]
 370 0020 1368     		ldr	r3, [r2]
 371 0022 23F4AE43 		bic	r3, r3, #22272
 372 0026 23F03F03 		bic	r3, r3, #63
 373 002a 1360     		str	r3, [r2]
 483:Drivers/STM32L4xx_HAL_Driver/Src/stm32l4xx_hal_opamp.c **** #endif /* USE_HAL_OPAMP_REGISTER_CALLBACKS */
 374              		.loc 1 483 5 view .LVU99
 375 002c FFF7FEFF 		bl	HAL_OPAMP_MspDeInit
 376              	.LVL19:
 486:Drivers/STM32L4xx_HAL_Driver/Src/stm32l4xx_hal_opamp.c ****     
 377              		.loc 1 486 5 view .LVU100
 486:Drivers/STM32L4xx_HAL_Driver/Src/stm32l4xx_hal_opamp.c ****     
 378              		.loc 1 486 19 is_stmt 0 view .LVU101
 379 0030 0020     		movs	r0, #0
 380 0032 84F83200 		strb	r0, [r4, #50]
 489:Drivers/STM32L4xx_HAL_Driver/Src/stm32l4xx_hal_opamp.c ****   }
 381              		.loc 1 489 5 is_stmt 1 view .LVU102
 489:Drivers/STM32L4xx_HAL_Driver/Src/stm32l4xx_hal_opamp.c ****   }
 382              		.loc 1 489 5 view .LVU103
 383 0036 84F83100 		strb	r0, [r4, #49]
 384 003a EAE7     		b	.L25
 385              	.LVL20:
 386              	.L26:
 387              	.LCFI4:
 388              		.cfi_def_cfa_offset 0
 389              		.cfi_restore 4
 390              		.cfi_restore 14
 461:Drivers/STM32L4xx_HAL_Driver/Src/stm32l4xx_hal_opamp.c ****   }
 391              		.loc 1 461 12 is_stmt 0 view .LVU104
 392 003c 0120     		movs	r0, #1
 393              	.LVL21:
 489:Drivers/STM32L4xx_HAL_Driver/Src/stm32l4xx_hal_opamp.c ****   }
 394              		.loc 1 489 5 is_stmt 1 view .LVU105
 491:Drivers/STM32L4xx_HAL_Driver/Src/stm32l4xx_hal_opamp.c **** }
 395              		.loc 1 491 3 view .LVU106
 492:Drivers/STM32L4xx_HAL_Driver/Src/stm32l4xx_hal_opamp.c **** 
 396              		.loc 1 492 1 is_stmt 0 view .LVU107
 397 003e 7047     		bx	lr
 398              		.cfi_endproc
 399              	.LFE310:
 401              		.section	.text.HAL_OPAMP_Start,"ax",%progbits
 402              		.align	1
 403              		.global	HAL_OPAMP_Start
 404              		.syntax unified
 405              		.thumb
 406              		.thumb_func
 407              		.fpu fpv4-sp-d16
 409              	HAL_OPAMP_Start:
 410              	.LVL22:
 411              	.LFB313:
ARM GAS  /tmp/cc1FqXos.s 			page 19


 523:Drivers/STM32L4xx_HAL_Driver/Src/stm32l4xx_hal_opamp.c **** 
 524:Drivers/STM32L4xx_HAL_Driver/Src/stm32l4xx_hal_opamp.c **** /**
 525:Drivers/STM32L4xx_HAL_Driver/Src/stm32l4xx_hal_opamp.c ****   * @}
 526:Drivers/STM32L4xx_HAL_Driver/Src/stm32l4xx_hal_opamp.c ****   */
 527:Drivers/STM32L4xx_HAL_Driver/Src/stm32l4xx_hal_opamp.c **** 
 528:Drivers/STM32L4xx_HAL_Driver/Src/stm32l4xx_hal_opamp.c **** 
 529:Drivers/STM32L4xx_HAL_Driver/Src/stm32l4xx_hal_opamp.c **** /** @defgroup OPAMP_Exported_Functions_Group2 IO operation functions 
 530:Drivers/STM32L4xx_HAL_Driver/Src/stm32l4xx_hal_opamp.c ****  *  @brief   IO operation functions 
 531:Drivers/STM32L4xx_HAL_Driver/Src/stm32l4xx_hal_opamp.c ****  *
 532:Drivers/STM32L4xx_HAL_Driver/Src/stm32l4xx_hal_opamp.c **** @verbatim   
 533:Drivers/STM32L4xx_HAL_Driver/Src/stm32l4xx_hal_opamp.c ****  ===============================================================================
 534:Drivers/STM32L4xx_HAL_Driver/Src/stm32l4xx_hal_opamp.c ****                         ##### IO operation functions #####
 535:Drivers/STM32L4xx_HAL_Driver/Src/stm32l4xx_hal_opamp.c ****  =============================================================================== 
 536:Drivers/STM32L4xx_HAL_Driver/Src/stm32l4xx_hal_opamp.c ****     [..]
 537:Drivers/STM32L4xx_HAL_Driver/Src/stm32l4xx_hal_opamp.c ****     This subsection provides a set of functions allowing to manage the OPAMP
 538:Drivers/STM32L4xx_HAL_Driver/Src/stm32l4xx_hal_opamp.c ****     start, stop and calibration actions.
 539:Drivers/STM32L4xx_HAL_Driver/Src/stm32l4xx_hal_opamp.c **** 
 540:Drivers/STM32L4xx_HAL_Driver/Src/stm32l4xx_hal_opamp.c **** @endverbatim
 541:Drivers/STM32L4xx_HAL_Driver/Src/stm32l4xx_hal_opamp.c ****   * @{
 542:Drivers/STM32L4xx_HAL_Driver/Src/stm32l4xx_hal_opamp.c ****   */
 543:Drivers/STM32L4xx_HAL_Driver/Src/stm32l4xx_hal_opamp.c **** 
 544:Drivers/STM32L4xx_HAL_Driver/Src/stm32l4xx_hal_opamp.c **** /**
 545:Drivers/STM32L4xx_HAL_Driver/Src/stm32l4xx_hal_opamp.c ****   * @brief  Start the OPAMP.
 546:Drivers/STM32L4xx_HAL_Driver/Src/stm32l4xx_hal_opamp.c ****   * @param  hopamp: OPAMP handle
 547:Drivers/STM32L4xx_HAL_Driver/Src/stm32l4xx_hal_opamp.c ****   * @retval HAL status
 548:Drivers/STM32L4xx_HAL_Driver/Src/stm32l4xx_hal_opamp.c ****   */
 549:Drivers/STM32L4xx_HAL_Driver/Src/stm32l4xx_hal_opamp.c **** 
 550:Drivers/STM32L4xx_HAL_Driver/Src/stm32l4xx_hal_opamp.c **** HAL_StatusTypeDef HAL_OPAMP_Start(OPAMP_HandleTypeDef *hopamp)
 551:Drivers/STM32L4xx_HAL_Driver/Src/stm32l4xx_hal_opamp.c **** { 
 412              		.loc 1 551 1 is_stmt 1 view -0
 413              		.cfi_startproc
 414              		@ args = 0, pretend = 0, frame = 0
 415              		@ frame_needed = 0, uses_anonymous_args = 0
 416              		@ link register save eliminated.
 552:Drivers/STM32L4xx_HAL_Driver/Src/stm32l4xx_hal_opamp.c ****   HAL_StatusTypeDef status = HAL_OK;
 417              		.loc 1 552 3 view .LVU109
 553:Drivers/STM32L4xx_HAL_Driver/Src/stm32l4xx_hal_opamp.c ****   
 554:Drivers/STM32L4xx_HAL_Driver/Src/stm32l4xx_hal_opamp.c ****   /* Check the OPAMP handle allocation */
 555:Drivers/STM32L4xx_HAL_Driver/Src/stm32l4xx_hal_opamp.c ****   /* Check if OPAMP locked */
 556:Drivers/STM32L4xx_HAL_Driver/Src/stm32l4xx_hal_opamp.c ****   if((hopamp == NULL) || (hopamp->State == HAL_OPAMP_STATE_BUSYLOCKED))
 418              		.loc 1 556 3 view .LVU110
 419              		.loc 1 556 5 is_stmt 0 view .LVU111
 420 0000 A8B1     		cbz	r0, .L35
 421              		.loc 1 556 33 discriminator 1 view .LVU112
 422 0002 90F83230 		ldrb	r3, [r0, #50]	@ zero_extendqisi2
 423 0006 DBB2     		uxtb	r3, r3
 424              		.loc 1 556 23 discriminator 1 view .LVU113
 425 0008 052B     		cmp	r3, #5
 426 000a 12D0     		beq	.L36
 557:Drivers/STM32L4xx_HAL_Driver/Src/stm32l4xx_hal_opamp.c ****   {
 558:Drivers/STM32L4xx_HAL_Driver/Src/stm32l4xx_hal_opamp.c ****     status = HAL_ERROR;
 559:Drivers/STM32L4xx_HAL_Driver/Src/stm32l4xx_hal_opamp.c ****   }
 560:Drivers/STM32L4xx_HAL_Driver/Src/stm32l4xx_hal_opamp.c ****   else
 561:Drivers/STM32L4xx_HAL_Driver/Src/stm32l4xx_hal_opamp.c ****   {
 562:Drivers/STM32L4xx_HAL_Driver/Src/stm32l4xx_hal_opamp.c ****     /* Check the parameter */
 563:Drivers/STM32L4xx_HAL_Driver/Src/stm32l4xx_hal_opamp.c ****     assert_param(IS_OPAMP_ALL_INSTANCE(hopamp->Instance));
 427              		.loc 1 563 5 is_stmt 1 view .LVU114
ARM GAS  /tmp/cc1FqXos.s 			page 20


 564:Drivers/STM32L4xx_HAL_Driver/Src/stm32l4xx_hal_opamp.c ****     
 565:Drivers/STM32L4xx_HAL_Driver/Src/stm32l4xx_hal_opamp.c ****     if(hopamp->State == HAL_OPAMP_STATE_READY)
 428              		.loc 1 565 5 view .LVU115
 429              		.loc 1 565 14 is_stmt 0 view .LVU116
 430 000c 90F83230 		ldrb	r3, [r0, #50]	@ zero_extendqisi2
 431 0010 DBB2     		uxtb	r3, r3
 432              		.loc 1 565 7 view .LVU117
 433 0012 012B     		cmp	r3, #1
 434 0014 01D0     		beq	.L38
 566:Drivers/STM32L4xx_HAL_Driver/Src/stm32l4xx_hal_opamp.c ****     {
 567:Drivers/STM32L4xx_HAL_Driver/Src/stm32l4xx_hal_opamp.c ****       /* Enable the selected opamp */
 568:Drivers/STM32L4xx_HAL_Driver/Src/stm32l4xx_hal_opamp.c ****       SET_BIT (hopamp->Instance->CSR, OPAMP_CSR_OPAMPxEN);
 569:Drivers/STM32L4xx_HAL_Driver/Src/stm32l4xx_hal_opamp.c **** 
 570:Drivers/STM32L4xx_HAL_Driver/Src/stm32l4xx_hal_opamp.c ****       /* Update the OPAMP state*/     
 571:Drivers/STM32L4xx_HAL_Driver/Src/stm32l4xx_hal_opamp.c ****       /* From HAL_OPAMP_STATE_READY to HAL_OPAMP_STATE_BUSY */
 572:Drivers/STM32L4xx_HAL_Driver/Src/stm32l4xx_hal_opamp.c ****       hopamp->State = HAL_OPAMP_STATE_BUSY;   
 573:Drivers/STM32L4xx_HAL_Driver/Src/stm32l4xx_hal_opamp.c ****     }
 574:Drivers/STM32L4xx_HAL_Driver/Src/stm32l4xx_hal_opamp.c ****     else
 575:Drivers/STM32L4xx_HAL_Driver/Src/stm32l4xx_hal_opamp.c ****     {
 576:Drivers/STM32L4xx_HAL_Driver/Src/stm32l4xx_hal_opamp.c ****       status = HAL_ERROR;
 435              		.loc 1 576 14 view .LVU118
 436 0016 0120     		movs	r0, #1
 437              	.LVL23:
 577:Drivers/STM32L4xx_HAL_Driver/Src/stm32l4xx_hal_opamp.c ****     }
 578:Drivers/STM32L4xx_HAL_Driver/Src/stm32l4xx_hal_opamp.c ****     
 579:Drivers/STM32L4xx_HAL_Driver/Src/stm32l4xx_hal_opamp.c ****    }
 580:Drivers/STM32L4xx_HAL_Driver/Src/stm32l4xx_hal_opamp.c ****   return status;
 438              		.loc 1 580 3 is_stmt 1 view .LVU119
 581:Drivers/STM32L4xx_HAL_Driver/Src/stm32l4xx_hal_opamp.c **** }
 439              		.loc 1 581 1 is_stmt 0 view .LVU120
 440 0018 7047     		bx	lr
 441              	.LVL24:
 442              	.L38:
 568:Drivers/STM32L4xx_HAL_Driver/Src/stm32l4xx_hal_opamp.c **** 
 443              		.loc 1 568 7 is_stmt 1 view .LVU121
 444 001a 0168     		ldr	r1, [r0]
 445 001c 0B68     		ldr	r3, [r1]
 446 001e 43F00103 		orr	r3, r3, #1
 447 0022 0B60     		str	r3, [r1]
 572:Drivers/STM32L4xx_HAL_Driver/Src/stm32l4xx_hal_opamp.c ****     }
 448              		.loc 1 572 7 view .LVU122
 572:Drivers/STM32L4xx_HAL_Driver/Src/stm32l4xx_hal_opamp.c ****     }
 449              		.loc 1 572 21 is_stmt 0 view .LVU123
 450 0024 0423     		movs	r3, #4
 451 0026 80F83230 		strb	r3, [r0, #50]
 552:Drivers/STM32L4xx_HAL_Driver/Src/stm32l4xx_hal_opamp.c ****   
 452              		.loc 1 552 21 view .LVU124
 453 002a 0020     		movs	r0, #0
 454              	.LVL25:
 552:Drivers/STM32L4xx_HAL_Driver/Src/stm32l4xx_hal_opamp.c ****   
 455              		.loc 1 552 21 view .LVU125
 456 002c 7047     		bx	lr
 457              	.LVL26:
 458              	.L35:
 558:Drivers/STM32L4xx_HAL_Driver/Src/stm32l4xx_hal_opamp.c ****   }
 459              		.loc 1 558 12 view .LVU126
 460 002e 0120     		movs	r0, #1
ARM GAS  /tmp/cc1FqXos.s 			page 21


 461              	.LVL27:
 558:Drivers/STM32L4xx_HAL_Driver/Src/stm32l4xx_hal_opamp.c ****   }
 462              		.loc 1 558 12 view .LVU127
 463 0030 7047     		bx	lr
 464              	.LVL28:
 465              	.L36:
 558:Drivers/STM32L4xx_HAL_Driver/Src/stm32l4xx_hal_opamp.c ****   }
 466              		.loc 1 558 12 view .LVU128
 467 0032 0120     		movs	r0, #1
 468              	.LVL29:
 558:Drivers/STM32L4xx_HAL_Driver/Src/stm32l4xx_hal_opamp.c ****   }
 469              		.loc 1 558 12 view .LVU129
 470 0034 7047     		bx	lr
 471              		.cfi_endproc
 472              	.LFE313:
 474              		.section	.text.HAL_OPAMP_Stop,"ax",%progbits
 475              		.align	1
 476              		.global	HAL_OPAMP_Stop
 477              		.syntax unified
 478              		.thumb
 479              		.thumb_func
 480              		.fpu fpv4-sp-d16
 482              	HAL_OPAMP_Stop:
 483              	.LVL30:
 484              	.LFB314:
 582:Drivers/STM32L4xx_HAL_Driver/Src/stm32l4xx_hal_opamp.c **** 
 583:Drivers/STM32L4xx_HAL_Driver/Src/stm32l4xx_hal_opamp.c **** /**
 584:Drivers/STM32L4xx_HAL_Driver/Src/stm32l4xx_hal_opamp.c ****   * @brief  Stop the OPAMP.
 585:Drivers/STM32L4xx_HAL_Driver/Src/stm32l4xx_hal_opamp.c ****   * @param  hopamp: OPAMP handle
 586:Drivers/STM32L4xx_HAL_Driver/Src/stm32l4xx_hal_opamp.c ****   * @retval HAL status
 587:Drivers/STM32L4xx_HAL_Driver/Src/stm32l4xx_hal_opamp.c ****   */
 588:Drivers/STM32L4xx_HAL_Driver/Src/stm32l4xx_hal_opamp.c **** HAL_StatusTypeDef HAL_OPAMP_Stop(OPAMP_HandleTypeDef *hopamp)
 589:Drivers/STM32L4xx_HAL_Driver/Src/stm32l4xx_hal_opamp.c **** { 
 485              		.loc 1 589 1 is_stmt 1 view -0
 486              		.cfi_startproc
 487              		@ args = 0, pretend = 0, frame = 0
 488              		@ frame_needed = 0, uses_anonymous_args = 0
 489              		@ link register save eliminated.
 590:Drivers/STM32L4xx_HAL_Driver/Src/stm32l4xx_hal_opamp.c ****   HAL_StatusTypeDef status = HAL_OK;
 490              		.loc 1 590 3 view .LVU131
 591:Drivers/STM32L4xx_HAL_Driver/Src/stm32l4xx_hal_opamp.c ****     
 592:Drivers/STM32L4xx_HAL_Driver/Src/stm32l4xx_hal_opamp.c ****   /* Check the OPAMP handle allocation */
 593:Drivers/STM32L4xx_HAL_Driver/Src/stm32l4xx_hal_opamp.c ****   /* Check if OPAMP locked */
 594:Drivers/STM32L4xx_HAL_Driver/Src/stm32l4xx_hal_opamp.c ****   /* Check if OPAMP calibration ongoing */
 595:Drivers/STM32L4xx_HAL_Driver/Src/stm32l4xx_hal_opamp.c ****   if((hopamp == NULL) || (hopamp->State == HAL_OPAMP_STATE_BUSYLOCKED) \
 491              		.loc 1 595 3 view .LVU132
 492              		.loc 1 595 5 is_stmt 0 view .LVU133
 493 0000 D0B1     		cbz	r0, .L41
 494              		.loc 1 595 33 discriminator 1 view .LVU134
 495 0002 90F83230 		ldrb	r3, [r0, #50]	@ zero_extendqisi2
 496 0006 DBB2     		uxtb	r3, r3
 497              		.loc 1 595 23 discriminator 1 view .LVU135
 498 0008 052B     		cmp	r3, #5
 499 000a 17D0     		beq	.L42
 596:Drivers/STM32L4xx_HAL_Driver/Src/stm32l4xx_hal_opamp.c ****                       || (hopamp->State == HAL_OPAMP_STATE_CALIBBUSY))  
 500              		.loc 1 596 33 view .LVU136
 501 000c 90F83230 		ldrb	r3, [r0, #50]	@ zero_extendqisi2
ARM GAS  /tmp/cc1FqXos.s 			page 22


 502 0010 DBB2     		uxtb	r3, r3
 503              		.loc 1 596 23 view .LVU137
 504 0012 022B     		cmp	r3, #2
 505 0014 14D0     		beq	.L43
 597:Drivers/STM32L4xx_HAL_Driver/Src/stm32l4xx_hal_opamp.c ****   {
 598:Drivers/STM32L4xx_HAL_Driver/Src/stm32l4xx_hal_opamp.c ****     status = HAL_ERROR;
 599:Drivers/STM32L4xx_HAL_Driver/Src/stm32l4xx_hal_opamp.c ****   }
 600:Drivers/STM32L4xx_HAL_Driver/Src/stm32l4xx_hal_opamp.c ****   else
 601:Drivers/STM32L4xx_HAL_Driver/Src/stm32l4xx_hal_opamp.c ****   {
 602:Drivers/STM32L4xx_HAL_Driver/Src/stm32l4xx_hal_opamp.c ****     /* Check the parameter */
 603:Drivers/STM32L4xx_HAL_Driver/Src/stm32l4xx_hal_opamp.c ****     assert_param(IS_OPAMP_ALL_INSTANCE(hopamp->Instance));
 506              		.loc 1 603 5 is_stmt 1 view .LVU138
 604:Drivers/STM32L4xx_HAL_Driver/Src/stm32l4xx_hal_opamp.c **** 
 605:Drivers/STM32L4xx_HAL_Driver/Src/stm32l4xx_hal_opamp.c ****     if(hopamp->State == HAL_OPAMP_STATE_BUSY)
 507              		.loc 1 605 5 view .LVU139
 508              		.loc 1 605 14 is_stmt 0 view .LVU140
 509 0016 90F83230 		ldrb	r3, [r0, #50]	@ zero_extendqisi2
 510 001a DBB2     		uxtb	r3, r3
 511              		.loc 1 605 7 view .LVU141
 512 001c 042B     		cmp	r3, #4
 513 001e 01D0     		beq	.L45
 606:Drivers/STM32L4xx_HAL_Driver/Src/stm32l4xx_hal_opamp.c ****     {
 607:Drivers/STM32L4xx_HAL_Driver/Src/stm32l4xx_hal_opamp.c ****       /* Disable the selected opamp */
 608:Drivers/STM32L4xx_HAL_Driver/Src/stm32l4xx_hal_opamp.c ****       CLEAR_BIT (hopamp->Instance->CSR, OPAMP_CSR_OPAMPxEN); 
 609:Drivers/STM32L4xx_HAL_Driver/Src/stm32l4xx_hal_opamp.c ****     
 610:Drivers/STM32L4xx_HAL_Driver/Src/stm32l4xx_hal_opamp.c ****       /* Update the OPAMP state*/     
 611:Drivers/STM32L4xx_HAL_Driver/Src/stm32l4xx_hal_opamp.c ****       /* From  HAL_OPAMP_STATE_BUSY to HAL_OPAMP_STATE_READY*/
 612:Drivers/STM32L4xx_HAL_Driver/Src/stm32l4xx_hal_opamp.c ****       hopamp->State = HAL_OPAMP_STATE_READY;
 613:Drivers/STM32L4xx_HAL_Driver/Src/stm32l4xx_hal_opamp.c ****     }
 614:Drivers/STM32L4xx_HAL_Driver/Src/stm32l4xx_hal_opamp.c ****     else
 615:Drivers/STM32L4xx_HAL_Driver/Src/stm32l4xx_hal_opamp.c ****     {
 616:Drivers/STM32L4xx_HAL_Driver/Src/stm32l4xx_hal_opamp.c ****       status = HAL_ERROR;
 514              		.loc 1 616 14 view .LVU142
 515 0020 0120     		movs	r0, #1
 516              	.LVL31:
 617:Drivers/STM32L4xx_HAL_Driver/Src/stm32l4xx_hal_opamp.c ****     }
 618:Drivers/STM32L4xx_HAL_Driver/Src/stm32l4xx_hal_opamp.c ****   }
 619:Drivers/STM32L4xx_HAL_Driver/Src/stm32l4xx_hal_opamp.c ****   return status;
 517              		.loc 1 619 3 is_stmt 1 view .LVU143
 620:Drivers/STM32L4xx_HAL_Driver/Src/stm32l4xx_hal_opamp.c **** }
 518              		.loc 1 620 1 is_stmt 0 view .LVU144
 519 0022 7047     		bx	lr
 520              	.LVL32:
 521              	.L45:
 608:Drivers/STM32L4xx_HAL_Driver/Src/stm32l4xx_hal_opamp.c ****     
 522              		.loc 1 608 7 is_stmt 1 view .LVU145
 523 0024 0168     		ldr	r1, [r0]
 524 0026 0B68     		ldr	r3, [r1]
 525 0028 23F00103 		bic	r3, r3, #1
 526 002c 0B60     		str	r3, [r1]
 612:Drivers/STM32L4xx_HAL_Driver/Src/stm32l4xx_hal_opamp.c ****     }
 527              		.loc 1 612 7 view .LVU146
 612:Drivers/STM32L4xx_HAL_Driver/Src/stm32l4xx_hal_opamp.c ****     }
 528              		.loc 1 612 21 is_stmt 0 view .LVU147
 529 002e 0123     		movs	r3, #1
 530 0030 80F83230 		strb	r3, [r0, #50]
 590:Drivers/STM32L4xx_HAL_Driver/Src/stm32l4xx_hal_opamp.c ****     
ARM GAS  /tmp/cc1FqXos.s 			page 23


 531              		.loc 1 590 21 view .LVU148
 532 0034 0020     		movs	r0, #0
 533              	.LVL33:
 590:Drivers/STM32L4xx_HAL_Driver/Src/stm32l4xx_hal_opamp.c ****     
 534              		.loc 1 590 21 view .LVU149
 535 0036 7047     		bx	lr
 536              	.LVL34:
 537              	.L41:
 598:Drivers/STM32L4xx_HAL_Driver/Src/stm32l4xx_hal_opamp.c ****   }
 538              		.loc 1 598 12 view .LVU150
 539 0038 0120     		movs	r0, #1
 540              	.LVL35:
 598:Drivers/STM32L4xx_HAL_Driver/Src/stm32l4xx_hal_opamp.c ****   }
 541              		.loc 1 598 12 view .LVU151
 542 003a 7047     		bx	lr
 543              	.LVL36:
 544              	.L42:
 598:Drivers/STM32L4xx_HAL_Driver/Src/stm32l4xx_hal_opamp.c ****   }
 545              		.loc 1 598 12 view .LVU152
 546 003c 0120     		movs	r0, #1
 547              	.LVL37:
 598:Drivers/STM32L4xx_HAL_Driver/Src/stm32l4xx_hal_opamp.c ****   }
 548              		.loc 1 598 12 view .LVU153
 549 003e 7047     		bx	lr
 550              	.LVL38:
 551              	.L43:
 598:Drivers/STM32L4xx_HAL_Driver/Src/stm32l4xx_hal_opamp.c ****   }
 552              		.loc 1 598 12 view .LVU154
 553 0040 0120     		movs	r0, #1
 554              	.LVL39:
 598:Drivers/STM32L4xx_HAL_Driver/Src/stm32l4xx_hal_opamp.c ****   }
 555              		.loc 1 598 12 view .LVU155
 556 0042 7047     		bx	lr
 557              		.cfi_endproc
 558              	.LFE314:
 560              		.section	.text.HAL_OPAMP_SelfCalibrate,"ax",%progbits
 561              		.align	1
 562              		.global	HAL_OPAMP_SelfCalibrate
 563              		.syntax unified
 564              		.thumb
 565              		.thumb_func
 566              		.fpu fpv4-sp-d16
 568              	HAL_OPAMP_SelfCalibrate:
 569              	.LVL40:
 570              	.LFB315:
 621:Drivers/STM32L4xx_HAL_Driver/Src/stm32l4xx_hal_opamp.c **** 
 622:Drivers/STM32L4xx_HAL_Driver/Src/stm32l4xx_hal_opamp.c **** /**
 623:Drivers/STM32L4xx_HAL_Driver/Src/stm32l4xx_hal_opamp.c ****   * @brief  Run the self calibration of one OPAMP.
 624:Drivers/STM32L4xx_HAL_Driver/Src/stm32l4xx_hal_opamp.c ****   * @note   Calibration is performed in the mode specified in OPAMP init
 625:Drivers/STM32L4xx_HAL_Driver/Src/stm32l4xx_hal_opamp.c ****   *         structure (mode normal or low-power). To perform calibration for
 626:Drivers/STM32L4xx_HAL_Driver/Src/stm32l4xx_hal_opamp.c ****   *         both modes, repeat this function twice after OPAMP init structure
 627:Drivers/STM32L4xx_HAL_Driver/Src/stm32l4xx_hal_opamp.c ****   *         accordingly updated.
 628:Drivers/STM32L4xx_HAL_Driver/Src/stm32l4xx_hal_opamp.c ****   * @note   Calibration runs about 10 ms.
 629:Drivers/STM32L4xx_HAL_Driver/Src/stm32l4xx_hal_opamp.c ****   * @param  hopamp handle
 630:Drivers/STM32L4xx_HAL_Driver/Src/stm32l4xx_hal_opamp.c ****   * @retval Updated offset trimming values (PMOS & NMOS), user trimming is enabled
 631:Drivers/STM32L4xx_HAL_Driver/Src/stm32l4xx_hal_opamp.c ****   * @retval HAL status
 632:Drivers/STM32L4xx_HAL_Driver/Src/stm32l4xx_hal_opamp.c **** 
ARM GAS  /tmp/cc1FqXos.s 			page 24


 633:Drivers/STM32L4xx_HAL_Driver/Src/stm32l4xx_hal_opamp.c ****   */
 634:Drivers/STM32L4xx_HAL_Driver/Src/stm32l4xx_hal_opamp.c **** 
 635:Drivers/STM32L4xx_HAL_Driver/Src/stm32l4xx_hal_opamp.c **** HAL_StatusTypeDef HAL_OPAMP_SelfCalibrate(OPAMP_HandleTypeDef *hopamp)
 636:Drivers/STM32L4xx_HAL_Driver/Src/stm32l4xx_hal_opamp.c **** { 
 571              		.loc 1 636 1 is_stmt 1 view -0
 572              		.cfi_startproc
 573              		@ args = 0, pretend = 0, frame = 0
 574              		@ frame_needed = 0, uses_anonymous_args = 0
 637:Drivers/STM32L4xx_HAL_Driver/Src/stm32l4xx_hal_opamp.c **** 
 638:Drivers/STM32L4xx_HAL_Driver/Src/stm32l4xx_hal_opamp.c ****   HAL_StatusTypeDef status = HAL_OK;
 575              		.loc 1 638 3 view .LVU157
 639:Drivers/STM32L4xx_HAL_Driver/Src/stm32l4xx_hal_opamp.c ****   
 640:Drivers/STM32L4xx_HAL_Driver/Src/stm32l4xx_hal_opamp.c ****   uint32_t trimmingvaluen = 0;
 576              		.loc 1 640 3 view .LVU158
 641:Drivers/STM32L4xx_HAL_Driver/Src/stm32l4xx_hal_opamp.c ****   uint32_t trimmingvaluep = 0;
 577              		.loc 1 641 3 view .LVU159
 642:Drivers/STM32L4xx_HAL_Driver/Src/stm32l4xx_hal_opamp.c ****   uint32_t delta;
 578              		.loc 1 642 3 view .LVU160
 643:Drivers/STM32L4xx_HAL_Driver/Src/stm32l4xx_hal_opamp.c ****   uint32_t opampmode;
 579              		.loc 1 643 3 view .LVU161
 644:Drivers/STM32L4xx_HAL_Driver/Src/stm32l4xx_hal_opamp.c ****   
 645:Drivers/STM32L4xx_HAL_Driver/Src/stm32l4xx_hal_opamp.c ****   __IO uint32_t* tmp_opamp_reg_trimming;   /* Selection of register of trimming depending on power 
 580              		.loc 1 645 3 view .LVU162
 646:Drivers/STM32L4xx_HAL_Driver/Src/stm32l4xx_hal_opamp.c ****     
 647:Drivers/STM32L4xx_HAL_Driver/Src/stm32l4xx_hal_opamp.c ****   /* Check the OPAMP handle allocation */
 648:Drivers/STM32L4xx_HAL_Driver/Src/stm32l4xx_hal_opamp.c ****   /* Check if OPAMP locked */
 649:Drivers/STM32L4xx_HAL_Driver/Src/stm32l4xx_hal_opamp.c ****   if((hopamp == NULL) || (hopamp->State == HAL_OPAMP_STATE_BUSYLOCKED))
 581              		.loc 1 649 3 view .LVU163
 582              		.loc 1 649 5 is_stmt 0 view .LVU164
 583 0000 0028     		cmp	r0, #0
 584 0002 00F0B280 		beq	.L62
 636:Drivers/STM32L4xx_HAL_Driver/Src/stm32l4xx_hal_opamp.c **** 
 585              		.loc 1 636 1 discriminator 1 view .LVU165
 586 0006 2DE9F843 		push	{r3, r4, r5, r6, r7, r8, r9, lr}
 587              	.LCFI5:
 588              		.cfi_def_cfa_offset 32
 589              		.cfi_offset 3, -32
 590              		.cfi_offset 4, -28
 591              		.cfi_offset 5, -24
 592              		.cfi_offset 6, -20
 593              		.cfi_offset 7, -16
 594              		.cfi_offset 8, -12
 595              		.cfi_offset 9, -8
 596              		.cfi_offset 14, -4
 597 000a 0446     		mov	r4, r0
 598              		.loc 1 649 33 discriminator 1 view .LVU166
 599 000c 90F83230 		ldrb	r3, [r0, #50]	@ zero_extendqisi2
 600 0010 DBB2     		uxtb	r3, r3
 601              		.loc 1 649 23 discriminator 1 view .LVU167
 602 0012 052B     		cmp	r3, #5
 603 0014 00F0AB80 		beq	.L63
 650:Drivers/STM32L4xx_HAL_Driver/Src/stm32l4xx_hal_opamp.c ****   {
 651:Drivers/STM32L4xx_HAL_Driver/Src/stm32l4xx_hal_opamp.c ****     status = HAL_ERROR;
 652:Drivers/STM32L4xx_HAL_Driver/Src/stm32l4xx_hal_opamp.c ****   }
 653:Drivers/STM32L4xx_HAL_Driver/Src/stm32l4xx_hal_opamp.c ****   else
 654:Drivers/STM32L4xx_HAL_Driver/Src/stm32l4xx_hal_opamp.c ****   {
 655:Drivers/STM32L4xx_HAL_Driver/Src/stm32l4xx_hal_opamp.c ****     /* Check if OPAMP in calibration mode and calibration not yet enable */
ARM GAS  /tmp/cc1FqXos.s 			page 25


 656:Drivers/STM32L4xx_HAL_Driver/Src/stm32l4xx_hal_opamp.c ****     if(hopamp->State ==  HAL_OPAMP_STATE_READY)
 604              		.loc 1 656 5 is_stmt 1 view .LVU168
 605              		.loc 1 656 14 is_stmt 0 view .LVU169
 606 0018 90F83230 		ldrb	r3, [r0, #50]	@ zero_extendqisi2
 607 001c DBB2     		uxtb	r3, r3
 608              		.loc 1 656 7 view .LVU170
 609 001e 012B     		cmp	r3, #1
 610 0020 02D0     		beq	.L69
 657:Drivers/STM32L4xx_HAL_Driver/Src/stm32l4xx_hal_opamp.c ****     {
 658:Drivers/STM32L4xx_HAL_Driver/Src/stm32l4xx_hal_opamp.c ****       /* Check the parameter */
 659:Drivers/STM32L4xx_HAL_Driver/Src/stm32l4xx_hal_opamp.c ****       assert_param(IS_OPAMP_ALL_INSTANCE(hopamp->Instance));
 660:Drivers/STM32L4xx_HAL_Driver/Src/stm32l4xx_hal_opamp.c ****       assert_param(IS_OPAMP_POWERMODE(hopamp->Init.PowerMode));
 661:Drivers/STM32L4xx_HAL_Driver/Src/stm32l4xx_hal_opamp.c **** 
 662:Drivers/STM32L4xx_HAL_Driver/Src/stm32l4xx_hal_opamp.c ****       /* Save OPAMP mode as in                                       */
 663:Drivers/STM32L4xx_HAL_Driver/Src/stm32l4xx_hal_opamp.c ****       /* STM32L471xx STM32L475xx STM32L476xx STM32L485xx STM32L486xx */
 664:Drivers/STM32L4xx_HAL_Driver/Src/stm32l4xx_hal_opamp.c ****       /* the calibration is not working in PGA mode                  */
 665:Drivers/STM32L4xx_HAL_Driver/Src/stm32l4xx_hal_opamp.c ****       opampmode = READ_BIT(hopamp->Instance->CSR,OPAMP_CSR_OPAMODE);
 666:Drivers/STM32L4xx_HAL_Driver/Src/stm32l4xx_hal_opamp.c ****       
 667:Drivers/STM32L4xx_HAL_Driver/Src/stm32l4xx_hal_opamp.c ****       /* Use of standalone mode */ 
 668:Drivers/STM32L4xx_HAL_Driver/Src/stm32l4xx_hal_opamp.c ****       MODIFY_REG(hopamp->Instance->CSR, OPAMP_CSR_OPAMODE, OPAMP_STANDALONE_MODE); 
 669:Drivers/STM32L4xx_HAL_Driver/Src/stm32l4xx_hal_opamp.c **** 
 670:Drivers/STM32L4xx_HAL_Driver/Src/stm32l4xx_hal_opamp.c ****       /*  user trimming values are used for offset calibration */
 671:Drivers/STM32L4xx_HAL_Driver/Src/stm32l4xx_hal_opamp.c ****       SET_BIT(hopamp->Instance->CSR, OPAMP_CSR_USERTRIM);
 672:Drivers/STM32L4xx_HAL_Driver/Src/stm32l4xx_hal_opamp.c ****       
 673:Drivers/STM32L4xx_HAL_Driver/Src/stm32l4xx_hal_opamp.c ****       /* Select trimming settings depending on power mode */
 674:Drivers/STM32L4xx_HAL_Driver/Src/stm32l4xx_hal_opamp.c ****       if (hopamp->Init.PowerMode == OPAMP_POWERMODE_NORMAL)
 675:Drivers/STM32L4xx_HAL_Driver/Src/stm32l4xx_hal_opamp.c ****       {
 676:Drivers/STM32L4xx_HAL_Driver/Src/stm32l4xx_hal_opamp.c ****         tmp_opamp_reg_trimming = &hopamp->Instance->OTR;
 677:Drivers/STM32L4xx_HAL_Driver/Src/stm32l4xx_hal_opamp.c ****       }
 678:Drivers/STM32L4xx_HAL_Driver/Src/stm32l4xx_hal_opamp.c ****       else
 679:Drivers/STM32L4xx_HAL_Driver/Src/stm32l4xx_hal_opamp.c ****       {
 680:Drivers/STM32L4xx_HAL_Driver/Src/stm32l4xx_hal_opamp.c ****         tmp_opamp_reg_trimming = &hopamp->Instance->LPOTR;
 681:Drivers/STM32L4xx_HAL_Driver/Src/stm32l4xx_hal_opamp.c ****       }
 682:Drivers/STM32L4xx_HAL_Driver/Src/stm32l4xx_hal_opamp.c ****       
 683:Drivers/STM32L4xx_HAL_Driver/Src/stm32l4xx_hal_opamp.c ****       /* Enable calibration */
 684:Drivers/STM32L4xx_HAL_Driver/Src/stm32l4xx_hal_opamp.c ****       SET_BIT (hopamp->Instance->CSR, OPAMP_CSR_CALON);
 685:Drivers/STM32L4xx_HAL_Driver/Src/stm32l4xx_hal_opamp.c ****   
 686:Drivers/STM32L4xx_HAL_Driver/Src/stm32l4xx_hal_opamp.c ****       /* 1st calibration - N */
 687:Drivers/STM32L4xx_HAL_Driver/Src/stm32l4xx_hal_opamp.c ****       CLEAR_BIT (hopamp->Instance->CSR, OPAMP_CSR_CALSEL);
 688:Drivers/STM32L4xx_HAL_Driver/Src/stm32l4xx_hal_opamp.c ****       
 689:Drivers/STM32L4xx_HAL_Driver/Src/stm32l4xx_hal_opamp.c ****       /* Enable the selected opamp */
 690:Drivers/STM32L4xx_HAL_Driver/Src/stm32l4xx_hal_opamp.c ****       SET_BIT (hopamp->Instance->CSR, OPAMP_CSR_OPAMPxEN);
 691:Drivers/STM32L4xx_HAL_Driver/Src/stm32l4xx_hal_opamp.c ****       
 692:Drivers/STM32L4xx_HAL_Driver/Src/stm32l4xx_hal_opamp.c ****       /* Init trimming counter */    
 693:Drivers/STM32L4xx_HAL_Driver/Src/stm32l4xx_hal_opamp.c ****       /* Medium value */
 694:Drivers/STM32L4xx_HAL_Driver/Src/stm32l4xx_hal_opamp.c ****       trimmingvaluen = 16; 
 695:Drivers/STM32L4xx_HAL_Driver/Src/stm32l4xx_hal_opamp.c ****       delta = 8;
 696:Drivers/STM32L4xx_HAL_Driver/Src/stm32l4xx_hal_opamp.c ****            
 697:Drivers/STM32L4xx_HAL_Driver/Src/stm32l4xx_hal_opamp.c ****       while (delta != 0)
 698:Drivers/STM32L4xx_HAL_Driver/Src/stm32l4xx_hal_opamp.c ****       {
 699:Drivers/STM32L4xx_HAL_Driver/Src/stm32l4xx_hal_opamp.c ****         /* Set candidate trimming */
 700:Drivers/STM32L4xx_HAL_Driver/Src/stm32l4xx_hal_opamp.c ****         /* OPAMP_POWERMODE_NORMAL */
 701:Drivers/STM32L4xx_HAL_Driver/Src/stm32l4xx_hal_opamp.c ****         MODIFY_REG(*tmp_opamp_reg_trimming, OPAMP_OTR_TRIMOFFSETN, trimmingvaluen);
 702:Drivers/STM32L4xx_HAL_Driver/Src/stm32l4xx_hal_opamp.c ****         
 703:Drivers/STM32L4xx_HAL_Driver/Src/stm32l4xx_hal_opamp.c ****         /* OFFTRIMmax delay 1 ms as per datasheet (electrical characteristics */ 
 704:Drivers/STM32L4xx_HAL_Driver/Src/stm32l4xx_hal_opamp.c ****         /* Offset trim time: during calibration, minimum time needed between */
 705:Drivers/STM32L4xx_HAL_Driver/Src/stm32l4xx_hal_opamp.c ****         /* two steps to have 1 mV accuracy */
ARM GAS  /tmp/cc1FqXos.s 			page 26


 706:Drivers/STM32L4xx_HAL_Driver/Src/stm32l4xx_hal_opamp.c ****         HAL_Delay(OPAMP_TRIMMING_DELAY);
 707:Drivers/STM32L4xx_HAL_Driver/Src/stm32l4xx_hal_opamp.c **** 
 708:Drivers/STM32L4xx_HAL_Driver/Src/stm32l4xx_hal_opamp.c ****         if (READ_BIT(hopamp->Instance->CSR, OPAMP_CSR_CALOUT) != RESET)
 709:Drivers/STM32L4xx_HAL_Driver/Src/stm32l4xx_hal_opamp.c ****         { 
 710:Drivers/STM32L4xx_HAL_Driver/Src/stm32l4xx_hal_opamp.c ****           /* OPAMP_CSR_CALOUT is HIGH try higher trimming */
 711:Drivers/STM32L4xx_HAL_Driver/Src/stm32l4xx_hal_opamp.c ****           trimmingvaluen -= delta;
 712:Drivers/STM32L4xx_HAL_Driver/Src/stm32l4xx_hal_opamp.c ****         }
 713:Drivers/STM32L4xx_HAL_Driver/Src/stm32l4xx_hal_opamp.c ****         else
 714:Drivers/STM32L4xx_HAL_Driver/Src/stm32l4xx_hal_opamp.c ****         {
 715:Drivers/STM32L4xx_HAL_Driver/Src/stm32l4xx_hal_opamp.c ****           /* OPAMP_CSR_CALOUT is LOW try lower trimming */
 716:Drivers/STM32L4xx_HAL_Driver/Src/stm32l4xx_hal_opamp.c ****           trimmingvaluen += delta;
 717:Drivers/STM32L4xx_HAL_Driver/Src/stm32l4xx_hal_opamp.c ****         }
 718:Drivers/STM32L4xx_HAL_Driver/Src/stm32l4xx_hal_opamp.c ****         /* Divide range by 2 to continue dichotomy sweep */       
 719:Drivers/STM32L4xx_HAL_Driver/Src/stm32l4xx_hal_opamp.c ****         delta >>= 1;
 720:Drivers/STM32L4xx_HAL_Driver/Src/stm32l4xx_hal_opamp.c ****       }
 721:Drivers/STM32L4xx_HAL_Driver/Src/stm32l4xx_hal_opamp.c **** 
 722:Drivers/STM32L4xx_HAL_Driver/Src/stm32l4xx_hal_opamp.c ****       /* Still need to check if right calibration is current value or one step below */
 723:Drivers/STM32L4xx_HAL_Driver/Src/stm32l4xx_hal_opamp.c ****       /* Indeed the first value that causes the OUTCAL bit to change from 0 to 1  */
 724:Drivers/STM32L4xx_HAL_Driver/Src/stm32l4xx_hal_opamp.c ****       /* Set candidate trimming */
 725:Drivers/STM32L4xx_HAL_Driver/Src/stm32l4xx_hal_opamp.c ****       MODIFY_REG(*tmp_opamp_reg_trimming, OPAMP_OTR_TRIMOFFSETN, trimmingvaluen);
 726:Drivers/STM32L4xx_HAL_Driver/Src/stm32l4xx_hal_opamp.c ****            
 727:Drivers/STM32L4xx_HAL_Driver/Src/stm32l4xx_hal_opamp.c ****       /* OFFTRIMmax delay 1 ms as per datasheet (electrical characteristics */ 
 728:Drivers/STM32L4xx_HAL_Driver/Src/stm32l4xx_hal_opamp.c ****       /* Offset trim time: during calibration, minimum time needed between */
 729:Drivers/STM32L4xx_HAL_Driver/Src/stm32l4xx_hal_opamp.c ****       /* two steps to have 1 mV accuracy */
 730:Drivers/STM32L4xx_HAL_Driver/Src/stm32l4xx_hal_opamp.c ****       HAL_Delay(OPAMP_TRIMMING_DELAY);
 731:Drivers/STM32L4xx_HAL_Driver/Src/stm32l4xx_hal_opamp.c ****       
 732:Drivers/STM32L4xx_HAL_Driver/Src/stm32l4xx_hal_opamp.c ****       if ((READ_BIT(hopamp->Instance->CSR, OPAMP_CSR_CALOUT)) == 0)
 733:Drivers/STM32L4xx_HAL_Driver/Src/stm32l4xx_hal_opamp.c ****       { 
 734:Drivers/STM32L4xx_HAL_Driver/Src/stm32l4xx_hal_opamp.c ****         /* Trimming value is actually one value more */
 735:Drivers/STM32L4xx_HAL_Driver/Src/stm32l4xx_hal_opamp.c ****         trimmingvaluen++;
 736:Drivers/STM32L4xx_HAL_Driver/Src/stm32l4xx_hal_opamp.c ****         /* Set right trimming */
 737:Drivers/STM32L4xx_HAL_Driver/Src/stm32l4xx_hal_opamp.c ****         MODIFY_REG(*tmp_opamp_reg_trimming, OPAMP_OTR_TRIMOFFSETN, trimmingvaluen);
 738:Drivers/STM32L4xx_HAL_Driver/Src/stm32l4xx_hal_opamp.c ****       }
 739:Drivers/STM32L4xx_HAL_Driver/Src/stm32l4xx_hal_opamp.c **** 
 740:Drivers/STM32L4xx_HAL_Driver/Src/stm32l4xx_hal_opamp.c ****       /* 2nd calibration - P */
 741:Drivers/STM32L4xx_HAL_Driver/Src/stm32l4xx_hal_opamp.c ****       SET_BIT (hopamp->Instance->CSR, OPAMP_CSR_CALSEL);
 742:Drivers/STM32L4xx_HAL_Driver/Src/stm32l4xx_hal_opamp.c ****       
 743:Drivers/STM32L4xx_HAL_Driver/Src/stm32l4xx_hal_opamp.c ****       /* Init trimming counter */    
 744:Drivers/STM32L4xx_HAL_Driver/Src/stm32l4xx_hal_opamp.c ****       /* Medium value */
 745:Drivers/STM32L4xx_HAL_Driver/Src/stm32l4xx_hal_opamp.c ****       trimmingvaluep = 16; 
 746:Drivers/STM32L4xx_HAL_Driver/Src/stm32l4xx_hal_opamp.c ****       delta = 8;
 747:Drivers/STM32L4xx_HAL_Driver/Src/stm32l4xx_hal_opamp.c ****       
 748:Drivers/STM32L4xx_HAL_Driver/Src/stm32l4xx_hal_opamp.c ****       while (delta != 0)
 749:Drivers/STM32L4xx_HAL_Driver/Src/stm32l4xx_hal_opamp.c ****       {
 750:Drivers/STM32L4xx_HAL_Driver/Src/stm32l4xx_hal_opamp.c ****         /* Set candidate trimming */
 751:Drivers/STM32L4xx_HAL_Driver/Src/stm32l4xx_hal_opamp.c ****         /* OPAMP_POWERMODE_NORMAL */
 752:Drivers/STM32L4xx_HAL_Driver/Src/stm32l4xx_hal_opamp.c ****         MODIFY_REG(*tmp_opamp_reg_trimming, OPAMP_OTR_TRIMOFFSETP, (trimmingvaluep<<OPAMP_INPUT_NON
 753:Drivers/STM32L4xx_HAL_Driver/Src/stm32l4xx_hal_opamp.c **** 
 754:Drivers/STM32L4xx_HAL_Driver/Src/stm32l4xx_hal_opamp.c ****         /* OFFTRIMmax delay 1 ms as per datasheet (electrical characteristics */ 
 755:Drivers/STM32L4xx_HAL_Driver/Src/stm32l4xx_hal_opamp.c ****         /* Offset trim time: during calibration, minimum time needed between */
 756:Drivers/STM32L4xx_HAL_Driver/Src/stm32l4xx_hal_opamp.c ****         /* two steps to have 1 mV accuracy */
 757:Drivers/STM32L4xx_HAL_Driver/Src/stm32l4xx_hal_opamp.c ****         HAL_Delay(OPAMP_TRIMMING_DELAY);
 758:Drivers/STM32L4xx_HAL_Driver/Src/stm32l4xx_hal_opamp.c **** 
 759:Drivers/STM32L4xx_HAL_Driver/Src/stm32l4xx_hal_opamp.c ****         if (READ_BIT(hopamp->Instance->CSR, OPAMP_CSR_CALOUT) != RESET)
 760:Drivers/STM32L4xx_HAL_Driver/Src/stm32l4xx_hal_opamp.c ****         { 
 761:Drivers/STM32L4xx_HAL_Driver/Src/stm32l4xx_hal_opamp.c ****           /* OPAMP_CSR_CALOUT is HIGH try higher trimming */
 762:Drivers/STM32L4xx_HAL_Driver/Src/stm32l4xx_hal_opamp.c ****           trimmingvaluep += delta;
ARM GAS  /tmp/cc1FqXos.s 			page 27


 763:Drivers/STM32L4xx_HAL_Driver/Src/stm32l4xx_hal_opamp.c ****         }
 764:Drivers/STM32L4xx_HAL_Driver/Src/stm32l4xx_hal_opamp.c ****         else
 765:Drivers/STM32L4xx_HAL_Driver/Src/stm32l4xx_hal_opamp.c ****         {
 766:Drivers/STM32L4xx_HAL_Driver/Src/stm32l4xx_hal_opamp.c ****           /* OPAMP_CSR_CALOUT  is LOW try lower trimming */
 767:Drivers/STM32L4xx_HAL_Driver/Src/stm32l4xx_hal_opamp.c ****           trimmingvaluep -= delta;
 768:Drivers/STM32L4xx_HAL_Driver/Src/stm32l4xx_hal_opamp.c ****         }
 769:Drivers/STM32L4xx_HAL_Driver/Src/stm32l4xx_hal_opamp.c ****         
 770:Drivers/STM32L4xx_HAL_Driver/Src/stm32l4xx_hal_opamp.c ****         /* Divide range by 2 to continue dichotomy sweep */
 771:Drivers/STM32L4xx_HAL_Driver/Src/stm32l4xx_hal_opamp.c ****         delta >>= 1;
 772:Drivers/STM32L4xx_HAL_Driver/Src/stm32l4xx_hal_opamp.c ****       }
 773:Drivers/STM32L4xx_HAL_Driver/Src/stm32l4xx_hal_opamp.c ****       
 774:Drivers/STM32L4xx_HAL_Driver/Src/stm32l4xx_hal_opamp.c ****       /* Still need to check if right calibration is current value or one step below */
 775:Drivers/STM32L4xx_HAL_Driver/Src/stm32l4xx_hal_opamp.c ****       /* Indeed the first value that causes the OUTCAL bit to change from 1 to 0  */
 776:Drivers/STM32L4xx_HAL_Driver/Src/stm32l4xx_hal_opamp.c ****       /* Set candidate trimming */
 777:Drivers/STM32L4xx_HAL_Driver/Src/stm32l4xx_hal_opamp.c ****       MODIFY_REG(*tmp_opamp_reg_trimming, OPAMP_OTR_TRIMOFFSETP, (trimmingvaluep<<OPAMP_INPUT_NONIN
 778:Drivers/STM32L4xx_HAL_Driver/Src/stm32l4xx_hal_opamp.c **** 
 779:Drivers/STM32L4xx_HAL_Driver/Src/stm32l4xx_hal_opamp.c ****       /* OFFTRIMmax delay 1 ms as per datasheet (electrical characteristics */ 
 780:Drivers/STM32L4xx_HAL_Driver/Src/stm32l4xx_hal_opamp.c ****       /* Offset trim time: during calibration, minimum time needed between */
 781:Drivers/STM32L4xx_HAL_Driver/Src/stm32l4xx_hal_opamp.c ****       /* two steps to have 1 mV accuracy */
 782:Drivers/STM32L4xx_HAL_Driver/Src/stm32l4xx_hal_opamp.c ****       HAL_Delay(OPAMP_TRIMMING_DELAY);
 783:Drivers/STM32L4xx_HAL_Driver/Src/stm32l4xx_hal_opamp.c ****       
 784:Drivers/STM32L4xx_HAL_Driver/Src/stm32l4xx_hal_opamp.c ****       if (READ_BIT(hopamp->Instance->CSR, OPAMP_CSR_CALOUT) != RESET)
 785:Drivers/STM32L4xx_HAL_Driver/Src/stm32l4xx_hal_opamp.c ****       {
 786:Drivers/STM32L4xx_HAL_Driver/Src/stm32l4xx_hal_opamp.c ****         /* Trimming value is actually one value more */
 787:Drivers/STM32L4xx_HAL_Driver/Src/stm32l4xx_hal_opamp.c ****         trimmingvaluep++;
 788:Drivers/STM32L4xx_HAL_Driver/Src/stm32l4xx_hal_opamp.c ****         MODIFY_REG(*tmp_opamp_reg_trimming, OPAMP_OTR_TRIMOFFSETP, (trimmingvaluep<<OPAMP_INPUT_NON
 789:Drivers/STM32L4xx_HAL_Driver/Src/stm32l4xx_hal_opamp.c ****       }
 790:Drivers/STM32L4xx_HAL_Driver/Src/stm32l4xx_hal_opamp.c ****       
 791:Drivers/STM32L4xx_HAL_Driver/Src/stm32l4xx_hal_opamp.c ****       /* Disable the OPAMP */
 792:Drivers/STM32L4xx_HAL_Driver/Src/stm32l4xx_hal_opamp.c ****       CLEAR_BIT (hopamp->Instance->CSR, OPAMP_CSR_OPAMPxEN);
 793:Drivers/STM32L4xx_HAL_Driver/Src/stm32l4xx_hal_opamp.c ****       
 794:Drivers/STM32L4xx_HAL_Driver/Src/stm32l4xx_hal_opamp.c ****       /* Disable calibration & set normal mode (operating mode) */
 795:Drivers/STM32L4xx_HAL_Driver/Src/stm32l4xx_hal_opamp.c ****       CLEAR_BIT (hopamp->Instance->CSR, OPAMP_CSR_CALON);
 796:Drivers/STM32L4xx_HAL_Driver/Src/stm32l4xx_hal_opamp.c ****                  
 797:Drivers/STM32L4xx_HAL_Driver/Src/stm32l4xx_hal_opamp.c ****       /* Self calibration is successful  */
 798:Drivers/STM32L4xx_HAL_Driver/Src/stm32l4xx_hal_opamp.c ****       /* Store calibration(user trimming) results in init structure. */
 799:Drivers/STM32L4xx_HAL_Driver/Src/stm32l4xx_hal_opamp.c **** 
 800:Drivers/STM32L4xx_HAL_Driver/Src/stm32l4xx_hal_opamp.c ****       /* Set user trimming mode */  
 801:Drivers/STM32L4xx_HAL_Driver/Src/stm32l4xx_hal_opamp.c ****       hopamp->Init.UserTrimming = OPAMP_TRIMMING_USER;
 802:Drivers/STM32L4xx_HAL_Driver/Src/stm32l4xx_hal_opamp.c **** 
 803:Drivers/STM32L4xx_HAL_Driver/Src/stm32l4xx_hal_opamp.c ****       /* Affect calibration parameters depending on mode normal/low power */
 804:Drivers/STM32L4xx_HAL_Driver/Src/stm32l4xx_hal_opamp.c ****       if (hopamp->Init.PowerMode != OPAMP_POWERMODE_LOWPOWER)
 805:Drivers/STM32L4xx_HAL_Driver/Src/stm32l4xx_hal_opamp.c ****       {
 806:Drivers/STM32L4xx_HAL_Driver/Src/stm32l4xx_hal_opamp.c ****         /* Write calibration result N */
 807:Drivers/STM32L4xx_HAL_Driver/Src/stm32l4xx_hal_opamp.c ****         hopamp->Init.TrimmingValueN = trimmingvaluen;
 808:Drivers/STM32L4xx_HAL_Driver/Src/stm32l4xx_hal_opamp.c ****         /* Write calibration result P */
 809:Drivers/STM32L4xx_HAL_Driver/Src/stm32l4xx_hal_opamp.c ****         hopamp->Init.TrimmingValueP = trimmingvaluep;
 810:Drivers/STM32L4xx_HAL_Driver/Src/stm32l4xx_hal_opamp.c ****       }
 811:Drivers/STM32L4xx_HAL_Driver/Src/stm32l4xx_hal_opamp.c ****       else
 812:Drivers/STM32L4xx_HAL_Driver/Src/stm32l4xx_hal_opamp.c ****       {
 813:Drivers/STM32L4xx_HAL_Driver/Src/stm32l4xx_hal_opamp.c ****         /* Write calibration result N */
 814:Drivers/STM32L4xx_HAL_Driver/Src/stm32l4xx_hal_opamp.c ****         hopamp->Init.TrimmingValueNLowPower = trimmingvaluen;
 815:Drivers/STM32L4xx_HAL_Driver/Src/stm32l4xx_hal_opamp.c ****         /* Write calibration result P */
 816:Drivers/STM32L4xx_HAL_Driver/Src/stm32l4xx_hal_opamp.c ****         hopamp->Init.TrimmingValuePLowPower = trimmingvaluep;
 817:Drivers/STM32L4xx_HAL_Driver/Src/stm32l4xx_hal_opamp.c ****       }
 818:Drivers/STM32L4xx_HAL_Driver/Src/stm32l4xx_hal_opamp.c ****     
 819:Drivers/STM32L4xx_HAL_Driver/Src/stm32l4xx_hal_opamp.c ****     /* Restore OPAMP mode after calibration */
ARM GAS  /tmp/cc1FqXos.s 			page 28


 820:Drivers/STM32L4xx_HAL_Driver/Src/stm32l4xx_hal_opamp.c ****     MODIFY_REG(hopamp->Instance->CSR, OPAMP_CSR_OPAMODE, opampmode);
 821:Drivers/STM32L4xx_HAL_Driver/Src/stm32l4xx_hal_opamp.c ****     }
 822:Drivers/STM32L4xx_HAL_Driver/Src/stm32l4xx_hal_opamp.c ****     else
 823:Drivers/STM32L4xx_HAL_Driver/Src/stm32l4xx_hal_opamp.c ****     {
 824:Drivers/STM32L4xx_HAL_Driver/Src/stm32l4xx_hal_opamp.c ****       /* OPAMP can not be calibrated from this mode */ 
 825:Drivers/STM32L4xx_HAL_Driver/Src/stm32l4xx_hal_opamp.c ****       status = HAL_ERROR;
 611              		.loc 1 825 14 view .LVU171
 612 0022 0120     		movs	r0, #1
 613              	.LVL41:
 614              	.L47:
 826:Drivers/STM32L4xx_HAL_Driver/Src/stm32l4xx_hal_opamp.c ****     }   
 827:Drivers/STM32L4xx_HAL_Driver/Src/stm32l4xx_hal_opamp.c ****   }
 828:Drivers/STM32L4xx_HAL_Driver/Src/stm32l4xx_hal_opamp.c ****   return status;
 615              		.loc 1 828 3 is_stmt 1 view .LVU172
 829:Drivers/STM32L4xx_HAL_Driver/Src/stm32l4xx_hal_opamp.c **** }
 616              		.loc 1 829 1 is_stmt 0 view .LVU173
 617 0024 BDE8F883 		pop	{r3, r4, r5, r6, r7, r8, r9, pc}
 618              	.LVL42:
 619              	.L69:
 659:Drivers/STM32L4xx_HAL_Driver/Src/stm32l4xx_hal_opamp.c ****       assert_param(IS_OPAMP_POWERMODE(hopamp->Init.PowerMode));
 620              		.loc 1 659 7 is_stmt 1 view .LVU174
 660:Drivers/STM32L4xx_HAL_Driver/Src/stm32l4xx_hal_opamp.c **** 
 621              		.loc 1 660 7 view .LVU175
 665:Drivers/STM32L4xx_HAL_Driver/Src/stm32l4xx_hal_opamp.c ****       
 622              		.loc 1 665 7 view .LVU176
 665:Drivers/STM32L4xx_HAL_Driver/Src/stm32l4xx_hal_opamp.c ****       
 623              		.loc 1 665 19 is_stmt 0 view .LVU177
 624 0028 0368     		ldr	r3, [r0]
 625 002a 1A68     		ldr	r2, [r3]
 665:Drivers/STM32L4xx_HAL_Driver/Src/stm32l4xx_hal_opamp.c ****       
 626              		.loc 1 665 17 view .LVU178
 627 002c 02F00C09 		and	r9, r2, #12
 628              	.LVL43:
 668:Drivers/STM32L4xx_HAL_Driver/Src/stm32l4xx_hal_opamp.c **** 
 629              		.loc 1 668 7 is_stmt 1 view .LVU179
 630 0030 1A68     		ldr	r2, [r3]
 631 0032 22F00C02 		bic	r2, r2, #12
 632 0036 1A60     		str	r2, [r3]
 671:Drivers/STM32L4xx_HAL_Driver/Src/stm32l4xx_hal_opamp.c ****       
 633              		.loc 1 671 7 view .LVU180
 634 0038 0268     		ldr	r2, [r0]
 635 003a 1368     		ldr	r3, [r2]
 636 003c 43F48043 		orr	r3, r3, #16384
 637 0040 1360     		str	r3, [r2]
 674:Drivers/STM32L4xx_HAL_Driver/Src/stm32l4xx_hal_opamp.c ****       {
 638              		.loc 1 674 7 view .LVU181
 674:Drivers/STM32L4xx_HAL_Driver/Src/stm32l4xx_hal_opamp.c ****       {
 639              		.loc 1 674 23 is_stmt 0 view .LVU182
 640 0042 8368     		ldr	r3, [r0, #8]
 674:Drivers/STM32L4xx_HAL_Driver/Src/stm32l4xx_hal_opamp.c ****       {
 641              		.loc 1 674 10 view .LVU183
 642 0044 A3B9     		cbnz	r3, .L48
 676:Drivers/STM32L4xx_HAL_Driver/Src/stm32l4xx_hal_opamp.c ****       }
 643              		.loc 1 676 9 is_stmt 1 view .LVU184
 676:Drivers/STM32L4xx_HAL_Driver/Src/stm32l4xx_hal_opamp.c ****       }
 644              		.loc 1 676 41 is_stmt 0 view .LVU185
 645 0046 0568     		ldr	r5, [r0]
ARM GAS  /tmp/cc1FqXos.s 			page 29


 676:Drivers/STM32L4xx_HAL_Driver/Src/stm32l4xx_hal_opamp.c ****       }
 646              		.loc 1 676 32 view .LVU186
 647 0048 0435     		adds	r5, r5, #4
 648              	.LVL44:
 649              	.L49:
 684:Drivers/STM32L4xx_HAL_Driver/Src/stm32l4xx_hal_opamp.c ****   
 650              		.loc 1 684 7 is_stmt 1 view .LVU187
 651 004a 2268     		ldr	r2, [r4]
 652 004c 1368     		ldr	r3, [r2]
 653 004e 43F48053 		orr	r3, r3, #4096
 654 0052 1360     		str	r3, [r2]
 687:Drivers/STM32L4xx_HAL_Driver/Src/stm32l4xx_hal_opamp.c ****       
 655              		.loc 1 687 7 view .LVU188
 656 0054 2268     		ldr	r2, [r4]
 657 0056 1368     		ldr	r3, [r2]
 658 0058 23F40053 		bic	r3, r3, #8192
 659 005c 1360     		str	r3, [r2]
 690:Drivers/STM32L4xx_HAL_Driver/Src/stm32l4xx_hal_opamp.c ****       
 660              		.loc 1 690 7 view .LVU189
 661 005e 2268     		ldr	r2, [r4]
 662 0060 1368     		ldr	r3, [r2]
 663 0062 43F00103 		orr	r3, r3, #1
 664 0066 1360     		str	r3, [r2]
 694:Drivers/STM32L4xx_HAL_Driver/Src/stm32l4xx_hal_opamp.c ****       delta = 8;
 665              		.loc 1 694 7 view .LVU190
 666              	.LVL45:
 695:Drivers/STM32L4xx_HAL_Driver/Src/stm32l4xx_hal_opamp.c ****            
 667              		.loc 1 695 7 view .LVU191
 697:Drivers/STM32L4xx_HAL_Driver/Src/stm32l4xx_hal_opamp.c ****       {
 668              		.loc 1 697 7 view .LVU192
 695:Drivers/STM32L4xx_HAL_Driver/Src/stm32l4xx_hal_opamp.c ****            
 669              		.loc 1 695 13 is_stmt 0 view .LVU193
 670 0068 0826     		movs	r6, #8
 694:Drivers/STM32L4xx_HAL_Driver/Src/stm32l4xx_hal_opamp.c ****       delta = 8;
 671              		.loc 1 694 22 view .LVU194
 672 006a 4FF01008 		mov	r8, #16
 697:Drivers/STM32L4xx_HAL_Driver/Src/stm32l4xx_hal_opamp.c ****       {
 673              		.loc 1 697 13 view .LVU195
 674 006e 04E0     		b	.L50
 675              	.LVL46:
 676              	.L48:
 680:Drivers/STM32L4xx_HAL_Driver/Src/stm32l4xx_hal_opamp.c ****       }
 677              		.loc 1 680 9 is_stmt 1 view .LVU196
 680:Drivers/STM32L4xx_HAL_Driver/Src/stm32l4xx_hal_opamp.c ****       }
 678              		.loc 1 680 41 is_stmt 0 view .LVU197
 679 0070 0568     		ldr	r5, [r0]
 680:Drivers/STM32L4xx_HAL_Driver/Src/stm32l4xx_hal_opamp.c ****       }
 680              		.loc 1 680 32 view .LVU198
 681 0072 0835     		adds	r5, r5, #8
 682              	.LVL47:
 680:Drivers/STM32L4xx_HAL_Driver/Src/stm32l4xx_hal_opamp.c ****       }
 683              		.loc 1 680 32 view .LVU199
 684 0074 E9E7     		b	.L49
 685              	.LVL48:
 686              	.L51:
 716:Drivers/STM32L4xx_HAL_Driver/Src/stm32l4xx_hal_opamp.c ****         }
 687              		.loc 1 716 11 is_stmt 1 view .LVU200
ARM GAS  /tmp/cc1FqXos.s 			page 30


 716:Drivers/STM32L4xx_HAL_Driver/Src/stm32l4xx_hal_opamp.c ****         }
 688              		.loc 1 716 26 is_stmt 0 view .LVU201
 689 0076 B044     		add	r8, r8, r6
 690              	.LVL49:
 691              	.L52:
 719:Drivers/STM32L4xx_HAL_Driver/Src/stm32l4xx_hal_opamp.c ****       }
 692              		.loc 1 719 9 is_stmt 1 view .LVU202
 719:Drivers/STM32L4xx_HAL_Driver/Src/stm32l4xx_hal_opamp.c ****       }
 693              		.loc 1 719 15 is_stmt 0 view .LVU203
 694 0078 7608     		lsrs	r6, r6, #1
 695              	.LVL50:
 696              	.L50:
 697:Drivers/STM32L4xx_HAL_Driver/Src/stm32l4xx_hal_opamp.c ****       {
 697              		.loc 1 697 13 is_stmt 1 view .LVU204
 698 007a 86B1     		cbz	r6, .L70
 701:Drivers/STM32L4xx_HAL_Driver/Src/stm32l4xx_hal_opamp.c ****         
 699              		.loc 1 701 9 view .LVU205
 700 007c 2B68     		ldr	r3, [r5]
 701 007e 23F01F03 		bic	r3, r3, #31
 702 0082 43EA0803 		orr	r3, r3, r8
 703 0086 2B60     		str	r3, [r5]
 706:Drivers/STM32L4xx_HAL_Driver/Src/stm32l4xx_hal_opamp.c **** 
 704              		.loc 1 706 9 view .LVU206
 705 0088 0120     		movs	r0, #1
 706 008a FFF7FEFF 		bl	HAL_Delay
 707              	.LVL51:
 708:Drivers/STM32L4xx_HAL_Driver/Src/stm32l4xx_hal_opamp.c ****         { 
 708              		.loc 1 708 9 view .LVU207
 708:Drivers/STM32L4xx_HAL_Driver/Src/stm32l4xx_hal_opamp.c ****         { 
 709              		.loc 1 708 13 is_stmt 0 view .LVU208
 710 008e 2368     		ldr	r3, [r4]
 711 0090 1B68     		ldr	r3, [r3]
 708:Drivers/STM32L4xx_HAL_Driver/Src/stm32l4xx_hal_opamp.c ****         { 
 712              		.loc 1 708 12 view .LVU209
 713 0092 13F4004F 		tst	r3, #32768
 714 0096 EED0     		beq	.L51
 711:Drivers/STM32L4xx_HAL_Driver/Src/stm32l4xx_hal_opamp.c ****         }
 715              		.loc 1 711 11 is_stmt 1 view .LVU210
 711:Drivers/STM32L4xx_HAL_Driver/Src/stm32l4xx_hal_opamp.c ****         }
 716              		.loc 1 711 26 is_stmt 0 view .LVU211
 717 0098 A8EB0608 		sub	r8, r8, r6
 718              	.LVL52:
 711:Drivers/STM32L4xx_HAL_Driver/Src/stm32l4xx_hal_opamp.c ****         }
 719              		.loc 1 711 26 view .LVU212
 720 009c ECE7     		b	.L52
 721              	.L70:
 725:Drivers/STM32L4xx_HAL_Driver/Src/stm32l4xx_hal_opamp.c ****            
 722              		.loc 1 725 7 is_stmt 1 view .LVU213
 723 009e 2B68     		ldr	r3, [r5]
 724 00a0 23F01F03 		bic	r3, r3, #31
 725 00a4 43EA0803 		orr	r3, r3, r8
 726 00a8 2B60     		str	r3, [r5]
 730:Drivers/STM32L4xx_HAL_Driver/Src/stm32l4xx_hal_opamp.c ****       
 727              		.loc 1 730 7 view .LVU214
 728 00aa 0120     		movs	r0, #1
 729 00ac FFF7FEFF 		bl	HAL_Delay
 730              	.LVL53:
ARM GAS  /tmp/cc1FqXos.s 			page 31


 732:Drivers/STM32L4xx_HAL_Driver/Src/stm32l4xx_hal_opamp.c ****       { 
 731              		.loc 1 732 7 view .LVU215
 732:Drivers/STM32L4xx_HAL_Driver/Src/stm32l4xx_hal_opamp.c ****       { 
 732              		.loc 1 732 12 is_stmt 0 view .LVU216
 733 00b0 2368     		ldr	r3, [r4]
 734 00b2 1B68     		ldr	r3, [r3]
 732:Drivers/STM32L4xx_HAL_Driver/Src/stm32l4xx_hal_opamp.c ****       { 
 735              		.loc 1 732 10 view .LVU217
 736 00b4 13F4004F 		tst	r3, #32768
 737 00b8 07D1     		bne	.L54
 735:Drivers/STM32L4xx_HAL_Driver/Src/stm32l4xx_hal_opamp.c ****         /* Set right trimming */
 738              		.loc 1 735 9 is_stmt 1 view .LVU218
 735:Drivers/STM32L4xx_HAL_Driver/Src/stm32l4xx_hal_opamp.c ****         /* Set right trimming */
 739              		.loc 1 735 23 is_stmt 0 view .LVU219
 740 00ba 08F10108 		add	r8, r8, #1
 741              	.LVL54:
 737:Drivers/STM32L4xx_HAL_Driver/Src/stm32l4xx_hal_opamp.c ****       }
 742              		.loc 1 737 9 is_stmt 1 view .LVU220
 743 00be 2B68     		ldr	r3, [r5]
 744 00c0 23F01F03 		bic	r3, r3, #31
 745 00c4 43EA0803 		orr	r3, r3, r8
 746 00c8 2B60     		str	r3, [r5]
 747              	.L54:
 741:Drivers/STM32L4xx_HAL_Driver/Src/stm32l4xx_hal_opamp.c ****       
 748              		.loc 1 741 7 view .LVU221
 749 00ca 2268     		ldr	r2, [r4]
 750 00cc 1368     		ldr	r3, [r2]
 751 00ce 43F40053 		orr	r3, r3, #8192
 752 00d2 1360     		str	r3, [r2]
 745:Drivers/STM32L4xx_HAL_Driver/Src/stm32l4xx_hal_opamp.c ****       delta = 8;
 753              		.loc 1 745 7 view .LVU222
 754              	.LVL55:
 746:Drivers/STM32L4xx_HAL_Driver/Src/stm32l4xx_hal_opamp.c ****       
 755              		.loc 1 746 7 view .LVU223
 748:Drivers/STM32L4xx_HAL_Driver/Src/stm32l4xx_hal_opamp.c ****       {
 756              		.loc 1 748 7 view .LVU224
 746:Drivers/STM32L4xx_HAL_Driver/Src/stm32l4xx_hal_opamp.c ****       
 757              		.loc 1 746 13 is_stmt 0 view .LVU225
 758 00d4 0826     		movs	r6, #8
 745:Drivers/STM32L4xx_HAL_Driver/Src/stm32l4xx_hal_opamp.c ****       delta = 8;
 759              		.loc 1 745 22 view .LVU226
 760 00d6 1027     		movs	r7, #16
 748:Drivers/STM32L4xx_HAL_Driver/Src/stm32l4xx_hal_opamp.c ****       {
 761              		.loc 1 748 13 view .LVU227
 762 00d8 01E0     		b	.L55
 763              	.LVL56:
 764              	.L56:
 767:Drivers/STM32L4xx_HAL_Driver/Src/stm32l4xx_hal_opamp.c ****         }
 765              		.loc 1 767 11 is_stmt 1 view .LVU228
 767:Drivers/STM32L4xx_HAL_Driver/Src/stm32l4xx_hal_opamp.c ****         }
 766              		.loc 1 767 26 is_stmt 0 view .LVU229
 767 00da BF1B     		subs	r7, r7, r6
 768              	.LVL57:
 769              	.L57:
 771:Drivers/STM32L4xx_HAL_Driver/Src/stm32l4xx_hal_opamp.c ****       }
 770              		.loc 1 771 9 is_stmt 1 view .LVU230
 771:Drivers/STM32L4xx_HAL_Driver/Src/stm32l4xx_hal_opamp.c ****       }
ARM GAS  /tmp/cc1FqXos.s 			page 32


 771              		.loc 1 771 15 is_stmt 0 view .LVU231
 772 00dc 7608     		lsrs	r6, r6, #1
 773              	.LVL58:
 774              	.L55:
 748:Drivers/STM32L4xx_HAL_Driver/Src/stm32l4xx_hal_opamp.c ****       {
 775              		.loc 1 748 13 is_stmt 1 view .LVU232
 776 00de 7EB1     		cbz	r6, .L71
 752:Drivers/STM32L4xx_HAL_Driver/Src/stm32l4xx_hal_opamp.c **** 
 777              		.loc 1 752 9 view .LVU233
 778 00e0 2B68     		ldr	r3, [r5]
 779 00e2 23F4F853 		bic	r3, r3, #7936
 780 00e6 43EA0723 		orr	r3, r3, r7, lsl #8
 781 00ea 2B60     		str	r3, [r5]
 757:Drivers/STM32L4xx_HAL_Driver/Src/stm32l4xx_hal_opamp.c **** 
 782              		.loc 1 757 9 view .LVU234
 783 00ec 0120     		movs	r0, #1
 784 00ee FFF7FEFF 		bl	HAL_Delay
 785              	.LVL59:
 759:Drivers/STM32L4xx_HAL_Driver/Src/stm32l4xx_hal_opamp.c ****         { 
 786              		.loc 1 759 9 view .LVU235
 759:Drivers/STM32L4xx_HAL_Driver/Src/stm32l4xx_hal_opamp.c ****         { 
 787              		.loc 1 759 13 is_stmt 0 view .LVU236
 788 00f2 2368     		ldr	r3, [r4]
 789 00f4 1B68     		ldr	r3, [r3]
 759:Drivers/STM32L4xx_HAL_Driver/Src/stm32l4xx_hal_opamp.c ****         { 
 790              		.loc 1 759 12 view .LVU237
 791 00f6 13F4004F 		tst	r3, #32768
 792 00fa EED0     		beq	.L56
 762:Drivers/STM32L4xx_HAL_Driver/Src/stm32l4xx_hal_opamp.c ****         }
 793              		.loc 1 762 11 is_stmt 1 view .LVU238
 762:Drivers/STM32L4xx_HAL_Driver/Src/stm32l4xx_hal_opamp.c ****         }
 794              		.loc 1 762 26 is_stmt 0 view .LVU239
 795 00fc 3744     		add	r7, r7, r6
 796              	.LVL60:
 762:Drivers/STM32L4xx_HAL_Driver/Src/stm32l4xx_hal_opamp.c ****         }
 797              		.loc 1 762 26 view .LVU240
 798 00fe EDE7     		b	.L57
 799              	.L71:
 777:Drivers/STM32L4xx_HAL_Driver/Src/stm32l4xx_hal_opamp.c **** 
 800              		.loc 1 777 7 is_stmt 1 view .LVU241
 801 0100 2B68     		ldr	r3, [r5]
 802 0102 23F4F853 		bic	r3, r3, #7936
 803 0106 43EA0723 		orr	r3, r3, r7, lsl #8
 804 010a 2B60     		str	r3, [r5]
 782:Drivers/STM32L4xx_HAL_Driver/Src/stm32l4xx_hal_opamp.c ****       
 805              		.loc 1 782 7 view .LVU242
 806 010c 0120     		movs	r0, #1
 807 010e FFF7FEFF 		bl	HAL_Delay
 808              	.LVL61:
 784:Drivers/STM32L4xx_HAL_Driver/Src/stm32l4xx_hal_opamp.c ****       {
 809              		.loc 1 784 7 view .LVU243
 784:Drivers/STM32L4xx_HAL_Driver/Src/stm32l4xx_hal_opamp.c ****       {
 810              		.loc 1 784 11 is_stmt 0 view .LVU244
 811 0112 2368     		ldr	r3, [r4]
 812 0114 1B68     		ldr	r3, [r3]
 784:Drivers/STM32L4xx_HAL_Driver/Src/stm32l4xx_hal_opamp.c ****       {
 813              		.loc 1 784 10 view .LVU245
ARM GAS  /tmp/cc1FqXos.s 			page 33


 814 0116 13F4004F 		tst	r3, #32768
 815 011a 06D0     		beq	.L59
 787:Drivers/STM32L4xx_HAL_Driver/Src/stm32l4xx_hal_opamp.c ****         MODIFY_REG(*tmp_opamp_reg_trimming, OPAMP_OTR_TRIMOFFSETP, (trimmingvaluep<<OPAMP_INPUT_NON
 816              		.loc 1 787 9 is_stmt 1 view .LVU246
 787:Drivers/STM32L4xx_HAL_Driver/Src/stm32l4xx_hal_opamp.c ****         MODIFY_REG(*tmp_opamp_reg_trimming, OPAMP_OTR_TRIMOFFSETP, (trimmingvaluep<<OPAMP_INPUT_NON
 817              		.loc 1 787 23 is_stmt 0 view .LVU247
 818 011c 0137     		adds	r7, r7, #1
 819              	.LVL62:
 788:Drivers/STM32L4xx_HAL_Driver/Src/stm32l4xx_hal_opamp.c ****       }
 820              		.loc 1 788 9 is_stmt 1 view .LVU248
 821 011e 2B68     		ldr	r3, [r5]
 822 0120 23F4F853 		bic	r3, r3, #7936
 823 0124 43EA0723 		orr	r3, r3, r7, lsl #8
 824 0128 2B60     		str	r3, [r5]
 825              	.L59:
 792:Drivers/STM32L4xx_HAL_Driver/Src/stm32l4xx_hal_opamp.c ****       
 826              		.loc 1 792 7 view .LVU249
 827 012a 2268     		ldr	r2, [r4]
 828 012c 1368     		ldr	r3, [r2]
 829 012e 23F00103 		bic	r3, r3, #1
 830 0132 1360     		str	r3, [r2]
 795:Drivers/STM32L4xx_HAL_Driver/Src/stm32l4xx_hal_opamp.c ****                  
 831              		.loc 1 795 7 view .LVU250
 832 0134 2268     		ldr	r2, [r4]
 833 0136 1368     		ldr	r3, [r2]
 834 0138 23F48053 		bic	r3, r3, #4096
 835 013c 1360     		str	r3, [r2]
 801:Drivers/STM32L4xx_HAL_Driver/Src/stm32l4xx_hal_opamp.c **** 
 836              		.loc 1 801 7 view .LVU251
 801:Drivers/STM32L4xx_HAL_Driver/Src/stm32l4xx_hal_opamp.c **** 
 837              		.loc 1 801 33 is_stmt 0 view .LVU252
 838 013e 4FF48043 		mov	r3, #16384
 839 0142 E361     		str	r3, [r4, #28]
 804:Drivers/STM32L4xx_HAL_Driver/Src/stm32l4xx_hal_opamp.c ****       {
 840              		.loc 1 804 7 is_stmt 1 view .LVU253
 804:Drivers/STM32L4xx_HAL_Driver/Src/stm32l4xx_hal_opamp.c ****       {
 841              		.loc 1 804 23 is_stmt 0 view .LVU254
 842 0144 A368     		ldr	r3, [r4, #8]
 804:Drivers/STM32L4xx_HAL_Driver/Src/stm32l4xx_hal_opamp.c ****       {
 843              		.loc 1 804 10 view .LVU255
 844 0146 022B     		cmp	r3, #2
 845 0148 0BD0     		beq	.L60
 807:Drivers/STM32L4xx_HAL_Driver/Src/stm32l4xx_hal_opamp.c ****         /* Write calibration result P */
 846              		.loc 1 807 9 is_stmt 1 view .LVU256
 807:Drivers/STM32L4xx_HAL_Driver/Src/stm32l4xx_hal_opamp.c ****         /* Write calibration result P */
 847              		.loc 1 807 37 is_stmt 0 view .LVU257
 848 014a C4F82480 		str	r8, [r4, #36]
 809:Drivers/STM32L4xx_HAL_Driver/Src/stm32l4xx_hal_opamp.c ****       }
 849              		.loc 1 809 9 is_stmt 1 view .LVU258
 809:Drivers/STM32L4xx_HAL_Driver/Src/stm32l4xx_hal_opamp.c ****       }
 850              		.loc 1 809 37 is_stmt 0 view .LVU259
 851 014e 2762     		str	r7, [r4, #32]
 852              	.L61:
 820:Drivers/STM32L4xx_HAL_Driver/Src/stm32l4xx_hal_opamp.c ****     }
 853              		.loc 1 820 5 is_stmt 1 view .LVU260
 854 0150 2268     		ldr	r2, [r4]
 855 0152 1368     		ldr	r3, [r2]
ARM GAS  /tmp/cc1FqXos.s 			page 34


 856 0154 23F00C03 		bic	r3, r3, #12
 857 0158 43EA0903 		orr	r3, r3, r9
 858 015c 1360     		str	r3, [r2]
 638:Drivers/STM32L4xx_HAL_Driver/Src/stm32l4xx_hal_opamp.c ****   
 859              		.loc 1 638 21 is_stmt 0 view .LVU261
 860 015e 0020     		movs	r0, #0
 861 0160 60E7     		b	.L47
 862              	.L60:
 814:Drivers/STM32L4xx_HAL_Driver/Src/stm32l4xx_hal_opamp.c ****         /* Write calibration result P */
 863              		.loc 1 814 9 is_stmt 1 view .LVU262
 814:Drivers/STM32L4xx_HAL_Driver/Src/stm32l4xx_hal_opamp.c ****         /* Write calibration result P */
 864              		.loc 1 814 45 is_stmt 0 view .LVU263
 865 0162 C4F82C80 		str	r8, [r4, #44]
 816:Drivers/STM32L4xx_HAL_Driver/Src/stm32l4xx_hal_opamp.c ****       }
 866              		.loc 1 816 9 is_stmt 1 view .LVU264
 816:Drivers/STM32L4xx_HAL_Driver/Src/stm32l4xx_hal_opamp.c ****       }
 867              		.loc 1 816 45 is_stmt 0 view .LVU265
 868 0166 A762     		str	r7, [r4, #40]
 869 0168 F2E7     		b	.L61
 870              	.LVL63:
 871              	.L62:
 872              	.LCFI6:
 873              		.cfi_def_cfa_offset 0
 874              		.cfi_restore 3
 875              		.cfi_restore 4
 876              		.cfi_restore 5
 877              		.cfi_restore 6
 878              		.cfi_restore 7
 879              		.cfi_restore 8
 880              		.cfi_restore 9
 881              		.cfi_restore 14
 651:Drivers/STM32L4xx_HAL_Driver/Src/stm32l4xx_hal_opamp.c ****   }
 882              		.loc 1 651 12 view .LVU266
 883 016a 0120     		movs	r0, #1
 884              	.LVL64:
 828:Drivers/STM32L4xx_HAL_Driver/Src/stm32l4xx_hal_opamp.c **** }
 885              		.loc 1 828 3 is_stmt 1 view .LVU267
 886              		.loc 1 829 1 is_stmt 0 view .LVU268
 887 016c 7047     		bx	lr
 888              	.LVL65:
 889              	.L63:
 890              	.LCFI7:
 891              		.cfi_def_cfa_offset 32
 892              		.cfi_offset 3, -32
 893              		.cfi_offset 4, -28
 894              		.cfi_offset 5, -24
 895              		.cfi_offset 6, -20
 896              		.cfi_offset 7, -16
 897              		.cfi_offset 8, -12
 898              		.cfi_offset 9, -8
 899              		.cfi_offset 14, -4
 651:Drivers/STM32L4xx_HAL_Driver/Src/stm32l4xx_hal_opamp.c ****   }
 900              		.loc 1 651 12 view .LVU269
 901 016e 0120     		movs	r0, #1
 902              	.LVL66:
 651:Drivers/STM32L4xx_HAL_Driver/Src/stm32l4xx_hal_opamp.c ****   }
 903              		.loc 1 651 12 view .LVU270
ARM GAS  /tmp/cc1FqXos.s 			page 35


 904 0170 58E7     		b	.L47
 905              		.cfi_endproc
 906              	.LFE315:
 908              		.section	.text.HAL_OPAMP_Lock,"ax",%progbits
 909              		.align	1
 910              		.global	HAL_OPAMP_Lock
 911              		.syntax unified
 912              		.thumb
 913              		.thumb_func
 914              		.fpu fpv4-sp-d16
 916              	HAL_OPAMP_Lock:
 917              	.LVL67:
 918              	.LFB316:
 830:Drivers/STM32L4xx_HAL_Driver/Src/stm32l4xx_hal_opamp.c **** 
 831:Drivers/STM32L4xx_HAL_Driver/Src/stm32l4xx_hal_opamp.c **** /**
 832:Drivers/STM32L4xx_HAL_Driver/Src/stm32l4xx_hal_opamp.c ****   * @}
 833:Drivers/STM32L4xx_HAL_Driver/Src/stm32l4xx_hal_opamp.c ****   */
 834:Drivers/STM32L4xx_HAL_Driver/Src/stm32l4xx_hal_opamp.c **** 
 835:Drivers/STM32L4xx_HAL_Driver/Src/stm32l4xx_hal_opamp.c **** /** @defgroup OPAMP_Exported_Functions_Group3 Peripheral Control functions 
 836:Drivers/STM32L4xx_HAL_Driver/Src/stm32l4xx_hal_opamp.c ****  *  @brief   Peripheral Control functions 
 837:Drivers/STM32L4xx_HAL_Driver/Src/stm32l4xx_hal_opamp.c ****  *
 838:Drivers/STM32L4xx_HAL_Driver/Src/stm32l4xx_hal_opamp.c **** @verbatim   
 839:Drivers/STM32L4xx_HAL_Driver/Src/stm32l4xx_hal_opamp.c ****  ===============================================================================
 840:Drivers/STM32L4xx_HAL_Driver/Src/stm32l4xx_hal_opamp.c ****                       ##### Peripheral Control functions #####
 841:Drivers/STM32L4xx_HAL_Driver/Src/stm32l4xx_hal_opamp.c ****  =============================================================================== 
 842:Drivers/STM32L4xx_HAL_Driver/Src/stm32l4xx_hal_opamp.c ****     [..]
 843:Drivers/STM32L4xx_HAL_Driver/Src/stm32l4xx_hal_opamp.c ****     This subsection provides a set of functions allowing to control the OPAMP data 
 844:Drivers/STM32L4xx_HAL_Driver/Src/stm32l4xx_hal_opamp.c ****     transfers.
 845:Drivers/STM32L4xx_HAL_Driver/Src/stm32l4xx_hal_opamp.c **** 
 846:Drivers/STM32L4xx_HAL_Driver/Src/stm32l4xx_hal_opamp.c **** 
 847:Drivers/STM32L4xx_HAL_Driver/Src/stm32l4xx_hal_opamp.c **** 
 848:Drivers/STM32L4xx_HAL_Driver/Src/stm32l4xx_hal_opamp.c **** @endverbatim
 849:Drivers/STM32L4xx_HAL_Driver/Src/stm32l4xx_hal_opamp.c ****   * @{
 850:Drivers/STM32L4xx_HAL_Driver/Src/stm32l4xx_hal_opamp.c ****   */
 851:Drivers/STM32L4xx_HAL_Driver/Src/stm32l4xx_hal_opamp.c **** 
 852:Drivers/STM32L4xx_HAL_Driver/Src/stm32l4xx_hal_opamp.c **** /**
 853:Drivers/STM32L4xx_HAL_Driver/Src/stm32l4xx_hal_opamp.c ****   * @brief  Lock the selected OPAMP configuration.
 854:Drivers/STM32L4xx_HAL_Driver/Src/stm32l4xx_hal_opamp.c ****   * @note   On STM32L4, HAL OPAMP lock is software lock only (in 
 855:Drivers/STM32L4xx_HAL_Driver/Src/stm32l4xx_hal_opamp.c ****   *         contrast of hardware lock available on some other STM32 
 856:Drivers/STM32L4xx_HAL_Driver/Src/stm32l4xx_hal_opamp.c ****   *         devices).
 857:Drivers/STM32L4xx_HAL_Driver/Src/stm32l4xx_hal_opamp.c ****   * @param  hopamp: OPAMP handle
 858:Drivers/STM32L4xx_HAL_Driver/Src/stm32l4xx_hal_opamp.c ****   * @retval HAL status
 859:Drivers/STM32L4xx_HAL_Driver/Src/stm32l4xx_hal_opamp.c ****   */
 860:Drivers/STM32L4xx_HAL_Driver/Src/stm32l4xx_hal_opamp.c **** HAL_StatusTypeDef HAL_OPAMP_Lock(OPAMP_HandleTypeDef *hopamp)
 861:Drivers/STM32L4xx_HAL_Driver/Src/stm32l4xx_hal_opamp.c **** {
 919              		.loc 1 861 1 is_stmt 1 view -0
 920              		.cfi_startproc
 921              		@ args = 0, pretend = 0, frame = 0
 922              		@ frame_needed = 0, uses_anonymous_args = 0
 923              		@ link register save eliminated.
 862:Drivers/STM32L4xx_HAL_Driver/Src/stm32l4xx_hal_opamp.c ****   HAL_StatusTypeDef status = HAL_OK;
 924              		.loc 1 862 3 view .LVU272
 863:Drivers/STM32L4xx_HAL_Driver/Src/stm32l4xx_hal_opamp.c **** 
 864:Drivers/STM32L4xx_HAL_Driver/Src/stm32l4xx_hal_opamp.c ****   /* Check the OPAMP handle allocation */
 865:Drivers/STM32L4xx_HAL_Driver/Src/stm32l4xx_hal_opamp.c ****   /* Check if OPAMP locked */
 866:Drivers/STM32L4xx_HAL_Driver/Src/stm32l4xx_hal_opamp.c ****   /* OPAMP can be locked when enabled and running in normal mode */ 
 867:Drivers/STM32L4xx_HAL_Driver/Src/stm32l4xx_hal_opamp.c ****   /*   It is meaningless otherwise */
ARM GAS  /tmp/cc1FqXos.s 			page 36


 868:Drivers/STM32L4xx_HAL_Driver/Src/stm32l4xx_hal_opamp.c ****   if((hopamp == NULL) || (hopamp->State == HAL_OPAMP_STATE_RESET) \
 925              		.loc 1 868 3 view .LVU273
 926              		.loc 1 868 5 is_stmt 0 view .LVU274
 927 0000 0346     		mov	r3, r0
 928 0002 B0B1     		cbz	r0, .L74
 929              		.loc 1 868 33 discriminator 1 view .LVU275
 930 0004 90F83220 		ldrb	r2, [r0, #50]	@ zero_extendqisi2
 931              		.loc 1 868 23 discriminator 1 view .LVU276
 932 0008 AAB1     		cbz	r2, .L75
 869:Drivers/STM32L4xx_HAL_Driver/Src/stm32l4xx_hal_opamp.c ****                       || (hopamp->State == HAL_OPAMP_STATE_READY) \
 933              		.loc 1 869 33 view .LVU277
 934 000a 90F83200 		ldrb	r0, [r0, #50]	@ zero_extendqisi2
 935              	.LVL68:
 936              		.loc 1 869 33 view .LVU278
 937 000e C0B2     		uxtb	r0, r0
 938              		.loc 1 869 23 view .LVU279
 939 0010 0128     		cmp	r0, #1
 940 0012 15D0     		beq	.L73
 870:Drivers/STM32L4xx_HAL_Driver/Src/stm32l4xx_hal_opamp.c ****                       || (hopamp->State == HAL_OPAMP_STATE_CALIBBUSY)\
 941              		.loc 1 870 33 view .LVU280
 942 0014 93F83220 		ldrb	r2, [r3, #50]	@ zero_extendqisi2
 943 0018 D2B2     		uxtb	r2, r2
 944              		.loc 1 870 23 view .LVU281
 945 001a 022A     		cmp	r2, #2
 946 001c 0DD0     		beq	.L76
 871:Drivers/STM32L4xx_HAL_Driver/Src/stm32l4xx_hal_opamp.c ****                       || (hopamp->State == HAL_OPAMP_STATE_BUSYLOCKED))
 947              		.loc 1 871 33 view .LVU282
 948 001e 93F83220 		ldrb	r2, [r3, #50]	@ zero_extendqisi2
 949 0022 D2B2     		uxtb	r2, r2
 950              		.loc 1 871 23 view .LVU283
 951 0024 052A     		cmp	r2, #5
 952 0026 0AD0     		beq	.L77
 872:Drivers/STM32L4xx_HAL_Driver/Src/stm32l4xx_hal_opamp.c ****   
 873:Drivers/STM32L4xx_HAL_Driver/Src/stm32l4xx_hal_opamp.c ****   {
 874:Drivers/STM32L4xx_HAL_Driver/Src/stm32l4xx_hal_opamp.c ****     status = HAL_ERROR;
 875:Drivers/STM32L4xx_HAL_Driver/Src/stm32l4xx_hal_opamp.c ****   }
 876:Drivers/STM32L4xx_HAL_Driver/Src/stm32l4xx_hal_opamp.c ****   
 877:Drivers/STM32L4xx_HAL_Driver/Src/stm32l4xx_hal_opamp.c ****   else
 878:Drivers/STM32L4xx_HAL_Driver/Src/stm32l4xx_hal_opamp.c ****   {
 879:Drivers/STM32L4xx_HAL_Driver/Src/stm32l4xx_hal_opamp.c ****     /* Check the parameter */
 880:Drivers/STM32L4xx_HAL_Driver/Src/stm32l4xx_hal_opamp.c ****     assert_param(IS_OPAMP_ALL_INSTANCE(hopamp->Instance));
 953              		.loc 1 880 5 is_stmt 1 view .LVU284
 881:Drivers/STM32L4xx_HAL_Driver/Src/stm32l4xx_hal_opamp.c ****     
 882:Drivers/STM32L4xx_HAL_Driver/Src/stm32l4xx_hal_opamp.c ****    /* OPAMP state changed to locked */
 883:Drivers/STM32L4xx_HAL_Driver/Src/stm32l4xx_hal_opamp.c ****     hopamp->State = HAL_OPAMP_STATE_BUSYLOCKED;
 954              		.loc 1 883 5 view .LVU285
 955              		.loc 1 883 19 is_stmt 0 view .LVU286
 956 0028 0522     		movs	r2, #5
 957 002a 83F83220 		strb	r2, [r3, #50]
 862:Drivers/STM32L4xx_HAL_Driver/Src/stm32l4xx_hal_opamp.c **** 
 958              		.loc 1 862 21 view .LVU287
 959 002e 0020     		movs	r0, #0
 960 0030 7047     		bx	lr
 961              	.LVL69:
 962              	.L74:
 874:Drivers/STM32L4xx_HAL_Driver/Src/stm32l4xx_hal_opamp.c ****   }
 963              		.loc 1 874 12 view .LVU288
ARM GAS  /tmp/cc1FqXos.s 			page 37


 964 0032 0120     		movs	r0, #1
 965              	.LVL70:
 874:Drivers/STM32L4xx_HAL_Driver/Src/stm32l4xx_hal_opamp.c ****   }
 966              		.loc 1 874 12 view .LVU289
 967 0034 7047     		bx	lr
 968              	.LVL71:
 969              	.L75:
 874:Drivers/STM32L4xx_HAL_Driver/Src/stm32l4xx_hal_opamp.c ****   }
 970              		.loc 1 874 12 view .LVU290
 971 0036 0120     		movs	r0, #1
 972              	.LVL72:
 874:Drivers/STM32L4xx_HAL_Driver/Src/stm32l4xx_hal_opamp.c ****   }
 973              		.loc 1 874 12 view .LVU291
 974 0038 7047     		bx	lr
 975              	.L76:
 976 003a 0120     		movs	r0, #1
 977 003c 7047     		bx	lr
 978              	.L77:
 979 003e 0120     		movs	r0, #1
 980              	.L73:
 981              	.LVL73:
 884:Drivers/STM32L4xx_HAL_Driver/Src/stm32l4xx_hal_opamp.c ****   }
 885:Drivers/STM32L4xx_HAL_Driver/Src/stm32l4xx_hal_opamp.c ****   return status; 
 982              		.loc 1 885 3 is_stmt 1 view .LVU292
 886:Drivers/STM32L4xx_HAL_Driver/Src/stm32l4xx_hal_opamp.c **** }
 983              		.loc 1 886 1 is_stmt 0 view .LVU293
 984 0040 7047     		bx	lr
 985              		.cfi_endproc
 986              	.LFE316:
 988              		.section	.text.HAL_OPAMP_GetTrimOffset,"ax",%progbits
 989              		.align	1
 990              		.global	HAL_OPAMP_GetTrimOffset
 991              		.syntax unified
 992              		.thumb
 993              		.thumb_func
 994              		.fpu fpv4-sp-d16
 996              	HAL_OPAMP_GetTrimOffset:
 997              	.LVL74:
 998              	.LFB317:
 887:Drivers/STM32L4xx_HAL_Driver/Src/stm32l4xx_hal_opamp.c **** 
 888:Drivers/STM32L4xx_HAL_Driver/Src/stm32l4xx_hal_opamp.c **** /**
 889:Drivers/STM32L4xx_HAL_Driver/Src/stm32l4xx_hal_opamp.c ****   * @brief  Return the OPAMP factory trimming value.
 890:Drivers/STM32L4xx_HAL_Driver/Src/stm32l4xx_hal_opamp.c ****   * @note            On STM32L4 OPAMP, user can retrieve factory trimming if 
 891:Drivers/STM32L4xx_HAL_Driver/Src/stm32l4xx_hal_opamp.c ****   *                  OPAMP has never been set to user trimming before.
 892:Drivers/STM32L4xx_HAL_Driver/Src/stm32l4xx_hal_opamp.c ****   *                  Therefore, this function must be called when OPAMP init  
 893:Drivers/STM32L4xx_HAL_Driver/Src/stm32l4xx_hal_opamp.c ****   *                  parameter "UserTrimming" is set to trimming factory, 
 894:Drivers/STM32L4xx_HAL_Driver/Src/stm32l4xx_hal_opamp.c ****   *                  and before OPAMP  calibration (function 
 895:Drivers/STM32L4xx_HAL_Driver/Src/stm32l4xx_hal_opamp.c ****   *                  "HAL_OPAMP_SelfCalibrate()").
 896:Drivers/STM32L4xx_HAL_Driver/Src/stm32l4xx_hal_opamp.c ****   *                  Otherwise, factory trimming value cannot be retrieved and 
 897:Drivers/STM32L4xx_HAL_Driver/Src/stm32l4xx_hal_opamp.c ****   *                  error status is returned.
 898:Drivers/STM32L4xx_HAL_Driver/Src/stm32l4xx_hal_opamp.c ****   * @param  hopamp : OPAMP handle
 899:Drivers/STM32L4xx_HAL_Driver/Src/stm32l4xx_hal_opamp.c ****   * @param  trimmingoffset : Trimming offset (P or N)
 900:Drivers/STM32L4xx_HAL_Driver/Src/stm32l4xx_hal_opamp.c ****   *         This parameter must be a value of @ref OPAMP_FactoryTrimming
 901:Drivers/STM32L4xx_HAL_Driver/Src/stm32l4xx_hal_opamp.c ****   * @note   Calibration parameter retrieved is corresponding to the mode 
 902:Drivers/STM32L4xx_HAL_Driver/Src/stm32l4xx_hal_opamp.c ****   *         specified in OPAMP init structure (mode normal or low-power). 
 903:Drivers/STM32L4xx_HAL_Driver/Src/stm32l4xx_hal_opamp.c ****   *         To retrieve calibration parameters for both modes, repeat this 
 904:Drivers/STM32L4xx_HAL_Driver/Src/stm32l4xx_hal_opamp.c ****   *         function after OPAMP init structure accordingly updated.
ARM GAS  /tmp/cc1FqXos.s 			page 38


 905:Drivers/STM32L4xx_HAL_Driver/Src/stm32l4xx_hal_opamp.c ****   * @retval Trimming value (P or N): range: 0->31
 906:Drivers/STM32L4xx_HAL_Driver/Src/stm32l4xx_hal_opamp.c ****   *         or OPAMP_FACTORYTRIMMING_DUMMY if trimming value is not available
 907:Drivers/STM32L4xx_HAL_Driver/Src/stm32l4xx_hal_opamp.c ****   *
 908:Drivers/STM32L4xx_HAL_Driver/Src/stm32l4xx_hal_opamp.c ****   */
 909:Drivers/STM32L4xx_HAL_Driver/Src/stm32l4xx_hal_opamp.c **** 
 910:Drivers/STM32L4xx_HAL_Driver/Src/stm32l4xx_hal_opamp.c **** HAL_OPAMP_TrimmingValueTypeDef HAL_OPAMP_GetTrimOffset (OPAMP_HandleTypeDef *hopamp, uint32_t trimm
 911:Drivers/STM32L4xx_HAL_Driver/Src/stm32l4xx_hal_opamp.c **** {
 999              		.loc 1 911 1 is_stmt 1 view -0
 1000              		.cfi_startproc
 1001              		@ args = 0, pretend = 0, frame = 0
 1002              		@ frame_needed = 0, uses_anonymous_args = 0
 1003              		@ link register save eliminated.
 912:Drivers/STM32L4xx_HAL_Driver/Src/stm32l4xx_hal_opamp.c ****   HAL_OPAMP_TrimmingValueTypeDef trimmingvalue;
 1004              		.loc 1 912 3 view .LVU295
 913:Drivers/STM32L4xx_HAL_Driver/Src/stm32l4xx_hal_opamp.c ****   __IO uint32_t* tmp_opamp_reg_trimming;  /* Selection of register of trimming depending on power m
 1005              		.loc 1 913 3 view .LVU296
 914:Drivers/STM32L4xx_HAL_Driver/Src/stm32l4xx_hal_opamp.c ****   
 915:Drivers/STM32L4xx_HAL_Driver/Src/stm32l4xx_hal_opamp.c ****   /* Check the OPAMP handle allocation */
 916:Drivers/STM32L4xx_HAL_Driver/Src/stm32l4xx_hal_opamp.c ****   /* Value can be retrieved in HAL_OPAMP_STATE_READY state */
 917:Drivers/STM32L4xx_HAL_Driver/Src/stm32l4xx_hal_opamp.c ****   if((hopamp == NULL) || (hopamp->State == HAL_OPAMP_STATE_RESET) \
 1006              		.loc 1 917 3 view .LVU297
 1007              		.loc 1 917 5 is_stmt 0 view .LVU298
 1008 0000 28B3     		cbz	r0, .L82
 1009              		.loc 1 917 33 discriminator 1 view .LVU299
 1010 0002 90F83220 		ldrb	r2, [r0, #50]	@ zero_extendqisi2
 1011              		.loc 1 917 23 discriminator 1 view .LVU300
 1012 0006 2AB3     		cbz	r2, .L83
 918:Drivers/STM32L4xx_HAL_Driver/Src/stm32l4xx_hal_opamp.c ****                       || (hopamp->State == HAL_OPAMP_STATE_BUSY) \
 1013              		.loc 1 918 33 view .LVU301
 1014 0008 90F83220 		ldrb	r2, [r0, #50]	@ zero_extendqisi2
 1015 000c D2B2     		uxtb	r2, r2
 1016              		.loc 1 918 23 view .LVU302
 1017 000e 042A     		cmp	r2, #4
 1018 0010 23D0     		beq	.L84
 919:Drivers/STM32L4xx_HAL_Driver/Src/stm32l4xx_hal_opamp.c ****                       || (hopamp->State == HAL_OPAMP_STATE_CALIBBUSY)\
 1019              		.loc 1 919 33 view .LVU303
 1020 0012 90F83220 		ldrb	r2, [r0, #50]	@ zero_extendqisi2
 1021 0016 D2B2     		uxtb	r2, r2
 1022              		.loc 1 919 23 view .LVU304
 1023 0018 022A     		cmp	r2, #2
 1024 001a 21D0     		beq	.L85
 920:Drivers/STM32L4xx_HAL_Driver/Src/stm32l4xx_hal_opamp.c ****                       || (hopamp->State == HAL_OPAMP_STATE_BUSYLOCKED))
 1025              		.loc 1 920 33 view .LVU305
 1026 001c 90F83220 		ldrb	r2, [r0, #50]	@ zero_extendqisi2
 1027 0020 D2B2     		uxtb	r2, r2
 1028              		.loc 1 920 23 view .LVU306
 1029 0022 052A     		cmp	r2, #5
 1030 0024 1FD0     		beq	.L86
 921:Drivers/STM32L4xx_HAL_Driver/Src/stm32l4xx_hal_opamp.c ****   {
 922:Drivers/STM32L4xx_HAL_Driver/Src/stm32l4xx_hal_opamp.c ****     return OPAMP_FACTORYTRIMMING_DUMMY;
 923:Drivers/STM32L4xx_HAL_Driver/Src/stm32l4xx_hal_opamp.c ****   }
 924:Drivers/STM32L4xx_HAL_Driver/Src/stm32l4xx_hal_opamp.c ****   else
 925:Drivers/STM32L4xx_HAL_Driver/Src/stm32l4xx_hal_opamp.c ****   {
 926:Drivers/STM32L4xx_HAL_Driver/Src/stm32l4xx_hal_opamp.c ****     /* Check the parameter */
 927:Drivers/STM32L4xx_HAL_Driver/Src/stm32l4xx_hal_opamp.c ****     assert_param(IS_OPAMP_ALL_INSTANCE(hopamp->Instance));
 1031              		.loc 1 927 5 is_stmt 1 view .LVU307
 928:Drivers/STM32L4xx_HAL_Driver/Src/stm32l4xx_hal_opamp.c ****     assert_param(IS_OPAMP_FACTORYTRIMMING(trimmingoffset));
ARM GAS  /tmp/cc1FqXos.s 			page 39


 1032              		.loc 1 928 5 view .LVU308
 929:Drivers/STM32L4xx_HAL_Driver/Src/stm32l4xx_hal_opamp.c ****     assert_param(IS_OPAMP_POWERMODE(hopamp->Init.PowerMode));
 1033              		.loc 1 929 5 view .LVU309
 930:Drivers/STM32L4xx_HAL_Driver/Src/stm32l4xx_hal_opamp.c ****     
 931:Drivers/STM32L4xx_HAL_Driver/Src/stm32l4xx_hal_opamp.c ****     /* Check the trimming mode */
 932:Drivers/STM32L4xx_HAL_Driver/Src/stm32l4xx_hal_opamp.c ****     if (READ_BIT(hopamp->Instance->CSR,OPAMP_CSR_USERTRIM) != RESET)
 1034              		.loc 1 932 5 view .LVU310
 1035              		.loc 1 932 9 is_stmt 0 view .LVU311
 1036 0026 0268     		ldr	r2, [r0]
 1037 0028 1268     		ldr	r2, [r2]
 1038              		.loc 1 932 8 view .LVU312
 1039 002a 12F4804F 		tst	r2, #16384
 1040 002e 1DD1     		bne	.L87
 933:Drivers/STM32L4xx_HAL_Driver/Src/stm32l4xx_hal_opamp.c ****     {
 934:Drivers/STM32L4xx_HAL_Driver/Src/stm32l4xx_hal_opamp.c ****       /* This function must called when OPAMP init parameter "UserTrimming"   */
 935:Drivers/STM32L4xx_HAL_Driver/Src/stm32l4xx_hal_opamp.c ****       /* is set to trimming factory, and before OPAMP calibration (function   */
 936:Drivers/STM32L4xx_HAL_Driver/Src/stm32l4xx_hal_opamp.c ****       /* "HAL_OPAMP_SelfCalibrate()").                                        */
 937:Drivers/STM32L4xx_HAL_Driver/Src/stm32l4xx_hal_opamp.c ****       /* Otherwise, factory trimming value cannot be retrieved and error       */
 938:Drivers/STM32L4xx_HAL_Driver/Src/stm32l4xx_hal_opamp.c ****       /* status is returned.                                                  */
 939:Drivers/STM32L4xx_HAL_Driver/Src/stm32l4xx_hal_opamp.c ****       trimmingvalue = OPAMP_FACTORYTRIMMING_DUMMY;
 940:Drivers/STM32L4xx_HAL_Driver/Src/stm32l4xx_hal_opamp.c ****     }
 941:Drivers/STM32L4xx_HAL_Driver/Src/stm32l4xx_hal_opamp.c ****     else
 942:Drivers/STM32L4xx_HAL_Driver/Src/stm32l4xx_hal_opamp.c ****     {
 943:Drivers/STM32L4xx_HAL_Driver/Src/stm32l4xx_hal_opamp.c ****       /* Select trimming settings depending on power mode */
 944:Drivers/STM32L4xx_HAL_Driver/Src/stm32l4xx_hal_opamp.c ****       if (hopamp->Init.PowerMode == OPAMP_POWERMODE_NORMAL)
 1041              		.loc 1 944 7 is_stmt 1 view .LVU313
 1042              		.loc 1 944 23 is_stmt 0 view .LVU314
 1043 0030 8368     		ldr	r3, [r0, #8]
 1044              		.loc 1 944 10 view .LVU315
 1045 0032 33B9     		cbnz	r3, .L88
 945:Drivers/STM32L4xx_HAL_Driver/Src/stm32l4xx_hal_opamp.c ****       {
 946:Drivers/STM32L4xx_HAL_Driver/Src/stm32l4xx_hal_opamp.c ****         tmp_opamp_reg_trimming = &OPAMP->OTR;
 1046              		.loc 1 946 32 view .LVU316
 1047 0034 0F4B     		ldr	r3, .L90
 1048              	.L80:
 1049              	.LVL75:
 947:Drivers/STM32L4xx_HAL_Driver/Src/stm32l4xx_hal_opamp.c ****       }
 948:Drivers/STM32L4xx_HAL_Driver/Src/stm32l4xx_hal_opamp.c ****       else
 949:Drivers/STM32L4xx_HAL_Driver/Src/stm32l4xx_hal_opamp.c ****       {
 950:Drivers/STM32L4xx_HAL_Driver/Src/stm32l4xx_hal_opamp.c ****         tmp_opamp_reg_trimming = &OPAMP->LPOTR;
 951:Drivers/STM32L4xx_HAL_Driver/Src/stm32l4xx_hal_opamp.c ****       }      
 952:Drivers/STM32L4xx_HAL_Driver/Src/stm32l4xx_hal_opamp.c ****     
 953:Drivers/STM32L4xx_HAL_Driver/Src/stm32l4xx_hal_opamp.c ****       /* Get factory trimming  */
 954:Drivers/STM32L4xx_HAL_Driver/Src/stm32l4xx_hal_opamp.c ****       if (trimmingoffset == OPAMP_FACTORYTRIMMING_P)
 1050              		.loc 1 954 7 is_stmt 1 view .LVU317
 1051              		.loc 1 954 10 is_stmt 0 view .LVU318
 1052 0036 0129     		cmp	r1, #1
 1053 0038 05D0     		beq	.L89
 955:Drivers/STM32L4xx_HAL_Driver/Src/stm32l4xx_hal_opamp.c ****       {
 956:Drivers/STM32L4xx_HAL_Driver/Src/stm32l4xx_hal_opamp.c ****         /* OPAMP_FACTORYTRIMMING_P */
 957:Drivers/STM32L4xx_HAL_Driver/Src/stm32l4xx_hal_opamp.c ****         trimmingvalue = ((*tmp_opamp_reg_trimming) & OPAMP_OTR_TRIMOFFSETP) >> OPAMP_INPUT_NONINVER
 958:Drivers/STM32L4xx_HAL_Driver/Src/stm32l4xx_hal_opamp.c ****       }
 959:Drivers/STM32L4xx_HAL_Driver/Src/stm32l4xx_hal_opamp.c ****       else
 960:Drivers/STM32L4xx_HAL_Driver/Src/stm32l4xx_hal_opamp.c ****       {
 961:Drivers/STM32L4xx_HAL_Driver/Src/stm32l4xx_hal_opamp.c ****         /* OPAMP_FACTORYTRIMMING_N */
 962:Drivers/STM32L4xx_HAL_Driver/Src/stm32l4xx_hal_opamp.c ****         trimmingvalue = (*tmp_opamp_reg_trimming) & OPAMP_OTR_TRIMOFFSETN;
 1054              		.loc 1 962 9 is_stmt 1 view .LVU319
ARM GAS  /tmp/cc1FqXos.s 			page 40


 1055              		.loc 1 962 26 is_stmt 0 view .LVU320
 1056 003a 1868     		ldr	r0, [r3]
 1057              	.LVL76:
 1058              		.loc 1 962 23 view .LVU321
 1059 003c 00F01F00 		and	r0, r0, #31
 1060              	.LVL77:
 1061              		.loc 1 962 23 view .LVU322
 1062 0040 7047     		bx	lr
 1063              	.LVL78:
 1064              	.L88:
 950:Drivers/STM32L4xx_HAL_Driver/Src/stm32l4xx_hal_opamp.c ****       }      
 1065              		.loc 1 950 32 view .LVU323
 1066 0042 0D4B     		ldr	r3, .L90+4
 1067 0044 F7E7     		b	.L80
 1068              	.LVL79:
 1069              	.L89:
 957:Drivers/STM32L4xx_HAL_Driver/Src/stm32l4xx_hal_opamp.c ****       }
 1070              		.loc 1 957 9 is_stmt 1 view .LVU324
 957:Drivers/STM32L4xx_HAL_Driver/Src/stm32l4xx_hal_opamp.c ****       }
 1071              		.loc 1 957 27 is_stmt 0 view .LVU325
 1072 0046 1868     		ldr	r0, [r3]
 1073              	.LVL80:
 957:Drivers/STM32L4xx_HAL_Driver/Src/stm32l4xx_hal_opamp.c ****       }
 1074              		.loc 1 957 23 view .LVU326
 1075 0048 C0F30420 		ubfx	r0, r0, #8, #5
 1076              	.LVL81:
 957:Drivers/STM32L4xx_HAL_Driver/Src/stm32l4xx_hal_opamp.c ****       }
 1077              		.loc 1 957 23 view .LVU327
 1078 004c 7047     		bx	lr
 1079              	.LVL82:
 1080              	.L82:
 922:Drivers/STM32L4xx_HAL_Driver/Src/stm32l4xx_hal_opamp.c ****   }
 1081              		.loc 1 922 12 view .LVU328
 1082 004e 4FF0FF30 		mov	r0, #-1
 1083              	.LVL83:
 922:Drivers/STM32L4xx_HAL_Driver/Src/stm32l4xx_hal_opamp.c ****   }
 1084              		.loc 1 922 12 view .LVU329
 1085 0052 7047     		bx	lr
 1086              	.LVL84:
 1087              	.L83:
 922:Drivers/STM32L4xx_HAL_Driver/Src/stm32l4xx_hal_opamp.c ****   }
 1088              		.loc 1 922 12 view .LVU330
 1089 0054 4FF0FF30 		mov	r0, #-1
 1090              	.LVL85:
 922:Drivers/STM32L4xx_HAL_Driver/Src/stm32l4xx_hal_opamp.c ****   }
 1091              		.loc 1 922 12 view .LVU331
 1092 0058 7047     		bx	lr
 1093              	.LVL86:
 1094              	.L84:
 922:Drivers/STM32L4xx_HAL_Driver/Src/stm32l4xx_hal_opamp.c ****   }
 1095              		.loc 1 922 12 view .LVU332
 1096 005a 4FF0FF30 		mov	r0, #-1
 1097              	.LVL87:
 922:Drivers/STM32L4xx_HAL_Driver/Src/stm32l4xx_hal_opamp.c ****   }
 1098              		.loc 1 922 12 view .LVU333
 1099 005e 7047     		bx	lr
 1100              	.LVL88:
ARM GAS  /tmp/cc1FqXos.s 			page 41


 1101              	.L85:
 922:Drivers/STM32L4xx_HAL_Driver/Src/stm32l4xx_hal_opamp.c ****   }
 1102              		.loc 1 922 12 view .LVU334
 1103 0060 4FF0FF30 		mov	r0, #-1
 1104              	.LVL89:
 922:Drivers/STM32L4xx_HAL_Driver/Src/stm32l4xx_hal_opamp.c ****   }
 1105              		.loc 1 922 12 view .LVU335
 1106 0064 7047     		bx	lr
 1107              	.LVL90:
 1108              	.L86:
 922:Drivers/STM32L4xx_HAL_Driver/Src/stm32l4xx_hal_opamp.c ****   }
 1109              		.loc 1 922 12 view .LVU336
 1110 0066 4FF0FF30 		mov	r0, #-1
 1111              	.LVL91:
 922:Drivers/STM32L4xx_HAL_Driver/Src/stm32l4xx_hal_opamp.c ****   }
 1112              		.loc 1 922 12 view .LVU337
 1113 006a 7047     		bx	lr
 1114              	.LVL92:
 1115              	.L87:
 939:Drivers/STM32L4xx_HAL_Driver/Src/stm32l4xx_hal_opamp.c ****     }
 1116              		.loc 1 939 21 view .LVU338
 1117 006c 4FF0FF30 		mov	r0, #-1
 1118              	.LVL93:
 963:Drivers/STM32L4xx_HAL_Driver/Src/stm32l4xx_hal_opamp.c ****       }
 964:Drivers/STM32L4xx_HAL_Driver/Src/stm32l4xx_hal_opamp.c ****     }
 965:Drivers/STM32L4xx_HAL_Driver/Src/stm32l4xx_hal_opamp.c ****   }  
 966:Drivers/STM32L4xx_HAL_Driver/Src/stm32l4xx_hal_opamp.c ****   return trimmingvalue;
 967:Drivers/STM32L4xx_HAL_Driver/Src/stm32l4xx_hal_opamp.c **** }
 1119              		.loc 1 967 1 view .LVU339
 1120 0070 7047     		bx	lr
 1121              	.L91:
 1122 0072 00BF     		.align	2
 1123              	.L90:
 1124 0074 04780040 		.word	1073772548
 1125 0078 08780040 		.word	1073772552
 1126              		.cfi_endproc
 1127              	.LFE317:
 1129              		.section	.text.HAL_OPAMP_GetState,"ax",%progbits
 1130              		.align	1
 1131              		.global	HAL_OPAMP_GetState
 1132              		.syntax unified
 1133              		.thumb
 1134              		.thumb_func
 1135              		.fpu fpv4-sp-d16
 1137              	HAL_OPAMP_GetState:
 1138              	.LVL94:
 1139              	.LFB318:
 968:Drivers/STM32L4xx_HAL_Driver/Src/stm32l4xx_hal_opamp.c **** 
 969:Drivers/STM32L4xx_HAL_Driver/Src/stm32l4xx_hal_opamp.c **** /**
 970:Drivers/STM32L4xx_HAL_Driver/Src/stm32l4xx_hal_opamp.c ****   * @}
 971:Drivers/STM32L4xx_HAL_Driver/Src/stm32l4xx_hal_opamp.c ****   */
 972:Drivers/STM32L4xx_HAL_Driver/Src/stm32l4xx_hal_opamp.c **** 
 973:Drivers/STM32L4xx_HAL_Driver/Src/stm32l4xx_hal_opamp.c **** 
 974:Drivers/STM32L4xx_HAL_Driver/Src/stm32l4xx_hal_opamp.c **** /** @defgroup OPAMP_Exported_Functions_Group4 Peripheral State functions 
 975:Drivers/STM32L4xx_HAL_Driver/Src/stm32l4xx_hal_opamp.c ****  *  @brief   Peripheral State functions 
 976:Drivers/STM32L4xx_HAL_Driver/Src/stm32l4xx_hal_opamp.c ****  *
 977:Drivers/STM32L4xx_HAL_Driver/Src/stm32l4xx_hal_opamp.c **** @verbatim   
ARM GAS  /tmp/cc1FqXos.s 			page 42


 978:Drivers/STM32L4xx_HAL_Driver/Src/stm32l4xx_hal_opamp.c ****  ===============================================================================
 979:Drivers/STM32L4xx_HAL_Driver/Src/stm32l4xx_hal_opamp.c ****                       ##### Peripheral State functions #####
 980:Drivers/STM32L4xx_HAL_Driver/Src/stm32l4xx_hal_opamp.c ****  =============================================================================== 
 981:Drivers/STM32L4xx_HAL_Driver/Src/stm32l4xx_hal_opamp.c ****     [..]
 982:Drivers/STM32L4xx_HAL_Driver/Src/stm32l4xx_hal_opamp.c ****     This subsection permits to get in run-time the status of the peripheral.
 983:Drivers/STM32L4xx_HAL_Driver/Src/stm32l4xx_hal_opamp.c **** 
 984:Drivers/STM32L4xx_HAL_Driver/Src/stm32l4xx_hal_opamp.c **** @endverbatim
 985:Drivers/STM32L4xx_HAL_Driver/Src/stm32l4xx_hal_opamp.c ****   * @{
 986:Drivers/STM32L4xx_HAL_Driver/Src/stm32l4xx_hal_opamp.c ****   */
 987:Drivers/STM32L4xx_HAL_Driver/Src/stm32l4xx_hal_opamp.c **** 
 988:Drivers/STM32L4xx_HAL_Driver/Src/stm32l4xx_hal_opamp.c **** /**
 989:Drivers/STM32L4xx_HAL_Driver/Src/stm32l4xx_hal_opamp.c ****   * @brief  Return the OPAMP handle state.
 990:Drivers/STM32L4xx_HAL_Driver/Src/stm32l4xx_hal_opamp.c ****   * @param  hopamp : OPAMP handle
 991:Drivers/STM32L4xx_HAL_Driver/Src/stm32l4xx_hal_opamp.c ****   * @retval HAL state
 992:Drivers/STM32L4xx_HAL_Driver/Src/stm32l4xx_hal_opamp.c ****   */
 993:Drivers/STM32L4xx_HAL_Driver/Src/stm32l4xx_hal_opamp.c **** HAL_OPAMP_StateTypeDef HAL_OPAMP_GetState(OPAMP_HandleTypeDef *hopamp)
 994:Drivers/STM32L4xx_HAL_Driver/Src/stm32l4xx_hal_opamp.c **** {
 1140              		.loc 1 994 1 is_stmt 1 view -0
 1141              		.cfi_startproc
 1142              		@ args = 0, pretend = 0, frame = 0
 1143              		@ frame_needed = 0, uses_anonymous_args = 0
 1144              		@ link register save eliminated.
 995:Drivers/STM32L4xx_HAL_Driver/Src/stm32l4xx_hal_opamp.c ****   /* Check the OPAMP handle allocation */
 996:Drivers/STM32L4xx_HAL_Driver/Src/stm32l4xx_hal_opamp.c ****   if(hopamp == NULL)
 1145              		.loc 1 996 3 view .LVU341
 1146              		.loc 1 996 5 is_stmt 0 view .LVU342
 1147 0000 18B1     		cbz	r0, .L94
 997:Drivers/STM32L4xx_HAL_Driver/Src/stm32l4xx_hal_opamp.c ****   {
 998:Drivers/STM32L4xx_HAL_Driver/Src/stm32l4xx_hal_opamp.c ****     return HAL_OPAMP_STATE_RESET;
 999:Drivers/STM32L4xx_HAL_Driver/Src/stm32l4xx_hal_opamp.c ****   }
1000:Drivers/STM32L4xx_HAL_Driver/Src/stm32l4xx_hal_opamp.c **** 
1001:Drivers/STM32L4xx_HAL_Driver/Src/stm32l4xx_hal_opamp.c ****   /* Check the parameter */
1002:Drivers/STM32L4xx_HAL_Driver/Src/stm32l4xx_hal_opamp.c ****   assert_param(IS_OPAMP_ALL_INSTANCE(hopamp->Instance));
 1148              		.loc 1 1002 3 is_stmt 1 view .LVU343
1003:Drivers/STM32L4xx_HAL_Driver/Src/stm32l4xx_hal_opamp.c **** 
1004:Drivers/STM32L4xx_HAL_Driver/Src/stm32l4xx_hal_opamp.c ****   /* Return OPAMP handle state */
1005:Drivers/STM32L4xx_HAL_Driver/Src/stm32l4xx_hal_opamp.c ****   return hopamp->State;
 1149              		.loc 1 1005 3 view .LVU344
 1150              		.loc 1 1005 16 is_stmt 0 view .LVU345
 1151 0002 90F83200 		ldrb	r0, [r0, #50]	@ zero_extendqisi2
 1152              	.LVL95:
 1153              		.loc 1 1005 16 view .LVU346
 1154 0006 C0B2     		uxtb	r0, r0
 1155 0008 7047     		bx	lr
 1156              	.LVL96:
 1157              	.L94:
 998:Drivers/STM32L4xx_HAL_Driver/Src/stm32l4xx_hal_opamp.c ****   }
 1158              		.loc 1 998 12 view .LVU347
 1159 000a 0020     		movs	r0, #0
 1160              	.LVL97:
1006:Drivers/STM32L4xx_HAL_Driver/Src/stm32l4xx_hal_opamp.c **** }
 1161              		.loc 1 1006 1 view .LVU348
 1162 000c 7047     		bx	lr
 1163              		.cfi_endproc
 1164              	.LFE318:
 1166              		.text
 1167              	.Letext0:
ARM GAS  /tmp/cc1FqXos.s 			page 43


 1168              		.file 2 "/usr/arm-none-eabi/include/machine/_default_types.h"
 1169              		.file 3 "/usr/arm-none-eabi/include/sys/_stdint.h"
 1170              		.file 4 "Drivers/CMSIS/Include/core_cm4.h"
 1171              		.file 5 "Drivers/CMSIS/Device/ST/STM32L4xx/Include/system_stm32l4xx.h"
 1172              		.file 6 "Drivers/CMSIS/Device/ST/STM32L4xx/Include/stm32l476xx.h"
 1173              		.file 7 "/usr/arm-none-eabi/include/sys/lock.h"
 1174              		.file 8 "/usr/arm-none-eabi/include/sys/_types.h"
 1175              		.file 9 "/usr/lib/gcc/arm-none-eabi/9.2.0/include/stddef.h"
 1176              		.file 10 "/usr/arm-none-eabi/include/sys/reent.h"
 1177              		.file 11 "Drivers/CMSIS/Device/ST/STM32L4xx/Include/stm32l4xx.h"
 1178              		.file 12 "Drivers/STM32L4xx_HAL_Driver/Inc/stm32l4xx_hal_def.h"
 1179              		.file 13 "Drivers/STM32L4xx_HAL_Driver/Inc/stm32l4xx_hal_opamp.h"
 1180              		.file 14 "Drivers/STM32L4xx_HAL_Driver/Inc/stm32l4xx_hal.h"
ARM GAS  /tmp/cc1FqXos.s 			page 44

