ARM GAS  /var/folders/bq/zy6zjhwd1qn4sn8dk3jpjcq80000gn/T//ccPeUgYz.s 			page 1


   1              		.syntax unified
   2              		.cpu cortex-m4
   3              		.eabi_attribute 27, 1
   4              		.eabi_attribute 28, 1
   5              		.fpu fpv4-sp-d16
   6              		.eabi_attribute 20, 1
   7              		.eabi_attribute 21, 1
   8              		.eabi_attribute 23, 3
   9              		.eabi_attribute 24, 1
  10              		.eabi_attribute 25, 1
  11              		.eabi_attribute 26, 1
  12              		.eabi_attribute 30, 1
  13              		.eabi_attribute 34, 1
  14              		.eabi_attribute 18, 4
  15              		.thumb
  16              		.file	"adc.c"
  17              		.text
  18              	.Ltext0:
  19              		.cfi_sections	.debug_frame
  20              		.section	.text.MX_ADC1_Init,"ax",%progbits
  21              		.align	2
  22              		.global	MX_ADC1_Init
  23              		.thumb
  24              		.thumb_func
  26              	MX_ADC1_Init:
  27              	.LFB306:
  28              		.file 1 "Src/adc.c"
   1:Src/adc.c     **** /**
   2:Src/adc.c     ****   ******************************************************************************
   3:Src/adc.c     ****   * File Name          : ADC.c
   4:Src/adc.c     ****   * Description        : This file provides code for the configuration
   5:Src/adc.c     ****   *                      of the ADC instances.
   6:Src/adc.c     ****   ******************************************************************************
   7:Src/adc.c     ****   ** This notice applies to any and all portions of this file
   8:Src/adc.c     ****   * that are not between comment pairs USER CODE BEGIN and
   9:Src/adc.c     ****   * USER CODE END. Other portions of this file, whether 
  10:Src/adc.c     ****   * inserted by the user or by software development tools
  11:Src/adc.c     ****   * are owned by their respective copyright owners.
  12:Src/adc.c     ****   *
  13:Src/adc.c     ****   * COPYRIGHT(c) 2018 STMicroelectronics
  14:Src/adc.c     ****   *
  15:Src/adc.c     ****   * Redistribution and use in source and binary forms, with or without modification,
  16:Src/adc.c     ****   * are permitted provided that the following conditions are met:
  17:Src/adc.c     ****   *   1. Redistributions of source code must retain the above copyright notice,
  18:Src/adc.c     ****   *      this list of conditions and the following disclaimer.
  19:Src/adc.c     ****   *   2. Redistributions in binary form must reproduce the above copyright notice,
  20:Src/adc.c     ****   *      this list of conditions and the following disclaimer in the documentation
  21:Src/adc.c     ****   *      and/or other materials provided with the distribution.
  22:Src/adc.c     ****   *   3. Neither the name of STMicroelectronics nor the names of its contributors
  23:Src/adc.c     ****   *      may be used to endorse or promote products derived from this software
  24:Src/adc.c     ****   *      without specific prior written permission.
  25:Src/adc.c     ****   *
  26:Src/adc.c     ****   * THIS SOFTWARE IS PROVIDED BY THE COPYRIGHT HOLDERS AND CONTRIBUTORS "AS IS"
  27:Src/adc.c     ****   * AND ANY EXPRESS OR IMPLIED WARRANTIES, INCLUDING, BUT NOT LIMITED TO, THE
  28:Src/adc.c     ****   * IMPLIED WARRANTIES OF MERCHANTABILITY AND FITNESS FOR A PARTICULAR PURPOSE ARE
  29:Src/adc.c     ****   * DISCLAIMED. IN NO EVENT SHALL THE COPYRIGHT HOLDER OR CONTRIBUTORS BE LIABLE
  30:Src/adc.c     ****   * FOR ANY DIRECT, INDIRECT, INCIDENTAL, SPECIAL, EXEMPLARY, OR CONSEQUENTIAL
ARM GAS  /var/folders/bq/zy6zjhwd1qn4sn8dk3jpjcq80000gn/T//ccPeUgYz.s 			page 2


  31:Src/adc.c     ****   * DAMAGES (INCLUDING, BUT NOT LIMITED TO, PROCUREMENT OF SUBSTITUTE GOODS OR
  32:Src/adc.c     ****   * SERVICES; LOSS OF USE, DATA, OR PROFITS; OR BUSINESS INTERRUPTION) HOWEVER
  33:Src/adc.c     ****   * CAUSED AND ON ANY THEORY OF LIABILITY, WHETHER IN CONTRACT, STRICT LIABILITY,
  34:Src/adc.c     ****   * OR TORT (INCLUDING NEGLIGENCE OR OTHERWISE) ARISING IN ANY WAY OUT OF THE USE
  35:Src/adc.c     ****   * OF THIS SOFTWARE, EVEN IF ADVISED OF THE POSSIBILITY OF SUCH DAMAGE.
  36:Src/adc.c     ****   *
  37:Src/adc.c     ****   ******************************************************************************
  38:Src/adc.c     ****   */
  39:Src/adc.c     **** 
  40:Src/adc.c     **** /* Includes ------------------------------------------------------------------*/
  41:Src/adc.c     **** #include "adc.h"
  42:Src/adc.c     **** 
  43:Src/adc.c     **** /* USER CODE BEGIN 0 */
  44:Src/adc.c     **** 
  45:Src/adc.c     **** /* USER CODE END 0 */
  46:Src/adc.c     **** 
  47:Src/adc.c     **** ADC_HandleTypeDef hadc1;
  48:Src/adc.c     **** 
  49:Src/adc.c     **** /* ADC1 init function */
  50:Src/adc.c     **** void MX_ADC1_Init(void)
  51:Src/adc.c     **** {
  29              		.loc 1 51 0
  30              		.cfi_startproc
  31              		@ args = 0, pretend = 0, frame = 40
  32              		@ frame_needed = 0, uses_anonymous_args = 0
  33 0000 00B5     		push	{lr}
  34              	.LCFI0:
  35              		.cfi_def_cfa_offset 4
  36              		.cfi_offset 14, -4
  37 0002 8BB0     		sub	sp, sp, #44
  38              	.LCFI1:
  39              		.cfi_def_cfa_offset 48
  52:Src/adc.c     ****   ADC_MultiModeTypeDef multimode;
  53:Src/adc.c     ****   ADC_ChannelConfTypeDef sConfig;
  54:Src/adc.c     **** 
  55:Src/adc.c     ****     /**Common config 
  56:Src/adc.c     ****     */
  57:Src/adc.c     ****   hadc1.Instance = ADC1;
  40              		.loc 1 57 0
  41 0004 1F48     		ldr	r0, .L6
  42 0006 204B     		ldr	r3, .L6+4
  43 0008 0360     		str	r3, [r0]
  58:Src/adc.c     ****   hadc1.Init.ClockPrescaler = ADC_CLOCK_ASYNC_DIV1;
  44              		.loc 1 58 0
  45 000a 0023     		movs	r3, #0
  46 000c 4360     		str	r3, [r0, #4]
  59:Src/adc.c     ****   hadc1.Init.Resolution = ADC_RESOLUTION_12B;
  47              		.loc 1 59 0
  48 000e 8360     		str	r3, [r0, #8]
  60:Src/adc.c     ****   hadc1.Init.DataAlign = ADC_DATAALIGN_RIGHT;
  49              		.loc 1 60 0
  50 0010 C360     		str	r3, [r0, #12]
  61:Src/adc.c     ****   hadc1.Init.ScanConvMode = ADC_SCAN_DISABLE;
  51              		.loc 1 61 0
  52 0012 0361     		str	r3, [r0, #16]
  62:Src/adc.c     ****   hadc1.Init.EOCSelection = ADC_EOC_SINGLE_CONV;
  53              		.loc 1 62 0
ARM GAS  /var/folders/bq/zy6zjhwd1qn4sn8dk3jpjcq80000gn/T//ccPeUgYz.s 			page 3


  54 0014 0422     		movs	r2, #4
  55 0016 4261     		str	r2, [r0, #20]
  63:Src/adc.c     ****   hadc1.Init.LowPowerAutoWait = DISABLE;
  56              		.loc 1 63 0
  57 0018 8361     		str	r3, [r0, #24]
  64:Src/adc.c     ****   hadc1.Init.ContinuousConvMode = DISABLE;
  58              		.loc 1 64 0
  59 001a C361     		str	r3, [r0, #28]
  65:Src/adc.c     ****   hadc1.Init.NbrOfConversion = 1;
  60              		.loc 1 65 0
  61 001c 0122     		movs	r2, #1
  62 001e 0262     		str	r2, [r0, #32]
  66:Src/adc.c     ****   hadc1.Init.DiscontinuousConvMode = DISABLE;
  63              		.loc 1 66 0
  64 0020 4362     		str	r3, [r0, #36]
  67:Src/adc.c     ****   hadc1.Init.NbrOfDiscConversion = 1;
  65              		.loc 1 67 0
  66 0022 8262     		str	r2, [r0, #40]
  68:Src/adc.c     ****   hadc1.Init.ExternalTrigConv = ADC_SOFTWARE_START;
  67              		.loc 1 68 0
  68 0024 C362     		str	r3, [r0, #44]
  69:Src/adc.c     ****   hadc1.Init.ExternalTrigConvEdge = ADC_EXTERNALTRIGCONVEDGE_NONE;
  69              		.loc 1 69 0
  70 0026 0363     		str	r3, [r0, #48]
  70:Src/adc.c     ****   hadc1.Init.DMAContinuousRequests = DISABLE;
  71              		.loc 1 70 0
  72 0028 4363     		str	r3, [r0, #52]
  71:Src/adc.c     ****   hadc1.Init.Overrun = ADC_OVR_DATA_PRESERVED;
  73              		.loc 1 71 0
  74 002a 8363     		str	r3, [r0, #56]
  72:Src/adc.c     ****   hadc1.Init.OversamplingMode = DISABLE;
  75              		.loc 1 72 0
  76 002c C363     		str	r3, [r0, #60]
  73:Src/adc.c     ****   if (HAL_ADC_Init(&hadc1) != HAL_OK)
  77              		.loc 1 73 0
  78 002e FFF7FEFF 		bl	HAL_ADC_Init
  79              	.LVL0:
  80 0032 18B1     		cbz	r0, .L2
  74:Src/adc.c     ****   {
  75:Src/adc.c     ****     _Error_Handler(__FILE__, __LINE__);
  81              		.loc 1 75 0
  82 0034 1548     		ldr	r0, .L6+8
  83 0036 4B21     		movs	r1, #75
  84 0038 FFF7FEFF 		bl	_Error_Handler
  85              	.LVL1:
  86              	.L2:
  76:Src/adc.c     ****   }
  77:Src/adc.c     **** 
  78:Src/adc.c     ****     /**Configure the ADC multi-mode 
  79:Src/adc.c     ****     */
  80:Src/adc.c     ****   multimode.Mode = ADC_MODE_INDEPENDENT;
  87              		.loc 1 80 0
  88 003c 0AA9     		add	r1, sp, #40
  89 003e 0023     		movs	r3, #0
  90 0040 41F80C3D 		str	r3, [r1, #-12]!
  81:Src/adc.c     ****   if (HAL_ADCEx_MultiModeConfigChannel(&hadc1, &multimode) != HAL_OK)
  91              		.loc 1 81 0
ARM GAS  /var/folders/bq/zy6zjhwd1qn4sn8dk3jpjcq80000gn/T//ccPeUgYz.s 			page 4


  92 0044 0F48     		ldr	r0, .L6
  93 0046 FFF7FEFF 		bl	HAL_ADCEx_MultiModeConfigChannel
  94              	.LVL2:
  95 004a 18B1     		cbz	r0, .L3
  82:Src/adc.c     ****   {
  83:Src/adc.c     ****     _Error_Handler(__FILE__, __LINE__);
  96              		.loc 1 83 0
  97 004c 0F48     		ldr	r0, .L6+8
  98 004e 5321     		movs	r1, #83
  99 0050 FFF7FEFF 		bl	_Error_Handler
 100              	.LVL3:
 101              	.L3:
  84:Src/adc.c     ****   }
  85:Src/adc.c     **** 
  86:Src/adc.c     ****     /**Configure Regular Channel 
  87:Src/adc.c     ****     */
  88:Src/adc.c     ****   sConfig.Channel = ADC_CHANNEL_15;
 102              		.loc 1 88 0
 103 0054 0E4B     		ldr	r3, .L6+12
 104 0056 0193     		str	r3, [sp, #4]
  89:Src/adc.c     ****   sConfig.Rank = ADC_REGULAR_RANK_1;
 105              		.loc 1 89 0
 106 0058 0623     		movs	r3, #6
 107 005a 0293     		str	r3, [sp, #8]
  90:Src/adc.c     ****   sConfig.SamplingTime = ADC_SAMPLETIME_2CYCLES_5;
 108              		.loc 1 90 0
 109 005c 0023     		movs	r3, #0
 110 005e 0393     		str	r3, [sp, #12]
  91:Src/adc.c     ****   sConfig.SingleDiff = ADC_SINGLE_ENDED;
 111              		.loc 1 91 0
 112 0060 7F22     		movs	r2, #127
 113 0062 0492     		str	r2, [sp, #16]
  92:Src/adc.c     ****   sConfig.OffsetNumber = ADC_OFFSET_NONE;
 114              		.loc 1 92 0
 115 0064 0422     		movs	r2, #4
 116 0066 0592     		str	r2, [sp, #20]
  93:Src/adc.c     ****   sConfig.Offset = 0;
 117              		.loc 1 93 0
 118 0068 0693     		str	r3, [sp, #24]
  94:Src/adc.c     ****   if (HAL_ADC_ConfigChannel(&hadc1, &sConfig) != HAL_OK)
 119              		.loc 1 94 0
 120 006a 0648     		ldr	r0, .L6
 121 006c 0DEB0201 		add	r1, sp, r2
 122 0070 FFF7FEFF 		bl	HAL_ADC_ConfigChannel
 123              	.LVL4:
 124 0074 18B1     		cbz	r0, .L1
  95:Src/adc.c     ****   {
  96:Src/adc.c     ****     _Error_Handler(__FILE__, __LINE__);
 125              		.loc 1 96 0
 126 0076 0548     		ldr	r0, .L6+8
 127 0078 6021     		movs	r1, #96
 128 007a FFF7FEFF 		bl	_Error_Handler
 129              	.LVL5:
 130              	.L1:
  97:Src/adc.c     ****   }
  98:Src/adc.c     **** 
  99:Src/adc.c     **** }
ARM GAS  /var/folders/bq/zy6zjhwd1qn4sn8dk3jpjcq80000gn/T//ccPeUgYz.s 			page 5


 131              		.loc 1 99 0
 132 007e 0BB0     		add	sp, sp, #44
 133              	.LCFI2:
 134              		.cfi_def_cfa_offset 4
 135              		@ sp needed
 136 0080 5DF804FB 		ldr	pc, [sp], #4
 137              	.L7:
 138              		.align	2
 139              	.L6:
 140 0084 00000000 		.word	hadc1
 141 0088 00000450 		.word	1342439424
 142 008c 00000000 		.word	.LC0
 143 0090 0080F03E 		.word	1055948800
 144              		.cfi_endproc
 145              	.LFE306:
 147              		.section	.text.HAL_ADC_MspInit,"ax",%progbits
 148              		.align	2
 149              		.global	HAL_ADC_MspInit
 150              		.thumb
 151              		.thumb_func
 153              	HAL_ADC_MspInit:
 154              	.LFB307:
 100:Src/adc.c     **** 
 101:Src/adc.c     **** void HAL_ADC_MspInit(ADC_HandleTypeDef* adcHandle)
 102:Src/adc.c     **** {
 155              		.loc 1 102 0
 156              		.cfi_startproc
 157              		@ args = 0, pretend = 0, frame = 8
 158              		@ frame_needed = 0, uses_anonymous_args = 0
 159              		@ link register save eliminated.
 160              	.LVL6:
 103:Src/adc.c     **** 
 104:Src/adc.c     ****   if(adcHandle->Instance==ADC1)
 161              		.loc 1 104 0
 162 0000 0268     		ldr	r2, [r0]
 163 0002 094B     		ldr	r3, .L13
 164 0004 9A42     		cmp	r2, r3
 165 0006 0ED1     		bne	.L12
 102:Src/adc.c     **** 
 166              		.loc 1 102 0
 167 0008 82B0     		sub	sp, sp, #8
 168              	.LCFI3:
 169              		.cfi_def_cfa_offset 8
 170              	.LBB2:
 105:Src/adc.c     ****   {
 106:Src/adc.c     ****   /* USER CODE BEGIN ADC1_MspInit 0 */
 107:Src/adc.c     **** 
 108:Src/adc.c     ****   /* USER CODE END ADC1_MspInit 0 */
 109:Src/adc.c     ****     /* ADC1 clock enable */
 110:Src/adc.c     ****     __HAL_RCC_ADC_CLK_ENABLE();
 171              		.loc 1 110 0
 172 000a 03F17043 		add	r3, r3, #-268435456
 173 000e A3F5F833 		sub	r3, r3, #126976
 174 0012 DA6C     		ldr	r2, [r3, #76]
 175 0014 42F40052 		orr	r2, r2, #8192
 176 0018 DA64     		str	r2, [r3, #76]
 177 001a DB6C     		ldr	r3, [r3, #76]
ARM GAS  /var/folders/bq/zy6zjhwd1qn4sn8dk3jpjcq80000gn/T//ccPeUgYz.s 			page 6


 178 001c 03F40053 		and	r3, r3, #8192
 179 0020 0193     		str	r3, [sp, #4]
 180 0022 019B     		ldr	r3, [sp, #4]
 181              	.LBE2:
 111:Src/adc.c     ****   /* USER CODE BEGIN ADC1_MspInit 1 */
 112:Src/adc.c     **** 
 113:Src/adc.c     ****   /* USER CODE END ADC1_MspInit 1 */
 114:Src/adc.c     ****   }
 115:Src/adc.c     **** }
 182              		.loc 1 115 0
 183 0024 02B0     		add	sp, sp, #8
 184              	.LCFI4:
 185              		.cfi_def_cfa_offset 0
 186              		@ sp needed
 187              	.L12:
 188 0026 7047     		bx	lr
 189              	.L14:
 190              		.align	2
 191              	.L13:
 192 0028 00000450 		.word	1342439424
 193              		.cfi_endproc
 194              	.LFE307:
 196              		.section	.text.HAL_ADC_MspDeInit,"ax",%progbits
 197              		.align	2
 198              		.global	HAL_ADC_MspDeInit
 199              		.thumb
 200              		.thumb_func
 202              	HAL_ADC_MspDeInit:
 203              	.LFB308:
 116:Src/adc.c     **** 
 117:Src/adc.c     **** void HAL_ADC_MspDeInit(ADC_HandleTypeDef* adcHandle)
 118:Src/adc.c     **** {
 204              		.loc 1 118 0
 205              		.cfi_startproc
 206              		@ args = 0, pretend = 0, frame = 0
 207              		@ frame_needed = 0, uses_anonymous_args = 0
 208              		@ link register save eliminated.
 209              	.LVL7:
 119:Src/adc.c     **** 
 120:Src/adc.c     ****   if(adcHandle->Instance==ADC1)
 210              		.loc 1 120 0
 211 0000 0268     		ldr	r2, [r0]
 212 0002 044B     		ldr	r3, .L17
 213 0004 9A42     		cmp	r2, r3
 214 0006 04D1     		bne	.L15
 121:Src/adc.c     ****   {
 122:Src/adc.c     ****   /* USER CODE BEGIN ADC1_MspDeInit 0 */
 123:Src/adc.c     **** 
 124:Src/adc.c     ****   /* USER CODE END ADC1_MspDeInit 0 */
 125:Src/adc.c     ****     /* Peripheral clock disable */
 126:Src/adc.c     ****     __HAL_RCC_ADC_CLK_DISABLE();
 215              		.loc 1 126 0
 216 0008 034A     		ldr	r2, .L17+4
 217 000a D36C     		ldr	r3, [r2, #76]
 218 000c 23F40053 		bic	r3, r3, #8192
 219 0010 D364     		str	r3, [r2, #76]
 220              	.L15:
ARM GAS  /var/folders/bq/zy6zjhwd1qn4sn8dk3jpjcq80000gn/T//ccPeUgYz.s 			page 7


 221 0012 7047     		bx	lr
 222              	.L18:
 223              		.align	2
 224              	.L17:
 225 0014 00000450 		.word	1342439424
 226 0018 00100240 		.word	1073876992
 227              		.cfi_endproc
 228              	.LFE308:
 230              		.comm	hadc1,104,4
 231              		.section	.rodata.str1.4,"aMS",%progbits,1
 232              		.align	2
 233              	.LC0:
 234 0000 5372632F 		.ascii	"Src/adc.c\000"
 234      6164632E 
 234      6300
 235              		.text
 236              	.Letext0:
 237              		.file 2 "/usr/local/Cellar/gcc-arm-none-eabi-49/20150925/arm-none-eabi/include/machine/_default_ty
 238              		.file 3 "/usr/local/Cellar/gcc-arm-none-eabi-49/20150925/arm-none-eabi/include/sys/_stdint.h"
 239              		.file 4 "Drivers/CMSIS/Device/ST/STM32L4xx/Include/stm32l476xx.h"
 240              		.file 5 "Drivers/CMSIS/Device/ST/STM32L4xx/Include/stm32l4xx.h"
 241              		.file 6 "Drivers/STM32L4xx_HAL_Driver/Inc/stm32l4xx_hal_def.h"
 242              		.file 7 "Drivers/STM32L4xx_HAL_Driver/Inc/stm32l4xx_hal_dma.h"
 243              		.file 8 "Drivers/STM32L4xx_HAL_Driver/Inc/stm32l4xx_hal_adc.h"
 244              		.file 9 "Drivers/STM32L4xx_HAL_Driver/Inc/stm32l4xx_hal_adc_ex.h"
 245              		.file 10 "Drivers/CMSIS/Include/core_cm4.h"
 246              		.file 11 "Inc/adc.h"
ARM GAS  /var/folders/bq/zy6zjhwd1qn4sn8dk3jpjcq80000gn/T//ccPeUgYz.s 			page 8

