ARM GAS  /var/folders/bq/zy6zjhwd1qn4sn8dk3jpjcq80000gn/T//cckanXCj.s 			page 1


   1              		.syntax unified
   2              		.cpu cortex-m4
   3              		.eabi_attribute 27, 1
   4              		.eabi_attribute 28, 1
   5              		.fpu fpv4-sp-d16
   6              		.eabi_attribute 20, 1
   7              		.eabi_attribute 21, 1
   8              		.eabi_attribute 23, 3
   9              		.eabi_attribute 24, 1
  10              		.eabi_attribute 25, 1
  11              		.eabi_attribute 26, 1
  12              		.eabi_attribute 30, 1
  13              		.eabi_attribute 34, 1
  14              		.eabi_attribute 18, 4
  15              		.thumb
  16              		.file	"opamp.c"
  17              		.text
  18              	.Ltext0:
  19              		.cfi_sections	.debug_frame
  20              		.section	.text.MX_OPAMP2_Init,"ax",%progbits
  21              		.align	2
  22              		.global	MX_OPAMP2_Init
  23              		.thumb
  24              		.thumb_func
  26              	MX_OPAMP2_Init:
  27              	.LFB306:
  28              		.file 1 "Src/opamp.c"
   1:Src/opamp.c   **** /**
   2:Src/opamp.c   ****   ******************************************************************************
   3:Src/opamp.c   ****   * File Name          : OPAMP.c
   4:Src/opamp.c   ****   * Description        : This file provides code for the configuration
   5:Src/opamp.c   ****   *                      of the OPAMP instances.
   6:Src/opamp.c   ****   ******************************************************************************
   7:Src/opamp.c   ****   ** This notice applies to any and all portions of this file
   8:Src/opamp.c   ****   * that are not between comment pairs USER CODE BEGIN and
   9:Src/opamp.c   ****   * USER CODE END. Other portions of this file, whether
  10:Src/opamp.c   ****   * inserted by the user or by software development tools
  11:Src/opamp.c   ****   * are owned by their respective copyright owners.
  12:Src/opamp.c   ****   *
  13:Src/opamp.c   ****   * COPYRIGHT(c) 2018 STMicroelectronics
  14:Src/opamp.c   ****   *
  15:Src/opamp.c   ****   * Redistribution and use in source and binary forms, with or without modification,
  16:Src/opamp.c   ****   * are permitted provided that the following conditions are met:
  17:Src/opamp.c   ****   *   1. Redistributions of source code must retain the above copyright notice,
  18:Src/opamp.c   ****   *      this list of conditions and the following disclaimer.
  19:Src/opamp.c   ****   *   2. Redistributions in binary form must reproduce the above copyright notice,
  20:Src/opamp.c   ****   *      this list of conditions and the following disclaimer in the documentation
  21:Src/opamp.c   ****   *      and/or other materials provided with the distribution.
  22:Src/opamp.c   ****   *   3. Neither the name of STMicroelectronics nor the names of its contributors
  23:Src/opamp.c   ****   *      may be used to endorse or promote products derived from this software
  24:Src/opamp.c   ****   *      without specific prior written permission.
  25:Src/opamp.c   ****   *
  26:Src/opamp.c   ****   * THIS SOFTWARE IS PROVIDED BY THE COPYRIGHT HOLDERS AND CONTRIBUTORS "AS IS"
  27:Src/opamp.c   ****   * AND ANY EXPRESS OR IMPLIED WARRANTIES, INCLUDING, BUT NOT LIMITED TO, THE
  28:Src/opamp.c   ****   * IMPLIED WARRANTIES OF MERCHANTABILITY AND FITNESS FOR A PARTICULAR PURPOSE ARE
  29:Src/opamp.c   ****   * DISCLAIMED. IN NO EVENT SHALL THE COPYRIGHT HOLDER OR CONTRIBUTORS BE LIABLE
  30:Src/opamp.c   ****   * FOR ANY DIRECT, INDIRECT, INCIDENTAL, SPECIAL, EXEMPLARY, OR CONSEQUENTIAL
ARM GAS  /var/folders/bq/zy6zjhwd1qn4sn8dk3jpjcq80000gn/T//cckanXCj.s 			page 2


  31:Src/opamp.c   ****   * DAMAGES (INCLUDING, BUT NOT LIMITED TO, PROCUREMENT OF SUBSTITUTE GOODS OR
  32:Src/opamp.c   ****   * SERVICES; LOSS OF USE, DATA, OR PROFITS; OR BUSINESS INTERRUPTION) HOWEVER
  33:Src/opamp.c   ****   * CAUSED AND ON ANY THEORY OF LIABILITY, WHETHER IN CONTRACT, STRICT LIABILITY,
  34:Src/opamp.c   ****   * OR TORT (INCLUDING NEGLIGENCE OR OTHERWISE) ARISING IN ANY WAY OUT OF THE USE
  35:Src/opamp.c   ****   * OF THIS SOFTWARE, EVEN IF ADVISED OF THE POSSIBILITY OF SUCH DAMAGE.
  36:Src/opamp.c   ****   *
  37:Src/opamp.c   ****   ******************************************************************************
  38:Src/opamp.c   ****   */
  39:Src/opamp.c   **** 
  40:Src/opamp.c   **** /* Includes ------------------------------------------------------------------*/
  41:Src/opamp.c   **** #include "opamp.h"
  42:Src/opamp.c   **** 
  43:Src/opamp.c   **** #include "gpio.h"
  44:Src/opamp.c   **** 
  45:Src/opamp.c   **** /* USER CODE BEGIN 0 */
  46:Src/opamp.c   **** 
  47:Src/opamp.c   **** /* USER CODE END 0 */
  48:Src/opamp.c   **** 
  49:Src/opamp.c   **** OPAMP_HandleTypeDef hopamp2;
  50:Src/opamp.c   **** 
  51:Src/opamp.c   **** /* OPAMP2 init function */
  52:Src/opamp.c   **** void MX_OPAMP2_Init(void)
  53:Src/opamp.c   **** {
  29              		.loc 1 53 0
  30              		.cfi_startproc
  31              		@ args = 0, pretend = 0, frame = 0
  32              		@ frame_needed = 0, uses_anonymous_args = 0
  33 0000 08B5     		push	{r3, lr}
  34              	.LCFI0:
  35              		.cfi_def_cfa_offset 8
  36              		.cfi_offset 3, -8
  37              		.cfi_offset 14, -4
  54:Src/opamp.c   **** 
  55:Src/opamp.c   ****   hopamp2.Instance = OPAMP2;
  38              		.loc 1 55 0
  39 0002 0A48     		ldr	r0, .L4
  40 0004 0A4B     		ldr	r3, .L4+4
  41 0006 0360     		str	r3, [r0]
  56:Src/opamp.c   ****   hopamp2.Init.PowerSupplyRange = OPAMP_POWERSUPPLY_LOW;
  42              		.loc 1 56 0
  43 0008 0023     		movs	r3, #0
  44 000a 4360     		str	r3, [r0, #4]
  57:Src/opamp.c   ****   hopamp2.Init.Mode = OPAMP_PGA_MODE;
  45              		.loc 1 57 0
  46 000c 0822     		movs	r2, #8
  47 000e C260     		str	r2, [r0, #12]
  58:Src/opamp.c   ****   hopamp2.Init.NonInvertingInput = OPAMP_NONINVERTINGINPUT_IO0;
  48              		.loc 1 58 0
  49 0010 4361     		str	r3, [r0, #20]
  59:Src/opamp.c   ****   hopamp2.Init.InvertingInput = OPAMP_INVERTINGINPUT_IO0;
  50              		.loc 1 59 0
  51 0012 0361     		str	r3, [r0, #16]
  60:Src/opamp.c   ****   hopamp2.Init.PgaGain = OPAMP_PGA_GAIN_8;
  52              		.loc 1 60 0
  53 0014 2022     		movs	r2, #32
  54 0016 8261     		str	r2, [r0, #24]
  61:Src/opamp.c   ****   hopamp2.Init.PowerMode = OPAMP_POWERMODE_NORMAL;
ARM GAS  /var/folders/bq/zy6zjhwd1qn4sn8dk3jpjcq80000gn/T//cckanXCj.s 			page 3


  55              		.loc 1 61 0
  56 0018 8360     		str	r3, [r0, #8]
  62:Src/opamp.c   ****   hopamp2.Init.UserTrimming = OPAMP_TRIMMING_FACTORY;
  57              		.loc 1 62 0
  58 001a C361     		str	r3, [r0, #28]
  63:Src/opamp.c   ****   if (HAL_OPAMP_Init(&hopamp2) != HAL_OK)
  59              		.loc 1 63 0
  60 001c FFF7FEFF 		bl	HAL_OPAMP_Init
  61              	.LVL0:
  62 0020 18B1     		cbz	r0, .L1
  64:Src/opamp.c   ****   {
  65:Src/opamp.c   ****     _Error_Handler(__FILE__, __LINE__);
  63              		.loc 1 65 0
  64 0022 0448     		ldr	r0, .L4+8
  65 0024 4121     		movs	r1, #65
  66 0026 FFF7FEFF 		bl	_Error_Handler
  67              	.LVL1:
  68              	.L1:
  69 002a 08BD     		pop	{r3, pc}
  70              	.L5:
  71              		.align	2
  72              	.L4:
  73 002c 00000000 		.word	hopamp2
  74 0030 10780040 		.word	1073772560
  75 0034 00000000 		.word	.LC0
  76              		.cfi_endproc
  77              	.LFE306:
  79              		.section	.text.HAL_OPAMP_MspInit,"ax",%progbits
  80              		.align	2
  81              		.global	HAL_OPAMP_MspInit
  82              		.thumb
  83              		.thumb_func
  85              	HAL_OPAMP_MspInit:
  86              	.LFB307:
  66:Src/opamp.c   ****   }
  67:Src/opamp.c   **** 
  68:Src/opamp.c   **** }
  69:Src/opamp.c   **** 
  70:Src/opamp.c   **** void HAL_OPAMP_MspInit(OPAMP_HandleTypeDef* opampHandle)
  71:Src/opamp.c   **** {
  87              		.loc 1 71 0
  88              		.cfi_startproc
  89              		@ args = 0, pretend = 0, frame = 24
  90              		@ frame_needed = 0, uses_anonymous_args = 0
  91              	.LVL2:
  72:Src/opamp.c   **** 
  73:Src/opamp.c   ****   GPIO_InitTypeDef GPIO_InitStruct;
  74:Src/opamp.c   ****   if(opampHandle->Instance==OPAMP2)
  92              		.loc 1 74 0
  93 0000 0268     		ldr	r2, [r0]
  94 0002 144B     		ldr	r3, .L10
  95 0004 9A42     		cmp	r2, r3
  96 0006 23D1     		bne	.L9
  71:Src/opamp.c   **** 
  97              		.loc 1 71 0
  98 0008 30B5     		push	{r4, r5, lr}
  99              	.LCFI1:
ARM GAS  /var/folders/bq/zy6zjhwd1qn4sn8dk3jpjcq80000gn/T//cckanXCj.s 			page 4


 100              		.cfi_def_cfa_offset 12
 101              		.cfi_offset 4, -12
 102              		.cfi_offset 5, -8
 103              		.cfi_offset 14, -4
 104 000a 87B0     		sub	sp, sp, #28
 105              	.LCFI2:
 106              		.cfi_def_cfa_offset 40
 107              	.LBB2:
  75:Src/opamp.c   ****   {
  76:Src/opamp.c   ****   /* USER CODE BEGIN OPAMP2_MspInit 0 */
  77:Src/opamp.c   **** 
  78:Src/opamp.c   ****   /* USER CODE END OPAMP2_MspInit 0 */
  79:Src/opamp.c   ****     /* OPAMP2 clock enable */
  80:Src/opamp.c   ****     __HAL_RCC_OPAMP_CLK_ENABLE();
 108              		.loc 1 80 0
 109 000c 03F5CB33 		add	r3, r3, #103936
 110 0010 03F5F873 		add	r3, r3, #496
 111 0014 9A6D     		ldr	r2, [r3, #88]
 112 0016 42F08042 		orr	r2, r2, #1073741824
 113 001a 9A65     		str	r2, [r3, #88]
 114 001c 9B6D     		ldr	r3, [r3, #88]
 115 001e 03F08043 		and	r3, r3, #1073741824
 116 0022 0093     		str	r3, [sp]
 117 0024 009B     		ldr	r3, [sp]
 118              	.LBE2:
  81:Src/opamp.c   **** 
  82:Src/opamp.c   ****     /**OPAMP2 GPIO Configuration
  83:Src/opamp.c   ****     PA6     ------> OPAMP2_VINP
  84:Src/opamp.c   ****     PA7     ------> OPAMP2_VINM
  85:Src/opamp.c   ****     PB0     ------> OPAMP2_VOUT
  86:Src/opamp.c   ****     */
  87:Src/opamp.c   ****     GPIO_InitStruct.Pin = GPIO_PIN_6|GPIO_PIN_7;
 119              		.loc 1 87 0
 120 0026 C023     		movs	r3, #192
 121 0028 0193     		str	r3, [sp, #4]
  88:Src/opamp.c   ****     GPIO_InitStruct.Mode = GPIO_MODE_ANALOG;
 122              		.loc 1 88 0
 123 002a 0325     		movs	r5, #3
 124 002c 0295     		str	r5, [sp, #8]
  89:Src/opamp.c   ****     GPIO_InitStruct.Pull = GPIO_NOPULL;
 125              		.loc 1 89 0
 126 002e 0024     		movs	r4, #0
 127 0030 0394     		str	r4, [sp, #12]
  90:Src/opamp.c   ****     HAL_GPIO_Init(GPIOA, &GPIO_InitStruct);
 128              		.loc 1 90 0
 129 0032 4FF09040 		mov	r0, #1207959552
 130              	.LVL3:
 131 0036 01A9     		add	r1, sp, #4
 132 0038 FFF7FEFF 		bl	HAL_GPIO_Init
 133              	.LVL4:
  91:Src/opamp.c   **** 
  92:Src/opamp.c   ****     GPIO_InitStruct.Pin = GPIO_PIN_0;
 134              		.loc 1 92 0
 135 003c 0123     		movs	r3, #1
 136 003e 0193     		str	r3, [sp, #4]
  93:Src/opamp.c   ****     GPIO_InitStruct.Mode = GPIO_MODE_ANALOG;
 137              		.loc 1 93 0
ARM GAS  /var/folders/bq/zy6zjhwd1qn4sn8dk3jpjcq80000gn/T//cckanXCj.s 			page 5


 138 0040 0295     		str	r5, [sp, #8]
  94:Src/opamp.c   ****     GPIO_InitStruct.Pull = GPIO_NOPULL;
 139              		.loc 1 94 0
 140 0042 0394     		str	r4, [sp, #12]
  95:Src/opamp.c   ****     HAL_GPIO_Init(GPIOB, &GPIO_InitStruct);
 141              		.loc 1 95 0
 142 0044 0448     		ldr	r0, .L10+4
 143 0046 01A9     		add	r1, sp, #4
 144 0048 FFF7FEFF 		bl	HAL_GPIO_Init
 145              	.LVL5:
  96:Src/opamp.c   **** 
  97:Src/opamp.c   ****   /* USER CODE BEGIN OPAMP2_MspInit 1 */
  98:Src/opamp.c   **** 
  99:Src/opamp.c   ****   /* USER CODE END OPAMP2_MspInit 1 */
 100:Src/opamp.c   ****   }
 101:Src/opamp.c   **** }
 146              		.loc 1 101 0
 147 004c 07B0     		add	sp, sp, #28
 148              	.LCFI3:
 149              		.cfi_def_cfa_offset 12
 150              		@ sp needed
 151 004e 30BD     		pop	{r4, r5, pc}
 152              	.LVL6:
 153              	.L9:
 154              	.LCFI4:
 155              		.cfi_def_cfa_offset 0
 156              		.cfi_restore 4
 157              		.cfi_restore 5
 158              		.cfi_restore 14
 159 0050 7047     		bx	lr
 160              	.L11:
 161 0052 00BF     		.align	2
 162              	.L10:
 163 0054 10780040 		.word	1073772560
 164 0058 00040048 		.word	1207960576
 165              		.cfi_endproc
 166              	.LFE307:
 168              		.section	.text.HAL_OPAMP_MspDeInit,"ax",%progbits
 169              		.align	2
 170              		.global	HAL_OPAMP_MspDeInit
 171              		.thumb
 172              		.thumb_func
 174              	HAL_OPAMP_MspDeInit:
 175              	.LFB308:
 102:Src/opamp.c   **** 
 103:Src/opamp.c   **** void HAL_OPAMP_MspDeInit(OPAMP_HandleTypeDef* opampHandle)
 104:Src/opamp.c   **** {
 176              		.loc 1 104 0
 177              		.cfi_startproc
 178              		@ args = 0, pretend = 0, frame = 0
 179              		@ frame_needed = 0, uses_anonymous_args = 0
 180              	.LVL7:
 181 0000 08B5     		push	{r3, lr}
 182              	.LCFI5:
 183              		.cfi_def_cfa_offset 8
 184              		.cfi_offset 3, -8
 185              		.cfi_offset 14, -4
ARM GAS  /var/folders/bq/zy6zjhwd1qn4sn8dk3jpjcq80000gn/T//cckanXCj.s 			page 6


 105:Src/opamp.c   **** 
 106:Src/opamp.c   ****   if(opampHandle->Instance==OPAMP2)
 186              		.loc 1 106 0
 187 0002 0268     		ldr	r2, [r0]
 188 0004 084B     		ldr	r3, .L15
 189 0006 9A42     		cmp	r2, r3
 190 0008 0DD1     		bne	.L12
 107:Src/opamp.c   ****   {
 108:Src/opamp.c   ****   /* USER CODE BEGIN OPAMP2_MspDeInit 0 */
 109:Src/opamp.c   **** 
 110:Src/opamp.c   ****   /* USER CODE END OPAMP2_MspDeInit 0 */
 111:Src/opamp.c   ****     /* Peripheral clock disable */
 112:Src/opamp.c   ****     __HAL_RCC_OPAMP_CLK_DISABLE();
 191              		.loc 1 112 0
 192 000a 084A     		ldr	r2, .L15+4
 193 000c 936D     		ldr	r3, [r2, #88]
 194 000e 23F08043 		bic	r3, r3, #1073741824
 195 0012 9365     		str	r3, [r2, #88]
 113:Src/opamp.c   **** 
 114:Src/opamp.c   ****     /**OPAMP2 GPIO Configuration
 115:Src/opamp.c   ****     PA6     ------> OPAMP2_VINP
 116:Src/opamp.c   ****     PA7     ------> OPAMP2_VINM
 117:Src/opamp.c   ****     PB0     ------> OPAMP2_VOUT
 118:Src/opamp.c   ****     */
 119:Src/opamp.c   ****     HAL_GPIO_DeInit(GPIOA, GPIO_PIN_6|GPIO_PIN_7);
 196              		.loc 1 119 0
 197 0014 4FF09040 		mov	r0, #1207959552
 198              	.LVL8:
 199 0018 C021     		movs	r1, #192
 200 001a FFF7FEFF 		bl	HAL_GPIO_DeInit
 201              	.LVL9:
 120:Src/opamp.c   **** 
 121:Src/opamp.c   ****     HAL_GPIO_DeInit(GPIOB, GPIO_PIN_0);
 202              		.loc 1 121 0
 203 001e 0448     		ldr	r0, .L15+8
 204 0020 0121     		movs	r1, #1
 205 0022 FFF7FEFF 		bl	HAL_GPIO_DeInit
 206              	.LVL10:
 207              	.L12:
 208 0026 08BD     		pop	{r3, pc}
 209              	.L16:
 210              		.align	2
 211              	.L15:
 212 0028 10780040 		.word	1073772560
 213 002c 00100240 		.word	1073876992
 214 0030 00040048 		.word	1207960576
 215              		.cfi_endproc
 216              	.LFE308:
 218              		.comm	hopamp2,52,4
 219              		.section	.rodata.str1.4,"aMS",%progbits,1
 220              		.align	2
 221              	.LC0:
 222 0000 5372632F 		.ascii	"Src/opamp.c\000"
 222      6F70616D 
 222      702E6300 
 223              		.text
 224              	.Letext0:
ARM GAS  /var/folders/bq/zy6zjhwd1qn4sn8dk3jpjcq80000gn/T//cckanXCj.s 			page 7


 225              		.file 2 "/usr/local/Cellar/gcc-arm-none-eabi-49/20150925/arm-none-eabi/include/machine/_default_ty
 226              		.file 3 "/usr/local/Cellar/gcc-arm-none-eabi-49/20150925/arm-none-eabi/include/sys/_stdint.h"
 227              		.file 4 "Drivers/CMSIS/Device/ST/STM32L4xx/Include/stm32l476xx.h"
 228              		.file 5 "Drivers/STM32L4xx_HAL_Driver/Inc/stm32l4xx_hal_def.h"
 229              		.file 6 "Drivers/STM32L4xx_HAL_Driver/Inc/stm32l4xx_hal_gpio.h"
 230              		.file 7 "Drivers/STM32L4xx_HAL_Driver/Inc/stm32l4xx_hal_opamp.h"
 231              		.file 8 "Drivers/CMSIS/Include/core_cm4.h"
 232              		.file 9 "Inc/opamp.h"
ARM GAS  /var/folders/bq/zy6zjhwd1qn4sn8dk3jpjcq80000gn/T//cckanXCj.s 			page 8

