ARM GAS  /var/folders/bq/zy6zjhwd1qn4sn8dk3jpjcq80000gn/T//ccnteQbj.s 			page 1


   1              		.syntax unified
   2              		.cpu cortex-m4
   3              		.eabi_attribute 27, 1
   4              		.eabi_attribute 28, 1
   5              		.fpu fpv4-sp-d16
   6              		.eabi_attribute 20, 1
   7              		.eabi_attribute 21, 1
   8              		.eabi_attribute 23, 3
   9              		.eabi_attribute 24, 1
  10              		.eabi_attribute 25, 1
  11              		.eabi_attribute 26, 1
  12              		.eabi_attribute 30, 1
  13              		.eabi_attribute 34, 1
  14              		.eabi_attribute 18, 4
  15              		.thumb
  16              		.file	"noteDetect.c"
  17              		.text
  18              	.Ltext0:
  19              		.cfi_sections	.debug_frame
  20              		.global	__aeabi_f2d
  21              		.global	__aeabi_dcmpge
  22              		.global	__aeabi_dcmple
  23              		.section	.text.findNote,"ax",%progbits
  24              		.align	2
  25              		.global	findNote
  26              		.thumb
  27              		.thumb_func
  29              	findNote:
  30              	.LFB306:
  31              		.file 1 "Src/noteDetect.c"
   1:Src/noteDetect.c **** #include <stdio.h>
   2:Src/noteDetect.c **** #include "ssd1306.h"
   3:Src/noteDetect.c **** #include "fonts.h"
   4:Src/noteDetect.c **** 
   5:Src/noteDetect.c **** 
   6:Src/noteDetect.c **** #define NOTEX 40
   7:Src/noteDetect.c **** #define NOTEY 40
   8:Src/noteDetect.c **** #define FREQX 40
   9:Src/noteDetect.c **** #define FREQY 15
  10:Src/noteDetect.c **** 
  11:Src/noteDetect.c **** 
  12:Src/noteDetect.c **** void findNote(float frequency)
  13:Src/noteDetect.c **** {
  32              		.loc 1 13 0
  33              		.cfi_startproc
  34              		@ args = 0, pretend = 0, frame = 80
  35              		@ frame_needed = 0, uses_anonymous_args = 0
  36              	.LVL0:
  37 0000 30B5     		push	{r4, r5, lr}
  38              	.LCFI0:
  39              		.cfi_def_cfa_offset 12
  40              		.cfi_offset 4, -12
  41              		.cfi_offset 5, -8
  42              		.cfi_offset 14, -4
  43 0002 2DED028B 		fstmfdd	sp!, {d8}
  44              	.LCFI1:
  45              		.cfi_def_cfa_offset 20
ARM GAS  /var/folders/bq/zy6zjhwd1qn4sn8dk3jpjcq80000gn/T//ccnteQbj.s 			page 2


  46              		.cfi_offset 80, -20
  47              		.cfi_offset 81, -16
  48 0006 95B0     		sub	sp, sp, #84
  49              	.LCFI2:
  50              		.cfi_def_cfa_offset 104
  51 0008 B0EE408A 		fcpys	s16, s0
  14:Src/noteDetect.c ****   char note[40] = "thing\n\r";
  52              		.loc 1 14 0
  53 000c B04A     		ldr	r2, .L184+80
  54 000e 0AAB     		add	r3, sp, #40
  55 0010 92E80300 		ldmia	r2, {r0, r1}
  56 0014 83E80300 		stmia	r3, {r0, r1}
  57 0018 0023     		movs	r3, #0
  58 001a 0C93     		str	r3, [sp, #48]
  59 001c 0D93     		str	r3, [sp, #52]
  60 001e 0E93     		str	r3, [sp, #56]
  61 0020 0F93     		str	r3, [sp, #60]
  62 0022 1093     		str	r3, [sp, #64]
  63 0024 1193     		str	r3, [sp, #68]
  64 0026 1293     		str	r3, [sp, #72]
  65 0028 1393     		str	r3, [sp, #76]
  15:Src/noteDetect.c ****   char noteFreq[40] = "thing\n\r";
  66              		.loc 1 15 0
  67 002a 8DE80300 		stmia	sp, {r0, r1}
  68 002e 0293     		str	r3, [sp, #8]
  69 0030 0393     		str	r3, [sp, #12]
  70 0032 0493     		str	r3, [sp, #16]
  71 0034 0593     		str	r3, [sp, #20]
  72 0036 0693     		str	r3, [sp, #24]
  73 0038 0793     		str	r3, [sp, #28]
  74 003a 0893     		str	r3, [sp, #32]
  75 003c 0993     		str	r3, [sp, #36]
  16:Src/noteDetect.c ****   /*B1 note */
  17:Src/noteDetect.c ****   if(frequency>= 59.98 && frequency <= 63.55){
  76              		.loc 1 17 0
  77 003e 10EE100A 		fmrs	r0, s0
  78 0042 FFF7FEFF 		bl	__aeabi_f2d
  79              	.LVL1:
  80 0046 0446     		mov	r4, r0
  81 0048 0D46     		mov	r5, r1
  82 004a 8DA3     		adr	r3, .L184
  83 004c D3E90023 		ldrd	r2, [r3]
  84 0050 FFF7FEFF 		bl	__aeabi_dcmpge
  85              	.LVL2:
  86 0054 88B3     		cbz	r0, .L2
  87              		.loc 1 17 0 is_stmt 0 discriminator 1
  88 0056 2046     		mov	r0, r4
  89 0058 2946     		mov	r1, r5
  90 005a 8BA3     		adr	r3, .L184+8
  91 005c D3E90023 		ldrd	r2, [r3]
  92 0060 FFF7FEFF 		bl	__aeabi_dcmple
  93              	.LVL3:
  94 0064 48B3     		cbz	r0, .L2
  18:Src/noteDetect.c ****     sprintf(note, "B1");
  95              		.loc 1 18 0 is_stmt 1
  96 0066 9B4B     		ldr	r3, .L184+84
  97 0068 1B68     		ldr	r3, [r3]
ARM GAS  /var/folders/bq/zy6zjhwd1qn4sn8dk3jpjcq80000gn/T//ccnteQbj.s 			page 3


  98 006a ADF82830 		strh	r3, [sp, #40]	@ movhi
  99 006e 1B0C     		lsrs	r3, r3, #16
 100 0070 8DF82A30 		strb	r3, [sp, #42]
  19:Src/noteDetect.c ****     sprintf(noteFreq, "%4.2f", frequency);
 101              		.loc 1 19 0
 102 0074 6846     		mov	r0, sp
 103 0076 9849     		ldr	r1, .L184+88
 104 0078 2246     		mov	r2, r4
 105 007a 2B46     		mov	r3, r5
 106 007c FFF7FEFF 		bl	sprintf
 107              	.LVL4:
  20:Src/noteDetect.c ****     ssd1306_SetCursor(NOTEX, NOTEY);
 108              		.loc 1 20 0
 109 0080 2820     		movs	r0, #40
 110 0082 0146     		mov	r1, r0
 111 0084 FFF7FEFF 		bl	ssd1306_SetCursor
 112              	.LVL5:
  21:Src/noteDetect.c ****     ssd1306_WriteString(note,Font_11x18,Black);
 113              		.loc 1 21 0
 114 0088 944C     		ldr	r4, .L184+92
 115 008a 0AA8     		add	r0, sp, #40
 116 008c 94E80600 		ldmia	r4, {r1, r2}
 117 0090 0023     		movs	r3, #0
 118 0092 FFF7FEFF 		bl	ssd1306_WriteString
 119              	.LVL6:
  22:Src/noteDetect.c ****     ssd1306_SetCursor(FREQX,FREQY);
 120              		.loc 1 22 0
 121 0096 2820     		movs	r0, #40
 122 0098 0F21     		movs	r1, #15
 123 009a FFF7FEFF 		bl	ssd1306_SetCursor
 124              	.LVL7:
  23:Src/noteDetect.c ****     ssd1306_WriteString(noteFreq,Font_11x18,Black);
 125              		.loc 1 23 0
 126 009e 6846     		mov	r0, sp
 127 00a0 94E80600 		ldmia	r4, {r1, r2}
 128 00a4 0023     		movs	r3, #0
 129 00a6 FFF7FEFF 		bl	ssd1306_WriteString
 130              	.LVL8:
  24:Src/noteDetect.c **** 
  25:Src/noteDetect.c ****     ssd1306_UpdateScreen();
 131              		.loc 1 25 0
 132 00aa FFF7FEFF 		bl	ssd1306_UpdateScreen
 133              	.LVL9:
  26:Src/noteDetect.c ****     HAL_Delay(500);
 134              		.loc 1 26 0
 135 00ae 4FF4FA70 		mov	r0, #500
 136 00b2 FFF7FEFF 		bl	HAL_Delay
 137              	.LVL10:
 138 00b6 01F007B9 		b	.L1
 139              	.L2:
  27:Src/noteDetect.c ****   }
  28:Src/noteDetect.c **** 
  29:Src/noteDetect.c ****   /*C2 note */
  30:Src/noteDetect.c ****   else if(frequency>= 63.56 && frequency <= 67.33){
 140              		.loc 1 30 0
 141 00ba 2046     		mov	r0, r4
 142 00bc 2946     		mov	r1, r5
ARM GAS  /var/folders/bq/zy6zjhwd1qn4sn8dk3jpjcq80000gn/T//ccnteQbj.s 			page 4


 143 00be 74A3     		adr	r3, .L184+16
 144 00c0 D3E90023 		ldrd	r2, [r3]
 145 00c4 FFF7FEFF 		bl	__aeabi_dcmpge
 146              	.LVL11:
 147 00c8 88B3     		cbz	r0, .L6
 148              		.loc 1 30 0 is_stmt 0 discriminator 1
 149 00ca 2046     		mov	r0, r4
 150 00cc 2946     		mov	r1, r5
 151 00ce 72A3     		adr	r3, .L184+24
 152 00d0 D3E90023 		ldrd	r2, [r3]
 153 00d4 FFF7FEFF 		bl	__aeabi_dcmple
 154              	.LVL12:
 155 00d8 48B3     		cbz	r0, .L6
  31:Src/noteDetect.c ****     sprintf(note, "C2");
 156              		.loc 1 31 0 is_stmt 1
 157 00da 814B     		ldr	r3, .L184+96
 158 00dc 1B68     		ldr	r3, [r3]
 159 00de ADF82830 		strh	r3, [sp, #40]	@ movhi
 160 00e2 1B0C     		lsrs	r3, r3, #16
 161 00e4 8DF82A30 		strb	r3, [sp, #42]
  32:Src/noteDetect.c ****     sprintf(noteFreq, "%.2f", frequency);
 162              		.loc 1 32 0
 163 00e8 6846     		mov	r0, sp
 164 00ea 7E49     		ldr	r1, .L184+100
 165 00ec 2246     		mov	r2, r4
 166 00ee 2B46     		mov	r3, r5
 167 00f0 FFF7FEFF 		bl	sprintf
 168              	.LVL13:
  33:Src/noteDetect.c ****     ssd1306_SetCursor(NOTEX, NOTEY);
 169              		.loc 1 33 0
 170 00f4 2820     		movs	r0, #40
 171 00f6 0146     		mov	r1, r0
 172 00f8 FFF7FEFF 		bl	ssd1306_SetCursor
 173              	.LVL14:
  34:Src/noteDetect.c ****     ssd1306_WriteString(note,Font_11x18,Black);
 174              		.loc 1 34 0
 175 00fc 774C     		ldr	r4, .L184+92
 176 00fe 0AA8     		add	r0, sp, #40
 177 0100 94E80600 		ldmia	r4, {r1, r2}
 178 0104 0023     		movs	r3, #0
 179 0106 FFF7FEFF 		bl	ssd1306_WriteString
 180              	.LVL15:
  35:Src/noteDetect.c ****     ssd1306_SetCursor(FREQX,FREQY);
 181              		.loc 1 35 0
 182 010a 2820     		movs	r0, #40
 183 010c 0F21     		movs	r1, #15
 184 010e FFF7FEFF 		bl	ssd1306_SetCursor
 185              	.LVL16:
  36:Src/noteDetect.c ****     ssd1306_WriteString(noteFreq,Font_11x18,Black);
 186              		.loc 1 36 0
 187 0112 6846     		mov	r0, sp
 188 0114 94E80600 		ldmia	r4, {r1, r2}
 189 0118 0023     		movs	r3, #0
 190 011a FFF7FEFF 		bl	ssd1306_WriteString
 191              	.LVL17:
  37:Src/noteDetect.c **** 
  38:Src/noteDetect.c ****     ssd1306_UpdateScreen();
ARM GAS  /var/folders/bq/zy6zjhwd1qn4sn8dk3jpjcq80000gn/T//ccnteQbj.s 			page 5


 192              		.loc 1 38 0
 193 011e FFF7FEFF 		bl	ssd1306_UpdateScreen
 194              	.LVL18:
  39:Src/noteDetect.c ****     HAL_Delay(500);
 195              		.loc 1 39 0
 196 0122 4FF4FA70 		mov	r0, #500
 197 0126 FFF7FEFF 		bl	HAL_Delay
 198              	.LVL19:
 199 012a 01F0CDB8 		b	.L1
 200              	.L6:
  40:Src/noteDetect.c ****   }
  41:Src/noteDetect.c **** 
  42:Src/noteDetect.c ****   /*Db2 note */
  43:Src/noteDetect.c ****   else if(frequency>= 67.34 && frequency <= 71.33){
 201              		.loc 1 43 0
 202 012e 2046     		mov	r0, r4
 203 0130 2946     		mov	r1, r5
 204 0132 5BA3     		adr	r3, .L184+32
 205 0134 D3E90023 		ldrd	r2, [r3]
 206 0138 FFF7FEFF 		bl	__aeabi_dcmpge
 207              	.LVL20:
 208 013c 60B3     		cbz	r0, .L9
 209              		.loc 1 43 0 is_stmt 0 discriminator 1
 210 013e 2046     		mov	r0, r4
 211 0140 2946     		mov	r1, r5
 212 0142 59A3     		adr	r3, .L184+40
 213 0144 D3E90023 		ldrd	r2, [r3]
 214 0148 FFF7FEFF 		bl	__aeabi_dcmple
 215              	.LVL21:
 216 014c 20B3     		cbz	r0, .L9
  44:Src/noteDetect.c ****     sprintf(note, "Db2");
 217              		.loc 1 44 0 is_stmt 1
 218 014e 664B     		ldr	r3, .L184+104
 219 0150 0A93     		str	r3, [sp, #40]
  45:Src/noteDetect.c ****     sprintf(noteFreq, "%.2f", frequency);
 220              		.loc 1 45 0
 221 0152 6846     		mov	r0, sp
 222 0154 6349     		ldr	r1, .L184+100
 223 0156 2246     		mov	r2, r4
 224 0158 2B46     		mov	r3, r5
 225 015a FFF7FEFF 		bl	sprintf
 226              	.LVL22:
  46:Src/noteDetect.c ****     ssd1306_SetCursor(NOTEX, NOTEY);
 227              		.loc 1 46 0
 228 015e 2820     		movs	r0, #40
 229 0160 0146     		mov	r1, r0
 230 0162 FFF7FEFF 		bl	ssd1306_SetCursor
 231              	.LVL23:
  47:Src/noteDetect.c ****     ssd1306_WriteString(note,Font_11x18,Black);
 232              		.loc 1 47 0
 233 0166 5D4C     		ldr	r4, .L184+92
 234 0168 0AA8     		add	r0, sp, #40
 235 016a 94E80600 		ldmia	r4, {r1, r2}
 236 016e 0023     		movs	r3, #0
 237 0170 FFF7FEFF 		bl	ssd1306_WriteString
 238              	.LVL24:
  48:Src/noteDetect.c ****     ssd1306_SetCursor(FREQX,FREQY);
ARM GAS  /var/folders/bq/zy6zjhwd1qn4sn8dk3jpjcq80000gn/T//ccnteQbj.s 			page 6


 239              		.loc 1 48 0
 240 0174 2820     		movs	r0, #40
 241 0176 0F21     		movs	r1, #15
 242 0178 FFF7FEFF 		bl	ssd1306_SetCursor
 243              	.LVL25:
  49:Src/noteDetect.c ****     ssd1306_WriteString(noteFreq,Font_11x18,Black);
 244              		.loc 1 49 0
 245 017c 6846     		mov	r0, sp
 246 017e 94E80600 		ldmia	r4, {r1, r2}
 247 0182 0023     		movs	r3, #0
 248 0184 FFF7FEFF 		bl	ssd1306_WriteString
 249              	.LVL26:
  50:Src/noteDetect.c **** 
  51:Src/noteDetect.c ****     ssd1306_UpdateScreen();
 250              		.loc 1 51 0
 251 0188 FFF7FEFF 		bl	ssd1306_UpdateScreen
 252              	.LVL27:
  52:Src/noteDetect.c ****     HAL_Delay(500);
 253              		.loc 1 52 0
 254 018c 4FF4FA70 		mov	r0, #500
 255 0190 FFF7FEFF 		bl	HAL_Delay
 256              	.LVL28:
 257 0194 01F098B8 		b	.L1
 258              	.L9:
  53:Src/noteDetect.c ****   }
  54:Src/noteDetect.c **** 
  55:Src/noteDetect.c **** 
  56:Src/noteDetect.c ****   /*D2 note */
  57:Src/noteDetect.c ****   else if(frequency>= 71.34 && frequency <= 75.53){
 259              		.loc 1 57 0
 260 0198 2046     		mov	r0, r4
 261 019a 2946     		mov	r1, r5
 262 019c 44A3     		adr	r3, .L184+48
 263 019e D3E90023 		ldrd	r2, [r3]
 264 01a2 FFF7FEFF 		bl	__aeabi_dcmpge
 265              	.LVL29:
 266 01a6 88B3     		cbz	r0, .L12
 267              		.loc 1 57 0 is_stmt 0 discriminator 1
 268 01a8 2046     		mov	r0, r4
 269 01aa 2946     		mov	r1, r5
 270 01ac 42A3     		adr	r3, .L184+56
 271 01ae D3E90023 		ldrd	r2, [r3]
 272 01b2 FFF7FEFF 		bl	__aeabi_dcmple
 273              	.LVL30:
 274 01b6 48B3     		cbz	r0, .L12
  58:Src/noteDetect.c ****     sprintf(note, "D2");
 275              		.loc 1 58 0 is_stmt 1
 276 01b8 4C4B     		ldr	r3, .L184+108
 277 01ba 1B68     		ldr	r3, [r3]
 278 01bc ADF82830 		strh	r3, [sp, #40]	@ movhi
 279 01c0 1B0C     		lsrs	r3, r3, #16
 280 01c2 8DF82A30 		strb	r3, [sp, #42]
  59:Src/noteDetect.c ****     sprintf(noteFreq, "%.2f", frequency);
 281              		.loc 1 59 0
 282 01c6 6846     		mov	r0, sp
 283 01c8 4649     		ldr	r1, .L184+100
 284 01ca 2246     		mov	r2, r4
ARM GAS  /var/folders/bq/zy6zjhwd1qn4sn8dk3jpjcq80000gn/T//ccnteQbj.s 			page 7


 285 01cc 2B46     		mov	r3, r5
 286 01ce FFF7FEFF 		bl	sprintf
 287              	.LVL31:
  60:Src/noteDetect.c ****     ssd1306_SetCursor(NOTEX, NOTEY);
 288              		.loc 1 60 0
 289 01d2 2820     		movs	r0, #40
 290 01d4 0146     		mov	r1, r0
 291 01d6 FFF7FEFF 		bl	ssd1306_SetCursor
 292              	.LVL32:
  61:Src/noteDetect.c ****     ssd1306_WriteString(note,Font_11x18,Black);
 293              		.loc 1 61 0
 294 01da 404C     		ldr	r4, .L184+92
 295 01dc 0AA8     		add	r0, sp, #40
 296 01de 94E80600 		ldmia	r4, {r1, r2}
 297 01e2 0023     		movs	r3, #0
 298 01e4 FFF7FEFF 		bl	ssd1306_WriteString
 299              	.LVL33:
  62:Src/noteDetect.c ****     ssd1306_SetCursor(FREQX,FREQY);
 300              		.loc 1 62 0
 301 01e8 2820     		movs	r0, #40
 302 01ea 0F21     		movs	r1, #15
 303 01ec FFF7FEFF 		bl	ssd1306_SetCursor
 304              	.LVL34:
  63:Src/noteDetect.c ****     ssd1306_WriteString(noteFreq,Font_11x18,Black);
 305              		.loc 1 63 0
 306 01f0 6846     		mov	r0, sp
 307 01f2 94E80600 		ldmia	r4, {r1, r2}
 308 01f6 0023     		movs	r3, #0
 309 01f8 FFF7FEFF 		bl	ssd1306_WriteString
 310              	.LVL35:
  64:Src/noteDetect.c **** 
  65:Src/noteDetect.c ****     ssd1306_UpdateScreen();
 311              		.loc 1 65 0
 312 01fc FFF7FEFF 		bl	ssd1306_UpdateScreen
 313              	.LVL36:
  66:Src/noteDetect.c ****     HAL_Delay(500);
 314              		.loc 1 66 0
 315 0200 4FF4FA70 		mov	r0, #500
 316 0204 FFF7FEFF 		bl	HAL_Delay
 317              	.LVL37:
 318 0208 01F05EB8 		b	.L1
 319              	.L12:
  67:Src/noteDetect.c ****   }
  68:Src/noteDetect.c **** 
  69:Src/noteDetect.c **** 
  70:Src/noteDetect.c ****   /*Eb2 note */
  71:Src/noteDetect.c ****   else if(frequency <= 80.59 && frequency >= 75.57 ){
 320              		.loc 1 71 0
 321 020c 2046     		mov	r0, r4
 322 020e 2946     		mov	r1, r5
 323 0210 2BA3     		adr	r3, .L184+64
 324 0212 D3E90023 		ldrd	r2, [r3]
 325 0216 FFF7FEFF 		bl	__aeabi_dcmple
 326              	.LVL38:
 327 021a 0028     		cmp	r0, #0
 328 021c 6AD0     		beq	.L15
 329              		.loc 1 71 0 is_stmt 0 discriminator 1
ARM GAS  /var/folders/bq/zy6zjhwd1qn4sn8dk3jpjcq80000gn/T//ccnteQbj.s 			page 8


 330 021e 2046     		mov	r0, r4
 331 0220 2946     		mov	r1, r5
 332 0222 29A3     		adr	r3, .L184+72
 333 0224 D3E90023 		ldrd	r2, [r3]
 334 0228 FFF7FEFF 		bl	__aeabi_dcmpge
 335              	.LVL39:
 336 022c 0028     		cmp	r0, #0
 337 022e 61D0     		beq	.L15
  72:Src/noteDetect.c ****     sprintf(note, "Eb2");
 338              		.loc 1 72 0 is_stmt 1
 339 0230 2F4B     		ldr	r3, .L184+112
 340 0232 0A93     		str	r3, [sp, #40]
  73:Src/noteDetect.c ****     sprintf(noteFreq, "%.2f", frequency);
 341              		.loc 1 73 0
 342 0234 6846     		mov	r0, sp
 343 0236 2B49     		ldr	r1, .L184+100
 344 0238 2246     		mov	r2, r4
 345 023a 2B46     		mov	r3, r5
 346 023c FFF7FEFF 		bl	sprintf
 347              	.LVL40:
  74:Src/noteDetect.c ****     ssd1306_SetCursor(NOTEX, NOTEY);
 348              		.loc 1 74 0
 349 0240 2820     		movs	r0, #40
 350 0242 0146     		mov	r1, r0
 351 0244 FFF7FEFF 		bl	ssd1306_SetCursor
 352              	.LVL41:
  75:Src/noteDetect.c ****     ssd1306_WriteString(note,Font_11x18,Black);
 353              		.loc 1 75 0
 354 0248 244C     		ldr	r4, .L184+92
 355 024a 0AA8     		add	r0, sp, #40
 356 024c 94E80600 		ldmia	r4, {r1, r2}
 357 0250 0023     		movs	r3, #0
 358 0252 FFF7FEFF 		bl	ssd1306_WriteString
 359              	.LVL42:
  76:Src/noteDetect.c ****     ssd1306_SetCursor(FREQX,FREQY);
 360              		.loc 1 76 0
 361 0256 2820     		movs	r0, #40
 362 0258 0F21     		movs	r1, #15
 363 025a FFF7FEFF 		bl	ssd1306_SetCursor
 364              	.LVL43:
  77:Src/noteDetect.c ****     ssd1306_WriteString(noteFreq,Font_11x18,Black);
 365              		.loc 1 77 0
 366 025e 6846     		mov	r0, sp
 367 0260 94E80600 		ldmia	r4, {r1, r2}
 368 0264 0023     		movs	r3, #0
 369 0266 FFF7FEFF 		bl	ssd1306_WriteString
 370              	.LVL44:
  78:Src/noteDetect.c **** 
  79:Src/noteDetect.c ****     ssd1306_UpdateScreen();
 371              		.loc 1 79 0
 372 026a FFF7FEFF 		bl	ssd1306_UpdateScreen
 373              	.LVL45:
  80:Src/noteDetect.c ****     HAL_Delay(500);
 374              		.loc 1 80 0
 375 026e 4FF4FA70 		mov	r0, #500
 376 0272 FFF7FEFF 		bl	HAL_Delay
 377              	.LVL46:
ARM GAS  /var/folders/bq/zy6zjhwd1qn4sn8dk3jpjcq80000gn/T//ccnteQbj.s 			page 9


 378 0276 01F027B8 		b	.L1
 379              	.L185:
 380 027a 00BFAFF3 		.align	3
 380      0080
 381              	.L184:
 382 0280 3D0AD7A3 		.word	2748779069
 383 0284 70FD4D40 		.word	1078852976
 384 0288 66666666 		.word	1717986918
 385 028c 66C64F40 		.word	1078969958
 386 0290 48E17A14 		.word	343597384
 387 0294 AEC74F40 		.word	1078970286
 388 0298 85EB51B8 		.word	3092376453
 389 029c 1ED55040 		.word	1079039262
 390 02a0 F6285C8F 		.word	2405181686
 391 02a4 C2D55040 		.word	1079039426
 392 02a8 85EB51B8 		.word	3092376453
 393 02ac 1ED55140 		.word	1079104798
 394 02b0 F6285C8F 		.word	2405181686
 395 02b4 C2D55140 		.word	1079104962
 396 02b8 52B81E85 		.word	2233382994
 397 02bc EBE15240 		.word	1079173611
 398 02c0 F6285C8F 		.word	2405181686
 399 02c4 C2255440 		.word	1079256514
 400 02c8 14AE47E1 		.word	3779571220
 401 02cc 7AE45240 		.word	1079174266
 402 02d0 00000000 		.word	.LANCHOR0
 403 02d4 00000000 		.word	.LC1
 404 02d8 04000000 		.word	.LC2
 405 02dc 00000000 		.word	Font_11x18
 406 02e0 0C000000 		.word	.LC3
 407 02e4 10000000 		.word	.LC4
 408 02e8 44623200 		.word	3301956
 409 02ec 18000000 		.word	.LC5
 410 02f0 45623200 		.word	3301957
 411              	.L15:
  81:Src/noteDetect.c ****   }
  82:Src/noteDetect.c **** 
  83:Src/noteDetect.c ****   /*E2 note */
  84:Src/noteDetect.c ****   else if(frequency<=84.824 && frequency>=80.06){
 412              		.loc 1 84 0
 413 02f4 2046     		mov	r0, r4
 414 02f6 2946     		mov	r1, r5
 415 02f8 E4A3     		adr	r3, .L186+132
 416 02fa D3E90023 		ldrd	r2, [r3]
 417 02fe FFF7FEFF 		bl	__aeabi_dcmple
 418              	.LVL47:
 419 0302 88B3     		cbz	r0, .L18
 420              		.loc 1 84 0 is_stmt 0 discriminator 1
 421 0304 2046     		mov	r0, r4
 422 0306 2946     		mov	r1, r5
 423 0308 E2A3     		adr	r3, .L186+140
 424 030a D3E90023 		ldrd	r2, [r3]
 425 030e FFF7FEFF 		bl	__aeabi_dcmpge
 426              	.LVL48:
 427 0312 48B3     		cbz	r0, .L18
  85:Src/noteDetect.c ****     sprintf(note, "E2");
 428              		.loc 1 85 0 is_stmt 1
ARM GAS  /var/folders/bq/zy6zjhwd1qn4sn8dk3jpjcq80000gn/T//ccnteQbj.s 			page 10


 429 0314 D44B     		ldr	r3, .L186+96
 430 0316 1B68     		ldr	r3, [r3]
 431 0318 ADF82830 		strh	r3, [sp, #40]	@ movhi
 432 031c 1B0C     		lsrs	r3, r3, #16
 433 031e 8DF82A30 		strb	r3, [sp, #42]
  86:Src/noteDetect.c ****     sprintf(noteFreq, "%.2f", frequency);
 434              		.loc 1 86 0
 435 0322 6846     		mov	r0, sp
 436 0324 D149     		ldr	r1, .L186+100
 437 0326 2246     		mov	r2, r4
 438 0328 2B46     		mov	r3, r5
 439 032a FFF7FEFF 		bl	sprintf
 440              	.LVL49:
  87:Src/noteDetect.c **** 
  88:Src/noteDetect.c ****     ssd1306_SetCursor(NOTEX, NOTEY);
 441              		.loc 1 88 0
 442 032e 2820     		movs	r0, #40
 443 0330 0146     		mov	r1, r0
 444 0332 FFF7FEFF 		bl	ssd1306_SetCursor
 445              	.LVL50:
  89:Src/noteDetect.c ****     ssd1306_WriteString(note,Font_11x18,Black);
 446              		.loc 1 89 0
 447 0336 CE4C     		ldr	r4, .L186+104
 448 0338 0AA8     		add	r0, sp, #40
 449 033a 94E80600 		ldmia	r4, {r1, r2}
 450 033e 0023     		movs	r3, #0
 451 0340 FFF7FEFF 		bl	ssd1306_WriteString
 452              	.LVL51:
  90:Src/noteDetect.c ****     ssd1306_SetCursor(FREQX,FREQY);
 453              		.loc 1 90 0
 454 0344 2820     		movs	r0, #40
 455 0346 0F21     		movs	r1, #15
 456 0348 FFF7FEFF 		bl	ssd1306_SetCursor
 457              	.LVL52:
  91:Src/noteDetect.c ****     ssd1306_WriteString(noteFreq,Font_11x18,Black);
 458              		.loc 1 91 0
 459 034c 6846     		mov	r0, sp
 460 034e 94E80600 		ldmia	r4, {r1, r2}
 461 0352 0023     		movs	r3, #0
 462 0354 FFF7FEFF 		bl	ssd1306_WriteString
 463              	.LVL53:
  92:Src/noteDetect.c **** 
  93:Src/noteDetect.c ****     ssd1306_UpdateScreen();
 464              		.loc 1 93 0
 465 0358 FFF7FEFF 		bl	ssd1306_UpdateScreen
 466              	.LVL54:
  94:Src/noteDetect.c ****     HAL_Delay(500);
 467              		.loc 1 94 0
 468 035c 4FF4FA70 		mov	r0, #500
 469 0360 FFF7FEFF 		bl	HAL_Delay
 470              	.LVL55:
 471 0364 00F0B0BF 		b	.L1
 472              	.L18:
  95:Src/noteDetect.c ****   }
  96:Src/noteDetect.c **** 
  97:Src/noteDetect.c **** 
  98:Src/noteDetect.c ****   /*F2 note */
ARM GAS  /var/folders/bq/zy6zjhwd1qn4sn8dk3jpjcq80000gn/T//ccnteQbj.s 			page 11


  99:Src/noteDetect.c ****   else if(frequency <= 89.87 && frequency >= 84.82){
 473              		.loc 1 99 0
 474 0368 2046     		mov	r0, r4
 475 036a 2946     		mov	r1, r5
 476 036c A6A3     		adr	r3, .L186
 477 036e D3E90023 		ldrd	r2, [r3]
 478 0372 FFF7FEFF 		bl	__aeabi_dcmple
 479              	.LVL56:
 480 0376 88B3     		cbz	r0, .L21
 481              		.loc 1 99 0 is_stmt 0 discriminator 1
 482 0378 2046     		mov	r0, r4
 483 037a 2946     		mov	r1, r5
 484 037c A4A3     		adr	r3, .L186+8
 485 037e D3E90023 		ldrd	r2, [r3]
 486 0382 FFF7FEFF 		bl	__aeabi_dcmpge
 487              	.LVL57:
 488 0386 48B3     		cbz	r0, .L21
 100:Src/noteDetect.c ****     sprintf(note, "F2");
 489              		.loc 1 100 0 is_stmt 1
 490 0388 BA4B     		ldr	r3, .L186+108
 491 038a 1B68     		ldr	r3, [r3]
 492 038c ADF82830 		strh	r3, [sp, #40]	@ movhi
 493 0390 1B0C     		lsrs	r3, r3, #16
 494 0392 8DF82A30 		strb	r3, [sp, #42]
 101:Src/noteDetect.c ****     sprintf(noteFreq, "%.2f", frequency);
 495              		.loc 1 101 0
 496 0396 6846     		mov	r0, sp
 497 0398 B449     		ldr	r1, .L186+100
 498 039a 2246     		mov	r2, r4
 499 039c 2B46     		mov	r3, r5
 500 039e FFF7FEFF 		bl	sprintf
 501              	.LVL58:
 102:Src/noteDetect.c **** 
 103:Src/noteDetect.c ****     ssd1306_SetCursor(NOTEX, NOTEY);
 502              		.loc 1 103 0
 503 03a2 2820     		movs	r0, #40
 504 03a4 0146     		mov	r1, r0
 505 03a6 FFF7FEFF 		bl	ssd1306_SetCursor
 506              	.LVL59:
 104:Src/noteDetect.c ****     ssd1306_WriteString(note,Font_11x18,Black);
 507              		.loc 1 104 0
 508 03aa B14C     		ldr	r4, .L186+104
 509 03ac 0AA8     		add	r0, sp, #40
 510 03ae 94E80600 		ldmia	r4, {r1, r2}
 511 03b2 0023     		movs	r3, #0
 512 03b4 FFF7FEFF 		bl	ssd1306_WriteString
 513              	.LVL60:
 105:Src/noteDetect.c ****     ssd1306_SetCursor(FREQX,FREQY);
 514              		.loc 1 105 0
 515 03b8 2820     		movs	r0, #40
 516 03ba 0F21     		movs	r1, #15
 517 03bc FFF7FEFF 		bl	ssd1306_SetCursor
 518              	.LVL61:
 106:Src/noteDetect.c ****     ssd1306_WriteString(noteFreq,Font_11x18,Black);
 519              		.loc 1 106 0
 520 03c0 6846     		mov	r0, sp
 521 03c2 94E80600 		ldmia	r4, {r1, r2}
ARM GAS  /var/folders/bq/zy6zjhwd1qn4sn8dk3jpjcq80000gn/T//ccnteQbj.s 			page 12


 522 03c6 0023     		movs	r3, #0
 523 03c8 FFF7FEFF 		bl	ssd1306_WriteString
 524              	.LVL62:
 107:Src/noteDetect.c **** 
 108:Src/noteDetect.c ****     ssd1306_UpdateScreen();
 525              		.loc 1 108 0
 526 03cc FFF7FEFF 		bl	ssd1306_UpdateScreen
 527              	.LVL63:
 109:Src/noteDetect.c ****     HAL_Delay(500);
 528              		.loc 1 109 0
 529 03d0 4FF4FA70 		mov	r0, #500
 530 03d4 FFF7FEFF 		bl	HAL_Delay
 531              	.LVL64:
 532 03d8 00F076BF 		b	.L1
 533              	.L21:
 110:Src/noteDetect.c ****   }
 111:Src/noteDetect.c **** 
 112:Src/noteDetect.c ****   /*Gb2 note */
 113:Src/noteDetect.c ****   else if(frequency <= 95.21 && frequency >= 89.88){
 534              		.loc 1 113 0
 535 03dc 2046     		mov	r0, r4
 536 03de 2946     		mov	r1, r5
 537 03e0 8DA3     		adr	r3, .L186+16
 538 03e2 D3E90023 		ldrd	r2, [r3]
 539 03e6 FFF7FEFF 		bl	__aeabi_dcmple
 540              	.LVL65:
 541 03ea 60B3     		cbz	r0, .L24
 542              		.loc 1 113 0 is_stmt 0 discriminator 1
 543 03ec 2046     		mov	r0, r4
 544 03ee 2946     		mov	r1, r5
 545 03f0 8BA3     		adr	r3, .L186+24
 546 03f2 D3E90023 		ldrd	r2, [r3]
 547 03f6 FFF7FEFF 		bl	__aeabi_dcmpge
 548              	.LVL66:
 549 03fa 20B3     		cbz	r0, .L24
 114:Src/noteDetect.c ****     sprintf(note, "Gb2");
 550              		.loc 1 114 0 is_stmt 1
 551 03fc 9E4B     		ldr	r3, .L186+112
 552 03fe 0A93     		str	r3, [sp, #40]
 115:Src/noteDetect.c ****     sprintf(noteFreq, "%.2f", frequency);
 553              		.loc 1 115 0
 554 0400 6846     		mov	r0, sp
 555 0402 9A49     		ldr	r1, .L186+100
 556 0404 2246     		mov	r2, r4
 557 0406 2B46     		mov	r3, r5
 558 0408 FFF7FEFF 		bl	sprintf
 559              	.LVL67:
 116:Src/noteDetect.c **** 
 117:Src/noteDetect.c ****     ssd1306_SetCursor(NOTEX, NOTEY);
 560              		.loc 1 117 0
 561 040c 2820     		movs	r0, #40
 562 040e 0146     		mov	r1, r0
 563 0410 FFF7FEFF 		bl	ssd1306_SetCursor
 564              	.LVL68:
 118:Src/noteDetect.c ****     ssd1306_WriteString(note,Font_11x18,Black);
 565              		.loc 1 118 0
 566 0414 964C     		ldr	r4, .L186+104
ARM GAS  /var/folders/bq/zy6zjhwd1qn4sn8dk3jpjcq80000gn/T//ccnteQbj.s 			page 13


 567 0416 0AA8     		add	r0, sp, #40
 568 0418 94E80600 		ldmia	r4, {r1, r2}
 569 041c 0023     		movs	r3, #0
 570 041e FFF7FEFF 		bl	ssd1306_WriteString
 571              	.LVL69:
 119:Src/noteDetect.c ****     ssd1306_SetCursor(FREQX,FREQY);
 572              		.loc 1 119 0
 573 0422 2820     		movs	r0, #40
 574 0424 0F21     		movs	r1, #15
 575 0426 FFF7FEFF 		bl	ssd1306_SetCursor
 576              	.LVL70:
 120:Src/noteDetect.c ****     ssd1306_WriteString(noteFreq,Font_11x18,Black);
 577              		.loc 1 120 0
 578 042a 6846     		mov	r0, sp
 579 042c 94E80600 		ldmia	r4, {r1, r2}
 580 0430 0023     		movs	r3, #0
 581 0432 FFF7FEFF 		bl	ssd1306_WriteString
 582              	.LVL71:
 121:Src/noteDetect.c **** 
 122:Src/noteDetect.c ****     ssd1306_UpdateScreen();
 583              		.loc 1 122 0
 584 0436 FFF7FEFF 		bl	ssd1306_UpdateScreen
 585              	.LVL72:
 123:Src/noteDetect.c ****     HAL_Delay(500);
 586              		.loc 1 123 0
 587 043a 4FF4FA70 		mov	r0, #500
 588 043e FFF7FEFF 		bl	HAL_Delay
 589              	.LVL73:
 590 0442 00F041BF 		b	.L1
 591              	.L24:
 124:Src/noteDetect.c ****   }
 125:Src/noteDetect.c **** 
 126:Src/noteDetect.c ****   /*G2 note */
 127:Src/noteDetect.c ****   else if(frequency <= 100.87 && frequency >= 95.22){
 592              		.loc 1 127 0
 593 0446 2046     		mov	r0, r4
 594 0448 2946     		mov	r1, r5
 595 044a 77A3     		adr	r3, .L186+32
 596 044c D3E90023 		ldrd	r2, [r3]
 597 0450 FFF7FEFF 		bl	__aeabi_dcmple
 598              	.LVL74:
 599 0454 88B3     		cbz	r0, .L27
 600              		.loc 1 127 0 is_stmt 0 discriminator 1
 601 0456 2046     		mov	r0, r4
 602 0458 2946     		mov	r1, r5
 603 045a 75A3     		adr	r3, .L186+40
 604 045c D3E90023 		ldrd	r2, [r3]
 605 0460 FFF7FEFF 		bl	__aeabi_dcmpge
 606              	.LVL75:
 607 0464 48B3     		cbz	r0, .L27
 128:Src/noteDetect.c ****     sprintf(note, "G2");
 608              		.loc 1 128 0 is_stmt 1
 609 0466 854B     		ldr	r3, .L186+116
 610 0468 1B68     		ldr	r3, [r3]
 611 046a ADF82830 		strh	r3, [sp, #40]	@ movhi
 612 046e 1B0C     		lsrs	r3, r3, #16
 613 0470 8DF82A30 		strb	r3, [sp, #42]
ARM GAS  /var/folders/bq/zy6zjhwd1qn4sn8dk3jpjcq80000gn/T//ccnteQbj.s 			page 14


 129:Src/noteDetect.c ****     sprintf(noteFreq, "%.2f", frequency);
 614              		.loc 1 129 0
 615 0474 6846     		mov	r0, sp
 616 0476 7D49     		ldr	r1, .L186+100
 617 0478 2246     		mov	r2, r4
 618 047a 2B46     		mov	r3, r5
 619 047c FFF7FEFF 		bl	sprintf
 620              	.LVL76:
 130:Src/noteDetect.c **** 
 131:Src/noteDetect.c ****     ssd1306_SetCursor(NOTEX, NOTEY);
 621              		.loc 1 131 0
 622 0480 2820     		movs	r0, #40
 623 0482 0146     		mov	r1, r0
 624 0484 FFF7FEFF 		bl	ssd1306_SetCursor
 625              	.LVL77:
 132:Src/noteDetect.c ****     ssd1306_WriteString(note,Font_11x18,Black);
 626              		.loc 1 132 0
 627 0488 794C     		ldr	r4, .L186+104
 628 048a 0AA8     		add	r0, sp, #40
 629 048c 94E80600 		ldmia	r4, {r1, r2}
 630 0490 0023     		movs	r3, #0
 631 0492 FFF7FEFF 		bl	ssd1306_WriteString
 632              	.LVL78:
 133:Src/noteDetect.c ****     ssd1306_SetCursor(FREQX,FREQY);
 633              		.loc 1 133 0
 634 0496 2820     		movs	r0, #40
 635 0498 0F21     		movs	r1, #15
 636 049a FFF7FEFF 		bl	ssd1306_SetCursor
 637              	.LVL79:
 134:Src/noteDetect.c ****     ssd1306_WriteString(noteFreq,Font_11x18,Black);
 638              		.loc 1 134 0
 639 049e 6846     		mov	r0, sp
 640 04a0 94E80600 		ldmia	r4, {r1, r2}
 641 04a4 0023     		movs	r3, #0
 642 04a6 FFF7FEFF 		bl	ssd1306_WriteString
 643              	.LVL80:
 135:Src/noteDetect.c **** 
 136:Src/noteDetect.c ****     ssd1306_UpdateScreen();
 644              		.loc 1 136 0
 645 04aa FFF7FEFF 		bl	ssd1306_UpdateScreen
 646              	.LVL81:
 137:Src/noteDetect.c ****     HAL_Delay(500);
 647              		.loc 1 137 0
 648 04ae 4FF4FA70 		mov	r0, #500
 649 04b2 FFF7FEFF 		bl	HAL_Delay
 650              	.LVL82:
 651 04b6 00F007BF 		b	.L1
 652              	.L27:
 138:Src/noteDetect.c ****   }
 139:Src/noteDetect.c **** 
 140:Src/noteDetect.c ****   /*Ab2 note */
 141:Src/noteDetect.c ****   else if(frequency <= 106.873 && frequency >= 100.88){
 653              		.loc 1 141 0
 654 04ba 2046     		mov	r0, r4
 655 04bc 2946     		mov	r1, r5
 656 04be 5EA3     		adr	r3, .L186+48
 657 04c0 D3E90023 		ldrd	r2, [r3]
ARM GAS  /var/folders/bq/zy6zjhwd1qn4sn8dk3jpjcq80000gn/T//ccnteQbj.s 			page 15


 658 04c4 FFF7FEFF 		bl	__aeabi_dcmple
 659              	.LVL83:
 660 04c8 60B3     		cbz	r0, .L30
 661              		.loc 1 141 0 is_stmt 0 discriminator 1
 662 04ca 2046     		mov	r0, r4
 663 04cc 2946     		mov	r1, r5
 664 04ce 5CA3     		adr	r3, .L186+56
 665 04d0 D3E90023 		ldrd	r2, [r3]
 666 04d4 FFF7FEFF 		bl	__aeabi_dcmpge
 667              	.LVL84:
 668 04d8 20B3     		cbz	r0, .L30
 142:Src/noteDetect.c ****     sprintf(note, "Ab2");
 669              		.loc 1 142 0 is_stmt 1
 670 04da 694B     		ldr	r3, .L186+120
 671 04dc 0A93     		str	r3, [sp, #40]
 143:Src/noteDetect.c ****     sprintf(noteFreq, "%.2f", frequency);
 672              		.loc 1 143 0
 673 04de 6846     		mov	r0, sp
 674 04e0 6249     		ldr	r1, .L186+100
 675 04e2 2246     		mov	r2, r4
 676 04e4 2B46     		mov	r3, r5
 677 04e6 FFF7FEFF 		bl	sprintf
 678              	.LVL85:
 144:Src/noteDetect.c **** 
 145:Src/noteDetect.c ****     ssd1306_SetCursor(NOTEX, NOTEY);
 679              		.loc 1 145 0
 680 04ea 2820     		movs	r0, #40
 681 04ec 0146     		mov	r1, r0
 682 04ee FFF7FEFF 		bl	ssd1306_SetCursor
 683              	.LVL86:
 146:Src/noteDetect.c ****     ssd1306_WriteString(note,Font_11x18,Black);
 684              		.loc 1 146 0
 685 04f2 5F4C     		ldr	r4, .L186+104
 686 04f4 0AA8     		add	r0, sp, #40
 687 04f6 94E80600 		ldmia	r4, {r1, r2}
 688 04fa 0023     		movs	r3, #0
 689 04fc FFF7FEFF 		bl	ssd1306_WriteString
 690              	.LVL87:
 147:Src/noteDetect.c ****     ssd1306_SetCursor(FREQX,FREQY);
 691              		.loc 1 147 0
 692 0500 2820     		movs	r0, #40
 693 0502 0F21     		movs	r1, #15
 694 0504 FFF7FEFF 		bl	ssd1306_SetCursor
 695              	.LVL88:
 148:Src/noteDetect.c ****     ssd1306_WriteString(noteFreq,Font_11x18,Black);
 696              		.loc 1 148 0
 697 0508 6846     		mov	r0, sp
 698 050a 94E80600 		ldmia	r4, {r1, r2}
 699 050e 0023     		movs	r3, #0
 700 0510 FFF7FEFF 		bl	ssd1306_WriteString
 701              	.LVL89:
 149:Src/noteDetect.c **** 
 150:Src/noteDetect.c ****     ssd1306_UpdateScreen();
 702              		.loc 1 150 0
 703 0514 FFF7FEFF 		bl	ssd1306_UpdateScreen
 704              	.LVL90:
 151:Src/noteDetect.c ****     HAL_Delay(500);
ARM GAS  /var/folders/bq/zy6zjhwd1qn4sn8dk3jpjcq80000gn/T//ccnteQbj.s 			page 16


 705              		.loc 1 151 0
 706 0518 4FF4FA70 		mov	r0, #500
 707 051c FFF7FEFF 		bl	HAL_Delay
 708              	.LVL91:
 709 0520 00F0D2BE 		b	.L1
 710              	.L30:
 152:Src/noteDetect.c ****   }
 153:Src/noteDetect.c **** 
 154:Src/noteDetect.c ****   /*A2 note */
 155:Src/noteDetect.c ****   else if(frequency <= 113.22 && frequency >= 106.88){
 711              		.loc 1 155 0
 712 0524 2046     		mov	r0, r4
 713 0526 2946     		mov	r1, r5
 714 0528 47A3     		adr	r3, .L186+64
 715 052a D3E90023 		ldrd	r2, [r3]
 716 052e FFF7FEFF 		bl	__aeabi_dcmple
 717              	.LVL92:
 718 0532 88B3     		cbz	r0, .L33
 719              		.loc 1 155 0 is_stmt 0 discriminator 1
 720 0534 2046     		mov	r0, r4
 721 0536 2946     		mov	r1, r5
 722 0538 45A3     		adr	r3, .L186+72
 723 053a D3E90023 		ldrd	r2, [r3]
 724 053e FFF7FEFF 		bl	__aeabi_dcmpge
 725              	.LVL93:
 726 0542 48B3     		cbz	r0, .L33
 156:Src/noteDetect.c ****     sprintf(note, "A2");
 727              		.loc 1 156 0 is_stmt 1
 728 0544 4F4B     		ldr	r3, .L186+124
 729 0546 1B68     		ldr	r3, [r3]
 730 0548 ADF82830 		strh	r3, [sp, #40]	@ movhi
 731 054c 1B0C     		lsrs	r3, r3, #16
 732 054e 8DF82A30 		strb	r3, [sp, #42]
 157:Src/noteDetect.c ****     sprintf(noteFreq, "%.2f", frequency);
 733              		.loc 1 157 0
 734 0552 6846     		mov	r0, sp
 735 0554 4549     		ldr	r1, .L186+100
 736 0556 2246     		mov	r2, r4
 737 0558 2B46     		mov	r3, r5
 738 055a FFF7FEFF 		bl	sprintf
 739              	.LVL94:
 158:Src/noteDetect.c **** 
 159:Src/noteDetect.c ****     ssd1306_SetCursor(NOTEX, NOTEY);
 740              		.loc 1 159 0
 741 055e 2820     		movs	r0, #40
 742 0560 0146     		mov	r1, r0
 743 0562 FFF7FEFF 		bl	ssd1306_SetCursor
 744              	.LVL95:
 160:Src/noteDetect.c ****     ssd1306_WriteString(note,Font_11x18,Black);
 745              		.loc 1 160 0
 746 0566 424C     		ldr	r4, .L186+104
 747 0568 0AA8     		add	r0, sp, #40
 748 056a 94E80600 		ldmia	r4, {r1, r2}
 749 056e 0023     		movs	r3, #0
 750 0570 FFF7FEFF 		bl	ssd1306_WriteString
 751              	.LVL96:
 161:Src/noteDetect.c ****     ssd1306_SetCursor(FREQX,FREQY);
ARM GAS  /var/folders/bq/zy6zjhwd1qn4sn8dk3jpjcq80000gn/T//ccnteQbj.s 			page 17


 752              		.loc 1 161 0
 753 0574 2820     		movs	r0, #40
 754 0576 0F21     		movs	r1, #15
 755 0578 FFF7FEFF 		bl	ssd1306_SetCursor
 756              	.LVL97:
 162:Src/noteDetect.c ****     ssd1306_WriteString(noteFreq,Font_11x18,Black);
 757              		.loc 1 162 0
 758 057c 6846     		mov	r0, sp
 759 057e 94E80600 		ldmia	r4, {r1, r2}
 760 0582 0023     		movs	r3, #0
 761 0584 FFF7FEFF 		bl	ssd1306_WriteString
 762              	.LVL98:
 163:Src/noteDetect.c **** 
 164:Src/noteDetect.c ****     ssd1306_UpdateScreen();
 763              		.loc 1 164 0
 764 0588 FFF7FEFF 		bl	ssd1306_UpdateScreen
 765              	.LVL99:
 165:Src/noteDetect.c ****     HAL_Delay(500);
 766              		.loc 1 165 0
 767 058c 4FF4FA70 		mov	r0, #500
 768 0590 FFF7FEFF 		bl	HAL_Delay
 769              	.LVL100:
 770 0594 00F098BE 		b	.L1
 771              	.L33:
 166:Src/noteDetect.c ****   }
 167:Src/noteDetect.c **** 
 168:Src/noteDetect.c ****   /*Bb2 note */
 169:Src/noteDetect.c ****   else if(frequency <= 119.929 && frequency >= 106.9){
 772              		.loc 1 169 0
 773 0598 2046     		mov	r0, r4
 774 059a 2946     		mov	r1, r5
 775 059c 2EA3     		adr	r3, .L186+80
 776 059e D3E90023 		ldrd	r2, [r3]
 777 05a2 FFF7FEFF 		bl	__aeabi_dcmple
 778              	.LVL101:
 779 05a6 0028     		cmp	r0, #0
 780 05a8 78D0     		beq	.L36
 781              		.loc 1 169 0 is_stmt 0 discriminator 1
 782 05aa 2046     		mov	r0, r4
 783 05ac 2946     		mov	r1, r5
 784 05ae 2CA3     		adr	r3, .L186+88
 785 05b0 D3E90023 		ldrd	r2, [r3]
 786 05b4 FFF7FEFF 		bl	__aeabi_dcmpge
 787              	.LVL102:
 788 05b8 0028     		cmp	r0, #0
 789 05ba 6FD0     		beq	.L36
 170:Src/noteDetect.c ****     sprintf(note, "Bb2");
 790              		.loc 1 170 0 is_stmt 1
 791 05bc 324B     		ldr	r3, .L186+128
 792 05be 0A93     		str	r3, [sp, #40]
 171:Src/noteDetect.c ****     sprintf(noteFreq, "%.2f", frequency);
 793              		.loc 1 171 0
 794 05c0 6846     		mov	r0, sp
 795 05c2 2A49     		ldr	r1, .L186+100
 796 05c4 2246     		mov	r2, r4
 797 05c6 2B46     		mov	r3, r5
 798 05c8 FFF7FEFF 		bl	sprintf
ARM GAS  /var/folders/bq/zy6zjhwd1qn4sn8dk3jpjcq80000gn/T//ccnteQbj.s 			page 18


 799              	.LVL103:
 172:Src/noteDetect.c **** 
 173:Src/noteDetect.c ****     ssd1306_SetCursor(NOTEX, NOTEY);
 800              		.loc 1 173 0
 801 05cc 2820     		movs	r0, #40
 802 05ce 0146     		mov	r1, r0
 803 05d0 FFF7FEFF 		bl	ssd1306_SetCursor
 804              	.LVL104:
 174:Src/noteDetect.c ****     ssd1306_WriteString(note,Font_11x18,Black);
 805              		.loc 1 174 0
 806 05d4 264C     		ldr	r4, .L186+104
 807 05d6 0AA8     		add	r0, sp, #40
 808 05d8 94E80600 		ldmia	r4, {r1, r2}
 809 05dc 0023     		movs	r3, #0
 810 05de FFF7FEFF 		bl	ssd1306_WriteString
 811              	.LVL105:
 175:Src/noteDetect.c ****     ssd1306_SetCursor(FREQX,FREQY);
 812              		.loc 1 175 0
 813 05e2 2820     		movs	r0, #40
 814 05e4 0F21     		movs	r1, #15
 815 05e6 FFF7FEFF 		bl	ssd1306_SetCursor
 816              	.LVL106:
 176:Src/noteDetect.c ****     ssd1306_WriteString(noteFreq,Font_11x18,Black);
 817              		.loc 1 176 0
 818 05ea 6846     		mov	r0, sp
 819 05ec 94E80600 		ldmia	r4, {r1, r2}
 820 05f0 0023     		movs	r3, #0
 821 05f2 FFF7FEFF 		bl	ssd1306_WriteString
 822              	.LVL107:
 177:Src/noteDetect.c **** 
 178:Src/noteDetect.c ****     ssd1306_UpdateScreen();
 823              		.loc 1 178 0
 824 05f6 FFF7FEFF 		bl	ssd1306_UpdateScreen
 825              	.LVL108:
 179:Src/noteDetect.c ****     HAL_Delay(500);
 826              		.loc 1 179 0
 827 05fa 4FF4FA70 		mov	r0, #500
 828 05fe FFF7FEFF 		bl	HAL_Delay
 829              	.LVL109:
 830 0602 00F061BE 		b	.L1
 831              	.L187:
 832 0606 00BF     		.align	3
 833              	.L186:
 834 0608 48E17A14 		.word	343597384
 835 060c AE775640 		.word	1079408558
 836 0610 14AE47E1 		.word	3779571220
 837 0614 7A345540 		.word	1079325818
 838 0618 3D0AD7A3 		.word	2748779069
 839 061c 70CD5740 		.word	1079496048
 840 0620 B81E85EB 		.word	3951369912
 841 0624 51785640 		.word	1079408721
 842 0628 48E17A14 		.word	343597384
 843 062c AE375940 		.word	1079588782
 844 0630 AE47E17A 		.word	2061584302
 845 0634 14CE5740 		.word	1079496212
 846 0638 1D5A643B 		.word	996432413
 847 063c DFB75A40 		.word	1079687135
ARM GAS  /var/folders/bq/zy6zjhwd1qn4sn8dk3jpjcq80000gn/T//ccnteQbj.s 			page 19


 848 0640 B81E85EB 		.word	3951369912
 849 0644 51385940 		.word	1079588945
 850 0648 AE47E17A 		.word	2061584302
 851 064c 144E5C40 		.word	1079791124
 852 0650 B81E85EB 		.word	3951369912
 853 0654 51B85A40 		.word	1079687249
 854 0658 FA7E6ABC 		.word	3161095930
 855 065c 74FB5D40 		.word	1079901044
 856 0660 9A999999 		.word	2576980378
 857 0664 99B95A40 		.word	1079687577
 858 0668 1C000000 		.word	.LC6
 859 066c 10000000 		.word	.LC4
 860 0670 00000000 		.word	Font_11x18
 861 0674 20000000 		.word	.LC7
 862 0678 47623200 		.word	3301959
 863 067c 24000000 		.word	.LC8
 864 0680 41623200 		.word	3301953
 865 0684 28000000 		.word	.LC9
 866 0688 42623200 		.word	3301954
 867 068c DBF97E6A 		.word	1786706395
 868 0690 BC345540 		.word	1079325884
 869 0694 A4703D0A 		.word	171798692
 870 0698 D7035440 		.word	1079247831
 871              	.L36:
 180:Src/noteDetect.c ****   }
 181:Src/noteDetect.c **** 
 182:Src/noteDetect.c **** 
 183:Src/noteDetect.c ****   /*B2 note */
 184:Src/noteDetect.c ****   else if(frequency <= 127.08 && frequency >= 119.93){
 872              		.loc 1 184 0
 873 069c 2046     		mov	r0, r4
 874 069e 2946     		mov	r1, r5
 875 06a0 ABA3     		adr	r3, .L188+8
 876 06a2 D3E90023 		ldrd	r2, [r3]
 877 06a6 FFF7FEFF 		bl	__aeabi_dcmple
 878              	.LVL110:
 879 06aa 88B3     		cbz	r0, .L39
 880              		.loc 1 184 0 is_stmt 0 discriminator 1
 881 06ac 2046     		mov	r0, r4
 882 06ae 2946     		mov	r1, r5
 883 06b0 BFA3     		adr	r3, .L188+104
 884 06b2 D3E90023 		ldrd	r2, [r3]
 885 06b6 FFF7FEFF 		bl	__aeabi_dcmpge
 886              	.LVL111:
 887 06ba 48B3     		cbz	r0, .L39
 185:Src/noteDetect.c ****     sprintf(note, "B2");
 888              		.loc 1 185 0 is_stmt 1
 889 06bc B44B     		ldr	r3, .L188+72
 890 06be 1B68     		ldr	r3, [r3]
 891 06c0 ADF82830 		strh	r3, [sp, #40]	@ movhi
 892 06c4 1B0C     		lsrs	r3, r3, #16
 893 06c6 8DF82A30 		strb	r3, [sp, #42]
 186:Src/noteDetect.c ****     sprintf(noteFreq, "%.2f", frequency);
 894              		.loc 1 186 0
 895 06ca 6846     		mov	r0, sp
 896 06cc B149     		ldr	r1, .L188+76
 897 06ce 2246     		mov	r2, r4
ARM GAS  /var/folders/bq/zy6zjhwd1qn4sn8dk3jpjcq80000gn/T//ccnteQbj.s 			page 20


 898 06d0 2B46     		mov	r3, r5
 899 06d2 FFF7FEFF 		bl	sprintf
 900              	.LVL112:
 187:Src/noteDetect.c **** 
 188:Src/noteDetect.c ****     ssd1306_SetCursor(NOTEX, NOTEY);
 901              		.loc 1 188 0
 902 06d6 2820     		movs	r0, #40
 903 06d8 0146     		mov	r1, r0
 904 06da FFF7FEFF 		bl	ssd1306_SetCursor
 905              	.LVL113:
 189:Src/noteDetect.c ****     ssd1306_WriteString(note,Font_11x18,Black);
 906              		.loc 1 189 0
 907 06de AE4C     		ldr	r4, .L188+80
 908 06e0 0AA8     		add	r0, sp, #40
 909 06e2 94E80600 		ldmia	r4, {r1, r2}
 910 06e6 0023     		movs	r3, #0
 911 06e8 FFF7FEFF 		bl	ssd1306_WriteString
 912              	.LVL114:
 190:Src/noteDetect.c ****     ssd1306_SetCursor(FREQX,FREQY);
 913              		.loc 1 190 0
 914 06ec 2820     		movs	r0, #40
 915 06ee 0F21     		movs	r1, #15
 916 06f0 FFF7FEFF 		bl	ssd1306_SetCursor
 917              	.LVL115:
 191:Src/noteDetect.c ****     ssd1306_WriteString(noteFreq,Font_11x18,Black);
 918              		.loc 1 191 0
 919 06f4 6846     		mov	r0, sp
 920 06f6 94E80600 		ldmia	r4, {r1, r2}
 921 06fa 0023     		movs	r3, #0
 922 06fc FFF7FEFF 		bl	ssd1306_WriteString
 923              	.LVL116:
 192:Src/noteDetect.c **** 
 193:Src/noteDetect.c ****     ssd1306_UpdateScreen();
 924              		.loc 1 193 0
 925 0700 FFF7FEFF 		bl	ssd1306_UpdateScreen
 926              	.LVL117:
 194:Src/noteDetect.c ****     HAL_Delay(500);
 927              		.loc 1 194 0
 928 0704 4FF4FA70 		mov	r0, #500
 929 0708 FFF7FEFF 		bl	HAL_Delay
 930              	.LVL118:
 931 070c 00F0DCBD 		b	.L1
 932              	.L39:
 195:Src/noteDetect.c ****   }
 196:Src/noteDetect.c **** 
 197:Src/noteDetect.c ****   /*C3 note */
 198:Src/noteDetect.c ****   else if(frequency <= 134.64 && frequency >= 127.08){
 933              		.loc 1 198 0
 934 0710 2046     		mov	r0, r4
 935 0712 2946     		mov	r1, r5
 936 0714 8CA3     		adr	r3, .L188
 937 0716 D3E90023 		ldrd	r2, [r3]
 938 071a FFF7FEFF 		bl	__aeabi_dcmple
 939              	.LVL119:
 940 071e 88B3     		cbz	r0, .L42
 941              		.loc 1 198 0 is_stmt 0 discriminator 1
 942 0720 2046     		mov	r0, r4
ARM GAS  /var/folders/bq/zy6zjhwd1qn4sn8dk3jpjcq80000gn/T//ccnteQbj.s 			page 21


 943 0722 2946     		mov	r1, r5
 944 0724 8AA3     		adr	r3, .L188+8
 945 0726 D3E90023 		ldrd	r2, [r3]
 946 072a FFF7FEFF 		bl	__aeabi_dcmpge
 947              	.LVL120:
 948 072e 48B3     		cbz	r0, .L42
 199:Src/noteDetect.c ****     sprintf(note, "C3");
 949              		.loc 1 199 0 is_stmt 1
 950 0730 9A4B     		ldr	r3, .L188+84
 951 0732 1B68     		ldr	r3, [r3]
 952 0734 ADF82830 		strh	r3, [sp, #40]	@ movhi
 953 0738 1B0C     		lsrs	r3, r3, #16
 954 073a 8DF82A30 		strb	r3, [sp, #42]
 200:Src/noteDetect.c ****     sprintf(noteFreq, "%.2f", frequency);
 955              		.loc 1 200 0
 956 073e 6846     		mov	r0, sp
 957 0740 9449     		ldr	r1, .L188+76
 958 0742 2246     		mov	r2, r4
 959 0744 2B46     		mov	r3, r5
 960 0746 FFF7FEFF 		bl	sprintf
 961              	.LVL121:
 201:Src/noteDetect.c **** 
 202:Src/noteDetect.c ****     ssd1306_SetCursor(NOTEX, NOTEY);
 962              		.loc 1 202 0
 963 074a 2820     		movs	r0, #40
 964 074c 0146     		mov	r1, r0
 965 074e FFF7FEFF 		bl	ssd1306_SetCursor
 966              	.LVL122:
 203:Src/noteDetect.c ****     ssd1306_WriteString(note,Font_11x18,Black);
 967              		.loc 1 203 0
 968 0752 914C     		ldr	r4, .L188+80
 969 0754 0AA8     		add	r0, sp, #40
 970 0756 94E80600 		ldmia	r4, {r1, r2}
 971 075a 0023     		movs	r3, #0
 972 075c FFF7FEFF 		bl	ssd1306_WriteString
 973              	.LVL123:
 204:Src/noteDetect.c ****     ssd1306_SetCursor(FREQX,FREQY);
 974              		.loc 1 204 0
 975 0760 2820     		movs	r0, #40
 976 0762 0F21     		movs	r1, #15
 977 0764 FFF7FEFF 		bl	ssd1306_SetCursor
 978              	.LVL124:
 205:Src/noteDetect.c ****     ssd1306_WriteString(noteFreq,Font_11x18,Black);
 979              		.loc 1 205 0
 980 0768 6846     		mov	r0, sp
 981 076a 94E80600 		ldmia	r4, {r1, r2}
 982 076e 0023     		movs	r3, #0
 983 0770 FFF7FEFF 		bl	ssd1306_WriteString
 984              	.LVL125:
 206:Src/noteDetect.c **** 
 207:Src/noteDetect.c ****     ssd1306_UpdateScreen();
 985              		.loc 1 207 0
 986 0774 FFF7FEFF 		bl	ssd1306_UpdateScreen
 987              	.LVL126:
 208:Src/noteDetect.c ****     HAL_Delay(500);
 988              		.loc 1 208 0
 989 0778 4FF4FA70 		mov	r0, #500
ARM GAS  /var/folders/bq/zy6zjhwd1qn4sn8dk3jpjcq80000gn/T//ccnteQbj.s 			page 22


 990 077c FFF7FEFF 		bl	HAL_Delay
 991              	.LVL127:
 992 0780 00F0A2BD 		b	.L1
 993              	.L42:
 209:Src/noteDetect.c ****   }
 210:Src/noteDetect.c **** 
 211:Src/noteDetect.c ****   /*Db3 note */
 212:Src/noteDetect.c ****   else if(frequency <= 142.65 && frequency >= 134.65){
 994              		.loc 1 212 0
 995 0784 2046     		mov	r0, r4
 996 0786 2946     		mov	r1, r5
 997 0788 73A3     		adr	r3, .L188+16
 998 078a D3E90023 		ldrd	r2, [r3]
 999 078e FFF7FEFF 		bl	__aeabi_dcmple
 1000              	.LVL128:
 1001 0792 60B3     		cbz	r0, .L45
 1002              		.loc 1 212 0 is_stmt 0 discriminator 1
 1003 0794 2046     		mov	r0, r4
 1004 0796 2946     		mov	r1, r5
 1005 0798 71A3     		adr	r3, .L188+24
 1006 079a D3E90023 		ldrd	r2, [r3]
 1007 079e FFF7FEFF 		bl	__aeabi_dcmpge
 1008              	.LVL129:
 1009 07a2 20B3     		cbz	r0, .L45
 213:Src/noteDetect.c ****     sprintf(note, "Db3");
 1010              		.loc 1 213 0 is_stmt 1
 1011 07a4 7E4B     		ldr	r3, .L188+88
 1012 07a6 0A93     		str	r3, [sp, #40]
 214:Src/noteDetect.c ****     sprintf(noteFreq, "%.2f", frequency);
 1013              		.loc 1 214 0
 1014 07a8 6846     		mov	r0, sp
 1015 07aa 7A49     		ldr	r1, .L188+76
 1016 07ac 2246     		mov	r2, r4
 1017 07ae 2B46     		mov	r3, r5
 1018 07b0 FFF7FEFF 		bl	sprintf
 1019              	.LVL130:
 215:Src/noteDetect.c **** 
 216:Src/noteDetect.c ****     ssd1306_SetCursor(NOTEX, NOTEY);
 1020              		.loc 1 216 0
 1021 07b4 2820     		movs	r0, #40
 1022 07b6 0146     		mov	r1, r0
 1023 07b8 FFF7FEFF 		bl	ssd1306_SetCursor
 1024              	.LVL131:
 217:Src/noteDetect.c ****     ssd1306_WriteString(note,Font_11x18,Black);
 1025              		.loc 1 217 0
 1026 07bc 764C     		ldr	r4, .L188+80
 1027 07be 0AA8     		add	r0, sp, #40
 1028 07c0 94E80600 		ldmia	r4, {r1, r2}
 1029 07c4 0023     		movs	r3, #0
 1030 07c6 FFF7FEFF 		bl	ssd1306_WriteString
 1031              	.LVL132:
 218:Src/noteDetect.c ****     ssd1306_SetCursor(FREQX,FREQY);
 1032              		.loc 1 218 0
 1033 07ca 2820     		movs	r0, #40
 1034 07cc 0F21     		movs	r1, #15
 1035 07ce FFF7FEFF 		bl	ssd1306_SetCursor
 1036              	.LVL133:
ARM GAS  /var/folders/bq/zy6zjhwd1qn4sn8dk3jpjcq80000gn/T//ccnteQbj.s 			page 23


 219:Src/noteDetect.c ****     ssd1306_WriteString(noteFreq,Font_11x18,Black);
 1037              		.loc 1 219 0
 1038 07d2 6846     		mov	r0, sp
 1039 07d4 94E80600 		ldmia	r4, {r1, r2}
 1040 07d8 0023     		movs	r3, #0
 1041 07da FFF7FEFF 		bl	ssd1306_WriteString
 1042              	.LVL134:
 220:Src/noteDetect.c **** 
 221:Src/noteDetect.c ****     ssd1306_UpdateScreen();
 1043              		.loc 1 221 0
 1044 07de FFF7FEFF 		bl	ssd1306_UpdateScreen
 1045              	.LVL135:
 222:Src/noteDetect.c ****     HAL_Delay(500);
 1046              		.loc 1 222 0
 1047 07e2 4FF4FA70 		mov	r0, #500
 1048 07e6 FFF7FEFF 		bl	HAL_Delay
 1049              	.LVL136:
 1050 07ea 00F06DBD 		b	.L1
 1051              	.L45:
 223:Src/noteDetect.c ****   }
 224:Src/noteDetect.c **** 
 225:Src/noteDetect.c ****   /* D3 note */
 226:Src/noteDetect.c ****   else if(frequency <= 151.13 && frequency >= 142.65){
 1052              		.loc 1 226 0
 1053 07ee 2046     		mov	r0, r4
 1054 07f0 2946     		mov	r1, r5
 1055 07f2 5DA3     		adr	r3, .L188+32
 1056 07f4 D3E90023 		ldrd	r2, [r3]
 1057 07f8 FFF7FEFF 		bl	__aeabi_dcmple
 1058              	.LVL137:
 1059 07fc 88B3     		cbz	r0, .L48
 1060              		.loc 1 226 0 is_stmt 0 discriminator 1
 1061 07fe 2046     		mov	r0, r4
 1062 0800 2946     		mov	r1, r5
 1063 0802 55A3     		adr	r3, .L188+16
 1064 0804 D3E90023 		ldrd	r2, [r3]
 1065 0808 FFF7FEFF 		bl	__aeabi_dcmpge
 1066              	.LVL138:
 1067 080c 48B3     		cbz	r0, .L48
 227:Src/noteDetect.c ****     sprintf(note, "D3");
 1068              		.loc 1 227 0 is_stmt 1
 1069 080e 654B     		ldr	r3, .L188+92
 1070 0810 1B68     		ldr	r3, [r3]
 1071 0812 ADF82830 		strh	r3, [sp, #40]	@ movhi
 1072 0816 1B0C     		lsrs	r3, r3, #16
 1073 0818 8DF82A30 		strb	r3, [sp, #42]
 228:Src/noteDetect.c ****     sprintf(noteFreq, "%.2f", frequency);
 1074              		.loc 1 228 0
 1075 081c 6846     		mov	r0, sp
 1076 081e 5D49     		ldr	r1, .L188+76
 1077 0820 2246     		mov	r2, r4
 1078 0822 2B46     		mov	r3, r5
 1079 0824 FFF7FEFF 		bl	sprintf
 1080              	.LVL139:
 229:Src/noteDetect.c **** 
 230:Src/noteDetect.c ****     ssd1306_SetCursor(NOTEX, NOTEY);
 1081              		.loc 1 230 0
ARM GAS  /var/folders/bq/zy6zjhwd1qn4sn8dk3jpjcq80000gn/T//ccnteQbj.s 			page 24


 1082 0828 2820     		movs	r0, #40
 1083 082a 0146     		mov	r1, r0
 1084 082c FFF7FEFF 		bl	ssd1306_SetCursor
 1085              	.LVL140:
 231:Src/noteDetect.c ****     ssd1306_WriteString(note,Font_11x18,Black);
 1086              		.loc 1 231 0
 1087 0830 594C     		ldr	r4, .L188+80
 1088 0832 0AA8     		add	r0, sp, #40
 1089 0834 94E80600 		ldmia	r4, {r1, r2}
 1090 0838 0023     		movs	r3, #0
 1091 083a FFF7FEFF 		bl	ssd1306_WriteString
 1092              	.LVL141:
 232:Src/noteDetect.c ****     ssd1306_SetCursor(FREQX,FREQY);
 1093              		.loc 1 232 0
 1094 083e 2820     		movs	r0, #40
 1095 0840 0F21     		movs	r1, #15
 1096 0842 FFF7FEFF 		bl	ssd1306_SetCursor
 1097              	.LVL142:
 233:Src/noteDetect.c ****     ssd1306_WriteString(noteFreq,Font_11x18,Black);
 1098              		.loc 1 233 0
 1099 0846 6846     		mov	r0, sp
 1100 0848 94E80600 		ldmia	r4, {r1, r2}
 1101 084c 0023     		movs	r3, #0
 1102 084e FFF7FEFF 		bl	ssd1306_WriteString
 1103              	.LVL143:
 234:Src/noteDetect.c **** 
 235:Src/noteDetect.c ****     ssd1306_UpdateScreen();
 1104              		.loc 1 235 0
 1105 0852 FFF7FEFF 		bl	ssd1306_UpdateScreen
 1106              	.LVL144:
 236:Src/noteDetect.c ****     HAL_Delay(500);
 1107              		.loc 1 236 0
 1108 0856 4FF4FA70 		mov	r0, #500
 1109 085a FFF7FEFF 		bl	HAL_Delay
 1110              	.LVL145:
 1111 085e 00F033BD 		b	.L1
 1112              	.L48:
 237:Src/noteDetect.c ****   }
 238:Src/noteDetect.c **** 
 239:Src/noteDetect.c ****   /*Eb3 note */
 240:Src/noteDetect.c ****   else if(frequency <= 160.11 && frequency >= 151.14){
 1113              		.loc 1 240 0
 1114 0862 2046     		mov	r0, r4
 1115 0864 2946     		mov	r1, r5
 1116 0866 42A3     		adr	r3, .L188+40
 1117 0868 D3E90023 		ldrd	r2, [r3]
 1118 086c FFF7FEFF 		bl	__aeabi_dcmple
 1119              	.LVL146:
 1120 0870 60B3     		cbz	r0, .L51
 1121              		.loc 1 240 0 is_stmt 0 discriminator 1
 1122 0872 2046     		mov	r0, r4
 1123 0874 2946     		mov	r1, r5
 1124 0876 40A3     		adr	r3, .L188+48
 1125 0878 D3E90023 		ldrd	r2, [r3]
 1126 087c FFF7FEFF 		bl	__aeabi_dcmpge
 1127              	.LVL147:
 1128 0880 20B3     		cbz	r0, .L51
ARM GAS  /var/folders/bq/zy6zjhwd1qn4sn8dk3jpjcq80000gn/T//ccnteQbj.s 			page 25


 241:Src/noteDetect.c ****     sprintf(note, "Eb3");
 1129              		.loc 1 241 0 is_stmt 1
 1130 0882 494B     		ldr	r3, .L188+96
 1131 0884 0A93     		str	r3, [sp, #40]
 242:Src/noteDetect.c ****     sprintf(noteFreq, "%.2f", frequency);
 1132              		.loc 1 242 0
 1133 0886 6846     		mov	r0, sp
 1134 0888 4249     		ldr	r1, .L188+76
 1135 088a 2246     		mov	r2, r4
 1136 088c 2B46     		mov	r3, r5
 1137 088e FFF7FEFF 		bl	sprintf
 1138              	.LVL148:
 243:Src/noteDetect.c **** 
 244:Src/noteDetect.c ****     ssd1306_SetCursor(NOTEX, NOTEY);
 1139              		.loc 1 244 0
 1140 0892 2820     		movs	r0, #40
 1141 0894 0146     		mov	r1, r0
 1142 0896 FFF7FEFF 		bl	ssd1306_SetCursor
 1143              	.LVL149:
 245:Src/noteDetect.c ****     ssd1306_WriteString(note,Font_11x18,Black);
 1144              		.loc 1 245 0
 1145 089a 3F4C     		ldr	r4, .L188+80
 1146 089c 0AA8     		add	r0, sp, #40
 1147 089e 94E80600 		ldmia	r4, {r1, r2}
 1148 08a2 0023     		movs	r3, #0
 1149 08a4 FFF7FEFF 		bl	ssd1306_WriteString
 1150              	.LVL150:
 246:Src/noteDetect.c ****     ssd1306_SetCursor(FREQX,FREQY);
 1151              		.loc 1 246 0
 1152 08a8 2820     		movs	r0, #40
 1153 08aa 0F21     		movs	r1, #15
 1154 08ac FFF7FEFF 		bl	ssd1306_SetCursor
 1155              	.LVL151:
 247:Src/noteDetect.c ****     ssd1306_WriteString(noteFreq,Font_11x18,Black);
 1156              		.loc 1 247 0
 1157 08b0 6846     		mov	r0, sp
 1158 08b2 94E80600 		ldmia	r4, {r1, r2}
 1159 08b6 0023     		movs	r3, #0
 1160 08b8 FFF7FEFF 		bl	ssd1306_WriteString
 1161              	.LVL152:
 248:Src/noteDetect.c **** 
 249:Src/noteDetect.c ****     ssd1306_UpdateScreen();
 1162              		.loc 1 249 0
 1163 08bc FFF7FEFF 		bl	ssd1306_UpdateScreen
 1164              	.LVL153:
 250:Src/noteDetect.c ****     HAL_Delay(500);
 1165              		.loc 1 250 0
 1166 08c0 4FF4FA70 		mov	r0, #500
 1167 08c4 FFF7FEFF 		bl	HAL_Delay
 1168              	.LVL154:
 1169 08c8 00F0FEBC 		b	.L1
 1170              	.L51:
 251:Src/noteDetect.c ****   }
 252:Src/noteDetect.c **** 
 253:Src/noteDetect.c ****   /*E3 note */
 254:Src/noteDetect.c ****   else if(frequency <= 169.64 && frequency >= 160.12){
 1171              		.loc 1 254 0
ARM GAS  /var/folders/bq/zy6zjhwd1qn4sn8dk3jpjcq80000gn/T//ccnteQbj.s 			page 26


 1172 08cc 2046     		mov	r0, r4
 1173 08ce 2946     		mov	r1, r5
 1174 08d0 2BA3     		adr	r3, .L188+56
 1175 08d2 D3E90023 		ldrd	r2, [r3]
 1176 08d6 FFF7FEFF 		bl	__aeabi_dcmple
 1177              	.LVL155:
 1178 08da 0028     		cmp	r0, #0
 1179 08dc 6CD0     		beq	.L54
 1180              		.loc 1 254 0 is_stmt 0 discriminator 1
 1181 08de 2046     		mov	r0, r4
 1182 08e0 2946     		mov	r1, r5
 1183 08e2 29A3     		adr	r3, .L188+64
 1184 08e4 D3E90023 		ldrd	r2, [r3]
 1185 08e8 FFF7FEFF 		bl	__aeabi_dcmpge
 1186              	.LVL156:
 1187 08ec 0028     		cmp	r0, #0
 1188 08ee 63D0     		beq	.L54
 255:Src/noteDetect.c ****     sprintf(note, "E3");
 1189              		.loc 1 255 0 is_stmt 1
 1190 08f0 2E4B     		ldr	r3, .L188+100
 1191 08f2 1B68     		ldr	r3, [r3]
 1192 08f4 ADF82830 		strh	r3, [sp, #40]	@ movhi
 1193 08f8 1B0C     		lsrs	r3, r3, #16
 1194 08fa 8DF82A30 		strb	r3, [sp, #42]
 256:Src/noteDetect.c ****     sprintf(noteFreq, "%.2f", frequency);
 1195              		.loc 1 256 0
 1196 08fe 6846     		mov	r0, sp
 1197 0900 2449     		ldr	r1, .L188+76
 1198 0902 2246     		mov	r2, r4
 1199 0904 2B46     		mov	r3, r5
 1200 0906 FFF7FEFF 		bl	sprintf
 1201              	.LVL157:
 257:Src/noteDetect.c **** 
 258:Src/noteDetect.c ****     ssd1306_SetCursor(NOTEX, NOTEY);
 1202              		.loc 1 258 0
 1203 090a 2820     		movs	r0, #40
 1204 090c 0146     		mov	r1, r0
 1205 090e FFF7FEFF 		bl	ssd1306_SetCursor
 1206              	.LVL158:
 259:Src/noteDetect.c ****     ssd1306_WriteString(note,Font_11x18,Black);
 1207              		.loc 1 259 0
 1208 0912 214C     		ldr	r4, .L188+80
 1209 0914 0AA8     		add	r0, sp, #40
 1210 0916 94E80600 		ldmia	r4, {r1, r2}
 1211 091a 0023     		movs	r3, #0
 1212 091c FFF7FEFF 		bl	ssd1306_WriteString
 1213              	.LVL159:
 260:Src/noteDetect.c ****     ssd1306_SetCursor(FREQX,FREQY);
 1214              		.loc 1 260 0
 1215 0920 2820     		movs	r0, #40
 1216 0922 0F21     		movs	r1, #15
 1217 0924 FFF7FEFF 		bl	ssd1306_SetCursor
 1218              	.LVL160:
 261:Src/noteDetect.c ****     ssd1306_WriteString(noteFreq,Font_11x18,Black);
 1219              		.loc 1 261 0
 1220 0928 6846     		mov	r0, sp
 1221 092a 94E80600 		ldmia	r4, {r1, r2}
ARM GAS  /var/folders/bq/zy6zjhwd1qn4sn8dk3jpjcq80000gn/T//ccnteQbj.s 			page 27


 1222 092e 0023     		movs	r3, #0
 1223 0930 FFF7FEFF 		bl	ssd1306_WriteString
 1224              	.LVL161:
 262:Src/noteDetect.c **** 
 263:Src/noteDetect.c ****     ssd1306_UpdateScreen();
 1225              		.loc 1 263 0
 1226 0934 FFF7FEFF 		bl	ssd1306_UpdateScreen
 1227              	.LVL162:
 264:Src/noteDetect.c ****     HAL_Delay(500);
 1228              		.loc 1 264 0
 1229 0938 4FF4FA70 		mov	r0, #500
 1230 093c FFF7FEFF 		bl	HAL_Delay
 1231              	.LVL163:
 1232 0940 00F0C2BC 		b	.L1
 1233              	.L189:
 1234 0944 AFF30080 		.align	3
 1235              	.L188:
 1236 0948 14AE47E1 		.word	3779571220
 1237 094c 7AD46040 		.word	1080087674
 1238 0950 85EB51B8 		.word	3092376453
 1239 0954 1EC55F40 		.word	1080018206
 1240 0958 CDCCCCCC 		.word	3435973837
 1241 095c CCD46140 		.word	1080153292
 1242 0960 CDCCCCCC 		.word	3435973837
 1243 0964 CCD46040 		.word	1080087756
 1244 0968 5C8FC2F5 		.word	4123168604
 1245 096c 28E46240 		.word	1080222760
 1246 0970 EC51B81E 		.word	515396076
 1247 0974 85036440 		.word	1080296325
 1248 0978 14AE47E1 		.word	3779571220
 1249 097c 7AE46240 		.word	1080222842
 1250 0980 14AE47E1 		.word	3779571220
 1251 0984 7A346540 		.word	1080374394
 1252 0988 A4703D0A 		.word	171798692
 1253 098c D7036440 		.word	1080296407
 1254 0990 2C000000 		.word	.LC10
 1255 0994 10000000 		.word	.LC4
 1256 0998 00000000 		.word	Font_11x18
 1257 099c 30000000 		.word	.LC11
 1258 09a0 44623300 		.word	3367492
 1259 09a4 34000000 		.word	.LC12
 1260 09a8 45623300 		.word	3367493
 1261 09ac 38000000 		.word	.LC13
 1262 09b0 EC51B81E 		.word	515396076
 1263 09b4 85FB5D40 		.word	1079901061
 1264              	.L54:
 265:Src/noteDetect.c ****   }
 266:Src/noteDetect.c **** 
 267:Src/noteDetect.c ****   /*F3 note */
 268:Src/noteDetect.c ****   else if(frequency <= 180.76 && frequency >= 169.65){
 1265              		.loc 1 268 0
 1266 09b8 2046     		mov	r0, r4
 1267 09ba 2946     		mov	r1, r5
 1268 09bc C2A3     		adr	r3, .L190+8
 1269 09be D3E90023 		ldrd	r2, [r3]
 1270 09c2 FFF7FEFF 		bl	__aeabi_dcmple
 1271              	.LVL164:
ARM GAS  /var/folders/bq/zy6zjhwd1qn4sn8dk3jpjcq80000gn/T//ccnteQbj.s 			page 28


 1272 09c6 88B3     		cbz	r0, .L57
 1273              		.loc 1 268 0 is_stmt 0 discriminator 1
 1274 09c8 2046     		mov	r0, r4
 1275 09ca 2946     		mov	r1, r5
 1276 09cc D9A3     		adr	r3, .L190+116
 1277 09ce D3E90023 		ldrd	r2, [r3]
 1278 09d2 FFF7FEFF 		bl	__aeabi_dcmpge
 1279              	.LVL165:
 1280 09d6 48B3     		cbz	r0, .L57
 269:Src/noteDetect.c ****     sprintf(note, "F3");
 1281              		.loc 1 269 0 is_stmt 1
 1282 09d8 CD4B     		ldr	r3, .L190+80
 1283 09da 1B68     		ldr	r3, [r3]
 1284 09dc ADF82830 		strh	r3, [sp, #40]	@ movhi
 1285 09e0 1B0C     		lsrs	r3, r3, #16
 1286 09e2 8DF82A30 		strb	r3, [sp, #42]
 270:Src/noteDetect.c ****     sprintf(noteFreq, "%.2f", frequency);
 1287              		.loc 1 270 0
 1288 09e6 6846     		mov	r0, sp
 1289 09e8 CA49     		ldr	r1, .L190+84
 1290 09ea 2246     		mov	r2, r4
 1291 09ec 2B46     		mov	r3, r5
 1292 09ee FFF7FEFF 		bl	sprintf
 1293              	.LVL166:
 271:Src/noteDetect.c **** 
 272:Src/noteDetect.c ****     ssd1306_SetCursor(NOTEX, NOTEY);
 1294              		.loc 1 272 0
 1295 09f2 2820     		movs	r0, #40
 1296 09f4 0146     		mov	r1, r0
 1297 09f6 FFF7FEFF 		bl	ssd1306_SetCursor
 1298              	.LVL167:
 273:Src/noteDetect.c ****     ssd1306_WriteString(note,Font_11x18,Black);
 1299              		.loc 1 273 0
 1300 09fa C74C     		ldr	r4, .L190+88
 1301 09fc 0AA8     		add	r0, sp, #40
 1302 09fe 94E80600 		ldmia	r4, {r1, r2}
 1303 0a02 0023     		movs	r3, #0
 1304 0a04 FFF7FEFF 		bl	ssd1306_WriteString
 1305              	.LVL168:
 274:Src/noteDetect.c ****     ssd1306_SetCursor(FREQX,FREQY);
 1306              		.loc 1 274 0
 1307 0a08 2820     		movs	r0, #40
 1308 0a0a 0F21     		movs	r1, #15
 1309 0a0c FFF7FEFF 		bl	ssd1306_SetCursor
 1310              	.LVL169:
 275:Src/noteDetect.c ****     ssd1306_WriteString(noteFreq,Font_11x18,Black);
 1311              		.loc 1 275 0
 1312 0a10 6846     		mov	r0, sp
 1313 0a12 94E80600 		ldmia	r4, {r1, r2}
 1314 0a16 0023     		movs	r3, #0
 1315 0a18 FFF7FEFF 		bl	ssd1306_WriteString
 1316              	.LVL170:
 276:Src/noteDetect.c **** 
 277:Src/noteDetect.c ****     ssd1306_UpdateScreen();
 1317              		.loc 1 277 0
 1318 0a1c FFF7FEFF 		bl	ssd1306_UpdateScreen
 1319              	.LVL171:
ARM GAS  /var/folders/bq/zy6zjhwd1qn4sn8dk3jpjcq80000gn/T//ccnteQbj.s 			page 29


 278:Src/noteDetect.c ****     HAL_Delay(500);
 1320              		.loc 1 278 0
 1321 0a20 4FF4FA70 		mov	r0, #500
 1322 0a24 FFF7FEFF 		bl	HAL_Delay
 1323              	.LVL172:
 1324 0a28 00F04EBC 		b	.L1
 1325              	.L57:
 279:Src/noteDetect.c ****   }
 280:Src/noteDetect.c **** 
 281:Src/noteDetect.c ****   /*Gb3 note */
 282:Src/noteDetect.c ****   else if(frequency <= 190.42 && frequency >= 180.76){
 1326              		.loc 1 282 0
 1327 0a2c 2046     		mov	r0, r4
 1328 0a2e 2946     		mov	r1, r5
 1329 0a30 A3A3     		adr	r3, .L190
 1330 0a32 D3E90023 		ldrd	r2, [r3]
 1331 0a36 FFF7FEFF 		bl	__aeabi_dcmple
 1332              	.LVL173:
 1333 0a3a 60B3     		cbz	r0, .L60
 1334              		.loc 1 282 0 is_stmt 0 discriminator 1
 1335 0a3c 2046     		mov	r0, r4
 1336 0a3e 2946     		mov	r1, r5
 1337 0a40 A1A3     		adr	r3, .L190+8
 1338 0a42 D3E90023 		ldrd	r2, [r3]
 1339 0a46 FFF7FEFF 		bl	__aeabi_dcmpge
 1340              	.LVL174:
 1341 0a4a 20B3     		cbz	r0, .L60
 283:Src/noteDetect.c ****     sprintf(note, "Gb3");
 1342              		.loc 1 283 0 is_stmt 1
 1343 0a4c B34B     		ldr	r3, .L190+92
 1344 0a4e 0A93     		str	r3, [sp, #40]
 284:Src/noteDetect.c ****     sprintf(noteFreq, "%.2f", frequency);
 1345              		.loc 1 284 0
 1346 0a50 6846     		mov	r0, sp
 1347 0a52 B049     		ldr	r1, .L190+84
 1348 0a54 2246     		mov	r2, r4
 1349 0a56 2B46     		mov	r3, r5
 1350 0a58 FFF7FEFF 		bl	sprintf
 1351              	.LVL175:
 285:Src/noteDetect.c **** 
 286:Src/noteDetect.c ****     ssd1306_SetCursor(NOTEX, NOTEY);
 1352              		.loc 1 286 0
 1353 0a5c 2820     		movs	r0, #40
 1354 0a5e 0146     		mov	r1, r0
 1355 0a60 FFF7FEFF 		bl	ssd1306_SetCursor
 1356              	.LVL176:
 287:Src/noteDetect.c ****     ssd1306_WriteString(note,Font_11x18,Black);
 1357              		.loc 1 287 0
 1358 0a64 AC4C     		ldr	r4, .L190+88
 1359 0a66 0AA8     		add	r0, sp, #40
 1360 0a68 94E80600 		ldmia	r4, {r1, r2}
 1361 0a6c 0023     		movs	r3, #0
 1362 0a6e FFF7FEFF 		bl	ssd1306_WriteString
 1363              	.LVL177:
 288:Src/noteDetect.c ****     ssd1306_SetCursor(FREQX,FREQY);
 1364              		.loc 1 288 0
 1365 0a72 2820     		movs	r0, #40
ARM GAS  /var/folders/bq/zy6zjhwd1qn4sn8dk3jpjcq80000gn/T//ccnteQbj.s 			page 30


 1366 0a74 0F21     		movs	r1, #15
 1367 0a76 FFF7FEFF 		bl	ssd1306_SetCursor
 1368              	.LVL178:
 289:Src/noteDetect.c ****     ssd1306_WriteString(noteFreq,Font_11x18,Black);
 1369              		.loc 1 289 0
 1370 0a7a 6846     		mov	r0, sp
 1371 0a7c 94E80600 		ldmia	r4, {r1, r2}
 1372 0a80 0023     		movs	r3, #0
 1373 0a82 FFF7FEFF 		bl	ssd1306_WriteString
 1374              	.LVL179:
 290:Src/noteDetect.c **** 
 291:Src/noteDetect.c ****     ssd1306_UpdateScreen();
 1375              		.loc 1 291 0
 1376 0a86 FFF7FEFF 		bl	ssd1306_UpdateScreen
 1377              	.LVL180:
 292:Src/noteDetect.c ****     HAL_Delay(500);
 1378              		.loc 1 292 0
 1379 0a8a 4FF4FA70 		mov	r0, #500
 1380 0a8e FFF7FEFF 		bl	HAL_Delay
 1381              	.LVL181:
 1382 0a92 00F019BC 		b	.L1
 1383              	.L60:
 293:Src/noteDetect.c ****   }
 294:Src/noteDetect.c **** 
 295:Src/noteDetect.c ****   /*G3 note */
 296:Src/noteDetect.c ****   else if(frequency <= 201.76 && frequency >= 190.42){
 1384              		.loc 1 296 0
 1385 0a96 2046     		mov	r0, r4
 1386 0a98 2946     		mov	r1, r5
 1387 0a9a 8DA3     		adr	r3, .L190+16
 1388 0a9c D3E90023 		ldrd	r2, [r3]
 1389 0aa0 FFF7FEFF 		bl	__aeabi_dcmple
 1390              	.LVL182:
 1391 0aa4 80B3     		cbz	r0, .L63
 1392              		.loc 1 296 0 is_stmt 0 discriminator 1
 1393 0aa6 2046     		mov	r0, r4
 1394 0aa8 2946     		mov	r1, r5
 1395 0aaa 85A3     		adr	r3, .L190
 1396 0aac D3E90023 		ldrd	r2, [r3]
 1397 0ab0 FFF7FEFF 		bl	__aeabi_dcmpge
 1398              	.LVL183:
 1399 0ab4 40B3     		cbz	r0, .L63
 297:Src/noteDetect.c ****     sprintf(note, "G3");
 1400              		.loc 1 297 0 is_stmt 1
 1401 0ab6 9A4B     		ldr	r3, .L190+96
 1402 0ab8 1B68     		ldr	r3, [r3]
 1403 0aba ADF82830 		strh	r3, [sp, #40]	@ movhi
 1404 0abe 1B0C     		lsrs	r3, r3, #16
 1405 0ac0 8DF82A30 		strb	r3, [sp, #42]
 298:Src/noteDetect.c ****     sprintf(noteFreq, "%.2f", frequency);
 1406              		.loc 1 298 0
 1407 0ac4 6846     		mov	r0, sp
 1408 0ac6 9349     		ldr	r1, .L190+84
 1409 0ac8 2246     		mov	r2, r4
 1410 0aca 2B46     		mov	r3, r5
 1411 0acc FFF7FEFF 		bl	sprintf
 1412              	.LVL184:
ARM GAS  /var/folders/bq/zy6zjhwd1qn4sn8dk3jpjcq80000gn/T//ccnteQbj.s 			page 31


 299:Src/noteDetect.c **** 
 300:Src/noteDetect.c ****     ssd1306_SetCursor(NOTEX, NOTEY);
 1413              		.loc 1 300 0
 1414 0ad0 2820     		movs	r0, #40
 1415 0ad2 0146     		mov	r1, r0
 1416 0ad4 FFF7FEFF 		bl	ssd1306_SetCursor
 1417              	.LVL185:
 301:Src/noteDetect.c ****     ssd1306_WriteString(note,Font_11x18,Black);
 1418              		.loc 1 301 0
 1419 0ad8 8F4C     		ldr	r4, .L190+88
 1420 0ada 0AA8     		add	r0, sp, #40
 1421 0adc 94E80600 		ldmia	r4, {r1, r2}
 1422 0ae0 0023     		movs	r3, #0
 1423 0ae2 FFF7FEFF 		bl	ssd1306_WriteString
 1424              	.LVL186:
 302:Src/noteDetect.c ****     ssd1306_SetCursor(FREQX,FREQY);
 1425              		.loc 1 302 0
 1426 0ae6 2820     		movs	r0, #40
 1427 0ae8 0F21     		movs	r1, #15
 1428 0aea FFF7FEFF 		bl	ssd1306_SetCursor
 1429              	.LVL187:
 303:Src/noteDetect.c ****     ssd1306_WriteString(noteFreq,Font_11x18,Black);
 1430              		.loc 1 303 0
 1431 0aee 6846     		mov	r0, sp
 1432 0af0 94E80600 		ldmia	r4, {r1, r2}
 1433 0af4 0023     		movs	r3, #0
 1434 0af6 FFF7FEFF 		bl	ssd1306_WriteString
 1435              	.LVL188:
 304:Src/noteDetect.c **** 
 305:Src/noteDetect.c ****     ssd1306_UpdateScreen();
 1436              		.loc 1 305 0
 1437 0afa FFF7FEFF 		bl	ssd1306_UpdateScreen
 1438              	.LVL189:
 306:Src/noteDetect.c ****     HAL_Delay(500);
 1439              		.loc 1 306 0
 1440 0afe 4FF4FA70 		mov	r0, #500
 1441 0b02 FFF7FEFF 		bl	HAL_Delay
 1442              	.LVL190:
 1443 0b06 DFE3     		b	.L1
 1444              	.L63:
 307:Src/noteDetect.c ****   }
 308:Src/noteDetect.c **** 
 309:Src/noteDetect.c ****   /*Ab3 note */
 310:Src/noteDetect.c ****   else if(frequency <= 213.73 && frequency >= 226.45){
 1445              		.loc 1 310 0
 1446 0b08 2046     		mov	r0, r4
 1447 0b0a 2946     		mov	r1, r5
 1448 0b0c 72A3     		adr	r3, .L190+24
 1449 0b0e D3E90023 		ldrd	r2, [r3]
 1450 0b12 FFF7FEFF 		bl	__aeabi_dcmple
 1451              	.LVL191:
 1452 0b16 58B3     		cbz	r0, .L66
 1453              		.loc 1 310 0 is_stmt 0 discriminator 1
 1454 0b18 2046     		mov	r0, r4
 1455 0b1a 2946     		mov	r1, r5
 1456 0b1c 70A3     		adr	r3, .L190+32
 1457 0b1e D3E90023 		ldrd	r2, [r3]
ARM GAS  /var/folders/bq/zy6zjhwd1qn4sn8dk3jpjcq80000gn/T//ccnteQbj.s 			page 32


 1458 0b22 FFF7FEFF 		bl	__aeabi_dcmpge
 1459              	.LVL192:
 1460 0b26 18B3     		cbz	r0, .L66
 311:Src/noteDetect.c ****     sprintf(note, "Ab3");
 1461              		.loc 1 311 0 is_stmt 1
 1462 0b28 7E4B     		ldr	r3, .L190+100
 1463 0b2a 0A93     		str	r3, [sp, #40]
 312:Src/noteDetect.c ****     sprintf(noteFreq, "%.2f", frequency);
 1464              		.loc 1 312 0
 1465 0b2c 6846     		mov	r0, sp
 1466 0b2e 7949     		ldr	r1, .L190+84
 1467 0b30 2246     		mov	r2, r4
 1468 0b32 2B46     		mov	r3, r5
 1469 0b34 FFF7FEFF 		bl	sprintf
 1470              	.LVL193:
 313:Src/noteDetect.c **** 
 314:Src/noteDetect.c ****     ssd1306_SetCursor(NOTEX, NOTEY);
 1471              		.loc 1 314 0
 1472 0b38 2820     		movs	r0, #40
 1473 0b3a 0146     		mov	r1, r0
 1474 0b3c FFF7FEFF 		bl	ssd1306_SetCursor
 1475              	.LVL194:
 315:Src/noteDetect.c ****     ssd1306_WriteString(note,Font_11x18,Black);
 1476              		.loc 1 315 0
 1477 0b40 754C     		ldr	r4, .L190+88
 1478 0b42 0AA8     		add	r0, sp, #40
 1479 0b44 94E80600 		ldmia	r4, {r1, r2}
 1480 0b48 0023     		movs	r3, #0
 1481 0b4a FFF7FEFF 		bl	ssd1306_WriteString
 1482              	.LVL195:
 316:Src/noteDetect.c ****     ssd1306_SetCursor(FREQX,FREQY);
 1483              		.loc 1 316 0
 1484 0b4e 2820     		movs	r0, #40
 1485 0b50 0F21     		movs	r1, #15
 1486 0b52 FFF7FEFF 		bl	ssd1306_SetCursor
 1487              	.LVL196:
 317:Src/noteDetect.c ****     ssd1306_WriteString(noteFreq,Font_11x18,Black);
 1488              		.loc 1 317 0
 1489 0b56 6846     		mov	r0, sp
 1490 0b58 94E80600 		ldmia	r4, {r1, r2}
 1491 0b5c 0023     		movs	r3, #0
 1492 0b5e FFF7FEFF 		bl	ssd1306_WriteString
 1493              	.LVL197:
 318:Src/noteDetect.c **** 
 319:Src/noteDetect.c ****     ssd1306_UpdateScreen();
 1494              		.loc 1 319 0
 1495 0b62 FFF7FEFF 		bl	ssd1306_UpdateScreen
 1496              	.LVL198:
 320:Src/noteDetect.c ****     HAL_Delay(500);
 1497              		.loc 1 320 0
 1498 0b66 4FF4FA70 		mov	r0, #500
 1499 0b6a FFF7FEFF 		bl	HAL_Delay
 1500              	.LVL199:
 1501 0b6e ABE3     		b	.L1
 1502              	.L66:
 321:Src/noteDetect.c ****   }
 322:Src/noteDetect.c **** 
ARM GAS  /var/folders/bq/zy6zjhwd1qn4sn8dk3jpjcq80000gn/T//ccnteQbj.s 			page 33


 323:Src/noteDetect.c ****   /*A3 note */
 324:Src/noteDetect.c ****   else if(frequency <= 226.45 && frequency >= 213.74){
 1503              		.loc 1 324 0
 1504 0b70 2046     		mov	r0, r4
 1505 0b72 2946     		mov	r1, r5
 1506 0b74 5AA3     		adr	r3, .L190+32
 1507 0b76 D3E90023 		ldrd	r2, [r3]
 1508 0b7a FFF7FEFF 		bl	__aeabi_dcmple
 1509              	.LVL200:
 1510 0b7e 80B3     		cbz	r0, .L69
 1511              		.loc 1 324 0 is_stmt 0 discriminator 1
 1512 0b80 2046     		mov	r0, r4
 1513 0b82 2946     		mov	r1, r5
 1514 0b84 58A3     		adr	r3, .L190+40
 1515 0b86 D3E90023 		ldrd	r2, [r3]
 1516 0b8a FFF7FEFF 		bl	__aeabi_dcmpge
 1517              	.LVL201:
 1518 0b8e 40B3     		cbz	r0, .L69
 325:Src/noteDetect.c ****     sprintf(note, "A3");
 1519              		.loc 1 325 0 is_stmt 1
 1520 0b90 654B     		ldr	r3, .L190+104
 1521 0b92 1B68     		ldr	r3, [r3]
 1522 0b94 ADF82830 		strh	r3, [sp, #40]	@ movhi
 1523 0b98 1B0C     		lsrs	r3, r3, #16
 1524 0b9a 8DF82A30 		strb	r3, [sp, #42]
 326:Src/noteDetect.c ****     sprintf(noteFreq, "%.2f", frequency);
 1525              		.loc 1 326 0
 1526 0b9e 6846     		mov	r0, sp
 1527 0ba0 5C49     		ldr	r1, .L190+84
 1528 0ba2 2246     		mov	r2, r4
 1529 0ba4 2B46     		mov	r3, r5
 1530 0ba6 FFF7FEFF 		bl	sprintf
 1531              	.LVL202:
 327:Src/noteDetect.c **** 
 328:Src/noteDetect.c ****     ssd1306_SetCursor(NOTEX, NOTEY);
 1532              		.loc 1 328 0
 1533 0baa 2820     		movs	r0, #40
 1534 0bac 0146     		mov	r1, r0
 1535 0bae FFF7FEFF 		bl	ssd1306_SetCursor
 1536              	.LVL203:
 329:Src/noteDetect.c ****     ssd1306_WriteString(note,Font_11x18,Black);
 1537              		.loc 1 329 0
 1538 0bb2 594C     		ldr	r4, .L190+88
 1539 0bb4 0AA8     		add	r0, sp, #40
 1540 0bb6 94E80600 		ldmia	r4, {r1, r2}
 1541 0bba 0023     		movs	r3, #0
 1542 0bbc FFF7FEFF 		bl	ssd1306_WriteString
 1543              	.LVL204:
 330:Src/noteDetect.c ****     ssd1306_SetCursor(FREQX,FREQY);
 1544              		.loc 1 330 0
 1545 0bc0 2820     		movs	r0, #40
 1546 0bc2 0F21     		movs	r1, #15
 1547 0bc4 FFF7FEFF 		bl	ssd1306_SetCursor
 1548              	.LVL205:
 331:Src/noteDetect.c ****     ssd1306_WriteString(noteFreq,Font_11x18,Black);
 1549              		.loc 1 331 0
 1550 0bc8 6846     		mov	r0, sp
ARM GAS  /var/folders/bq/zy6zjhwd1qn4sn8dk3jpjcq80000gn/T//ccnteQbj.s 			page 34


 1551 0bca 94E80600 		ldmia	r4, {r1, r2}
 1552 0bce 0023     		movs	r3, #0
 1553 0bd0 FFF7FEFF 		bl	ssd1306_WriteString
 1554              	.LVL206:
 332:Src/noteDetect.c **** 
 333:Src/noteDetect.c ****     ssd1306_UpdateScreen();
 1555              		.loc 1 333 0
 1556 0bd4 FFF7FEFF 		bl	ssd1306_UpdateScreen
 1557              	.LVL207:
 334:Src/noteDetect.c ****     HAL_Delay(500);
 1558              		.loc 1 334 0
 1559 0bd8 4FF4FA70 		mov	r0, #500
 1560 0bdc FFF7FEFF 		bl	HAL_Delay
 1561              	.LVL208:
 1562 0be0 72E3     		b	.L1
 1563              	.L69:
 335:Src/noteDetect.c ****   }
 336:Src/noteDetect.c **** 
 337:Src/noteDetect.c ****   /*Bb3 note */
 338:Src/noteDetect.c ****   else if(frequency <= 239.91 && frequency >= 226.46){
 1564              		.loc 1 338 0
 1565 0be2 2046     		mov	r0, r4
 1566 0be4 2946     		mov	r1, r5
 1567 0be6 42A3     		adr	r3, .L190+48
 1568 0be8 D3E90023 		ldrd	r2, [r3]
 1569 0bec FFF7FEFF 		bl	__aeabi_dcmple
 1570              	.LVL209:
 1571 0bf0 58B3     		cbz	r0, .L72
 1572              		.loc 1 338 0 is_stmt 0 discriminator 1
 1573 0bf2 2046     		mov	r0, r4
 1574 0bf4 2946     		mov	r1, r5
 1575 0bf6 40A3     		adr	r3, .L190+56
 1576 0bf8 D3E90023 		ldrd	r2, [r3]
 1577 0bfc FFF7FEFF 		bl	__aeabi_dcmpge
 1578              	.LVL210:
 1579 0c00 18B3     		cbz	r0, .L72
 339:Src/noteDetect.c ****     sprintf(note, "Bb3");
 1580              		.loc 1 339 0 is_stmt 1
 1581 0c02 4A4B     		ldr	r3, .L190+108
 1582 0c04 0A93     		str	r3, [sp, #40]
 340:Src/noteDetect.c ****     sprintf(noteFreq, "%.2f", frequency);
 1583              		.loc 1 340 0
 1584 0c06 6846     		mov	r0, sp
 1585 0c08 4249     		ldr	r1, .L190+84
 1586 0c0a 2246     		mov	r2, r4
 1587 0c0c 2B46     		mov	r3, r5
 1588 0c0e FFF7FEFF 		bl	sprintf
 1589              	.LVL211:
 341:Src/noteDetect.c **** 
 342:Src/noteDetect.c ****     ssd1306_SetCursor(NOTEX, NOTEY);
 1590              		.loc 1 342 0
 1591 0c12 2820     		movs	r0, #40
 1592 0c14 0146     		mov	r1, r0
 1593 0c16 FFF7FEFF 		bl	ssd1306_SetCursor
 1594              	.LVL212:
 343:Src/noteDetect.c ****     ssd1306_WriteString(note,Font_11x18,Black);
 1595              		.loc 1 343 0
ARM GAS  /var/folders/bq/zy6zjhwd1qn4sn8dk3jpjcq80000gn/T//ccnteQbj.s 			page 35


 1596 0c1a 3F4C     		ldr	r4, .L190+88
 1597 0c1c 0AA8     		add	r0, sp, #40
 1598 0c1e 94E80600 		ldmia	r4, {r1, r2}
 1599 0c22 0023     		movs	r3, #0
 1600 0c24 FFF7FEFF 		bl	ssd1306_WriteString
 1601              	.LVL213:
 344:Src/noteDetect.c ****     ssd1306_SetCursor(FREQX,FREQY);
 1602              		.loc 1 344 0
 1603 0c28 2820     		movs	r0, #40
 1604 0c2a 0F21     		movs	r1, #15
 1605 0c2c FFF7FEFF 		bl	ssd1306_SetCursor
 1606              	.LVL214:
 345:Src/noteDetect.c ****     ssd1306_WriteString(noteFreq,Font_11x18,Black);
 1607              		.loc 1 345 0
 1608 0c30 6846     		mov	r0, sp
 1609 0c32 94E80600 		ldmia	r4, {r1, r2}
 1610 0c36 0023     		movs	r3, #0
 1611 0c38 FFF7FEFF 		bl	ssd1306_WriteString
 1612              	.LVL215:
 346:Src/noteDetect.c **** 
 347:Src/noteDetect.c ****     ssd1306_UpdateScreen();
 1613              		.loc 1 347 0
 1614 0c3c FFF7FEFF 		bl	ssd1306_UpdateScreen
 1615              	.LVL216:
 348:Src/noteDetect.c ****     HAL_Delay(500);
 1616              		.loc 1 348 0
 1617 0c40 4FF4FA70 		mov	r0, #500
 1618 0c44 FFF7FEFF 		bl	HAL_Delay
 1619              	.LVL217:
 1620 0c48 3EE3     		b	.L1
 1621              	.L72:
 349:Src/noteDetect.c ****   }
 350:Src/noteDetect.c **** 
 351:Src/noteDetect.c ****   /*B3 note */
 352:Src/noteDetect.c ****   else if(frequency <= 254.18 && frequency >= 239.92){
 1622              		.loc 1 352 0
 1623 0c4a 2046     		mov	r0, r4
 1624 0c4c 2946     		mov	r1, r5
 1625 0c4e 2CA3     		adr	r3, .L190+64
 1626 0c50 D3E90023 		ldrd	r2, [r3]
 1627 0c54 FFF7FEFF 		bl	__aeabi_dcmple
 1628              	.LVL218:
 1629 0c58 0028     		cmp	r0, #0
 1630 0c5a 6FD0     		beq	.L75
 1631              		.loc 1 352 0 is_stmt 0 discriminator 1
 1632 0c5c 2046     		mov	r0, r4
 1633 0c5e 2946     		mov	r1, r5
 1634 0c60 29A3     		adr	r3, .L190+72
 1635 0c62 D3E90023 		ldrd	r2, [r3]
 1636 0c66 FFF7FEFF 		bl	__aeabi_dcmpge
 1637              	.LVL219:
 1638 0c6a 0028     		cmp	r0, #0
 1639 0c6c 66D0     		beq	.L75
 353:Src/noteDetect.c ****     sprintf(note, "B3");
 1640              		.loc 1 353 0 is_stmt 1
 1641 0c6e 304B     		ldr	r3, .L190+112
 1642 0c70 1B68     		ldr	r3, [r3]
ARM GAS  /var/folders/bq/zy6zjhwd1qn4sn8dk3jpjcq80000gn/T//ccnteQbj.s 			page 36


 1643 0c72 ADF82830 		strh	r3, [sp, #40]	@ movhi
 1644 0c76 1B0C     		lsrs	r3, r3, #16
 1645 0c78 8DF82A30 		strb	r3, [sp, #42]
 354:Src/noteDetect.c ****     sprintf(noteFreq, "%.2f", frequency);
 1646              		.loc 1 354 0
 1647 0c7c 6846     		mov	r0, sp
 1648 0c7e 2549     		ldr	r1, .L190+84
 1649 0c80 2246     		mov	r2, r4
 1650 0c82 2B46     		mov	r3, r5
 1651 0c84 FFF7FEFF 		bl	sprintf
 1652              	.LVL220:
 355:Src/noteDetect.c **** 
 356:Src/noteDetect.c ****     ssd1306_SetCursor(NOTEX, NOTEY);
 1653              		.loc 1 356 0
 1654 0c88 2820     		movs	r0, #40
 1655 0c8a 0146     		mov	r1, r0
 1656 0c8c FFF7FEFF 		bl	ssd1306_SetCursor
 1657              	.LVL221:
 357:Src/noteDetect.c ****     ssd1306_WriteString(note,Font_11x18,Black);
 1658              		.loc 1 357 0
 1659 0c90 214C     		ldr	r4, .L190+88
 1660 0c92 0AA8     		add	r0, sp, #40
 1661 0c94 94E80600 		ldmia	r4, {r1, r2}
 1662 0c98 0023     		movs	r3, #0
 1663 0c9a FFF7FEFF 		bl	ssd1306_WriteString
 1664              	.LVL222:
 358:Src/noteDetect.c ****     ssd1306_SetCursor(FREQX,FREQY);
 1665              		.loc 1 358 0
 1666 0c9e 2820     		movs	r0, #40
 1667 0ca0 0F21     		movs	r1, #15
 1668 0ca2 FFF7FEFF 		bl	ssd1306_SetCursor
 1669              	.LVL223:
 359:Src/noteDetect.c ****     ssd1306_WriteString(noteFreq,Font_11x18,Black);
 1670              		.loc 1 359 0
 1671 0ca6 6846     		mov	r0, sp
 1672 0ca8 94E80600 		ldmia	r4, {r1, r2}
 1673 0cac 0023     		movs	r3, #0
 1674 0cae FFF7FEFF 		bl	ssd1306_WriteString
 1675              	.LVL224:
 360:Src/noteDetect.c **** 
 361:Src/noteDetect.c ****     ssd1306_UpdateScreen();
 1676              		.loc 1 361 0
 1677 0cb2 FFF7FEFF 		bl	ssd1306_UpdateScreen
 1678              	.LVL225:
 362:Src/noteDetect.c ****     HAL_Delay(500);
 1679              		.loc 1 362 0
 1680 0cb6 4FF4FA70 		mov	r0, #500
 1681 0cba FFF7FEFF 		bl	HAL_Delay
 1682              	.LVL226:
 1683 0cbe 03E3     		b	.L1
 1684              	.L191:
 1685              		.align	3
 1686              	.L190:
 1687 0cc0 3D0AD7A3 		.word	2748779069
 1688 0cc4 70CD6740 		.word	1080544624
 1689 0cc8 B81E85EB 		.word	3951369912
 1690 0ccc 51986640 		.word	1080465489
ARM GAS  /var/folders/bq/zy6zjhwd1qn4sn8dk3jpjcq80000gn/T//ccnteQbj.s 			page 37


 1691 0cd0 B81E85EB 		.word	3951369912
 1692 0cd4 51386940 		.word	1080637521
 1693 0cd8 8FC2F528 		.word	687194767
 1694 0cdc 5CB76A40 		.word	1080735580
 1695 0ce0 66666666 		.word	1717986918
 1696 0ce4 664E6C40 		.word	1080839782
 1697 0ce8 48E17A14 		.word	343597384
 1698 0cec AEB76A40 		.word	1080735662
 1699 0cf0 85EB51B8 		.word	3092376453
 1700 0cf4 1EFD6D40 		.word	1080950046
 1701 0cf8 1F85EB51 		.word	1374389535
 1702 0cfc B84E6C40 		.word	1080839864
 1703 0d00 F6285C8F 		.word	2405181686
 1704 0d04 C2C56F40 		.word	1081066946
 1705 0d08 3D0AD7A3 		.word	2748779069
 1706 0d0c 70FD6D40 		.word	1080950128
 1707 0d10 3C000000 		.word	.LC14
 1708 0d14 10000000 		.word	.LC4
 1709 0d18 00000000 		.word	Font_11x18
 1710 0d1c 47623300 		.word	3367495
 1711 0d20 40000000 		.word	.LC15
 1712 0d24 41623300 		.word	3367489
 1713 0d28 44000000 		.word	.LC16
 1714 0d2c 42623300 		.word	3367490
 1715 0d30 48000000 		.word	.LC17
 1716 0d34 CDCCCCCC 		.word	3435973837
 1717 0d38 CC346540 		.word	1080374476
 1718              	.L75:
 363:Src/noteDetect.c ****   }
 364:Src/noteDetect.c **** 
 365:Src/noteDetect.c ****   /*C4 note */
 366:Src/noteDetect.c ****   else if(frequency <= 269.29 && frequency >= 254.19){
 1719              		.loc 1 366 0
 1720 0d3c 2046     		mov	r0, r4
 1721 0d3e 2946     		mov	r1, r5
 1722 0d40 C1A3     		adr	r3, .L192+8
 1723 0d42 D3E90023 		ldrd	r2, [r3]
 1724 0d46 FFF7FEFF 		bl	__aeabi_dcmple
 1725              	.LVL227:
 1726 0d4a 80B3     		cbz	r0, .L78
 1727              		.loc 1 366 0 is_stmt 0 discriminator 1
 1728 0d4c 2046     		mov	r0, r4
 1729 0d4e 2946     		mov	r1, r5
 1730 0d50 DBA3     		adr	r3, .L192+128
 1731 0d52 D3E90023 		ldrd	r2, [r3]
 1732 0d56 FFF7FEFF 		bl	__aeabi_dcmpge
 1733              	.LVL228:
 1734 0d5a 40B3     		cbz	r0, .L78
 367:Src/noteDetect.c ****     sprintf(note, "C4");
 1735              		.loc 1 367 0 is_stmt 1
 1736 0d5c CE4B     		ldr	r3, .L192+88
 1737 0d5e 1B68     		ldr	r3, [r3]
 1738 0d60 ADF82830 		strh	r3, [sp, #40]	@ movhi
 1739 0d64 1B0C     		lsrs	r3, r3, #16
 1740 0d66 8DF82A30 		strb	r3, [sp, #42]
 368:Src/noteDetect.c ****     sprintf(noteFreq, "%.2f", frequency);
 1741              		.loc 1 368 0
ARM GAS  /var/folders/bq/zy6zjhwd1qn4sn8dk3jpjcq80000gn/T//ccnteQbj.s 			page 38


 1742 0d6a 6846     		mov	r0, sp
 1743 0d6c CB49     		ldr	r1, .L192+92
 1744 0d6e 2246     		mov	r2, r4
 1745 0d70 2B46     		mov	r3, r5
 1746 0d72 FFF7FEFF 		bl	sprintf
 1747              	.LVL229:
 369:Src/noteDetect.c **** 
 370:Src/noteDetect.c ****     ssd1306_SetCursor(NOTEX, NOTEY);
 1748              		.loc 1 370 0
 1749 0d76 2820     		movs	r0, #40
 1750 0d78 0146     		mov	r1, r0
 1751 0d7a FFF7FEFF 		bl	ssd1306_SetCursor
 1752              	.LVL230:
 371:Src/noteDetect.c ****     ssd1306_WriteString(note,Font_11x18,Black);
 1753              		.loc 1 371 0
 1754 0d7e C84C     		ldr	r4, .L192+96
 1755 0d80 0AA8     		add	r0, sp, #40
 1756 0d82 94E80600 		ldmia	r4, {r1, r2}
 1757 0d86 0023     		movs	r3, #0
 1758 0d88 FFF7FEFF 		bl	ssd1306_WriteString
 1759              	.LVL231:
 372:Src/noteDetect.c ****     ssd1306_SetCursor(FREQX,FREQY);
 1760              		.loc 1 372 0
 1761 0d8c 2820     		movs	r0, #40
 1762 0d8e 0F21     		movs	r1, #15
 1763 0d90 FFF7FEFF 		bl	ssd1306_SetCursor
 1764              	.LVL232:
 373:Src/noteDetect.c ****     ssd1306_WriteString(noteFreq,Font_11x18,Black);
 1765              		.loc 1 373 0
 1766 0d94 6846     		mov	r0, sp
 1767 0d96 94E80600 		ldmia	r4, {r1, r2}
 1768 0d9a 0023     		movs	r3, #0
 1769 0d9c FFF7FEFF 		bl	ssd1306_WriteString
 1770              	.LVL233:
 374:Src/noteDetect.c **** 
 375:Src/noteDetect.c ****     ssd1306_UpdateScreen();
 1771              		.loc 1 375 0
 1772 0da0 FFF7FEFF 		bl	ssd1306_UpdateScreen
 1773              	.LVL234:
 376:Src/noteDetect.c ****     HAL_Delay(500);
 1774              		.loc 1 376 0
 1775 0da4 4FF4FA70 		mov	r0, #500
 1776 0da8 FFF7FEFF 		bl	HAL_Delay
 1777              	.LVL235:
 1778 0dac 8CE2     		b	.L1
 1779              	.L78:
 377:Src/noteDetect.c ****   }
 378:Src/noteDetect.c **** 
 379:Src/noteDetect.c ****   /*Db4 note */
 380:Src/noteDetect.c ****   else if(frequency <= 285.3 && frequency >= 269.29){
 1780              		.loc 1 380 0
 1781 0dae 2046     		mov	r0, r4
 1782 0db0 2946     		mov	r1, r5
 1783 0db2 A3A3     		adr	r3, .L192
 1784 0db4 D3E90023 		ldrd	r2, [r3]
 1785 0db8 FFF7FEFF 		bl	__aeabi_dcmple
 1786              	.LVL236:
ARM GAS  /var/folders/bq/zy6zjhwd1qn4sn8dk3jpjcq80000gn/T//ccnteQbj.s 			page 39


 1787 0dbc 58B3     		cbz	r0, .L81
 1788              		.loc 1 380 0 is_stmt 0 discriminator 1
 1789 0dbe 2046     		mov	r0, r4
 1790 0dc0 2946     		mov	r1, r5
 1791 0dc2 A1A3     		adr	r3, .L192+8
 1792 0dc4 D3E90023 		ldrd	r2, [r3]
 1793 0dc8 FFF7FEFF 		bl	__aeabi_dcmpge
 1794              	.LVL237:
 1795 0dcc 18B3     		cbz	r0, .L81
 381:Src/noteDetect.c ****     sprintf(note, "Db4");
 1796              		.loc 1 381 0 is_stmt 1
 1797 0dce B54B     		ldr	r3, .L192+100
 1798 0dd0 0A93     		str	r3, [sp, #40]
 382:Src/noteDetect.c ****     sprintf(noteFreq, "%.2f", frequency);
 1799              		.loc 1 382 0
 1800 0dd2 6846     		mov	r0, sp
 1801 0dd4 B149     		ldr	r1, .L192+92
 1802 0dd6 2246     		mov	r2, r4
 1803 0dd8 2B46     		mov	r3, r5
 1804 0dda FFF7FEFF 		bl	sprintf
 1805              	.LVL238:
 383:Src/noteDetect.c **** 
 384:Src/noteDetect.c ****     ssd1306_SetCursor(NOTEX, NOTEY);
 1806              		.loc 1 384 0
 1807 0dde 2820     		movs	r0, #40
 1808 0de0 0146     		mov	r1, r0
 1809 0de2 FFF7FEFF 		bl	ssd1306_SetCursor
 1810              	.LVL239:
 385:Src/noteDetect.c ****     ssd1306_WriteString(note,Font_11x18,Black);
 1811              		.loc 1 385 0
 1812 0de6 AE4C     		ldr	r4, .L192+96
 1813 0de8 0AA8     		add	r0, sp, #40
 1814 0dea 94E80600 		ldmia	r4, {r1, r2}
 1815 0dee 0023     		movs	r3, #0
 1816 0df0 FFF7FEFF 		bl	ssd1306_WriteString
 1817              	.LVL240:
 386:Src/noteDetect.c ****     ssd1306_SetCursor(FREQX,FREQY);
 1818              		.loc 1 386 0
 1819 0df4 2820     		movs	r0, #40
 1820 0df6 0F21     		movs	r1, #15
 1821 0df8 FFF7FEFF 		bl	ssd1306_SetCursor
 1822              	.LVL241:
 387:Src/noteDetect.c ****     ssd1306_WriteString(noteFreq,Font_11x18,Black);
 1823              		.loc 1 387 0
 1824 0dfc 6846     		mov	r0, sp
 1825 0dfe 94E80600 		ldmia	r4, {r1, r2}
 1826 0e02 0023     		movs	r3, #0
 1827 0e04 FFF7FEFF 		bl	ssd1306_WriteString
 1828              	.LVL242:
 388:Src/noteDetect.c **** 
 389:Src/noteDetect.c ****     ssd1306_UpdateScreen();
 1829              		.loc 1 389 0
 1830 0e08 FFF7FEFF 		bl	ssd1306_UpdateScreen
 1831              	.LVL243:
 390:Src/noteDetect.c ****     HAL_Delay(500);
 1832              		.loc 1 390 0
 1833 0e0c 4FF4FA70 		mov	r0, #500
ARM GAS  /var/folders/bq/zy6zjhwd1qn4sn8dk3jpjcq80000gn/T//ccnteQbj.s 			page 40


 1834 0e10 FFF7FEFF 		bl	HAL_Delay
 1835              	.LVL244:
 1836 0e14 58E2     		b	.L1
 1837              	.L81:
 391:Src/noteDetect.c ****   }
 392:Src/noteDetect.c **** 
 393:Src/noteDetect.c ****   /*D4 note */
 394:Src/noteDetect.c ****   else if(frequency <= 302.26 && frequency >= 285.31){
 1838              		.loc 1 394 0
 1839 0e16 2046     		mov	r0, r4
 1840 0e18 2946     		mov	r1, r5
 1841 0e1a 8DA3     		adr	r3, .L192+16
 1842 0e1c D3E90023 		ldrd	r2, [r3]
 1843 0e20 FFF7FEFF 		bl	__aeabi_dcmple
 1844              	.LVL245:
 1845 0e24 80B3     		cbz	r0, .L84
 1846              		.loc 1 394 0 is_stmt 0 discriminator 1
 1847 0e26 2046     		mov	r0, r4
 1848 0e28 2946     		mov	r1, r5
 1849 0e2a 8BA3     		adr	r3, .L192+24
 1850 0e2c D3E90023 		ldrd	r2, [r3]
 1851 0e30 FFF7FEFF 		bl	__aeabi_dcmpge
 1852              	.LVL246:
 1853 0e34 40B3     		cbz	r0, .L84
 395:Src/noteDetect.c ****     sprintf(note, "D4");
 1854              		.loc 1 395 0 is_stmt 1
 1855 0e36 9C4B     		ldr	r3, .L192+104
 1856 0e38 1B68     		ldr	r3, [r3]
 1857 0e3a ADF82830 		strh	r3, [sp, #40]	@ movhi
 1858 0e3e 1B0C     		lsrs	r3, r3, #16
 1859 0e40 8DF82A30 		strb	r3, [sp, #42]
 396:Src/noteDetect.c ****     sprintf(noteFreq, "%.2f", frequency);
 1860              		.loc 1 396 0
 1861 0e44 6846     		mov	r0, sp
 1862 0e46 9549     		ldr	r1, .L192+92
 1863 0e48 2246     		mov	r2, r4
 1864 0e4a 2B46     		mov	r3, r5
 1865 0e4c FFF7FEFF 		bl	sprintf
 1866              	.LVL247:
 397:Src/noteDetect.c **** 
 398:Src/noteDetect.c ****     ssd1306_SetCursor(NOTEX, NOTEY);
 1867              		.loc 1 398 0
 1868 0e50 2820     		movs	r0, #40
 1869 0e52 0146     		mov	r1, r0
 1870 0e54 FFF7FEFF 		bl	ssd1306_SetCursor
 1871              	.LVL248:
 399:Src/noteDetect.c ****     ssd1306_WriteString(note,Font_11x18,Black);
 1872              		.loc 1 399 0
 1873 0e58 914C     		ldr	r4, .L192+96
 1874 0e5a 0AA8     		add	r0, sp, #40
 1875 0e5c 94E80600 		ldmia	r4, {r1, r2}
 1876 0e60 0023     		movs	r3, #0
 1877 0e62 FFF7FEFF 		bl	ssd1306_WriteString
 1878              	.LVL249:
 400:Src/noteDetect.c ****     ssd1306_SetCursor(FREQX,FREQY);
 1879              		.loc 1 400 0
 1880 0e66 2820     		movs	r0, #40
ARM GAS  /var/folders/bq/zy6zjhwd1qn4sn8dk3jpjcq80000gn/T//ccnteQbj.s 			page 41


 1881 0e68 0F21     		movs	r1, #15
 1882 0e6a FFF7FEFF 		bl	ssd1306_SetCursor
 1883              	.LVL250:
 401:Src/noteDetect.c ****     ssd1306_WriteString(noteFreq,Font_11x18,Black);
 1884              		.loc 1 401 0
 1885 0e6e 6846     		mov	r0, sp
 1886 0e70 94E80600 		ldmia	r4, {r1, r2}
 1887 0e74 0023     		movs	r3, #0
 1888 0e76 FFF7FEFF 		bl	ssd1306_WriteString
 1889              	.LVL251:
 402:Src/noteDetect.c **** 
 403:Src/noteDetect.c ****     ssd1306_UpdateScreen();
 1890              		.loc 1 403 0
 1891 0e7a FFF7FEFF 		bl	ssd1306_UpdateScreen
 1892              	.LVL252:
 404:Src/noteDetect.c ****     HAL_Delay(500);
 1893              		.loc 1 404 0
 1894 0e7e 4FF4FA70 		mov	r0, #500
 1895 0e82 FFF7FEFF 		bl	HAL_Delay
 1896              	.LVL253:
 1897 0e86 1FE2     		b	.L1
 1898              	.L84:
 405:Src/noteDetect.c ****   }
 406:Src/noteDetect.c **** 
 407:Src/noteDetect.c ****   /*Eb4 note */
 408:Src/noteDetect.c ****   else if(frequency <= 320.25 && frequency >= 392.27){
 1899              		.loc 1 408 0
 1900 0e88 DFED887A 		flds	s15, .L192+108
 1901 0e8c B4EEE78A 		fcmpes	s16, s15
 1902 0e90 F1EE10FA 		fmstat
 1903 0e94 2BD8     		bhi	.L87
 1904              		.loc 1 408 0 is_stmt 0 discriminator 1
 1905 0e96 2046     		mov	r0, r4
 1906 0e98 2946     		mov	r1, r5
 1907 0e9a 71A3     		adr	r3, .L192+32
 1908 0e9c D3E90023 		ldrd	r2, [r3]
 1909 0ea0 FFF7FEFF 		bl	__aeabi_dcmpge
 1910              	.LVL254:
 1911 0ea4 18B3     		cbz	r0, .L87
 409:Src/noteDetect.c ****     sprintf(note, "Eb4");
 1912              		.loc 1 409 0 is_stmt 1
 1913 0ea6 824B     		ldr	r3, .L192+112
 1914 0ea8 0A93     		str	r3, [sp, #40]
 410:Src/noteDetect.c ****     sprintf(noteFreq, "%.2f", frequency);
 1915              		.loc 1 410 0
 1916 0eaa 6846     		mov	r0, sp
 1917 0eac 7B49     		ldr	r1, .L192+92
 1918 0eae 2246     		mov	r2, r4
 1919 0eb0 2B46     		mov	r3, r5
 1920 0eb2 FFF7FEFF 		bl	sprintf
 1921              	.LVL255:
 411:Src/noteDetect.c **** 
 412:Src/noteDetect.c ****     ssd1306_SetCursor(NOTEX, NOTEY);
 1922              		.loc 1 412 0
 1923 0eb6 2820     		movs	r0, #40
 1924 0eb8 0146     		mov	r1, r0
 1925 0eba FFF7FEFF 		bl	ssd1306_SetCursor
ARM GAS  /var/folders/bq/zy6zjhwd1qn4sn8dk3jpjcq80000gn/T//ccnteQbj.s 			page 42


 1926              	.LVL256:
 413:Src/noteDetect.c ****     ssd1306_WriteString(note,Font_11x18,Black);
 1927              		.loc 1 413 0
 1928 0ebe 784C     		ldr	r4, .L192+96
 1929 0ec0 0AA8     		add	r0, sp, #40
 1930 0ec2 94E80600 		ldmia	r4, {r1, r2}
 1931 0ec6 0023     		movs	r3, #0
 1932 0ec8 FFF7FEFF 		bl	ssd1306_WriteString
 1933              	.LVL257:
 414:Src/noteDetect.c ****     ssd1306_SetCursor(FREQX,FREQY);
 1934              		.loc 1 414 0
 1935 0ecc 2820     		movs	r0, #40
 1936 0ece 0F21     		movs	r1, #15
 1937 0ed0 FFF7FEFF 		bl	ssd1306_SetCursor
 1938              	.LVL258:
 415:Src/noteDetect.c ****     ssd1306_WriteString(noteFreq,Font_11x18,Black);
 1939              		.loc 1 415 0
 1940 0ed4 6846     		mov	r0, sp
 1941 0ed6 94E80600 		ldmia	r4, {r1, r2}
 1942 0eda 0023     		movs	r3, #0
 1943 0edc FFF7FEFF 		bl	ssd1306_WriteString
 1944              	.LVL259:
 416:Src/noteDetect.c **** 
 417:Src/noteDetect.c ****     ssd1306_UpdateScreen();
 1945              		.loc 1 417 0
 1946 0ee0 FFF7FEFF 		bl	ssd1306_UpdateScreen
 1947              	.LVL260:
 418:Src/noteDetect.c ****     HAL_Delay(500);
 1948              		.loc 1 418 0
 1949 0ee4 4FF4FA70 		mov	r0, #500
 1950 0ee8 FFF7FEFF 		bl	HAL_Delay
 1951              	.LVL261:
 1952 0eec ECE1     		b	.L1
 1953              	.L87:
 419:Src/noteDetect.c ****   }
 420:Src/noteDetect.c **** 
 421:Src/noteDetect.c ****   /*E4 note */
 422:Src/noteDetect.c ****   else if(frequency <= 339.29 && frequency >= 320.26){
 1954              		.loc 1 422 0
 1955 0eee 2046     		mov	r0, r4
 1956 0ef0 2946     		mov	r1, r5
 1957 0ef2 5DA3     		adr	r3, .L192+40
 1958 0ef4 D3E90023 		ldrd	r2, [r3]
 1959 0ef8 FFF7FEFF 		bl	__aeabi_dcmple
 1960              	.LVL262:
 1961 0efc 80B3     		cbz	r0, .L90
 1962              		.loc 1 422 0 is_stmt 0 discriminator 1
 1963 0efe 2046     		mov	r0, r4
 1964 0f00 2946     		mov	r1, r5
 1965 0f02 5BA3     		adr	r3, .L192+48
 1966 0f04 D3E90023 		ldrd	r2, [r3]
 1967 0f08 FFF7FEFF 		bl	__aeabi_dcmpge
 1968              	.LVL263:
 1969 0f0c 40B3     		cbz	r0, .L90
 423:Src/noteDetect.c ****     sprintf(note, "E4");
 1970              		.loc 1 423 0 is_stmt 1
 1971 0f0e 694B     		ldr	r3, .L192+116
ARM GAS  /var/folders/bq/zy6zjhwd1qn4sn8dk3jpjcq80000gn/T//ccnteQbj.s 			page 43


 1972 0f10 1B68     		ldr	r3, [r3]
 1973 0f12 ADF82830 		strh	r3, [sp, #40]	@ movhi
 1974 0f16 1B0C     		lsrs	r3, r3, #16
 1975 0f18 8DF82A30 		strb	r3, [sp, #42]
 424:Src/noteDetect.c ****     sprintf(noteFreq, "%.2f", frequency);
 1976              		.loc 1 424 0
 1977 0f1c 6846     		mov	r0, sp
 1978 0f1e 5F49     		ldr	r1, .L192+92
 1979 0f20 2246     		mov	r2, r4
 1980 0f22 2B46     		mov	r3, r5
 1981 0f24 FFF7FEFF 		bl	sprintf
 1982              	.LVL264:
 425:Src/noteDetect.c **** 
 426:Src/noteDetect.c ****     ssd1306_SetCursor(NOTEX, NOTEY);
 1983              		.loc 1 426 0
 1984 0f28 2820     		movs	r0, #40
 1985 0f2a 0146     		mov	r1, r0
 1986 0f2c FFF7FEFF 		bl	ssd1306_SetCursor
 1987              	.LVL265:
 427:Src/noteDetect.c ****     ssd1306_WriteString(note,Font_11x18,Black);
 1988              		.loc 1 427 0
 1989 0f30 5B4C     		ldr	r4, .L192+96
 1990 0f32 0AA8     		add	r0, sp, #40
 1991 0f34 94E80600 		ldmia	r4, {r1, r2}
 1992 0f38 0023     		movs	r3, #0
 1993 0f3a FFF7FEFF 		bl	ssd1306_WriteString
 1994              	.LVL266:
 428:Src/noteDetect.c ****     ssd1306_SetCursor(FREQX,FREQY);
 1995              		.loc 1 428 0
 1996 0f3e 2820     		movs	r0, #40
 1997 0f40 0F21     		movs	r1, #15
 1998 0f42 FFF7FEFF 		bl	ssd1306_SetCursor
 1999              	.LVL267:
 429:Src/noteDetect.c ****     ssd1306_WriteString(noteFreq,Font_11x18,Black);
 2000              		.loc 1 429 0
 2001 0f46 6846     		mov	r0, sp
 2002 0f48 94E80600 		ldmia	r4, {r1, r2}
 2003 0f4c 0023     		movs	r3, #0
 2004 0f4e FFF7FEFF 		bl	ssd1306_WriteString
 2005              	.LVL268:
 430:Src/noteDetect.c **** 
 431:Src/noteDetect.c ****     ssd1306_UpdateScreen();
 2006              		.loc 1 431 0
 2007 0f52 FFF7FEFF 		bl	ssd1306_UpdateScreen
 2008              	.LVL269:
 432:Src/noteDetect.c ****     HAL_Delay(500);
 2009              		.loc 1 432 0
 2010 0f56 4FF4FA70 		mov	r0, #500
 2011 0f5a FFF7FEFF 		bl	HAL_Delay
 2012              	.LVL270:
 2013 0f5e B3E1     		b	.L1
 2014              	.L90:
 433:Src/noteDetect.c ****   }
 434:Src/noteDetect.c **** 
 435:Src/noteDetect.c ****   /*F4 note */
 436:Src/noteDetect.c ****   else if(frequency <= 359.46 && frequency >= 339.30){
 2015              		.loc 1 436 0
ARM GAS  /var/folders/bq/zy6zjhwd1qn4sn8dk3jpjcq80000gn/T//ccnteQbj.s 			page 44


 2016 0f60 2046     		mov	r0, r4
 2017 0f62 2946     		mov	r1, r5
 2018 0f64 44A3     		adr	r3, .L192+56
 2019 0f66 D3E90023 		ldrd	r2, [r3]
 2020 0f6a FFF7FEFF 		bl	__aeabi_dcmple
 2021              	.LVL271:
 2022 0f6e 80B3     		cbz	r0, .L93
 2023              		.loc 1 436 0 is_stmt 0 discriminator 1
 2024 0f70 2046     		mov	r0, r4
 2025 0f72 2946     		mov	r1, r5
 2026 0f74 42A3     		adr	r3, .L192+64
 2027 0f76 D3E90023 		ldrd	r2, [r3]
 2028 0f7a FFF7FEFF 		bl	__aeabi_dcmpge
 2029              	.LVL272:
 2030 0f7e 40B3     		cbz	r0, .L93
 437:Src/noteDetect.c ****     sprintf(note, "F4");
 2031              		.loc 1 437 0 is_stmt 1
 2032 0f80 4D4B     		ldr	r3, .L192+120
 2033 0f82 1B68     		ldr	r3, [r3]
 2034 0f84 ADF82830 		strh	r3, [sp, #40]	@ movhi
 2035 0f88 1B0C     		lsrs	r3, r3, #16
 2036 0f8a 8DF82A30 		strb	r3, [sp, #42]
 438:Src/noteDetect.c ****     sprintf(noteFreq, "%.2f", frequency);
 2037              		.loc 1 438 0
 2038 0f8e 6846     		mov	r0, sp
 2039 0f90 4249     		ldr	r1, .L192+92
 2040 0f92 2246     		mov	r2, r4
 2041 0f94 2B46     		mov	r3, r5
 2042 0f96 FFF7FEFF 		bl	sprintf
 2043              	.LVL273:
 439:Src/noteDetect.c **** 
 440:Src/noteDetect.c ****     ssd1306_SetCursor(NOTEX, NOTEY);
 2044              		.loc 1 440 0
 2045 0f9a 2820     		movs	r0, #40
 2046 0f9c 0146     		mov	r1, r0
 2047 0f9e FFF7FEFF 		bl	ssd1306_SetCursor
 2048              	.LVL274:
 441:Src/noteDetect.c ****     ssd1306_WriteString(note,Font_11x18,Black);
 2049              		.loc 1 441 0
 2050 0fa2 3F4C     		ldr	r4, .L192+96
 2051 0fa4 0AA8     		add	r0, sp, #40
 2052 0fa6 94E80600 		ldmia	r4, {r1, r2}
 2053 0faa 0023     		movs	r3, #0
 2054 0fac FFF7FEFF 		bl	ssd1306_WriteString
 2055              	.LVL275:
 442:Src/noteDetect.c ****     ssd1306_SetCursor(FREQX,FREQY);
 2056              		.loc 1 442 0
 2057 0fb0 2820     		movs	r0, #40
 2058 0fb2 0F21     		movs	r1, #15
 2059 0fb4 FFF7FEFF 		bl	ssd1306_SetCursor
 2060              	.LVL276:
 443:Src/noteDetect.c ****     ssd1306_WriteString(noteFreq,Font_11x18,Black);
 2061              		.loc 1 443 0
 2062 0fb8 6846     		mov	r0, sp
 2063 0fba 94E80600 		ldmia	r4, {r1, r2}
 2064 0fbe 0023     		movs	r3, #0
 2065 0fc0 FFF7FEFF 		bl	ssd1306_WriteString
ARM GAS  /var/folders/bq/zy6zjhwd1qn4sn8dk3jpjcq80000gn/T//ccnteQbj.s 			page 45


 2066              	.LVL277:
 444:Src/noteDetect.c **** 
 445:Src/noteDetect.c ****     ssd1306_UpdateScreen();
 2067              		.loc 1 445 0
 2068 0fc4 FFF7FEFF 		bl	ssd1306_UpdateScreen
 2069              	.LVL278:
 446:Src/noteDetect.c ****     HAL_Delay(500);
 2070              		.loc 1 446 0
 2071 0fc8 4FF4FA70 		mov	r0, #500
 2072 0fcc FFF7FEFF 		bl	HAL_Delay
 2073              	.LVL279:
 2074 0fd0 7AE1     		b	.L1
 2075              	.L93:
 447:Src/noteDetect.c ****   }
 448:Src/noteDetect.c **** 
 449:Src/noteDetect.c ****   /*Gb4 note */
 450:Src/noteDetect.c ****   else if(frequency <= 380.83 && frequency >= 359.47){
 2076              		.loc 1 450 0
 2077 0fd2 2046     		mov	r0, r4
 2078 0fd4 2946     		mov	r1, r5
 2079 0fd6 2CA3     		adr	r3, .L192+72
 2080 0fd8 D3E90023 		ldrd	r2, [r3]
 2081 0fdc FFF7FEFF 		bl	__aeabi_dcmple
 2082              	.LVL280:
 2083 0fe0 0028     		cmp	r0, #0
 2084 0fe2 71D0     		beq	.L96
 2085              		.loc 1 450 0 is_stmt 0 discriminator 1
 2086 0fe4 2046     		mov	r0, r4
 2087 0fe6 2946     		mov	r1, r5
 2088 0fe8 29A3     		adr	r3, .L192+80
 2089 0fea D3E90023 		ldrd	r2, [r3]
 2090 0fee FFF7FEFF 		bl	__aeabi_dcmpge
 2091              	.LVL281:
 2092 0ff2 0028     		cmp	r0, #0
 2093 0ff4 68D0     		beq	.L96
 451:Src/noteDetect.c ****     sprintf(note, "Gb4");
 2094              		.loc 1 451 0 is_stmt 1
 2095 0ff6 314B     		ldr	r3, .L192+124
 2096 0ff8 0A93     		str	r3, [sp, #40]
 452:Src/noteDetect.c ****     sprintf(noteFreq, "%.2f", frequency);
 2097              		.loc 1 452 0
 2098 0ffa 6846     		mov	r0, sp
 2099 0ffc 2749     		ldr	r1, .L192+92
 2100 0ffe 2246     		mov	r2, r4
 2101 1000 2B46     		mov	r3, r5
 2102 1002 FFF7FEFF 		bl	sprintf
 2103              	.LVL282:
 453:Src/noteDetect.c **** 
 454:Src/noteDetect.c ****     ssd1306_SetCursor(NOTEX, NOTEY);
 2104              		.loc 1 454 0
 2105 1006 2820     		movs	r0, #40
 2106 1008 0146     		mov	r1, r0
 2107 100a FFF7FEFF 		bl	ssd1306_SetCursor
 2108              	.LVL283:
 455:Src/noteDetect.c ****     ssd1306_WriteString(note,Font_11x18,Black);
 2109              		.loc 1 455 0
 2110 100e 244C     		ldr	r4, .L192+96
ARM GAS  /var/folders/bq/zy6zjhwd1qn4sn8dk3jpjcq80000gn/T//ccnteQbj.s 			page 46


 2111 1010 0AA8     		add	r0, sp, #40
 2112 1012 94E80600 		ldmia	r4, {r1, r2}
 2113 1016 0023     		movs	r3, #0
 2114 1018 FFF7FEFF 		bl	ssd1306_WriteString
 2115              	.LVL284:
 456:Src/noteDetect.c ****     ssd1306_SetCursor(FREQX,FREQY);
 2116              		.loc 1 456 0
 2117 101c 2820     		movs	r0, #40
 2118 101e 0F21     		movs	r1, #15
 2119 1020 FFF7FEFF 		bl	ssd1306_SetCursor
 2120              	.LVL285:
 457:Src/noteDetect.c ****     ssd1306_WriteString(noteFreq,Font_11x18,Black);
 2121              		.loc 1 457 0
 2122 1024 6846     		mov	r0, sp
 2123 1026 94E80600 		ldmia	r4, {r1, r2}
 2124 102a 0023     		movs	r3, #0
 2125 102c FFF7FEFF 		bl	ssd1306_WriteString
 2126              	.LVL286:
 458:Src/noteDetect.c **** 
 459:Src/noteDetect.c ****     ssd1306_UpdateScreen();
 2127              		.loc 1 459 0
 2128 1030 FFF7FEFF 		bl	ssd1306_UpdateScreen
 2129              	.LVL287:
 460:Src/noteDetect.c ****     HAL_Delay(500);
 2130              		.loc 1 460 0
 2131 1034 4FF4FA70 		mov	r0, #500
 2132 1038 FFF7FEFF 		bl	HAL_Delay
 2133              	.LVL288:
 2134 103c 44E1     		b	.L1
 2135              	.L193:
 2136 103e 00BF     		.align	3
 2137              	.L192:
 2138 1040 CDCCCCCC 		.word	3435973837
 2139 1044 CCD47140 		.word	1081201868
 2140 1048 713D0AD7 		.word	3607772529
 2141 104c A3D47040 		.word	1081136291
 2142 1050 5C8FC2F5 		.word	4123168604
 2143 1054 28E47240 		.word	1081271336
 2144 1058 295C8FC2 		.word	3264175145
 2145 105c F5D47140 		.word	1081201909
 2146 1060 B81E85EB 		.word	3951369912
 2147 1064 51847840 		.word	1081640017
 2148 1068 713D0AD7 		.word	3607772529
 2149 106c A3347540 		.word	1081423011
 2150 1070 5C8FC2F5 		.word	4123168604
 2151 1074 28047440 		.word	1081345064
 2152 1078 8FC2F528 		.word	687194767
 2153 107c 5C777640 		.word	1081505628
 2154 1080 CDCCCCCC 		.word	3435973837
 2155 1084 CC347540 		.word	1081423052
 2156 1088 E17A14AE 		.word	2920577761
 2157 108c 47CD7740 		.word	1081593159
 2158 1090 EC51B81E 		.word	515396076
 2159 1094 85777640 		.word	1081505669
 2160 1098 4C000000 		.word	.LC18
 2161 109c 10000000 		.word	.LC4
 2162 10a0 00000000 		.word	Font_11x18
ARM GAS  /var/folders/bq/zy6zjhwd1qn4sn8dk3jpjcq80000gn/T//ccnteQbj.s 			page 47


 2163 10a4 44623400 		.word	3433028
 2164 10a8 50000000 		.word	.LC19
 2165 10ac 0020A043 		.word	1134567424
 2166 10b0 45623400 		.word	3433029
 2167 10b4 54000000 		.word	.LC20
 2168 10b8 58000000 		.word	.LC21
 2169 10bc 47623400 		.word	3433031
 2170 10c0 AE47E17A 		.word	2061584302
 2171 10c4 14C66F40 		.word	1081067028
 2172              	.L96:
 461:Src/noteDetect.c ****   }
 462:Src/noteDetect.c **** 
 463:Src/noteDetect.c **** 
 464:Src/noteDetect.c ****   /*G4 note */
 465:Src/noteDetect.c ****   else if(frequency <= 403.49 && frequency >= 380.83){
 2173              		.loc 1 465 0
 2174 10c8 2046     		mov	r0, r4
 2175 10ca 2946     		mov	r1, r5
 2176 10cc 93A3     		adr	r3, .L194+76
 2177 10ce D3E90023 		ldrd	r2, [r3]
 2178 10d2 FFF7FEFF 		bl	__aeabi_dcmple
 2179              	.LVL289:
 2180 10d6 80B3     		cbz	r0, .L99
 2181              		.loc 1 465 0 is_stmt 0 discriminator 1
 2182 10d8 2046     		mov	r0, r4
 2183 10da 2946     		mov	r1, r5
 2184 10dc 91A3     		adr	r3, .L194+84
 2185 10de D3E90023 		ldrd	r2, [r3]
 2186 10e2 FFF7FEFF 		bl	__aeabi_dcmpge
 2187              	.LVL290:
 2188 10e6 40B3     		cbz	r0, .L99
 466:Src/noteDetect.c ****     sprintf(note, "G4");
 2189              		.loc 1 466 0 is_stmt 1
 2190 10e8 834B     		ldr	r3, .L194+40
 2191 10ea 1B68     		ldr	r3, [r3]
 2192 10ec ADF82830 		strh	r3, [sp, #40]	@ movhi
 2193 10f0 1B0C     		lsrs	r3, r3, #16
 2194 10f2 8DF82A30 		strb	r3, [sp, #42]
 467:Src/noteDetect.c ****     sprintf(noteFreq, "%4.2f", frequency);
 2195              		.loc 1 467 0
 2196 10f6 6846     		mov	r0, sp
 2197 10f8 8049     		ldr	r1, .L194+44
 2198 10fa 2246     		mov	r2, r4
 2199 10fc 2B46     		mov	r3, r5
 2200 10fe FFF7FEFF 		bl	sprintf
 2201              	.LVL291:
 468:Src/noteDetect.c **** 
 469:Src/noteDetect.c ****     ssd1306_SetCursor(NOTEX, NOTEY);
 2202              		.loc 1 469 0
 2203 1102 2820     		movs	r0, #40
 2204 1104 0146     		mov	r1, r0
 2205 1106 FFF7FEFF 		bl	ssd1306_SetCursor
 2206              	.LVL292:
 470:Src/noteDetect.c ****     ssd1306_WriteString(note,Font_11x18,Black);
 2207              		.loc 1 470 0
 2208 110a 7D4C     		ldr	r4, .L194+48
 2209 110c 0AA8     		add	r0, sp, #40
ARM GAS  /var/folders/bq/zy6zjhwd1qn4sn8dk3jpjcq80000gn/T//ccnteQbj.s 			page 48


 2210 110e 94E80600 		ldmia	r4, {r1, r2}
 2211 1112 0023     		movs	r3, #0
 2212 1114 FFF7FEFF 		bl	ssd1306_WriteString
 2213              	.LVL293:
 471:Src/noteDetect.c ****     ssd1306_SetCursor(FREQX,FREQY);
 2214              		.loc 1 471 0
 2215 1118 2820     		movs	r0, #40
 2216 111a 0F21     		movs	r1, #15
 2217 111c FFF7FEFF 		bl	ssd1306_SetCursor
 2218              	.LVL294:
 472:Src/noteDetect.c ****     ssd1306_WriteString(noteFreq,Font_11x18,Black);
 2219              		.loc 1 472 0
 2220 1120 6846     		mov	r0, sp
 2221 1122 94E80600 		ldmia	r4, {r1, r2}
 2222 1126 0023     		movs	r3, #0
 2223 1128 FFF7FEFF 		bl	ssd1306_WriteString
 2224              	.LVL295:
 473:Src/noteDetect.c **** 
 474:Src/noteDetect.c ****     ssd1306_UpdateScreen();
 2225              		.loc 1 474 0
 2226 112c FFF7FEFF 		bl	ssd1306_UpdateScreen
 2227              	.LVL296:
 475:Src/noteDetect.c ****     HAL_Delay(500);
 2228              		.loc 1 475 0
 2229 1130 4FF4FA70 		mov	r0, #500
 2230 1134 FFF7FEFF 		bl	HAL_Delay
 2231              	.LVL297:
 2232 1138 C6E0     		b	.L1
 2233              	.L99:
 476:Src/noteDetect.c ****   }
 477:Src/noteDetect.c **** 
 478:Src/noteDetect.c **** 
 479:Src/noteDetect.c **** 
 480:Src/noteDetect.c **** 
 481:Src/noteDetect.c ****   /*Ab4 note */
 482:Src/noteDetect.c ****   else if(frequency >= 403.50 && frequency <= 427.56){
 2234              		.loc 1 482 0
 2235 113a DFED727A 		flds	s15, .L194+52
 2236 113e B4EEE78A 		fcmpes	s16, s15
 2237 1142 F1EE10FA 		fmstat
 2238 1146 2BDB     		blt	.L102
 2239              		.loc 1 482 0 is_stmt 0 discriminator 1
 2240 1148 2046     		mov	r0, r4
 2241 114a 2946     		mov	r1, r5
 2242 114c 60A3     		adr	r3, .L194
 2243 114e D3E90023 		ldrd	r2, [r3]
 2244 1152 FFF7FEFF 		bl	__aeabi_dcmple
 2245              	.LVL298:
 2246 1156 18B3     		cbz	r0, .L102
 483:Src/noteDetect.c ****     sprintf(note, "Ab4");
 2247              		.loc 1 483 0 is_stmt 1
 2248 1158 6B4B     		ldr	r3, .L194+56
 2249 115a 0A93     		str	r3, [sp, #40]
 484:Src/noteDetect.c ****     sprintf(noteFreq, "%.2f", frequency);
 2250              		.loc 1 484 0
 2251 115c 6846     		mov	r0, sp
 2252 115e 6B49     		ldr	r1, .L194+60
ARM GAS  /var/folders/bq/zy6zjhwd1qn4sn8dk3jpjcq80000gn/T//ccnteQbj.s 			page 49


 2253 1160 2246     		mov	r2, r4
 2254 1162 2B46     		mov	r3, r5
 2255 1164 FFF7FEFF 		bl	sprintf
 2256              	.LVL299:
 485:Src/noteDetect.c **** 
 486:Src/noteDetect.c ****     ssd1306_SetCursor(NOTEX, NOTEY);
 2257              		.loc 1 486 0
 2258 1168 2820     		movs	r0, #40
 2259 116a 0146     		mov	r1, r0
 2260 116c FFF7FEFF 		bl	ssd1306_SetCursor
 2261              	.LVL300:
 487:Src/noteDetect.c ****     ssd1306_WriteString(note,Font_11x18,Black);
 2262              		.loc 1 487 0
 2263 1170 634C     		ldr	r4, .L194+48
 2264 1172 0AA8     		add	r0, sp, #40
 2265 1174 94E80600 		ldmia	r4, {r1, r2}
 2266 1178 0023     		movs	r3, #0
 2267 117a FFF7FEFF 		bl	ssd1306_WriteString
 2268              	.LVL301:
 488:Src/noteDetect.c ****     ssd1306_SetCursor(FREQX,FREQY);
 2269              		.loc 1 488 0
 2270 117e 2820     		movs	r0, #40
 2271 1180 0F21     		movs	r1, #15
 2272 1182 FFF7FEFF 		bl	ssd1306_SetCursor
 2273              	.LVL302:
 489:Src/noteDetect.c ****     ssd1306_WriteString(noteFreq,Font_11x18,Black);
 2274              		.loc 1 489 0
 2275 1186 6846     		mov	r0, sp
 2276 1188 94E80600 		ldmia	r4, {r1, r2}
 2277 118c 0023     		movs	r3, #0
 2278 118e FFF7FEFF 		bl	ssd1306_WriteString
 2279              	.LVL303:
 490:Src/noteDetect.c **** 
 491:Src/noteDetect.c ****     ssd1306_UpdateScreen();
 2280              		.loc 1 491 0
 2281 1192 FFF7FEFF 		bl	ssd1306_UpdateScreen
 2282              	.LVL304:
 492:Src/noteDetect.c ****     HAL_Delay(500);
 2283              		.loc 1 492 0
 2284 1196 4FF4FA70 		mov	r0, #500
 2285 119a FFF7FEFF 		bl	HAL_Delay
 2286              	.LVL305:
 2287 119e 93E0     		b	.L1
 2288              	.L102:
 493:Src/noteDetect.c ****   }
 494:Src/noteDetect.c **** 
 495:Src/noteDetect.c ****   /*A4 note */
 496:Src/noteDetect.c ****   else if(frequency <= 452.89 && frequency >= 427.57){
 2289              		.loc 1 496 0
 2290 11a0 2046     		mov	r0, r4
 2291 11a2 2946     		mov	r1, r5
 2292 11a4 4CA3     		adr	r3, .L194+8
 2293 11a6 D3E90023 		ldrd	r2, [r3]
 2294 11aa FFF7FEFF 		bl	__aeabi_dcmple
 2295              	.LVL306:
 2296 11ae 80B3     		cbz	r0, .L105
 2297              		.loc 1 496 0 is_stmt 0 discriminator 1
ARM GAS  /var/folders/bq/zy6zjhwd1qn4sn8dk3jpjcq80000gn/T//ccnteQbj.s 			page 50


 2298 11b0 2046     		mov	r0, r4
 2299 11b2 2946     		mov	r1, r5
 2300 11b4 4AA3     		adr	r3, .L194+16
 2301 11b6 D3E90023 		ldrd	r2, [r3]
 2302 11ba FFF7FEFF 		bl	__aeabi_dcmpge
 2303              	.LVL307:
 2304 11be 40B3     		cbz	r0, .L105
 497:Src/noteDetect.c ****     sprintf(note, "A4");
 2305              		.loc 1 497 0 is_stmt 1
 2306 11c0 534B     		ldr	r3, .L194+64
 2307 11c2 1B68     		ldr	r3, [r3]
 2308 11c4 ADF82830 		strh	r3, [sp, #40]	@ movhi
 2309 11c8 1B0C     		lsrs	r3, r3, #16
 2310 11ca 8DF82A30 		strb	r3, [sp, #42]
 498:Src/noteDetect.c ****     sprintf(noteFreq, "%.2f", frequency);
 2311              		.loc 1 498 0
 2312 11ce 6846     		mov	r0, sp
 2313 11d0 4E49     		ldr	r1, .L194+60
 2314 11d2 2246     		mov	r2, r4
 2315 11d4 2B46     		mov	r3, r5
 2316 11d6 FFF7FEFF 		bl	sprintf
 2317              	.LVL308:
 499:Src/noteDetect.c **** 
 500:Src/noteDetect.c ****     ssd1306_SetCursor(NOTEX, NOTEY);
 2318              		.loc 1 500 0
 2319 11da 2820     		movs	r0, #40
 2320 11dc 0146     		mov	r1, r0
 2321 11de FFF7FEFF 		bl	ssd1306_SetCursor
 2322              	.LVL309:
 501:Src/noteDetect.c ****     ssd1306_WriteString(note,Font_11x18,Black);
 2323              		.loc 1 501 0
 2324 11e2 474C     		ldr	r4, .L194+48
 2325 11e4 0AA8     		add	r0, sp, #40
 2326 11e6 94E80600 		ldmia	r4, {r1, r2}
 2327 11ea 0023     		movs	r3, #0
 2328 11ec FFF7FEFF 		bl	ssd1306_WriteString
 2329              	.LVL310:
 502:Src/noteDetect.c ****     ssd1306_SetCursor(FREQX,FREQY);
 2330              		.loc 1 502 0
 2331 11f0 2820     		movs	r0, #40
 2332 11f2 0F21     		movs	r1, #15
 2333 11f4 FFF7FEFF 		bl	ssd1306_SetCursor
 2334              	.LVL311:
 503:Src/noteDetect.c ****     ssd1306_WriteString(noteFreq,Font_11x18,Black);
 2335              		.loc 1 503 0
 2336 11f8 6846     		mov	r0, sp
 2337 11fa 94E80600 		ldmia	r4, {r1, r2}
 2338 11fe 0023     		movs	r3, #0
 2339 1200 FFF7FEFF 		bl	ssd1306_WriteString
 2340              	.LVL312:
 504:Src/noteDetect.c **** 
 505:Src/noteDetect.c ****     ssd1306_UpdateScreen();
 2341              		.loc 1 505 0
 2342 1204 FFF7FEFF 		bl	ssd1306_UpdateScreen
 2343              	.LVL313:
 506:Src/noteDetect.c ****     HAL_Delay(500);
 2344              		.loc 1 506 0
ARM GAS  /var/folders/bq/zy6zjhwd1qn4sn8dk3jpjcq80000gn/T//ccnteQbj.s 			page 51


 2345 1208 4FF4FA70 		mov	r0, #500
 2346 120c FFF7FEFF 		bl	HAL_Delay
 2347              	.LVL314:
 2348 1210 5AE0     		b	.L1
 2349              	.L105:
 507:Src/noteDetect.c ****   }
 508:Src/noteDetect.c **** 
 509:Src/noteDetect.c ****   /*Bb4 note */
 510:Src/noteDetect.c ****   else if(frequency <= 479.82 && frequency >= 452.90){
 2350              		.loc 1 510 0
 2351 1212 2046     		mov	r0, r4
 2352 1214 2946     		mov	r1, r5
 2353 1216 34A3     		adr	r3, .L194+24
 2354 1218 D3E90023 		ldrd	r2, [r3]
 2355 121c FFF7FEFF 		bl	__aeabi_dcmple
 2356              	.LVL315:
 2357 1220 58B3     		cbz	r0, .L108
 2358              		.loc 1 510 0 is_stmt 0 discriminator 1
 2359 1222 2046     		mov	r0, r4
 2360 1224 2946     		mov	r1, r5
 2361 1226 32A3     		adr	r3, .L194+32
 2362 1228 D3E90023 		ldrd	r2, [r3]
 2363 122c FFF7FEFF 		bl	__aeabi_dcmpge
 2364              	.LVL316:
 2365 1230 18B3     		cbz	r0, .L108
 511:Src/noteDetect.c ****     sprintf(note, "Bb4");
 2366              		.loc 1 511 0 is_stmt 1
 2367 1232 384B     		ldr	r3, .L194+68
 2368 1234 0A93     		str	r3, [sp, #40]
 512:Src/noteDetect.c ****     sprintf(noteFreq, "%.2f", frequency);
 2369              		.loc 1 512 0
 2370 1236 6846     		mov	r0, sp
 2371 1238 3449     		ldr	r1, .L194+60
 2372 123a 2246     		mov	r2, r4
 2373 123c 2B46     		mov	r3, r5
 2374 123e FFF7FEFF 		bl	sprintf
 2375              	.LVL317:
 513:Src/noteDetect.c **** 
 514:Src/noteDetect.c ****     ssd1306_SetCursor(NOTEX, NOTEY);
 2376              		.loc 1 514 0
 2377 1242 2820     		movs	r0, #40
 2378 1244 0146     		mov	r1, r0
 2379 1246 FFF7FEFF 		bl	ssd1306_SetCursor
 2380              	.LVL318:
 515:Src/noteDetect.c ****     ssd1306_WriteString(note,Font_11x18,Black);
 2381              		.loc 1 515 0
 2382 124a 2D4C     		ldr	r4, .L194+48
 2383 124c 0AA8     		add	r0, sp, #40
 2384 124e 94E80600 		ldmia	r4, {r1, r2}
 2385 1252 0023     		movs	r3, #0
 2386 1254 FFF7FEFF 		bl	ssd1306_WriteString
 2387              	.LVL319:
 516:Src/noteDetect.c ****     ssd1306_SetCursor(FREQX,FREQY);
 2388              		.loc 1 516 0
 2389 1258 2820     		movs	r0, #40
 2390 125a 0F21     		movs	r1, #15
 2391 125c FFF7FEFF 		bl	ssd1306_SetCursor
ARM GAS  /var/folders/bq/zy6zjhwd1qn4sn8dk3jpjcq80000gn/T//ccnteQbj.s 			page 52


 2392              	.LVL320:
 517:Src/noteDetect.c ****     ssd1306_WriteString(noteFreq,Font_11x18,Black);
 2393              		.loc 1 517 0
 2394 1260 6846     		mov	r0, sp
 2395 1262 94E80600 		ldmia	r4, {r1, r2}
 2396 1266 0023     		movs	r3, #0
 2397 1268 FFF7FEFF 		bl	ssd1306_WriteString
 2398              	.LVL321:
 518:Src/noteDetect.c **** 
 519:Src/noteDetect.c ****     ssd1306_UpdateScreen();
 2399              		.loc 1 519 0
 2400 126c FFF7FEFF 		bl	ssd1306_UpdateScreen
 2401              	.LVL322:
 520:Src/noteDetect.c ****     HAL_Delay(500);
 2402              		.loc 1 520 0
 2403 1270 4FF4FA70 		mov	r0, #500
 2404 1274 FFF7FEFF 		bl	HAL_Delay
 2405              	.LVL323:
 2406 1278 26E0     		b	.L1
 2407              	.L108:
 521:Src/noteDetect.c ****   }
 522:Src/noteDetect.c **** 
 523:Src/noteDetect.c ****   else{
 524:Src/noteDetect.c ****     sprintf(note, "NULL");
 2408              		.loc 1 524 0
 2409 127a 274B     		ldr	r3, .L194+72
 2410 127c 93E80300 		ldmia	r3, {r0, r1}
 2411 1280 0A90     		str	r0, [sp, #40]
 2412 1282 8DF82C10 		strb	r1, [sp, #44]
 525:Src/noteDetect.c ****     sprintf(noteFreq, "%.2f", frequency);
 2413              		.loc 1 525 0
 2414 1286 6846     		mov	r0, sp
 2415 1288 2049     		ldr	r1, .L194+60
 2416 128a 2246     		mov	r2, r4
 2417 128c 2B46     		mov	r3, r5
 2418 128e FFF7FEFF 		bl	sprintf
 2419              	.LVL324:
 526:Src/noteDetect.c **** 
 527:Src/noteDetect.c ****     ssd1306_SetCursor(NOTEX, NOTEY);
 2420              		.loc 1 527 0
 2421 1292 2820     		movs	r0, #40
 2422 1294 0146     		mov	r1, r0
 2423 1296 FFF7FEFF 		bl	ssd1306_SetCursor
 2424              	.LVL325:
 528:Src/noteDetect.c ****     ssd1306_WriteString(note,Font_11x18,Black);
 2425              		.loc 1 528 0
 2426 129a 194C     		ldr	r4, .L194+48
 2427 129c 0AA8     		add	r0, sp, #40
 2428 129e 94E80600 		ldmia	r4, {r1, r2}
 2429 12a2 0023     		movs	r3, #0
 2430 12a4 FFF7FEFF 		bl	ssd1306_WriteString
 2431              	.LVL326:
 529:Src/noteDetect.c ****     ssd1306_SetCursor(FREQX,FREQY);
 2432              		.loc 1 529 0
 2433 12a8 2820     		movs	r0, #40
 2434 12aa 0F21     		movs	r1, #15
 2435 12ac FFF7FEFF 		bl	ssd1306_SetCursor
ARM GAS  /var/folders/bq/zy6zjhwd1qn4sn8dk3jpjcq80000gn/T//ccnteQbj.s 			page 53


 2436              	.LVL327:
 530:Src/noteDetect.c ****     ssd1306_WriteString(noteFreq,Font_11x18,Black);
 2437              		.loc 1 530 0
 2438 12b0 6846     		mov	r0, sp
 2439 12b2 94E80600 		ldmia	r4, {r1, r2}
 2440 12b6 0023     		movs	r3, #0
 2441 12b8 FFF7FEFF 		bl	ssd1306_WriteString
 2442              	.LVL328:
 531:Src/noteDetect.c **** 
 532:Src/noteDetect.c ****     ssd1306_UpdateScreen();
 2443              		.loc 1 532 0
 2444 12bc FFF7FEFF 		bl	ssd1306_UpdateScreen
 2445              	.LVL329:
 533:Src/noteDetect.c ****     HAL_Delay(500);
 2446              		.loc 1 533 0
 2447 12c0 4FF4FA70 		mov	r0, #500
 2448 12c4 FFF7FEFF 		bl	HAL_Delay
 2449              	.LVL330:
 2450              	.L1:
 534:Src/noteDetect.c **** 
 535:Src/noteDetect.c ****   }
 536:Src/noteDetect.c **** /*end note detect */
 537:Src/noteDetect.c **** }
 2451              		.loc 1 537 0
 2452 12c8 15B0     		add	sp, sp, #84
 2453              	.LCFI3:
 2454              		.cfi_def_cfa_offset 20
 2455              		@ sp needed
 2456 12ca BDEC028B 		fldmfdd	sp!, {d8}
 2457              	.LCFI4:
 2458              		.cfi_restore 80
 2459              		.cfi_restore 81
 2460              		.cfi_def_cfa_offset 12
 2461              	.LVL331:
 2462 12ce 30BD     		pop	{r4, r5, pc}
 2463              	.L195:
 2464              		.align	3
 2465              	.L194:
 2466 12d0 295C8FC2 		.word	3264175145
 2467 12d4 F5B87A40 		.word	1081784565
 2468 12d8 0AD7A370 		.word	1889785610
 2469 12dc 3D4E7C40 		.word	1081888317
 2470 12e0 85EB51B8 		.word	3092376453
 2471 12e4 1EB97A40 		.word	1081784606
 2472 12e8 85EB51B8 		.word	3092376453
 2473 12ec 1EFD7D40 		.word	1081998622
 2474 12f0 66666666 		.word	1717986918
 2475 12f4 664E7C40 		.word	1081888358
 2476 12f8 5C000000 		.word	.LC22
 2477 12fc 04000000 		.word	.LC2
 2478 1300 00000000 		.word	Font_11x18
 2479 1304 00C0C943 		.word	1137295360
 2480 1308 41623400 		.word	3433025
 2481 130c 10000000 		.word	.LC4
 2482 1310 60000000 		.word	.LC23
 2483 1314 42623400 		.word	3433026
 2484 1318 64000000 		.word	.LC24
ARM GAS  /var/folders/bq/zy6zjhwd1qn4sn8dk3jpjcq80000gn/T//ccnteQbj.s 			page 54


 2485 131c A4703D0A 		.word	171798692
 2486 1320 D7377940 		.word	1081685975
 2487 1324 E17A14AE 		.word	2920577761
 2488 1328 47CD7740 		.word	1081593159
 2489              		.cfi_endproc
 2490              	.LFE306:
 2492              		.section	.text.print2Screen,"ax",%progbits
 2493              		.align	2
 2494              		.global	print2Screen
 2495              		.thumb
 2496              		.thumb_func
 2498              	print2Screen:
 2499              	.LFB307:
 538:Src/noteDetect.c **** 
 539:Src/noteDetect.c **** 
 540:Src/noteDetect.c **** void print2Screen(float frequency, char *note, char *noteFreq)
 541:Src/noteDetect.c **** {
 2500              		.loc 1 541 0
 2501              		.cfi_startproc
 2502              		@ args = 0, pretend = 0, frame = 0
 2503              		@ frame_needed = 0, uses_anonymous_args = 0
 2504              	.LVL332:
 2505 0000 70B5     		push	{r4, r5, r6, lr}
 2506              	.LCFI5:
 2507              		.cfi_def_cfa_offset 16
 2508              		.cfi_offset 4, -16
 2509              		.cfi_offset 5, -12
 2510              		.cfi_offset 6, -8
 2511              		.cfi_offset 14, -4
 2512 0002 0646     		mov	r6, r0
 2513 0004 0D46     		mov	r5, r1
 542:Src/noteDetect.c **** 
 543:Src/noteDetect.c ****     findNote(frequency);
 2514              		.loc 1 543 0
 2515 0006 FFF7FEFF 		bl	findNote
 2516              	.LVL333:
 544:Src/noteDetect.c ****     ssd1306_SetCursor(FREQX,FREQY);
 2517              		.loc 1 544 0
 2518 000a 2820     		movs	r0, #40
 2519 000c 0F21     		movs	r1, #15
 2520 000e FFF7FEFF 		bl	ssd1306_SetCursor
 2521              	.LVL334:
 545:Src/noteDetect.c ****     ssd1306_WriteString(note,Font_11x18,Black);
 2522              		.loc 1 545 0
 2523 0012 0C4C     		ldr	r4, .L198
 2524 0014 3046     		mov	r0, r6
 2525 0016 94E80600 		ldmia	r4, {r1, r2}
 2526 001a 0023     		movs	r3, #0
 2527 001c FFF7FEFF 		bl	ssd1306_WriteString
 2528              	.LVL335:
 546:Src/noteDetect.c ****     ssd1306_SetCursor(NOTEX,NOTEY);
 2529              		.loc 1 546 0
 2530 0020 2820     		movs	r0, #40
 2531 0022 0146     		mov	r1, r0
 2532 0024 FFF7FEFF 		bl	ssd1306_SetCursor
 2533              	.LVL336:
 547:Src/noteDetect.c ****     ssd1306_WriteString(noteFreq,Font_11x18,Black);
ARM GAS  /var/folders/bq/zy6zjhwd1qn4sn8dk3jpjcq80000gn/T//ccnteQbj.s 			page 55


 2534              		.loc 1 547 0
 2535 0028 2846     		mov	r0, r5
 2536 002a 94E80600 		ldmia	r4, {r1, r2}
 2537 002e 0023     		movs	r3, #0
 2538 0030 FFF7FEFF 		bl	ssd1306_WriteString
 2539              	.LVL337:
 548:Src/noteDetect.c **** 
 549:Src/noteDetect.c ****     ssd1306_UpdateScreen();
 2540              		.loc 1 549 0
 2541 0034 FFF7FEFF 		bl	ssd1306_UpdateScreen
 2542              	.LVL338:
 550:Src/noteDetect.c ****     HAL_Delay(500);
 2543              		.loc 1 550 0
 2544 0038 4FF4FA70 		mov	r0, #500
 2545 003c FFF7FEFF 		bl	HAL_Delay
 2546              	.LVL339:
 2547 0040 70BD     		pop	{r4, r5, r6, pc}
 2548              	.LVL340:
 2549              	.L199:
 2550 0042 00BF     		.align	2
 2551              	.L198:
 2552 0044 00000000 		.word	Font_11x18
 2553              		.cfi_endproc
 2554              	.LFE307:
 2556              		.section	.rodata
 2557              		.align	2
 2558              		.set	.LANCHOR0,. + 0
 2559              	.LC0:
 2560 0000 7468696E 		.ascii	"thing\012\015\000"
 2560      670A0D00 
 2561 0008 00000000 		.space	32
 2561      00000000 
 2561      00000000 
 2561      00000000 
 2561      00000000 
 2562              		.section	.rodata.str1.4,"aMS",%progbits,1
 2563              		.align	2
 2564              	.LC1:
 2565 0000 423100   		.ascii	"B1\000"
 2566 0003 00       		.space	1
 2567              	.LC2:
 2568 0004 25342E32 		.ascii	"%4.2f\000"
 2568      6600
 2569 000a 0000     		.space	2
 2570              	.LC3:
 2571 000c 433200   		.ascii	"C2\000"
 2572 000f 00       		.space	1
 2573              	.LC4:
 2574 0010 252E3266 		.ascii	"%.2f\000"
 2574      00
 2575 0015 000000   		.space	3
 2576              	.LC5:
 2577 0018 443200   		.ascii	"D2\000"
 2578 001b 00       		.space	1
 2579              	.LC6:
 2580 001c 453200   		.ascii	"E2\000"
 2581 001f 00       		.space	1
ARM GAS  /var/folders/bq/zy6zjhwd1qn4sn8dk3jpjcq80000gn/T//ccnteQbj.s 			page 56


 2582              	.LC7:
 2583 0020 463200   		.ascii	"F2\000"
 2584 0023 00       		.space	1
 2585              	.LC8:
 2586 0024 473200   		.ascii	"G2\000"
 2587 0027 00       		.space	1
 2588              	.LC9:
 2589 0028 413200   		.ascii	"A2\000"
 2590 002b 00       		.space	1
 2591              	.LC10:
 2592 002c 423200   		.ascii	"B2\000"
 2593 002f 00       		.space	1
 2594              	.LC11:
 2595 0030 433300   		.ascii	"C3\000"
 2596 0033 00       		.space	1
 2597              	.LC12:
 2598 0034 443300   		.ascii	"D3\000"
 2599 0037 00       		.space	1
 2600              	.LC13:
 2601 0038 453300   		.ascii	"E3\000"
 2602 003b 00       		.space	1
 2603              	.LC14:
 2604 003c 463300   		.ascii	"F3\000"
 2605 003f 00       		.space	1
 2606              	.LC15:
 2607 0040 473300   		.ascii	"G3\000"
 2608 0043 00       		.space	1
 2609              	.LC16:
 2610 0044 413300   		.ascii	"A3\000"
 2611 0047 00       		.space	1
 2612              	.LC17:
 2613 0048 423300   		.ascii	"B3\000"
 2614 004b 00       		.space	1
 2615              	.LC18:
 2616 004c 433400   		.ascii	"C4\000"
 2617 004f 00       		.space	1
 2618              	.LC19:
 2619 0050 443400   		.ascii	"D4\000"
 2620 0053 00       		.space	1
 2621              	.LC20:
 2622 0054 453400   		.ascii	"E4\000"
 2623 0057 00       		.space	1
 2624              	.LC21:
 2625 0058 463400   		.ascii	"F4\000"
 2626 005b 00       		.space	1
 2627              	.LC22:
 2628 005c 473400   		.ascii	"G4\000"
 2629 005f 00       		.space	1
 2630              	.LC23:
 2631 0060 413400   		.ascii	"A4\000"
 2632 0063 00       		.space	1
 2633              	.LC24:
 2634 0064 4E554C4C 		.ascii	"NULL\000"
 2634      00
 2635              		.text
 2636              	.Letext0:
 2637              		.file 2 "/usr/local/Cellar/gcc-arm-none-eabi-49/20150925/arm-none-eabi/include/machine/_default_ty
ARM GAS  /var/folders/bq/zy6zjhwd1qn4sn8dk3jpjcq80000gn/T//ccnteQbj.s 			page 57


 2638              		.file 3 "/usr/local/Cellar/gcc-arm-none-eabi-49/20150925/arm-none-eabi/include/sys/_stdint.h"
 2639              		.file 4 "Inc/fonts.h"
 2640              		.file 5 "Inc/ssd1306.h"
 2641              		.file 6 "Drivers/CMSIS/Include/core_cm4.h"
 2642              		.file 7 "/usr/local/Cellar/gcc-arm-none-eabi-49/20150925/arm-none-eabi/include/stdio.h"
 2643              		.file 8 "Drivers/STM32L4xx_HAL_Driver/Inc/stm32l4xx_hal.h"
ARM GAS  /var/folders/bq/zy6zjhwd1qn4sn8dk3jpjcq80000gn/T//ccnteQbj.s 			page 58


DEFINED SYMBOLS
                            *ABS*:0000000000000000 noteDetect.c
/var/folders/bq/zy6zjhwd1qn4sn8dk3jpjcq80000gn/T//ccnteQbj.s:24     .text.findNote:0000000000000000 $t
/var/folders/bq/zy6zjhwd1qn4sn8dk3jpjcq80000gn/T//ccnteQbj.s:29     .text.findNote:0000000000000000 findNote
/var/folders/bq/zy6zjhwd1qn4sn8dk3jpjcq80000gn/T//ccnteQbj.s:382    .text.findNote:0000000000000280 $d
/var/folders/bq/zy6zjhwd1qn4sn8dk3jpjcq80000gn/T//ccnteQbj.s:413    .text.findNote:00000000000002f4 $t
/var/folders/bq/zy6zjhwd1qn4sn8dk3jpjcq80000gn/T//ccnteQbj.s:834    .text.findNote:0000000000000608 $d
/var/folders/bq/zy6zjhwd1qn4sn8dk3jpjcq80000gn/T//ccnteQbj.s:873    .text.findNote:000000000000069c $t
/var/folders/bq/zy6zjhwd1qn4sn8dk3jpjcq80000gn/T//ccnteQbj.s:1236   .text.findNote:0000000000000948 $d
/var/folders/bq/zy6zjhwd1qn4sn8dk3jpjcq80000gn/T//ccnteQbj.s:1266   .text.findNote:00000000000009b8 $t
/var/folders/bq/zy6zjhwd1qn4sn8dk3jpjcq80000gn/T//ccnteQbj.s:1687   .text.findNote:0000000000000cc0 $d
/var/folders/bq/zy6zjhwd1qn4sn8dk3jpjcq80000gn/T//ccnteQbj.s:1720   .text.findNote:0000000000000d3c $t
/var/folders/bq/zy6zjhwd1qn4sn8dk3jpjcq80000gn/T//ccnteQbj.s:2138   .text.findNote:0000000000001040 $d
/var/folders/bq/zy6zjhwd1qn4sn8dk3jpjcq80000gn/T//ccnteQbj.s:2174   .text.findNote:00000000000010c8 $t
/var/folders/bq/zy6zjhwd1qn4sn8dk3jpjcq80000gn/T//ccnteQbj.s:2466   .text.findNote:00000000000012d0 $d
/var/folders/bq/zy6zjhwd1qn4sn8dk3jpjcq80000gn/T//ccnteQbj.s:2493   .text.print2Screen:0000000000000000 $t
/var/folders/bq/zy6zjhwd1qn4sn8dk3jpjcq80000gn/T//ccnteQbj.s:2498   .text.print2Screen:0000000000000000 print2Screen
/var/folders/bq/zy6zjhwd1qn4sn8dk3jpjcq80000gn/T//ccnteQbj.s:2552   .text.print2Screen:0000000000000044 $d
/var/folders/bq/zy6zjhwd1qn4sn8dk3jpjcq80000gn/T//ccnteQbj.s:2557   .rodata:0000000000000000 $d
/var/folders/bq/zy6zjhwd1qn4sn8dk3jpjcq80000gn/T//ccnteQbj.s:2563   .rodata.str1.4:0000000000000000 $d
                     .debug_frame:0000000000000010 $d

UNDEFINED SYMBOLS
__aeabi_f2d
__aeabi_dcmpge
__aeabi_dcmple
sprintf
ssd1306_SetCursor
ssd1306_WriteString
ssd1306_UpdateScreen
HAL_Delay
Font_11x18
