ARM GAS  /var/folders/bq/zy6zjhwd1qn4sn8dk3jpjcq80000gn/T//ccGW5XvH.s 			page 1


   1              		.syntax unified
   2              		.cpu cortex-m4
   3              		.eabi_attribute 27, 1
   4              		.eabi_attribute 28, 1
   5              		.fpu fpv4-sp-d16
   6              		.eabi_attribute 20, 1
   7              		.eabi_attribute 21, 1
   8              		.eabi_attribute 23, 3
   9              		.eabi_attribute 24, 1
  10              		.eabi_attribute 25, 1
  11              		.eabi_attribute 26, 1
  12              		.eabi_attribute 30, 1
  13              		.eabi_attribute 34, 1
  14              		.eabi_attribute 18, 4
  15              		.thumb
  16              		.file	"noteDetect.c"
  17              		.text
  18              	.Ltext0:
  19              		.cfi_sections	.debug_frame
  20              		.global	__aeabi_f2d
  21              		.global	__aeabi_dcmpge
  22              		.global	__aeabi_dcmple
  23              		.section	.text.findNote,"ax",%progbits
  24              		.align	2
  25              		.global	findNote
  26              		.thumb
  27              		.thumb_func
  29              	findNote:
  30              	.LFB306:
  31              		.file 1 "Src/noteDetect.c"
   1:Src/noteDetect.c **** #include <stdio.h>
   2:Src/noteDetect.c **** #include "ssd1306.h"
   3:Src/noteDetect.c **** #include "fonts.h"
   4:Src/noteDetect.c **** 
   5:Src/noteDetect.c **** 
   6:Src/noteDetect.c **** 
   7:Src/noteDetect.c **** void findNote(float frequency, char *note, char *noteFreq)
   8:Src/noteDetect.c **** {
  32              		.loc 1 8 0
  33              		.cfi_startproc
  34              		@ args = 0, pretend = 0, frame = 0
  35              		@ frame_needed = 0, uses_anonymous_args = 0
  36              	.LVL0:
  37 0000 F8B5     		push	{r3, r4, r5, r6, r7, lr}
  38              	.LCFI0:
  39              		.cfi_def_cfa_offset 24
  40              		.cfi_offset 3, -24
  41              		.cfi_offset 4, -20
  42              		.cfi_offset 5, -16
  43              		.cfi_offset 6, -12
  44              		.cfi_offset 7, -8
  45              		.cfi_offset 14, -4
  46 0002 2DED028B 		fstmfdd	sp!, {d8}
  47              	.LCFI1:
  48              		.cfi_def_cfa_offset 32
  49              		.cfi_offset 80, -32
  50              		.cfi_offset 81, -28
ARM GAS  /var/folders/bq/zy6zjhwd1qn4sn8dk3jpjcq80000gn/T//ccGW5XvH.s 			page 2


  51 0006 B0EE408A 		fcpys	s16, s0
  52 000a 0646     		mov	r6, r0
  53 000c 0F46     		mov	r7, r1
   9:Src/noteDetect.c **** 
  10:Src/noteDetect.c ****   /*B1 note */
  11:Src/noteDetect.c ****   if(frequency>= 59.98 && frequency <= 63.55){
  54              		.loc 1 11 0
  55 000e 10EE100A 		fmrs	r0, s0
  56              	.LVL1:
  57 0012 FFF7FEFF 		bl	__aeabi_f2d
  58              	.LVL2:
  59 0016 0446     		mov	r4, r0
  60 0018 0D46     		mov	r5, r1
  61 001a E4A3     		adr	r3, .L179+132
  62 001c D3E90023 		ldrd	r2, [r3]
  63 0020 FFF7FEFF 		bl	__aeabi_dcmpge
  64              	.LVL3:
  65 0024 78B3     		cbz	r0, .L2
  66              		.loc 1 11 0 is_stmt 0 discriminator 1
  67 0026 2046     		mov	r0, r4
  68 0028 2946     		mov	r1, r5
  69 002a E2A3     		adr	r3, .L179+140
  70 002c D3E90023 		ldrd	r2, [r3]
  71 0030 FFF7FEFF 		bl	__aeabi_dcmple
  72              	.LVL4:
  73 0034 38B3     		cbz	r0, .L2
  12:Src/noteDetect.c ****     sprintf(note, "B1");
  74              		.loc 1 12 0 is_stmt 1
  75 0036 D44B     		ldr	r3, .L179+96
  76 0038 1A88     		ldrh	r2, [r3]	@ unaligned
  77 003a 9B78     		ldrb	r3, [r3, #2]	@ zero_extendqisi2
  78 003c 3280     		strh	r2, [r6]	@ unaligned
  79 003e B370     		strb	r3, [r6, #2]
  13:Src/noteDetect.c ****     sprintf(noteFreq, "%.2f", frequency);
  80              		.loc 1 13 0
  81 0040 3846     		mov	r0, r7
  82 0042 D249     		ldr	r1, .L179+100
  83 0044 2246     		mov	r2, r4
  84 0046 2B46     		mov	r3, r5
  85 0048 FFF7FEFF 		bl	sprintf
  86              	.LVL5:
  14:Src/noteDetect.c ****     ssd1306_SetCursor(50,50);
  87              		.loc 1 14 0
  88 004c 3220     		movs	r0, #50
  89 004e 0146     		mov	r1, r0
  90 0050 FFF7FEFF 		bl	ssd1306_SetCursor
  91              	.LVL6:
  15:Src/noteDetect.c ****     ssd1306_WriteString(note,Font_11x18,Black);
  92              		.loc 1 15 0
  93 0054 CE4C     		ldr	r4, .L179+104
  94 0056 3046     		mov	r0, r6
  95 0058 94E80600 		ldmia	r4, {r1, r2}
  96 005c 0023     		movs	r3, #0
  97 005e FFF7FEFF 		bl	ssd1306_WriteString
  98              	.LVL7:
  16:Src/noteDetect.c ****     ssd1306_SetCursor(10,10);
  99              		.loc 1 16 0
ARM GAS  /var/folders/bq/zy6zjhwd1qn4sn8dk3jpjcq80000gn/T//ccGW5XvH.s 			page 3


 100 0062 0A20     		movs	r0, #10
 101 0064 0146     		mov	r1, r0
 102 0066 FFF7FEFF 		bl	ssd1306_SetCursor
 103              	.LVL8:
  17:Src/noteDetect.c ****     ssd1306_WriteString(noteFreq,Font_11x18,Black);
 104              		.loc 1 17 0
 105 006a 3846     		mov	r0, r7
 106 006c 94E80600 		ldmia	r4, {r1, r2}
 107 0070 0023     		movs	r3, #0
 108 0072 FFF7FEFF 		bl	ssd1306_WriteString
 109              	.LVL9:
  18:Src/noteDetect.c **** 
  19:Src/noteDetect.c ****     ssd1306_UpdateScreen();
 110              		.loc 1 19 0
 111 0076 FFF7FEFF 		bl	ssd1306_UpdateScreen
 112              	.LVL10:
  20:Src/noteDetect.c ****     HAL_Delay(500);
 113              		.loc 1 20 0
 114 007a 4FF4FA70 		mov	r0, #500
 115 007e FFF7FEFF 		bl	HAL_Delay
 116              	.LVL11:
 117 0082 01F073B8 		b	.L1
 118              	.L2:
  21:Src/noteDetect.c ****   }
  22:Src/noteDetect.c **** 
  23:Src/noteDetect.c ****   /*C2 note */
  24:Src/noteDetect.c ****   else if(frequency>= 63.56 && frequency <= 67.33){
 119              		.loc 1 24 0
 120 0086 2046     		mov	r0, r4
 121 0088 2946     		mov	r1, r5
 122 008a A7A3     		adr	r3, .L179
 123 008c D3E90023 		ldrd	r2, [r3]
 124 0090 FFF7FEFF 		bl	__aeabi_dcmpge
 125              	.LVL12:
 126 0094 78B3     		cbz	r0, .L6
 127              		.loc 1 24 0 is_stmt 0 discriminator 1
 128 0096 2046     		mov	r0, r4
 129 0098 2946     		mov	r1, r5
 130 009a A5A3     		adr	r3, .L179+8
 131 009c D3E90023 		ldrd	r2, [r3]
 132 00a0 FFF7FEFF 		bl	__aeabi_dcmple
 133              	.LVL13:
 134 00a4 38B3     		cbz	r0, .L6
  25:Src/noteDetect.c ****     sprintf(note, "C2");
 135              		.loc 1 25 0 is_stmt 1
 136 00a6 BB4B     		ldr	r3, .L179+108
 137 00a8 1A88     		ldrh	r2, [r3]	@ unaligned
 138 00aa 9B78     		ldrb	r3, [r3, #2]	@ zero_extendqisi2
 139 00ac 3280     		strh	r2, [r6]	@ unaligned
 140 00ae B370     		strb	r3, [r6, #2]
  26:Src/noteDetect.c ****     sprintf(noteFreq, "%.2f", frequency);
 141              		.loc 1 26 0
 142 00b0 3846     		mov	r0, r7
 143 00b2 B649     		ldr	r1, .L179+100
 144 00b4 2246     		mov	r2, r4
 145 00b6 2B46     		mov	r3, r5
 146 00b8 FFF7FEFF 		bl	sprintf
ARM GAS  /var/folders/bq/zy6zjhwd1qn4sn8dk3jpjcq80000gn/T//ccGW5XvH.s 			page 4


 147              	.LVL14:
  27:Src/noteDetect.c ****     ssd1306_SetCursor(50,50);
 148              		.loc 1 27 0
 149 00bc 3220     		movs	r0, #50
 150 00be 0146     		mov	r1, r0
 151 00c0 FFF7FEFF 		bl	ssd1306_SetCursor
 152              	.LVL15:
  28:Src/noteDetect.c ****     ssd1306_WriteString(note,Font_11x18,Black);
 153              		.loc 1 28 0
 154 00c4 B24C     		ldr	r4, .L179+104
 155 00c6 3046     		mov	r0, r6
 156 00c8 94E80600 		ldmia	r4, {r1, r2}
 157 00cc 0023     		movs	r3, #0
 158 00ce FFF7FEFF 		bl	ssd1306_WriteString
 159              	.LVL16:
  29:Src/noteDetect.c ****     ssd1306_SetCursor(10,10);
 160              		.loc 1 29 0
 161 00d2 0A20     		movs	r0, #10
 162 00d4 0146     		mov	r1, r0
 163 00d6 FFF7FEFF 		bl	ssd1306_SetCursor
 164              	.LVL17:
  30:Src/noteDetect.c ****     ssd1306_WriteString(noteFreq,Font_11x18,Black);
 165              		.loc 1 30 0
 166 00da 3846     		mov	r0, r7
 167 00dc 94E80600 		ldmia	r4, {r1, r2}
 168 00e0 0023     		movs	r3, #0
 169 00e2 FFF7FEFF 		bl	ssd1306_WriteString
 170              	.LVL18:
  31:Src/noteDetect.c **** 
  32:Src/noteDetect.c ****     ssd1306_UpdateScreen();
 171              		.loc 1 32 0
 172 00e6 FFF7FEFF 		bl	ssd1306_UpdateScreen
 173              	.LVL19:
  33:Src/noteDetect.c ****     HAL_Delay(500);
 174              		.loc 1 33 0
 175 00ea 4FF4FA70 		mov	r0, #500
 176 00ee FFF7FEFF 		bl	HAL_Delay
 177              	.LVL20:
 178 00f2 01F03BB8 		b	.L1
 179              	.L6:
  34:Src/noteDetect.c ****   }
  35:Src/noteDetect.c **** 
  36:Src/noteDetect.c ****   /*Db2 note */
  37:Src/noteDetect.c ****   else if(frequency>= 67.34 && frequency <= 71.33){
 180              		.loc 1 37 0
 181 00f6 2046     		mov	r0, r4
 182 00f8 2946     		mov	r1, r5
 183 00fa 8FA3     		adr	r3, .L179+16
 184 00fc D3E90023 		ldrd	r2, [r3]
 185 0100 FFF7FEFF 		bl	__aeabi_dcmpge
 186              	.LVL21:
 187 0104 68B3     		cbz	r0, .L9
 188              		.loc 1 37 0 is_stmt 0 discriminator 1
 189 0106 2046     		mov	r0, r4
 190 0108 2946     		mov	r1, r5
 191 010a 8DA3     		adr	r3, .L179+24
 192 010c D3E90023 		ldrd	r2, [r3]
ARM GAS  /var/folders/bq/zy6zjhwd1qn4sn8dk3jpjcq80000gn/T//ccGW5XvH.s 			page 5


 193 0110 FFF7FEFF 		bl	__aeabi_dcmple
 194              	.LVL22:
 195 0114 28B3     		cbz	r0, .L9
  38:Src/noteDetect.c ****     sprintf(note, "Db2");
 196              		.loc 1 38 0 is_stmt 1
 197 0116 A04B     		ldr	r3, .L179+112
 198 0118 1868     		ldr	r0, [r3]	@ unaligned
 199 011a 3060     		str	r0, [r6]	@ unaligned
  39:Src/noteDetect.c ****     sprintf(noteFreq, "%.2f", frequency);
 200              		.loc 1 39 0
 201 011c 3846     		mov	r0, r7
 202 011e 9B49     		ldr	r1, .L179+100
 203 0120 2246     		mov	r2, r4
 204 0122 2B46     		mov	r3, r5
 205 0124 FFF7FEFF 		bl	sprintf
 206              	.LVL23:
  40:Src/noteDetect.c ****     ssd1306_SetCursor(50,50);
 207              		.loc 1 40 0
 208 0128 3220     		movs	r0, #50
 209 012a 0146     		mov	r1, r0
 210 012c FFF7FEFF 		bl	ssd1306_SetCursor
 211              	.LVL24:
  41:Src/noteDetect.c ****     ssd1306_WriteString(note,Font_11x18,Black);
 212              		.loc 1 41 0
 213 0130 974C     		ldr	r4, .L179+104
 214 0132 3046     		mov	r0, r6
 215 0134 94E80600 		ldmia	r4, {r1, r2}
 216 0138 0023     		movs	r3, #0
 217 013a FFF7FEFF 		bl	ssd1306_WriteString
 218              	.LVL25:
  42:Src/noteDetect.c ****     ssd1306_SetCursor(10,10);
 219              		.loc 1 42 0
 220 013e 0A20     		movs	r0, #10
 221 0140 0146     		mov	r1, r0
 222 0142 FFF7FEFF 		bl	ssd1306_SetCursor
 223              	.LVL26:
  43:Src/noteDetect.c ****     ssd1306_WriteString(noteFreq,Font_11x18,Black);
 224              		.loc 1 43 0
 225 0146 3846     		mov	r0, r7
 226 0148 94E80600 		ldmia	r4, {r1, r2}
 227 014c 0023     		movs	r3, #0
 228 014e FFF7FEFF 		bl	ssd1306_WriteString
 229              	.LVL27:
  44:Src/noteDetect.c **** 
  45:Src/noteDetect.c ****     ssd1306_UpdateScreen();
 230              		.loc 1 45 0
 231 0152 FFF7FEFF 		bl	ssd1306_UpdateScreen
 232              	.LVL28:
  46:Src/noteDetect.c ****     HAL_Delay(500);
 233              		.loc 1 46 0
 234 0156 4FF4FA70 		mov	r0, #500
 235 015a FFF7FEFF 		bl	HAL_Delay
 236              	.LVL29:
 237 015e 01F005B8 		b	.L1
 238              	.L9:
  47:Src/noteDetect.c ****   }
  48:Src/noteDetect.c **** 
ARM GAS  /var/folders/bq/zy6zjhwd1qn4sn8dk3jpjcq80000gn/T//ccGW5XvH.s 			page 6


  49:Src/noteDetect.c **** 
  50:Src/noteDetect.c ****   /*D2 note */
  51:Src/noteDetect.c ****   else if(frequency>= 71.34 && frequency <= 75.53){
 239              		.loc 1 51 0
 240 0162 2046     		mov	r0, r4
 241 0164 2946     		mov	r1, r5
 242 0166 78A3     		adr	r3, .L179+32
 243 0168 D3E90023 		ldrd	r2, [r3]
 244 016c FFF7FEFF 		bl	__aeabi_dcmpge
 245              	.LVL30:
 246 0170 78B3     		cbz	r0, .L12
 247              		.loc 1 51 0 is_stmt 0 discriminator 1
 248 0172 2046     		mov	r0, r4
 249 0174 2946     		mov	r1, r5
 250 0176 76A3     		adr	r3, .L179+40
 251 0178 D3E90023 		ldrd	r2, [r3]
 252 017c FFF7FEFF 		bl	__aeabi_dcmple
 253              	.LVL31:
 254 0180 38B3     		cbz	r0, .L12
  52:Src/noteDetect.c ****     sprintf(note, "D2");
 255              		.loc 1 52 0 is_stmt 1
 256 0182 864B     		ldr	r3, .L179+116
 257 0184 1A88     		ldrh	r2, [r3]	@ unaligned
 258 0186 9B78     		ldrb	r3, [r3, #2]	@ zero_extendqisi2
 259 0188 3280     		strh	r2, [r6]	@ unaligned
 260 018a B370     		strb	r3, [r6, #2]
  53:Src/noteDetect.c ****     sprintf(noteFreq, "%.2f", frequency);
 261              		.loc 1 53 0
 262 018c 3846     		mov	r0, r7
 263 018e 7F49     		ldr	r1, .L179+100
 264 0190 2246     		mov	r2, r4
 265 0192 2B46     		mov	r3, r5
 266 0194 FFF7FEFF 		bl	sprintf
 267              	.LVL32:
  54:Src/noteDetect.c ****     ssd1306_SetCursor(50,50);
 268              		.loc 1 54 0
 269 0198 3220     		movs	r0, #50
 270 019a 0146     		mov	r1, r0
 271 019c FFF7FEFF 		bl	ssd1306_SetCursor
 272              	.LVL33:
  55:Src/noteDetect.c ****     ssd1306_WriteString(note,Font_11x18,Black);
 273              		.loc 1 55 0
 274 01a0 7B4C     		ldr	r4, .L179+104
 275 01a2 3046     		mov	r0, r6
 276 01a4 94E80600 		ldmia	r4, {r1, r2}
 277 01a8 0023     		movs	r3, #0
 278 01aa FFF7FEFF 		bl	ssd1306_WriteString
 279              	.LVL34:
  56:Src/noteDetect.c ****     ssd1306_SetCursor(10,10);
 280              		.loc 1 56 0
 281 01ae 0A20     		movs	r0, #10
 282 01b0 0146     		mov	r1, r0
 283 01b2 FFF7FEFF 		bl	ssd1306_SetCursor
 284              	.LVL35:
  57:Src/noteDetect.c ****     ssd1306_WriteString(noteFreq,Font_11x18,Black);
 285              		.loc 1 57 0
 286 01b6 3846     		mov	r0, r7
ARM GAS  /var/folders/bq/zy6zjhwd1qn4sn8dk3jpjcq80000gn/T//ccGW5XvH.s 			page 7


 287 01b8 94E80600 		ldmia	r4, {r1, r2}
 288 01bc 0023     		movs	r3, #0
 289 01be FFF7FEFF 		bl	ssd1306_WriteString
 290              	.LVL36:
  58:Src/noteDetect.c **** 
  59:Src/noteDetect.c ****     ssd1306_UpdateScreen();
 291              		.loc 1 59 0
 292 01c2 FFF7FEFF 		bl	ssd1306_UpdateScreen
 293              	.LVL37:
  60:Src/noteDetect.c ****     HAL_Delay(500);
 294              		.loc 1 60 0
 295 01c6 4FF4FA70 		mov	r0, #500
 296 01ca FFF7FEFF 		bl	HAL_Delay
 297              	.LVL38:
 298 01ce 00F0CDBF 		b	.L1
 299              	.L12:
  61:Src/noteDetect.c ****   }
  62:Src/noteDetect.c **** 
  63:Src/noteDetect.c **** 
  64:Src/noteDetect.c ****   /*Eb2 note */
  65:Src/noteDetect.c ****   else if(frequency <= 80.59 && frequency >= 75.57 ){
 300              		.loc 1 65 0
 301 01d2 2046     		mov	r0, r4
 302 01d4 2946     		mov	r1, r5
 303 01d6 60A3     		adr	r3, .L179+48
 304 01d8 D3E90023 		ldrd	r2, [r3]
 305 01dc FFF7FEFF 		bl	__aeabi_dcmple
 306              	.LVL39:
 307 01e0 68B3     		cbz	r0, .L15
 308              		.loc 1 65 0 is_stmt 0 discriminator 1
 309 01e2 2046     		mov	r0, r4
 310 01e4 2946     		mov	r1, r5
 311 01e6 5EA3     		adr	r3, .L179+56
 312 01e8 D3E90023 		ldrd	r2, [r3]
 313 01ec FFF7FEFF 		bl	__aeabi_dcmpge
 314              	.LVL40:
 315 01f0 28B3     		cbz	r0, .L15
  66:Src/noteDetect.c ****     sprintf(note, "Eb2");
 316              		.loc 1 66 0 is_stmt 1
 317 01f2 6B4B     		ldr	r3, .L179+120
 318 01f4 1868     		ldr	r0, [r3]	@ unaligned
 319 01f6 3060     		str	r0, [r6]	@ unaligned
  67:Src/noteDetect.c ****     sprintf(noteFreq, "%.2f", frequency);
 320              		.loc 1 67 0
 321 01f8 3846     		mov	r0, r7
 322 01fa 6449     		ldr	r1, .L179+100
 323 01fc 2246     		mov	r2, r4
 324 01fe 2B46     		mov	r3, r5
 325 0200 FFF7FEFF 		bl	sprintf
 326              	.LVL41:
  68:Src/noteDetect.c ****     ssd1306_SetCursor(50,50);
 327              		.loc 1 68 0
 328 0204 3220     		movs	r0, #50
 329 0206 0146     		mov	r1, r0
 330 0208 FFF7FEFF 		bl	ssd1306_SetCursor
 331              	.LVL42:
  69:Src/noteDetect.c ****     ssd1306_WriteString(note,Font_11x18,Black);
ARM GAS  /var/folders/bq/zy6zjhwd1qn4sn8dk3jpjcq80000gn/T//ccGW5XvH.s 			page 8


 332              		.loc 1 69 0
 333 020c 604C     		ldr	r4, .L179+104
 334 020e 3046     		mov	r0, r6
 335 0210 94E80600 		ldmia	r4, {r1, r2}
 336 0214 0023     		movs	r3, #0
 337 0216 FFF7FEFF 		bl	ssd1306_WriteString
 338              	.LVL43:
  70:Src/noteDetect.c ****     ssd1306_SetCursor(10,10);
 339              		.loc 1 70 0
 340 021a 0A20     		movs	r0, #10
 341 021c 0146     		mov	r1, r0
 342 021e FFF7FEFF 		bl	ssd1306_SetCursor
 343              	.LVL44:
  71:Src/noteDetect.c ****     ssd1306_WriteString(noteFreq,Font_11x18,Black);
 344              		.loc 1 71 0
 345 0222 3846     		mov	r0, r7
 346 0224 94E80600 		ldmia	r4, {r1, r2}
 347 0228 0023     		movs	r3, #0
 348 022a FFF7FEFF 		bl	ssd1306_WriteString
 349              	.LVL45:
  72:Src/noteDetect.c **** 
  73:Src/noteDetect.c ****     ssd1306_UpdateScreen();
 350              		.loc 1 73 0
 351 022e FFF7FEFF 		bl	ssd1306_UpdateScreen
 352              	.LVL46:
  74:Src/noteDetect.c ****     HAL_Delay(500);
 353              		.loc 1 74 0
 354 0232 4FF4FA70 		mov	r0, #500
 355 0236 FFF7FEFF 		bl	HAL_Delay
 356              	.LVL47:
 357 023a 00F097BF 		b	.L1
 358              	.L15:
  75:Src/noteDetect.c ****   }
  76:Src/noteDetect.c **** 
  77:Src/noteDetect.c ****   /*E2 note */
  78:Src/noteDetect.c ****   else if(frequency<=84.824 && frequency>=80.06){
 359              		.loc 1 78 0
 360 023e 2046     		mov	r0, r4
 361 0240 2946     		mov	r1, r5
 362 0242 49A3     		adr	r3, .L179+64
 363 0244 D3E90023 		ldrd	r2, [r3]
 364 0248 FFF7FEFF 		bl	__aeabi_dcmple
 365              	.LVL48:
 366 024c 78B3     		cbz	r0, .L18
 367              		.loc 1 78 0 is_stmt 0 discriminator 1
 368 024e 2046     		mov	r0, r4
 369 0250 2946     		mov	r1, r5
 370 0252 47A3     		adr	r3, .L179+72
 371 0254 D3E90023 		ldrd	r2, [r3]
 372 0258 FFF7FEFF 		bl	__aeabi_dcmpge
 373              	.LVL49:
 374 025c 38B3     		cbz	r0, .L18
  79:Src/noteDetect.c ****     sprintf(note, "E2");
 375              		.loc 1 79 0 is_stmt 1
 376 025e 514B     		ldr	r3, .L179+124
 377 0260 1A88     		ldrh	r2, [r3]	@ unaligned
 378 0262 9B78     		ldrb	r3, [r3, #2]	@ zero_extendqisi2
ARM GAS  /var/folders/bq/zy6zjhwd1qn4sn8dk3jpjcq80000gn/T//ccGW5XvH.s 			page 9


 379 0264 3280     		strh	r2, [r6]	@ unaligned
 380 0266 B370     		strb	r3, [r6, #2]
  80:Src/noteDetect.c ****     sprintf(noteFreq, "%.2f", frequency);
 381              		.loc 1 80 0
 382 0268 3846     		mov	r0, r7
 383 026a 4849     		ldr	r1, .L179+100
 384 026c 2246     		mov	r2, r4
 385 026e 2B46     		mov	r3, r5
 386 0270 FFF7FEFF 		bl	sprintf
 387              	.LVL50:
  81:Src/noteDetect.c **** 
  82:Src/noteDetect.c ****     ssd1306_SetCursor(50,50);
 388              		.loc 1 82 0
 389 0274 3220     		movs	r0, #50
 390 0276 0146     		mov	r1, r0
 391 0278 FFF7FEFF 		bl	ssd1306_SetCursor
 392              	.LVL51:
  83:Src/noteDetect.c ****     ssd1306_WriteString(note,Font_11x18,Black);
 393              		.loc 1 83 0
 394 027c 444C     		ldr	r4, .L179+104
 395 027e 3046     		mov	r0, r6
 396 0280 94E80600 		ldmia	r4, {r1, r2}
 397 0284 0023     		movs	r3, #0
 398 0286 FFF7FEFF 		bl	ssd1306_WriteString
 399              	.LVL52:
  84:Src/noteDetect.c ****     ssd1306_SetCursor(10,10);
 400              		.loc 1 84 0
 401 028a 0A20     		movs	r0, #10
 402 028c 0146     		mov	r1, r0
 403 028e FFF7FEFF 		bl	ssd1306_SetCursor
 404              	.LVL53:
  85:Src/noteDetect.c ****     ssd1306_WriteString(noteFreq,Font_11x18,Black);
 405              		.loc 1 85 0
 406 0292 3846     		mov	r0, r7
 407 0294 94E80600 		ldmia	r4, {r1, r2}
 408 0298 0023     		movs	r3, #0
 409 029a FFF7FEFF 		bl	ssd1306_WriteString
 410              	.LVL54:
  86:Src/noteDetect.c **** 
  87:Src/noteDetect.c ****     ssd1306_UpdateScreen();
 411              		.loc 1 87 0
 412 029e FFF7FEFF 		bl	ssd1306_UpdateScreen
 413              	.LVL55:
  88:Src/noteDetect.c ****     HAL_Delay(500);
 414              		.loc 1 88 0
 415 02a2 4FF4FA70 		mov	r0, #500
 416 02a6 FFF7FEFF 		bl	HAL_Delay
 417              	.LVL56:
 418 02aa 00F05FBF 		b	.L1
 419              	.L18:
  89:Src/noteDetect.c ****   }
  90:Src/noteDetect.c **** 
  91:Src/noteDetect.c **** 
  92:Src/noteDetect.c ****   /*F2 note */
  93:Src/noteDetect.c ****   else if(frequency <= 89.87 && frequency >= 84.82){
 420              		.loc 1 93 0
 421 02ae 2046     		mov	r0, r4
ARM GAS  /var/folders/bq/zy6zjhwd1qn4sn8dk3jpjcq80000gn/T//ccGW5XvH.s 			page 10


 422 02b0 2946     		mov	r1, r5
 423 02b2 31A3     		adr	r3, .L179+80
 424 02b4 D3E90023 		ldrd	r2, [r3]
 425 02b8 FFF7FEFF 		bl	__aeabi_dcmple
 426              	.LVL57:
 427 02bc 0028     		cmp	r0, #0
 428 02be 7DD0     		beq	.L21
 429              		.loc 1 93 0 is_stmt 0 discriminator 1
 430 02c0 2046     		mov	r0, r4
 431 02c2 2946     		mov	r1, r5
 432 02c4 2EA3     		adr	r3, .L179+88
 433 02c6 D3E90023 		ldrd	r2, [r3]
 434 02ca FFF7FEFF 		bl	__aeabi_dcmpge
 435              	.LVL58:
 436 02ce 0028     		cmp	r0, #0
 437 02d0 74D0     		beq	.L21
  94:Src/noteDetect.c ****     sprintf(note, "F2");
 438              		.loc 1 94 0 is_stmt 1
 439 02d2 354B     		ldr	r3, .L179+128
 440 02d4 1A88     		ldrh	r2, [r3]	@ unaligned
 441 02d6 9B78     		ldrb	r3, [r3, #2]	@ zero_extendqisi2
 442 02d8 3280     		strh	r2, [r6]	@ unaligned
 443 02da B370     		strb	r3, [r6, #2]
  95:Src/noteDetect.c ****     sprintf(noteFreq, "%.2f", frequency);
 444              		.loc 1 95 0
 445 02dc 3846     		mov	r0, r7
 446 02de 2B49     		ldr	r1, .L179+100
 447 02e0 2246     		mov	r2, r4
 448 02e2 2B46     		mov	r3, r5
 449 02e4 FFF7FEFF 		bl	sprintf
 450              	.LVL59:
  96:Src/noteDetect.c **** 
  97:Src/noteDetect.c ****     ssd1306_SetCursor(50,50);
 451              		.loc 1 97 0
 452 02e8 3220     		movs	r0, #50
 453 02ea 0146     		mov	r1, r0
 454 02ec FFF7FEFF 		bl	ssd1306_SetCursor
 455              	.LVL60:
  98:Src/noteDetect.c ****     ssd1306_WriteString(note,Font_11x18,Black);
 456              		.loc 1 98 0
 457 02f0 274C     		ldr	r4, .L179+104
 458 02f2 3046     		mov	r0, r6
 459 02f4 94E80600 		ldmia	r4, {r1, r2}
 460 02f8 0023     		movs	r3, #0
 461 02fa FFF7FEFF 		bl	ssd1306_WriteString
 462              	.LVL61:
  99:Src/noteDetect.c ****     ssd1306_SetCursor(10,10);
 463              		.loc 1 99 0
 464 02fe 0A20     		movs	r0, #10
 465 0300 0146     		mov	r1, r0
 466 0302 FFF7FEFF 		bl	ssd1306_SetCursor
 467              	.LVL62:
 100:Src/noteDetect.c ****     ssd1306_WriteString(noteFreq,Font_11x18,Black);
 468              		.loc 1 100 0
 469 0306 3846     		mov	r0, r7
 470 0308 94E80600 		ldmia	r4, {r1, r2}
 471 030c 0023     		movs	r3, #0
ARM GAS  /var/folders/bq/zy6zjhwd1qn4sn8dk3jpjcq80000gn/T//ccGW5XvH.s 			page 11


 472 030e FFF7FEFF 		bl	ssd1306_WriteString
 473              	.LVL63:
 101:Src/noteDetect.c **** 
 102:Src/noteDetect.c ****     ssd1306_UpdateScreen();
 474              		.loc 1 102 0
 475 0312 FFF7FEFF 		bl	ssd1306_UpdateScreen
 476              	.LVL64:
 103:Src/noteDetect.c ****     HAL_Delay(500);
 477              		.loc 1 103 0
 478 0316 4FF4FA70 		mov	r0, #500
 479 031a FFF7FEFF 		bl	HAL_Delay
 480              	.LVL65:
 481 031e 00F025BF 		b	.L1
 482              	.L180:
 483 0322 00BFAFF3 		.align	3
 483      0080
 484              	.L179:
 485 0328 48E17A14 		.word	343597384
 486 032c AEC74F40 		.word	1078970286
 487 0330 85EB51B8 		.word	3092376453
 488 0334 1ED55040 		.word	1079039262
 489 0338 F6285C8F 		.word	2405181686
 490 033c C2D55040 		.word	1079039426
 491 0340 85EB51B8 		.word	3092376453
 492 0344 1ED55140 		.word	1079104798
 493 0348 F6285C8F 		.word	2405181686
 494 034c C2D55140 		.word	1079104962
 495 0350 52B81E85 		.word	2233382994
 496 0354 EBE15240 		.word	1079173611
 497 0358 F6285C8F 		.word	2405181686
 498 035c C2255440 		.word	1079256514
 499 0360 14AE47E1 		.word	3779571220
 500 0364 7AE45240 		.word	1079174266
 501 0368 DBF97E6A 		.word	1786706395
 502 036c BC345540 		.word	1079325884
 503 0370 A4703D0A 		.word	171798692
 504 0374 D7035440 		.word	1079247831
 505 0378 48E17A14 		.word	343597384
 506 037c AE775640 		.word	1079408558
 507 0380 14AE47E1 		.word	3779571220
 508 0384 7A345540 		.word	1079325818
 509 0388 00000000 		.word	.LC0
 510 038c 04000000 		.word	.LC1
 511 0390 00000000 		.word	Font_11x18
 512 0394 0C000000 		.word	.LC2
 513 0398 10000000 		.word	.LC3
 514 039c 14000000 		.word	.LC4
 515 03a0 18000000 		.word	.LC5
 516 03a4 1C000000 		.word	.LC6
 517 03a8 20000000 		.word	.LC7
 518 03ac 3D0AD7A3 		.word	2748779069
 519 03b0 70FD4D40 		.word	1078852976
 520 03b4 66666666 		.word	1717986918
 521 03b8 66C64F40 		.word	1078969958
 522              	.L21:
 104:Src/noteDetect.c ****   }
 105:Src/noteDetect.c **** 
ARM GAS  /var/folders/bq/zy6zjhwd1qn4sn8dk3jpjcq80000gn/T//ccGW5XvH.s 			page 12


 106:Src/noteDetect.c ****   /*Gb2 note */
 107:Src/noteDetect.c ****   else if(frequency <= 95.21 && frequency >= 89.88){
 523              		.loc 1 107 0
 524 03bc 2046     		mov	r0, r4
 525 03be 2946     		mov	r1, r5
 526 03c0 E0A3     		adr	r3, .L181+124
 527 03c2 D3E90023 		ldrd	r2, [r3]
 528 03c6 FFF7FEFF 		bl	__aeabi_dcmple
 529              	.LVL66:
 530 03ca 68B3     		cbz	r0, .L24
 531              		.loc 1 107 0 is_stmt 0 discriminator 1
 532 03cc 2046     		mov	r0, r4
 533 03ce 2946     		mov	r1, r5
 534 03d0 DEA3     		adr	r3, .L181+132
 535 03d2 D3E90023 		ldrd	r2, [r3]
 536 03d6 FFF7FEFF 		bl	__aeabi_dcmpge
 537              	.LVL67:
 538 03da 28B3     		cbz	r0, .L24
 108:Src/noteDetect.c ****     sprintf(note, "Gb2");
 539              		.loc 1 108 0 is_stmt 1
 540 03dc D04B     		ldr	r3, .L181+88
 541 03de 1868     		ldr	r0, [r3]	@ unaligned
 542 03e0 3060     		str	r0, [r6]	@ unaligned
 109:Src/noteDetect.c ****     sprintf(noteFreq, "%.2f", frequency);
 543              		.loc 1 109 0
 544 03e2 3846     		mov	r0, r7
 545 03e4 CF49     		ldr	r1, .L181+92
 546 03e6 2246     		mov	r2, r4
 547 03e8 2B46     		mov	r3, r5
 548 03ea FFF7FEFF 		bl	sprintf
 549              	.LVL68:
 110:Src/noteDetect.c **** 
 111:Src/noteDetect.c ****     ssd1306_SetCursor(50,50);
 550              		.loc 1 111 0
 551 03ee 3220     		movs	r0, #50
 552 03f0 0146     		mov	r1, r0
 553 03f2 FFF7FEFF 		bl	ssd1306_SetCursor
 554              	.LVL69:
 112:Src/noteDetect.c ****     ssd1306_WriteString(note,Font_11x18,Black);
 555              		.loc 1 112 0
 556 03f6 CC4C     		ldr	r4, .L181+96
 557 03f8 3046     		mov	r0, r6
 558 03fa 94E80600 		ldmia	r4, {r1, r2}
 559 03fe 0023     		movs	r3, #0
 560 0400 FFF7FEFF 		bl	ssd1306_WriteString
 561              	.LVL70:
 113:Src/noteDetect.c ****     ssd1306_SetCursor(10,10);
 562              		.loc 1 113 0
 563 0404 0A20     		movs	r0, #10
 564 0406 0146     		mov	r1, r0
 565 0408 FFF7FEFF 		bl	ssd1306_SetCursor
 566              	.LVL71:
 114:Src/noteDetect.c ****     ssd1306_WriteString(noteFreq,Font_11x18,Black);
 567              		.loc 1 114 0
 568 040c 3846     		mov	r0, r7
 569 040e 94E80600 		ldmia	r4, {r1, r2}
 570 0412 0023     		movs	r3, #0
ARM GAS  /var/folders/bq/zy6zjhwd1qn4sn8dk3jpjcq80000gn/T//ccGW5XvH.s 			page 13


 571 0414 FFF7FEFF 		bl	ssd1306_WriteString
 572              	.LVL72:
 115:Src/noteDetect.c **** 
 116:Src/noteDetect.c ****     ssd1306_UpdateScreen();
 573              		.loc 1 116 0
 574 0418 FFF7FEFF 		bl	ssd1306_UpdateScreen
 575              	.LVL73:
 117:Src/noteDetect.c ****     HAL_Delay(500);
 576              		.loc 1 117 0
 577 041c 4FF4FA70 		mov	r0, #500
 578 0420 FFF7FEFF 		bl	HAL_Delay
 579              	.LVL74:
 580 0424 00F0A2BE 		b	.L1
 581              	.L24:
 118:Src/noteDetect.c ****   }
 119:Src/noteDetect.c **** 
 120:Src/noteDetect.c ****   /*G2 note */
 121:Src/noteDetect.c ****   else if(frequency <= 100.87 && frequency >= 95.22){
 582              		.loc 1 121 0
 583 0428 2046     		mov	r0, r4
 584 042a 2946     		mov	r1, r5
 585 042c A6A3     		adr	r3, .L181
 586 042e D3E90023 		ldrd	r2, [r3]
 587 0432 FFF7FEFF 		bl	__aeabi_dcmple
 588              	.LVL75:
 589 0436 78B3     		cbz	r0, .L27
 590              		.loc 1 121 0 is_stmt 0 discriminator 1
 591 0438 2046     		mov	r0, r4
 592 043a 2946     		mov	r1, r5
 593 043c A4A3     		adr	r3, .L181+8
 594 043e D3E90023 		ldrd	r2, [r3]
 595 0442 FFF7FEFF 		bl	__aeabi_dcmpge
 596              	.LVL76:
 597 0446 38B3     		cbz	r0, .L27
 122:Src/noteDetect.c ****     sprintf(note, "G2");
 598              		.loc 1 122 0 is_stmt 1
 599 0448 B84B     		ldr	r3, .L181+100
 600 044a 1A88     		ldrh	r2, [r3]	@ unaligned
 601 044c 9B78     		ldrb	r3, [r3, #2]	@ zero_extendqisi2
 602 044e 3280     		strh	r2, [r6]	@ unaligned
 603 0450 B370     		strb	r3, [r6, #2]
 123:Src/noteDetect.c ****     sprintf(noteFreq, "%.2f", frequency);
 604              		.loc 1 123 0
 605 0452 3846     		mov	r0, r7
 606 0454 B349     		ldr	r1, .L181+92
 607 0456 2246     		mov	r2, r4
 608 0458 2B46     		mov	r3, r5
 609 045a FFF7FEFF 		bl	sprintf
 610              	.LVL77:
 124:Src/noteDetect.c **** 
 125:Src/noteDetect.c ****     ssd1306_SetCursor(50,50);
 611              		.loc 1 125 0
 612 045e 3220     		movs	r0, #50
 613 0460 0146     		mov	r1, r0
 614 0462 FFF7FEFF 		bl	ssd1306_SetCursor
 615              	.LVL78:
 126:Src/noteDetect.c ****     ssd1306_WriteString(note,Font_11x18,Black);
ARM GAS  /var/folders/bq/zy6zjhwd1qn4sn8dk3jpjcq80000gn/T//ccGW5XvH.s 			page 14


 616              		.loc 1 126 0
 617 0466 B04C     		ldr	r4, .L181+96
 618 0468 3046     		mov	r0, r6
 619 046a 94E80600 		ldmia	r4, {r1, r2}
 620 046e 0023     		movs	r3, #0
 621 0470 FFF7FEFF 		bl	ssd1306_WriteString
 622              	.LVL79:
 127:Src/noteDetect.c ****     ssd1306_SetCursor(10,10);
 623              		.loc 1 127 0
 624 0474 0A20     		movs	r0, #10
 625 0476 0146     		mov	r1, r0
 626 0478 FFF7FEFF 		bl	ssd1306_SetCursor
 627              	.LVL80:
 128:Src/noteDetect.c ****     ssd1306_WriteString(noteFreq,Font_11x18,Black);
 628              		.loc 1 128 0
 629 047c 3846     		mov	r0, r7
 630 047e 94E80600 		ldmia	r4, {r1, r2}
 631 0482 0023     		movs	r3, #0
 632 0484 FFF7FEFF 		bl	ssd1306_WriteString
 633              	.LVL81:
 129:Src/noteDetect.c **** 
 130:Src/noteDetect.c ****     ssd1306_UpdateScreen();
 634              		.loc 1 130 0
 635 0488 FFF7FEFF 		bl	ssd1306_UpdateScreen
 636              	.LVL82:
 131:Src/noteDetect.c ****     HAL_Delay(500);
 637              		.loc 1 131 0
 638 048c 4FF4FA70 		mov	r0, #500
 639 0490 FFF7FEFF 		bl	HAL_Delay
 640              	.LVL83:
 641 0494 00F06ABE 		b	.L1
 642              	.L27:
 132:Src/noteDetect.c ****   }
 133:Src/noteDetect.c **** 
 134:Src/noteDetect.c ****   /*Ab2 note */
 135:Src/noteDetect.c ****   else if(frequency <= 106.873 && frequency >= 100.88){
 643              		.loc 1 135 0
 644 0498 2046     		mov	r0, r4
 645 049a 2946     		mov	r1, r5
 646 049c 8EA3     		adr	r3, .L181+16
 647 049e D3E90023 		ldrd	r2, [r3]
 648 04a2 FFF7FEFF 		bl	__aeabi_dcmple
 649              	.LVL84:
 650 04a6 68B3     		cbz	r0, .L30
 651              		.loc 1 135 0 is_stmt 0 discriminator 1
 652 04a8 2046     		mov	r0, r4
 653 04aa 2946     		mov	r1, r5
 654 04ac 8CA3     		adr	r3, .L181+24
 655 04ae D3E90023 		ldrd	r2, [r3]
 656 04b2 FFF7FEFF 		bl	__aeabi_dcmpge
 657              	.LVL85:
 658 04b6 28B3     		cbz	r0, .L30
 136:Src/noteDetect.c ****     sprintf(note, "Ab2");
 659              		.loc 1 136 0 is_stmt 1
 660 04b8 9D4B     		ldr	r3, .L181+104
 661 04ba 1868     		ldr	r0, [r3]	@ unaligned
 662 04bc 3060     		str	r0, [r6]	@ unaligned
ARM GAS  /var/folders/bq/zy6zjhwd1qn4sn8dk3jpjcq80000gn/T//ccGW5XvH.s 			page 15


 137:Src/noteDetect.c ****     sprintf(noteFreq, "%.2f", frequency);
 663              		.loc 1 137 0
 664 04be 3846     		mov	r0, r7
 665 04c0 9849     		ldr	r1, .L181+92
 666 04c2 2246     		mov	r2, r4
 667 04c4 2B46     		mov	r3, r5
 668 04c6 FFF7FEFF 		bl	sprintf
 669              	.LVL86:
 138:Src/noteDetect.c **** 
 139:Src/noteDetect.c ****     ssd1306_SetCursor(50,50);
 670              		.loc 1 139 0
 671 04ca 3220     		movs	r0, #50
 672 04cc 0146     		mov	r1, r0
 673 04ce FFF7FEFF 		bl	ssd1306_SetCursor
 674              	.LVL87:
 140:Src/noteDetect.c ****     ssd1306_WriteString(note,Font_11x18,Black);
 675              		.loc 1 140 0
 676 04d2 954C     		ldr	r4, .L181+96
 677 04d4 3046     		mov	r0, r6
 678 04d6 94E80600 		ldmia	r4, {r1, r2}
 679 04da 0023     		movs	r3, #0
 680 04dc FFF7FEFF 		bl	ssd1306_WriteString
 681              	.LVL88:
 141:Src/noteDetect.c ****     ssd1306_SetCursor(10,10);
 682              		.loc 1 141 0
 683 04e0 0A20     		movs	r0, #10
 684 04e2 0146     		mov	r1, r0
 685 04e4 FFF7FEFF 		bl	ssd1306_SetCursor
 686              	.LVL89:
 142:Src/noteDetect.c ****     ssd1306_WriteString(noteFreq,Font_11x18,Black);
 687              		.loc 1 142 0
 688 04e8 3846     		mov	r0, r7
 689 04ea 94E80600 		ldmia	r4, {r1, r2}
 690 04ee 0023     		movs	r3, #0
 691 04f0 FFF7FEFF 		bl	ssd1306_WriteString
 692              	.LVL90:
 143:Src/noteDetect.c **** 
 144:Src/noteDetect.c ****     ssd1306_UpdateScreen();
 693              		.loc 1 144 0
 694 04f4 FFF7FEFF 		bl	ssd1306_UpdateScreen
 695              	.LVL91:
 145:Src/noteDetect.c ****     HAL_Delay(500);
 696              		.loc 1 145 0
 697 04f8 4FF4FA70 		mov	r0, #500
 698 04fc FFF7FEFF 		bl	HAL_Delay
 699              	.LVL92:
 700 0500 00F034BE 		b	.L1
 701              	.L30:
 146:Src/noteDetect.c ****   }
 147:Src/noteDetect.c **** 
 148:Src/noteDetect.c ****   /*A2 note */
 149:Src/noteDetect.c ****   else if(frequency <= 113.22 && frequency >= 106.88){
 702              		.loc 1 149 0
 703 0504 2046     		mov	r0, r4
 704 0506 2946     		mov	r1, r5
 705 0508 77A3     		adr	r3, .L181+32
 706 050a D3E90023 		ldrd	r2, [r3]
ARM GAS  /var/folders/bq/zy6zjhwd1qn4sn8dk3jpjcq80000gn/T//ccGW5XvH.s 			page 16


 707 050e FFF7FEFF 		bl	__aeabi_dcmple
 708              	.LVL93:
 709 0512 78B3     		cbz	r0, .L33
 710              		.loc 1 149 0 is_stmt 0 discriminator 1
 711 0514 2046     		mov	r0, r4
 712 0516 2946     		mov	r1, r5
 713 0518 75A3     		adr	r3, .L181+40
 714 051a D3E90023 		ldrd	r2, [r3]
 715 051e FFF7FEFF 		bl	__aeabi_dcmpge
 716              	.LVL94:
 717 0522 38B3     		cbz	r0, .L33
 150:Src/noteDetect.c ****     sprintf(note, "A2");
 718              		.loc 1 150 0 is_stmt 1
 719 0524 834B     		ldr	r3, .L181+108
 720 0526 1A88     		ldrh	r2, [r3]	@ unaligned
 721 0528 9B78     		ldrb	r3, [r3, #2]	@ zero_extendqisi2
 722 052a 3280     		strh	r2, [r6]	@ unaligned
 723 052c B370     		strb	r3, [r6, #2]
 151:Src/noteDetect.c ****     sprintf(noteFreq, "%.2f", frequency);
 724              		.loc 1 151 0
 725 052e 3846     		mov	r0, r7
 726 0530 7C49     		ldr	r1, .L181+92
 727 0532 2246     		mov	r2, r4
 728 0534 2B46     		mov	r3, r5
 729 0536 FFF7FEFF 		bl	sprintf
 730              	.LVL95:
 152:Src/noteDetect.c **** 
 153:Src/noteDetect.c ****     ssd1306_SetCursor(50,50);
 731              		.loc 1 153 0
 732 053a 3220     		movs	r0, #50
 733 053c 0146     		mov	r1, r0
 734 053e FFF7FEFF 		bl	ssd1306_SetCursor
 735              	.LVL96:
 154:Src/noteDetect.c ****     ssd1306_WriteString(note,Font_11x18,Black);
 736              		.loc 1 154 0
 737 0542 794C     		ldr	r4, .L181+96
 738 0544 3046     		mov	r0, r6
 739 0546 94E80600 		ldmia	r4, {r1, r2}
 740 054a 0023     		movs	r3, #0
 741 054c FFF7FEFF 		bl	ssd1306_WriteString
 742              	.LVL97:
 155:Src/noteDetect.c ****     ssd1306_SetCursor(10,10);
 743              		.loc 1 155 0
 744 0550 0A20     		movs	r0, #10
 745 0552 0146     		mov	r1, r0
 746 0554 FFF7FEFF 		bl	ssd1306_SetCursor
 747              	.LVL98:
 156:Src/noteDetect.c ****     ssd1306_WriteString(noteFreq,Font_11x18,Black);
 748              		.loc 1 156 0
 749 0558 3846     		mov	r0, r7
 750 055a 94E80600 		ldmia	r4, {r1, r2}
 751 055e 0023     		movs	r3, #0
 752 0560 FFF7FEFF 		bl	ssd1306_WriteString
 753              	.LVL99:
 157:Src/noteDetect.c **** 
 158:Src/noteDetect.c ****     ssd1306_UpdateScreen();
 754              		.loc 1 158 0
ARM GAS  /var/folders/bq/zy6zjhwd1qn4sn8dk3jpjcq80000gn/T//ccGW5XvH.s 			page 17


 755 0564 FFF7FEFF 		bl	ssd1306_UpdateScreen
 756              	.LVL100:
 159:Src/noteDetect.c ****     HAL_Delay(500);
 757              		.loc 1 159 0
 758 0568 4FF4FA70 		mov	r0, #500
 759 056c FFF7FEFF 		bl	HAL_Delay
 760              	.LVL101:
 761 0570 00F0FCBD 		b	.L1
 762              	.L33:
 160:Src/noteDetect.c ****   }
 161:Src/noteDetect.c **** 
 162:Src/noteDetect.c ****   /*B2 note */
 163:Src/noteDetect.c ****   else if(frequency <= 127.08 && frequency >= 119.93){
 763              		.loc 1 163 0
 764 0574 2046     		mov	r0, r4
 765 0576 2946     		mov	r1, r5
 766 0578 5FA3     		adr	r3, .L181+48
 767 057a D3E90023 		ldrd	r2, [r3]
 768 057e FFF7FEFF 		bl	__aeabi_dcmple
 769              	.LVL102:
 770 0582 78B3     		cbz	r0, .L36
 771              		.loc 1 163 0 is_stmt 0 discriminator 1
 772 0584 2046     		mov	r0, r4
 773 0586 2946     		mov	r1, r5
 774 0588 5DA3     		adr	r3, .L181+56
 775 058a D3E90023 		ldrd	r2, [r3]
 776 058e FFF7FEFF 		bl	__aeabi_dcmpge
 777              	.LVL103:
 778 0592 38B3     		cbz	r0, .L36
 164:Src/noteDetect.c ****     sprintf(note, "B2");
 779              		.loc 1 164 0 is_stmt 1
 780 0594 684B     		ldr	r3, .L181+112
 781 0596 1A88     		ldrh	r2, [r3]	@ unaligned
 782 0598 9B78     		ldrb	r3, [r3, #2]	@ zero_extendqisi2
 783 059a 3280     		strh	r2, [r6]	@ unaligned
 784 059c B370     		strb	r3, [r6, #2]
 165:Src/noteDetect.c ****     sprintf(noteFreq, "%.2f", frequency);
 785              		.loc 1 165 0
 786 059e 3846     		mov	r0, r7
 787 05a0 6049     		ldr	r1, .L181+92
 788 05a2 2246     		mov	r2, r4
 789 05a4 2B46     		mov	r3, r5
 790 05a6 FFF7FEFF 		bl	sprintf
 791              	.LVL104:
 166:Src/noteDetect.c **** 
 167:Src/noteDetect.c ****     ssd1306_SetCursor(50,50);
 792              		.loc 1 167 0
 793 05aa 3220     		movs	r0, #50
 794 05ac 0146     		mov	r1, r0
 795 05ae FFF7FEFF 		bl	ssd1306_SetCursor
 796              	.LVL105:
 168:Src/noteDetect.c ****     ssd1306_WriteString(note,Font_11x18,Black);
 797              		.loc 1 168 0
 798 05b2 5D4C     		ldr	r4, .L181+96
 799 05b4 3046     		mov	r0, r6
 800 05b6 94E80600 		ldmia	r4, {r1, r2}
 801 05ba 0023     		movs	r3, #0
ARM GAS  /var/folders/bq/zy6zjhwd1qn4sn8dk3jpjcq80000gn/T//ccGW5XvH.s 			page 18


 802 05bc FFF7FEFF 		bl	ssd1306_WriteString
 803              	.LVL106:
 169:Src/noteDetect.c ****     ssd1306_SetCursor(10,10);
 804              		.loc 1 169 0
 805 05c0 0A20     		movs	r0, #10
 806 05c2 0146     		mov	r1, r0
 807 05c4 FFF7FEFF 		bl	ssd1306_SetCursor
 808              	.LVL107:
 170:Src/noteDetect.c ****     ssd1306_WriteString(noteFreq,Font_11x18,Black);
 809              		.loc 1 170 0
 810 05c8 3846     		mov	r0, r7
 811 05ca 94E80600 		ldmia	r4, {r1, r2}
 812 05ce 0023     		movs	r3, #0
 813 05d0 FFF7FEFF 		bl	ssd1306_WriteString
 814              	.LVL108:
 171:Src/noteDetect.c **** 
 172:Src/noteDetect.c ****     ssd1306_UpdateScreen();
 815              		.loc 1 172 0
 816 05d4 FFF7FEFF 		bl	ssd1306_UpdateScreen
 817              	.LVL109:
 173:Src/noteDetect.c ****     HAL_Delay(500);
 818              		.loc 1 173 0
 819 05d8 4FF4FA70 		mov	r0, #500
 820 05dc FFF7FEFF 		bl	HAL_Delay
 821              	.LVL110:
 822 05e0 00F0C4BD 		b	.L1
 823              	.L36:
 174:Src/noteDetect.c ****   }
 175:Src/noteDetect.c **** 
 176:Src/noteDetect.c ****   /*C3 note */
 177:Src/noteDetect.c ****   else if(frequency <= 134.64 && frequency >= 127.08){
 824              		.loc 1 177 0
 825 05e4 2046     		mov	r0, r4
 826 05e6 2946     		mov	r1, r5
 827 05e8 47A3     		adr	r3, .L181+64
 828 05ea D3E90023 		ldrd	r2, [r3]
 829 05ee FFF7FEFF 		bl	__aeabi_dcmple
 830              	.LVL111:
 831 05f2 78B3     		cbz	r0, .L39
 832              		.loc 1 177 0 is_stmt 0 discriminator 1
 833 05f4 2046     		mov	r0, r4
 834 05f6 2946     		mov	r1, r5
 835 05f8 3FA3     		adr	r3, .L181+48
 836 05fa D3E90023 		ldrd	r2, [r3]
 837 05fe FFF7FEFF 		bl	__aeabi_dcmpge
 838              	.LVL112:
 839 0602 38B3     		cbz	r0, .L39
 178:Src/noteDetect.c ****     sprintf(note, "C3");
 840              		.loc 1 178 0 is_stmt 1
 841 0604 4D4B     		ldr	r3, .L181+116
 842 0606 1A88     		ldrh	r2, [r3]	@ unaligned
 843 0608 9B78     		ldrb	r3, [r3, #2]	@ zero_extendqisi2
 844 060a 3280     		strh	r2, [r6]	@ unaligned
 845 060c B370     		strb	r3, [r6, #2]
 179:Src/noteDetect.c ****     sprintf(noteFreq, "%.2f", frequency);
 846              		.loc 1 179 0
 847 060e 3846     		mov	r0, r7
ARM GAS  /var/folders/bq/zy6zjhwd1qn4sn8dk3jpjcq80000gn/T//ccGW5XvH.s 			page 19


 848 0610 4449     		ldr	r1, .L181+92
 849 0612 2246     		mov	r2, r4
 850 0614 2B46     		mov	r3, r5
 851 0616 FFF7FEFF 		bl	sprintf
 852              	.LVL113:
 180:Src/noteDetect.c **** 
 181:Src/noteDetect.c ****     ssd1306_SetCursor(50,50);
 853              		.loc 1 181 0
 854 061a 3220     		movs	r0, #50
 855 061c 0146     		mov	r1, r0
 856 061e FFF7FEFF 		bl	ssd1306_SetCursor
 857              	.LVL114:
 182:Src/noteDetect.c ****     ssd1306_WriteString(note,Font_11x18,Black);
 858              		.loc 1 182 0
 859 0622 414C     		ldr	r4, .L181+96
 860 0624 3046     		mov	r0, r6
 861 0626 94E80600 		ldmia	r4, {r1, r2}
 862 062a 0023     		movs	r3, #0
 863 062c FFF7FEFF 		bl	ssd1306_WriteString
 864              	.LVL115:
 183:Src/noteDetect.c ****     ssd1306_SetCursor(10,10);
 865              		.loc 1 183 0
 866 0630 0A20     		movs	r0, #10
 867 0632 0146     		mov	r1, r0
 868 0634 FFF7FEFF 		bl	ssd1306_SetCursor
 869              	.LVL116:
 184:Src/noteDetect.c ****     ssd1306_WriteString(noteFreq,Font_11x18,Black);
 870              		.loc 1 184 0
 871 0638 3846     		mov	r0, r7
 872 063a 94E80600 		ldmia	r4, {r1, r2}
 873 063e 0023     		movs	r3, #0
 874 0640 FFF7FEFF 		bl	ssd1306_WriteString
 875              	.LVL117:
 185:Src/noteDetect.c **** 
 186:Src/noteDetect.c ****     ssd1306_UpdateScreen();
 876              		.loc 1 186 0
 877 0644 FFF7FEFF 		bl	ssd1306_UpdateScreen
 878              	.LVL118:
 187:Src/noteDetect.c ****     HAL_Delay(500);
 879              		.loc 1 187 0
 880 0648 4FF4FA70 		mov	r0, #500
 881 064c FFF7FEFF 		bl	HAL_Delay
 882              	.LVL119:
 883 0650 00F08CBD 		b	.L1
 884              	.L39:
 188:Src/noteDetect.c ****   }
 189:Src/noteDetect.c **** 
 190:Src/noteDetect.c ****   /*Db3 note */
 191:Src/noteDetect.c ****   else if(frequency <= 142.65 && frequency >= 134.65){
 885              		.loc 1 191 0
 886 0654 2046     		mov	r0, r4
 887 0656 2946     		mov	r1, r5
 888 0658 2DA3     		adr	r3, .L181+72
 889 065a D3E90023 		ldrd	r2, [r3]
 890 065e FFF7FEFF 		bl	__aeabi_dcmple
 891              	.LVL120:
 892 0662 0028     		cmp	r0, #0
ARM GAS  /var/folders/bq/zy6zjhwd1qn4sn8dk3jpjcq80000gn/T//ccGW5XvH.s 			page 20


 893 0664 76D0     		beq	.L42
 894              		.loc 1 191 0 is_stmt 0 discriminator 1
 895 0666 2046     		mov	r0, r4
 896 0668 2946     		mov	r1, r5
 897 066a 2BA3     		adr	r3, .L181+80
 898 066c D3E90023 		ldrd	r2, [r3]
 899 0670 FFF7FEFF 		bl	__aeabi_dcmpge
 900              	.LVL121:
 901 0674 0028     		cmp	r0, #0
 902 0676 6DD0     		beq	.L42
 192:Src/noteDetect.c ****     sprintf(note, "Db3");
 903              		.loc 1 192 0 is_stmt 1
 904 0678 314B     		ldr	r3, .L181+120
 905 067a 1868     		ldr	r0, [r3]	@ unaligned
 906 067c 3060     		str	r0, [r6]	@ unaligned
 193:Src/noteDetect.c ****     sprintf(noteFreq, "%.2f", frequency);
 907              		.loc 1 193 0
 908 067e 3846     		mov	r0, r7
 909 0680 2849     		ldr	r1, .L181+92
 910 0682 2246     		mov	r2, r4
 911 0684 2B46     		mov	r3, r5
 912 0686 FFF7FEFF 		bl	sprintf
 913              	.LVL122:
 194:Src/noteDetect.c **** 
 195:Src/noteDetect.c ****     ssd1306_SetCursor(50,50);
 914              		.loc 1 195 0
 915 068a 3220     		movs	r0, #50
 916 068c 0146     		mov	r1, r0
 917 068e FFF7FEFF 		bl	ssd1306_SetCursor
 918              	.LVL123:
 196:Src/noteDetect.c ****     ssd1306_WriteString(note,Font_11x18,Black);
 919              		.loc 1 196 0
 920 0692 254C     		ldr	r4, .L181+96
 921 0694 3046     		mov	r0, r6
 922 0696 94E80600 		ldmia	r4, {r1, r2}
 923 069a 0023     		movs	r3, #0
 924 069c FFF7FEFF 		bl	ssd1306_WriteString
 925              	.LVL124:
 197:Src/noteDetect.c ****     ssd1306_SetCursor(10,10);
 926              		.loc 1 197 0
 927 06a0 0A20     		movs	r0, #10
 928 06a2 0146     		mov	r1, r0
 929 06a4 FFF7FEFF 		bl	ssd1306_SetCursor
 930              	.LVL125:
 198:Src/noteDetect.c ****     ssd1306_WriteString(noteFreq,Font_11x18,Black);
 931              		.loc 1 198 0
 932 06a8 3846     		mov	r0, r7
 933 06aa 94E80600 		ldmia	r4, {r1, r2}
 934 06ae 0023     		movs	r3, #0
 935 06b0 FFF7FEFF 		bl	ssd1306_WriteString
 936              	.LVL126:
 199:Src/noteDetect.c **** 
 200:Src/noteDetect.c ****     ssd1306_UpdateScreen();
 937              		.loc 1 200 0
 938 06b4 FFF7FEFF 		bl	ssd1306_UpdateScreen
 939              	.LVL127:
 201:Src/noteDetect.c ****     HAL_Delay(500);
ARM GAS  /var/folders/bq/zy6zjhwd1qn4sn8dk3jpjcq80000gn/T//ccGW5XvH.s 			page 21


 940              		.loc 1 201 0
 941 06b8 4FF4FA70 		mov	r0, #500
 942 06bc FFF7FEFF 		bl	HAL_Delay
 943              	.LVL128:
 944 06c0 00F054BD 		b	.L1
 945              	.L182:
 946 06c4 AFF30080 		.align	3
 947              	.L181:
 948 06c8 48E17A14 		.word	343597384
 949 06cc AE375940 		.word	1079588782
 950 06d0 AE47E17A 		.word	2061584302
 951 06d4 14CE5740 		.word	1079496212
 952 06d8 1D5A643B 		.word	996432413
 953 06dc DFB75A40 		.word	1079687135
 954 06e0 B81E85EB 		.word	3951369912
 955 06e4 51385940 		.word	1079588945
 956 06e8 AE47E17A 		.word	2061584302
 957 06ec 144E5C40 		.word	1079791124
 958 06f0 B81E85EB 		.word	3951369912
 959 06f4 51B85A40 		.word	1079687249
 960 06f8 85EB51B8 		.word	3092376453
 961 06fc 1EC55F40 		.word	1080018206
 962 0700 EC51B81E 		.word	515396076
 963 0704 85FB5D40 		.word	1079901061
 964 0708 14AE47E1 		.word	3779571220
 965 070c 7AD46040 		.word	1080087674
 966 0710 CDCCCCCC 		.word	3435973837
 967 0714 CCD46140 		.word	1080153292
 968 0718 CDCCCCCC 		.word	3435973837
 969 071c CCD46040 		.word	1080087756
 970 0720 24000000 		.word	.LC8
 971 0724 04000000 		.word	.LC1
 972 0728 00000000 		.word	Font_11x18
 973 072c 28000000 		.word	.LC9
 974 0730 2C000000 		.word	.LC10
 975 0734 30000000 		.word	.LC11
 976 0738 34000000 		.word	.LC12
 977 073c 38000000 		.word	.LC13
 978 0740 3C000000 		.word	.LC14
 979 0744 3D0AD7A3 		.word	2748779069
 980 0748 70CD5740 		.word	1079496048
 981 074c B81E85EB 		.word	3951369912
 982 0750 51785640 		.word	1079408721
 983              	.L42:
 202:Src/noteDetect.c ****   }
 203:Src/noteDetect.c **** 
 204:Src/noteDetect.c ****   /* D3 note */
 205:Src/noteDetect.c ****   else if(frequency <= 151.13 && frequency >= 142.65){
 984              		.loc 1 205 0
 985 0754 2046     		mov	r0, r4
 986 0756 2946     		mov	r1, r5
 987 0758 DCA3     		adr	r3, .L183+116
 988 075a D3E90023 		ldrd	r2, [r3]
 989 075e FFF7FEFF 		bl	__aeabi_dcmple
 990              	.LVL129:
 991 0762 78B3     		cbz	r0, .L45
 992              		.loc 1 205 0 is_stmt 0 discriminator 1
ARM GAS  /var/folders/bq/zy6zjhwd1qn4sn8dk3jpjcq80000gn/T//ccGW5XvH.s 			page 22


 993 0764 2046     		mov	r0, r4
 994 0766 2946     		mov	r1, r5
 995 0768 DAA3     		adr	r3, .L183+124
 996 076a D3E90023 		ldrd	r2, [r3]
 997 076e FFF7FEFF 		bl	__aeabi_dcmpge
 998              	.LVL130:
 999 0772 38B3     		cbz	r0, .L45
 206:Src/noteDetect.c ****     sprintf(note, "D3");
 1000              		.loc 1 206 0 is_stmt 1
 1001 0774 CC4B     		ldr	r3, .L183+80
 1002 0776 1A88     		ldrh	r2, [r3]	@ unaligned
 1003 0778 9B78     		ldrb	r3, [r3, #2]	@ zero_extendqisi2
 1004 077a 3280     		strh	r2, [r6]	@ unaligned
 1005 077c B370     		strb	r3, [r6, #2]
 207:Src/noteDetect.c ****     sprintf(noteFreq, "%.2f", frequency);
 1006              		.loc 1 207 0
 1007 077e 3846     		mov	r0, r7
 1008 0780 CA49     		ldr	r1, .L183+84
 1009 0782 2246     		mov	r2, r4
 1010 0784 2B46     		mov	r3, r5
 1011 0786 FFF7FEFF 		bl	sprintf
 1012              	.LVL131:
 208:Src/noteDetect.c **** 
 209:Src/noteDetect.c ****     ssd1306_SetCursor(50,50);
 1013              		.loc 1 209 0
 1014 078a 3220     		movs	r0, #50
 1015 078c 0146     		mov	r1, r0
 1016 078e FFF7FEFF 		bl	ssd1306_SetCursor
 1017              	.LVL132:
 210:Src/noteDetect.c ****     ssd1306_WriteString(note,Font_11x18,Black);
 1018              		.loc 1 210 0
 1019 0792 C74C     		ldr	r4, .L183+88
 1020 0794 3046     		mov	r0, r6
 1021 0796 94E80600 		ldmia	r4, {r1, r2}
 1022 079a 0023     		movs	r3, #0
 1023 079c FFF7FEFF 		bl	ssd1306_WriteString
 1024              	.LVL133:
 211:Src/noteDetect.c ****     ssd1306_SetCursor(10,10);
 1025              		.loc 1 211 0
 1026 07a0 0A20     		movs	r0, #10
 1027 07a2 0146     		mov	r1, r0
 1028 07a4 FFF7FEFF 		bl	ssd1306_SetCursor
 1029              	.LVL134:
 212:Src/noteDetect.c ****     ssd1306_WriteString(noteFreq,Font_11x18,Black);
 1030              		.loc 1 212 0
 1031 07a8 3846     		mov	r0, r7
 1032 07aa 94E80600 		ldmia	r4, {r1, r2}
 1033 07ae 0023     		movs	r3, #0
 1034 07b0 FFF7FEFF 		bl	ssd1306_WriteString
 1035              	.LVL135:
 213:Src/noteDetect.c **** 
 214:Src/noteDetect.c ****     ssd1306_UpdateScreen();
 1036              		.loc 1 214 0
 1037 07b4 FFF7FEFF 		bl	ssd1306_UpdateScreen
 1038              	.LVL136:
 215:Src/noteDetect.c ****     HAL_Delay(500);
 1039              		.loc 1 215 0
ARM GAS  /var/folders/bq/zy6zjhwd1qn4sn8dk3jpjcq80000gn/T//ccGW5XvH.s 			page 23


 1040 07b8 4FF4FA70 		mov	r0, #500
 1041 07bc FFF7FEFF 		bl	HAL_Delay
 1042              	.LVL137:
 1043 07c0 00F0D4BC 		b	.L1
 1044              	.L45:
 216:Src/noteDetect.c ****   }
 217:Src/noteDetect.c **** 
 218:Src/noteDetect.c ****   /*Eb3 note */
 219:Src/noteDetect.c ****   else if(frequency <= 160.11 && frequency >= 151.14){
 1045              		.loc 1 219 0
 1046 07c4 2046     		mov	r0, r4
 1047 07c6 2946     		mov	r1, r5
 1048 07c8 A3A3     		adr	r3, .L183
 1049 07ca D3E90023 		ldrd	r2, [r3]
 1050 07ce FFF7FEFF 		bl	__aeabi_dcmple
 1051              	.LVL138:
 1052 07d2 68B3     		cbz	r0, .L48
 1053              		.loc 1 219 0 is_stmt 0 discriminator 1
 1054 07d4 2046     		mov	r0, r4
 1055 07d6 2946     		mov	r1, r5
 1056 07d8 A1A3     		adr	r3, .L183+8
 1057 07da D3E90023 		ldrd	r2, [r3]
 1058 07de FFF7FEFF 		bl	__aeabi_dcmpge
 1059              	.LVL139:
 1060 07e2 28B3     		cbz	r0, .L48
 220:Src/noteDetect.c ****     sprintf(note, "Eb3");
 1061              		.loc 1 220 0 is_stmt 1
 1062 07e4 B34B     		ldr	r3, .L183+92
 1063 07e6 1868     		ldr	r0, [r3]	@ unaligned
 1064 07e8 3060     		str	r0, [r6]	@ unaligned
 221:Src/noteDetect.c ****     sprintf(noteFreq, "%.2f", frequency);
 1065              		.loc 1 221 0
 1066 07ea 3846     		mov	r0, r7
 1067 07ec AF49     		ldr	r1, .L183+84
 1068 07ee 2246     		mov	r2, r4
 1069 07f0 2B46     		mov	r3, r5
 1070 07f2 FFF7FEFF 		bl	sprintf
 1071              	.LVL140:
 222:Src/noteDetect.c **** 
 223:Src/noteDetect.c ****     ssd1306_SetCursor(50,50);
 1072              		.loc 1 223 0
 1073 07f6 3220     		movs	r0, #50
 1074 07f8 0146     		mov	r1, r0
 1075 07fa FFF7FEFF 		bl	ssd1306_SetCursor
 1076              	.LVL141:
 224:Src/noteDetect.c ****     ssd1306_WriteString(note,Font_11x18,Black);
 1077              		.loc 1 224 0
 1078 07fe AC4C     		ldr	r4, .L183+88
 1079 0800 3046     		mov	r0, r6
 1080 0802 94E80600 		ldmia	r4, {r1, r2}
 1081 0806 0023     		movs	r3, #0
 1082 0808 FFF7FEFF 		bl	ssd1306_WriteString
 1083              	.LVL142:
 225:Src/noteDetect.c ****     ssd1306_SetCursor(10,10);
 1084              		.loc 1 225 0
 1085 080c 0A20     		movs	r0, #10
 1086 080e 0146     		mov	r1, r0
ARM GAS  /var/folders/bq/zy6zjhwd1qn4sn8dk3jpjcq80000gn/T//ccGW5XvH.s 			page 24


 1087 0810 FFF7FEFF 		bl	ssd1306_SetCursor
 1088              	.LVL143:
 226:Src/noteDetect.c ****     ssd1306_WriteString(noteFreq,Font_11x18,Black);
 1089              		.loc 1 226 0
 1090 0814 3846     		mov	r0, r7
 1091 0816 94E80600 		ldmia	r4, {r1, r2}
 1092 081a 0023     		movs	r3, #0
 1093 081c FFF7FEFF 		bl	ssd1306_WriteString
 1094              	.LVL144:
 227:Src/noteDetect.c **** 
 228:Src/noteDetect.c ****     ssd1306_UpdateScreen();
 1095              		.loc 1 228 0
 1096 0820 FFF7FEFF 		bl	ssd1306_UpdateScreen
 1097              	.LVL145:
 229:Src/noteDetect.c ****     HAL_Delay(500);
 1098              		.loc 1 229 0
 1099 0824 4FF4FA70 		mov	r0, #500
 1100 0828 FFF7FEFF 		bl	HAL_Delay
 1101              	.LVL146:
 1102 082c 00F09EBC 		b	.L1
 1103              	.L48:
 230:Src/noteDetect.c ****   }
 231:Src/noteDetect.c **** 
 232:Src/noteDetect.c ****   /*E3 note */
 233:Src/noteDetect.c ****   else if(frequency <= 169.64 && frequency >= 160.12){
 1104              		.loc 1 233 0
 1105 0830 2046     		mov	r0, r4
 1106 0832 2946     		mov	r1, r5
 1107 0834 8CA3     		adr	r3, .L183+16
 1108 0836 D3E90023 		ldrd	r2, [r3]
 1109 083a FFF7FEFF 		bl	__aeabi_dcmple
 1110              	.LVL147:
 1111 083e 78B3     		cbz	r0, .L51
 1112              		.loc 1 233 0 is_stmt 0 discriminator 1
 1113 0840 2046     		mov	r0, r4
 1114 0842 2946     		mov	r1, r5
 1115 0844 8AA3     		adr	r3, .L183+24
 1116 0846 D3E90023 		ldrd	r2, [r3]
 1117 084a FFF7FEFF 		bl	__aeabi_dcmpge
 1118              	.LVL148:
 1119 084e 38B3     		cbz	r0, .L51
 234:Src/noteDetect.c ****     sprintf(note, "E3");
 1120              		.loc 1 234 0 is_stmt 1
 1121 0850 994B     		ldr	r3, .L183+96
 1122 0852 1A88     		ldrh	r2, [r3]	@ unaligned
 1123 0854 9B78     		ldrb	r3, [r3, #2]	@ zero_extendqisi2
 1124 0856 3280     		strh	r2, [r6]	@ unaligned
 1125 0858 B370     		strb	r3, [r6, #2]
 235:Src/noteDetect.c ****     sprintf(noteFreq, "%.2f", frequency);
 1126              		.loc 1 235 0
 1127 085a 3846     		mov	r0, r7
 1128 085c 9349     		ldr	r1, .L183+84
 1129 085e 2246     		mov	r2, r4
 1130 0860 2B46     		mov	r3, r5
 1131 0862 FFF7FEFF 		bl	sprintf
 1132              	.LVL149:
 236:Src/noteDetect.c **** 
ARM GAS  /var/folders/bq/zy6zjhwd1qn4sn8dk3jpjcq80000gn/T//ccGW5XvH.s 			page 25


 237:Src/noteDetect.c ****     ssd1306_SetCursor(50,50);
 1133              		.loc 1 237 0
 1134 0866 3220     		movs	r0, #50
 1135 0868 0146     		mov	r1, r0
 1136 086a FFF7FEFF 		bl	ssd1306_SetCursor
 1137              	.LVL150:
 238:Src/noteDetect.c ****     ssd1306_WriteString(note,Font_11x18,Black);
 1138              		.loc 1 238 0
 1139 086e 904C     		ldr	r4, .L183+88
 1140 0870 3046     		mov	r0, r6
 1141 0872 94E80600 		ldmia	r4, {r1, r2}
 1142 0876 0023     		movs	r3, #0
 1143 0878 FFF7FEFF 		bl	ssd1306_WriteString
 1144              	.LVL151:
 239:Src/noteDetect.c ****     ssd1306_SetCursor(10,10);
 1145              		.loc 1 239 0
 1146 087c 0A20     		movs	r0, #10
 1147 087e 0146     		mov	r1, r0
 1148 0880 FFF7FEFF 		bl	ssd1306_SetCursor
 1149              	.LVL152:
 240:Src/noteDetect.c ****     ssd1306_WriteString(noteFreq,Font_11x18,Black);
 1150              		.loc 1 240 0
 1151 0884 3846     		mov	r0, r7
 1152 0886 94E80600 		ldmia	r4, {r1, r2}
 1153 088a 0023     		movs	r3, #0
 1154 088c FFF7FEFF 		bl	ssd1306_WriteString
 1155              	.LVL153:
 241:Src/noteDetect.c **** 
 242:Src/noteDetect.c ****     ssd1306_UpdateScreen();
 1156              		.loc 1 242 0
 1157 0890 FFF7FEFF 		bl	ssd1306_UpdateScreen
 1158              	.LVL154:
 243:Src/noteDetect.c ****     HAL_Delay(500);
 1159              		.loc 1 243 0
 1160 0894 4FF4FA70 		mov	r0, #500
 1161 0898 FFF7FEFF 		bl	HAL_Delay
 1162              	.LVL155:
 1163 089c 00F066BC 		b	.L1
 1164              	.L51:
 244:Src/noteDetect.c ****   }
 245:Src/noteDetect.c **** 
 246:Src/noteDetect.c ****   /*F3 note */
 247:Src/noteDetect.c ****   else if(frequency <= 180.76 && frequency >= 169.65){
 1165              		.loc 1 247 0
 1166 08a0 2046     		mov	r0, r4
 1167 08a2 2946     		mov	r1, r5
 1168 08a4 74A3     		adr	r3, .L183+32
 1169 08a6 D3E90023 		ldrd	r2, [r3]
 1170 08aa FFF7FEFF 		bl	__aeabi_dcmple
 1171              	.LVL156:
 1172 08ae 78B3     		cbz	r0, .L54
 1173              		.loc 1 247 0 is_stmt 0 discriminator 1
 1174 08b0 2046     		mov	r0, r4
 1175 08b2 2946     		mov	r1, r5
 1176 08b4 72A3     		adr	r3, .L183+40
 1177 08b6 D3E90023 		ldrd	r2, [r3]
 1178 08ba FFF7FEFF 		bl	__aeabi_dcmpge
ARM GAS  /var/folders/bq/zy6zjhwd1qn4sn8dk3jpjcq80000gn/T//ccGW5XvH.s 			page 26


 1179              	.LVL157:
 1180 08be 38B3     		cbz	r0, .L54
 248:Src/noteDetect.c ****     sprintf(note, "F3");
 1181              		.loc 1 248 0 is_stmt 1
 1182 08c0 7E4B     		ldr	r3, .L183+100
 1183 08c2 1A88     		ldrh	r2, [r3]	@ unaligned
 1184 08c4 9B78     		ldrb	r3, [r3, #2]	@ zero_extendqisi2
 1185 08c6 3280     		strh	r2, [r6]	@ unaligned
 1186 08c8 B370     		strb	r3, [r6, #2]
 249:Src/noteDetect.c ****     sprintf(noteFreq, "%.2f", frequency);
 1187              		.loc 1 249 0
 1188 08ca 3846     		mov	r0, r7
 1189 08cc 7749     		ldr	r1, .L183+84
 1190 08ce 2246     		mov	r2, r4
 1191 08d0 2B46     		mov	r3, r5
 1192 08d2 FFF7FEFF 		bl	sprintf
 1193              	.LVL158:
 250:Src/noteDetect.c **** 
 251:Src/noteDetect.c ****     ssd1306_SetCursor(50,50);
 1194              		.loc 1 251 0
 1195 08d6 3220     		movs	r0, #50
 1196 08d8 0146     		mov	r1, r0
 1197 08da FFF7FEFF 		bl	ssd1306_SetCursor
 1198              	.LVL159:
 252:Src/noteDetect.c ****     ssd1306_WriteString(note,Font_11x18,Black);
 1199              		.loc 1 252 0
 1200 08de 744C     		ldr	r4, .L183+88
 1201 08e0 3046     		mov	r0, r6
 1202 08e2 94E80600 		ldmia	r4, {r1, r2}
 1203 08e6 0023     		movs	r3, #0
 1204 08e8 FFF7FEFF 		bl	ssd1306_WriteString
 1205              	.LVL160:
 253:Src/noteDetect.c ****     ssd1306_SetCursor(10,10);
 1206              		.loc 1 253 0
 1207 08ec 0A20     		movs	r0, #10
 1208 08ee 0146     		mov	r1, r0
 1209 08f0 FFF7FEFF 		bl	ssd1306_SetCursor
 1210              	.LVL161:
 254:Src/noteDetect.c ****     ssd1306_WriteString(noteFreq,Font_11x18,Black);
 1211              		.loc 1 254 0
 1212 08f4 3846     		mov	r0, r7
 1213 08f6 94E80600 		ldmia	r4, {r1, r2}
 1214 08fa 0023     		movs	r3, #0
 1215 08fc FFF7FEFF 		bl	ssd1306_WriteString
 1216              	.LVL162:
 255:Src/noteDetect.c **** 
 256:Src/noteDetect.c ****     ssd1306_UpdateScreen();
 1217              		.loc 1 256 0
 1218 0900 FFF7FEFF 		bl	ssd1306_UpdateScreen
 1219              	.LVL163:
 257:Src/noteDetect.c ****     HAL_Delay(500);
 1220              		.loc 1 257 0
 1221 0904 4FF4FA70 		mov	r0, #500
 1222 0908 FFF7FEFF 		bl	HAL_Delay
 1223              	.LVL164:
 1224 090c 00F02EBC 		b	.L1
 1225              	.L54:
ARM GAS  /var/folders/bq/zy6zjhwd1qn4sn8dk3jpjcq80000gn/T//ccGW5XvH.s 			page 27


 258:Src/noteDetect.c ****   }
 259:Src/noteDetect.c **** 
 260:Src/noteDetect.c ****   /*Gb3 note */
 261:Src/noteDetect.c ****   else if(frequency <= 190.42 && frequency >= 180.76){
 1226              		.loc 1 261 0
 1227 0910 2046     		mov	r0, r4
 1228 0912 2946     		mov	r1, r5
 1229 0914 5CA3     		adr	r3, .L183+48
 1230 0916 D3E90023 		ldrd	r2, [r3]
 1231 091a FFF7FEFF 		bl	__aeabi_dcmple
 1232              	.LVL165:
 1233 091e 60B3     		cbz	r0, .L57
 1234              		.loc 1 261 0 is_stmt 0 discriminator 1
 1235 0920 2046     		mov	r0, r4
 1236 0922 2946     		mov	r1, r5
 1237 0924 54A3     		adr	r3, .L183+32
 1238 0926 D3E90023 		ldrd	r2, [r3]
 1239 092a FFF7FEFF 		bl	__aeabi_dcmpge
 1240              	.LVL166:
 1241 092e 20B3     		cbz	r0, .L57
 262:Src/noteDetect.c ****     sprintf(note, "Gb3");
 1242              		.loc 1 262 0 is_stmt 1
 1243 0930 634B     		ldr	r3, .L183+104
 1244 0932 1868     		ldr	r0, [r3]	@ unaligned
 1245 0934 3060     		str	r0, [r6]	@ unaligned
 263:Src/noteDetect.c ****     sprintf(noteFreq, "%.2f", frequency);
 1246              		.loc 1 263 0
 1247 0936 3846     		mov	r0, r7
 1248 0938 5C49     		ldr	r1, .L183+84
 1249 093a 2246     		mov	r2, r4
 1250 093c 2B46     		mov	r3, r5
 1251 093e FFF7FEFF 		bl	sprintf
 1252              	.LVL167:
 264:Src/noteDetect.c **** 
 265:Src/noteDetect.c ****     ssd1306_SetCursor(50,50);
 1253              		.loc 1 265 0
 1254 0942 3220     		movs	r0, #50
 1255 0944 0146     		mov	r1, r0
 1256 0946 FFF7FEFF 		bl	ssd1306_SetCursor
 1257              	.LVL168:
 266:Src/noteDetect.c ****     ssd1306_WriteString(note,Font_11x18,Black);
 1258              		.loc 1 266 0
 1259 094a 594C     		ldr	r4, .L183+88
 1260 094c 3046     		mov	r0, r6
 1261 094e 94E80600 		ldmia	r4, {r1, r2}
 1262 0952 0023     		movs	r3, #0
 1263 0954 FFF7FEFF 		bl	ssd1306_WriteString
 1264              	.LVL169:
 267:Src/noteDetect.c ****     ssd1306_SetCursor(10,10);
 1265              		.loc 1 267 0
 1266 0958 0A20     		movs	r0, #10
 1267 095a 0146     		mov	r1, r0
 1268 095c FFF7FEFF 		bl	ssd1306_SetCursor
 1269              	.LVL170:
 268:Src/noteDetect.c ****     ssd1306_WriteString(noteFreq,Font_11x18,Black);
 1270              		.loc 1 268 0
 1271 0960 3846     		mov	r0, r7
ARM GAS  /var/folders/bq/zy6zjhwd1qn4sn8dk3jpjcq80000gn/T//ccGW5XvH.s 			page 28


 1272 0962 94E80600 		ldmia	r4, {r1, r2}
 1273 0966 0023     		movs	r3, #0
 1274 0968 FFF7FEFF 		bl	ssd1306_WriteString
 1275              	.LVL171:
 269:Src/noteDetect.c **** 
 270:Src/noteDetect.c ****     ssd1306_UpdateScreen();
 1276              		.loc 1 270 0
 1277 096c FFF7FEFF 		bl	ssd1306_UpdateScreen
 1278              	.LVL172:
 271:Src/noteDetect.c ****     HAL_Delay(500);
 1279              		.loc 1 271 0
 1280 0970 4FF4FA70 		mov	r0, #500
 1281 0974 FFF7FEFF 		bl	HAL_Delay
 1282              	.LVL173:
 1283 0978 F8E3     		b	.L1
 1284              	.L57:
 272:Src/noteDetect.c ****   }
 273:Src/noteDetect.c **** 
 274:Src/noteDetect.c ****   /*G3 note */
 275:Src/noteDetect.c ****   else if(frequency <= 201.76 && frequency >= 190.42){
 1285              		.loc 1 275 0
 1286 097a 2046     		mov	r0, r4
 1287 097c 2946     		mov	r1, r5
 1288 097e 44A3     		adr	r3, .L183+56
 1289 0980 D3E90023 		ldrd	r2, [r3]
 1290 0984 FFF7FEFF 		bl	__aeabi_dcmple
 1291              	.LVL174:
 1292 0988 70B3     		cbz	r0, .L60
 1293              		.loc 1 275 0 is_stmt 0 discriminator 1
 1294 098a 2046     		mov	r0, r4
 1295 098c 2946     		mov	r1, r5
 1296 098e 3EA3     		adr	r3, .L183+48
 1297 0990 D3E90023 		ldrd	r2, [r3]
 1298 0994 FFF7FEFF 		bl	__aeabi_dcmpge
 1299              	.LVL175:
 1300 0998 30B3     		cbz	r0, .L60
 276:Src/noteDetect.c ****     sprintf(note, "G3");
 1301              		.loc 1 276 0 is_stmt 1
 1302 099a 4A4B     		ldr	r3, .L183+108
 1303 099c 1A88     		ldrh	r2, [r3]	@ unaligned
 1304 099e 9B78     		ldrb	r3, [r3, #2]	@ zero_extendqisi2
 1305 09a0 3280     		strh	r2, [r6]	@ unaligned
 1306 09a2 B370     		strb	r3, [r6, #2]
 277:Src/noteDetect.c ****     sprintf(noteFreq, "%.2f", frequency);
 1307              		.loc 1 277 0
 1308 09a4 3846     		mov	r0, r7
 1309 09a6 4149     		ldr	r1, .L183+84
 1310 09a8 2246     		mov	r2, r4
 1311 09aa 2B46     		mov	r3, r5
 1312 09ac FFF7FEFF 		bl	sprintf
 1313              	.LVL176:
 278:Src/noteDetect.c **** 
 279:Src/noteDetect.c ****     ssd1306_SetCursor(50,50);
 1314              		.loc 1 279 0
 1315 09b0 3220     		movs	r0, #50
 1316 09b2 0146     		mov	r1, r0
 1317 09b4 FFF7FEFF 		bl	ssd1306_SetCursor
ARM GAS  /var/folders/bq/zy6zjhwd1qn4sn8dk3jpjcq80000gn/T//ccGW5XvH.s 			page 29


 1318              	.LVL177:
 280:Src/noteDetect.c ****     ssd1306_WriteString(note,Font_11x18,Black);
 1319              		.loc 1 280 0
 1320 09b8 3D4C     		ldr	r4, .L183+88
 1321 09ba 3046     		mov	r0, r6
 1322 09bc 94E80600 		ldmia	r4, {r1, r2}
 1323 09c0 0023     		movs	r3, #0
 1324 09c2 FFF7FEFF 		bl	ssd1306_WriteString
 1325              	.LVL178:
 281:Src/noteDetect.c ****     ssd1306_SetCursor(10,10);
 1326              		.loc 1 281 0
 1327 09c6 0A20     		movs	r0, #10
 1328 09c8 0146     		mov	r1, r0
 1329 09ca FFF7FEFF 		bl	ssd1306_SetCursor
 1330              	.LVL179:
 282:Src/noteDetect.c ****     ssd1306_WriteString(noteFreq,Font_11x18,Black);
 1331              		.loc 1 282 0
 1332 09ce 3846     		mov	r0, r7
 1333 09d0 94E80600 		ldmia	r4, {r1, r2}
 1334 09d4 0023     		movs	r3, #0
 1335 09d6 FFF7FEFF 		bl	ssd1306_WriteString
 1336              	.LVL180:
 283:Src/noteDetect.c **** 
 284:Src/noteDetect.c ****     ssd1306_UpdateScreen();
 1337              		.loc 1 284 0
 1338 09da FFF7FEFF 		bl	ssd1306_UpdateScreen
 1339              	.LVL181:
 285:Src/noteDetect.c ****     HAL_Delay(500);
 1340              		.loc 1 285 0
 1341 09de 4FF4FA70 		mov	r0, #500
 1342 09e2 FFF7FEFF 		bl	HAL_Delay
 1343              	.LVL182:
 1344 09e6 C1E3     		b	.L1
 1345              	.L60:
 286:Src/noteDetect.c ****   }
 287:Src/noteDetect.c **** 
 288:Src/noteDetect.c ****   /*Ab3 note */
 289:Src/noteDetect.c ****   else if(frequency <= 213.73 && frequency >= 226.45){
 1346              		.loc 1 289 0
 1347 09e8 2046     		mov	r0, r4
 1348 09ea 2946     		mov	r1, r5
 1349 09ec 2AA3     		adr	r3, .L183+64
 1350 09ee D3E90023 		ldrd	r2, [r3]
 1351 09f2 FFF7FEFF 		bl	__aeabi_dcmple
 1352              	.LVL183:
 1353 09f6 0028     		cmp	r0, #0
 1354 09f8 70D0     		beq	.L63
 1355              		.loc 1 289 0 is_stmt 0 discriminator 1
 1356 09fa 2046     		mov	r0, r4
 1357 09fc 2946     		mov	r1, r5
 1358 09fe 28A3     		adr	r3, .L183+72
 1359 0a00 D3E90023 		ldrd	r2, [r3]
 1360 0a04 FFF7FEFF 		bl	__aeabi_dcmpge
 1361              	.LVL184:
 1362 0a08 0028     		cmp	r0, #0
 1363 0a0a 67D0     		beq	.L63
 290:Src/noteDetect.c ****     sprintf(note, "Ab3");
ARM GAS  /var/folders/bq/zy6zjhwd1qn4sn8dk3jpjcq80000gn/T//ccGW5XvH.s 			page 30


 1364              		.loc 1 290 0 is_stmt 1
 1365 0a0c 2E4B     		ldr	r3, .L183+112
 1366 0a0e 1868     		ldr	r0, [r3]	@ unaligned
 1367 0a10 3060     		str	r0, [r6]	@ unaligned
 291:Src/noteDetect.c ****     sprintf(noteFreq, "%.2f", frequency);
 1368              		.loc 1 291 0
 1369 0a12 3846     		mov	r0, r7
 1370 0a14 2549     		ldr	r1, .L183+84
 1371 0a16 2246     		mov	r2, r4
 1372 0a18 2B46     		mov	r3, r5
 1373 0a1a FFF7FEFF 		bl	sprintf
 1374              	.LVL185:
 292:Src/noteDetect.c **** 
 293:Src/noteDetect.c ****     ssd1306_SetCursor(50,50);
 1375              		.loc 1 293 0
 1376 0a1e 3220     		movs	r0, #50
 1377 0a20 0146     		mov	r1, r0
 1378 0a22 FFF7FEFF 		bl	ssd1306_SetCursor
 1379              	.LVL186:
 294:Src/noteDetect.c ****     ssd1306_WriteString(note,Font_11x18,Black);
 1380              		.loc 1 294 0
 1381 0a26 224C     		ldr	r4, .L183+88
 1382 0a28 3046     		mov	r0, r6
 1383 0a2a 94E80600 		ldmia	r4, {r1, r2}
 1384 0a2e 0023     		movs	r3, #0
 1385 0a30 FFF7FEFF 		bl	ssd1306_WriteString
 1386              	.LVL187:
 295:Src/noteDetect.c ****     ssd1306_SetCursor(10,10);
 1387              		.loc 1 295 0
 1388 0a34 0A20     		movs	r0, #10
 1389 0a36 0146     		mov	r1, r0
 1390 0a38 FFF7FEFF 		bl	ssd1306_SetCursor
 1391              	.LVL188:
 296:Src/noteDetect.c ****     ssd1306_WriteString(noteFreq,Font_11x18,Black);
 1392              		.loc 1 296 0
 1393 0a3c 3846     		mov	r0, r7
 1394 0a3e 94E80600 		ldmia	r4, {r1, r2}
 1395 0a42 0023     		movs	r3, #0
 1396 0a44 FFF7FEFF 		bl	ssd1306_WriteString
 1397              	.LVL189:
 297:Src/noteDetect.c **** 
 298:Src/noteDetect.c ****     ssd1306_UpdateScreen();
 1398              		.loc 1 298 0
 1399 0a48 FFF7FEFF 		bl	ssd1306_UpdateScreen
 1400              	.LVL190:
 299:Src/noteDetect.c ****     HAL_Delay(500);
 1401              		.loc 1 299 0
 1402 0a4c 4FF4FA70 		mov	r0, #500
 1403 0a50 FFF7FEFF 		bl	HAL_Delay
 1404              	.LVL191:
 1405 0a54 8AE3     		b	.L1
 1406              	.L184:
 1407 0a56 00BF     		.align	3
 1408              	.L183:
 1409 0a58 EC51B81E 		.word	515396076
 1410 0a5c 85036440 		.word	1080296325
 1411 0a60 14AE47E1 		.word	3779571220
ARM GAS  /var/folders/bq/zy6zjhwd1qn4sn8dk3jpjcq80000gn/T//ccGW5XvH.s 			page 31


 1412 0a64 7AE46240 		.word	1080222842
 1413 0a68 14AE47E1 		.word	3779571220
 1414 0a6c 7A346540 		.word	1080374394
 1415 0a70 A4703D0A 		.word	171798692
 1416 0a74 D7036440 		.word	1080296407
 1417 0a78 B81E85EB 		.word	3951369912
 1418 0a7c 51986640 		.word	1080465489
 1419 0a80 CDCCCCCC 		.word	3435973837
 1420 0a84 CC346540 		.word	1080374476
 1421 0a88 3D0AD7A3 		.word	2748779069
 1422 0a8c 70CD6740 		.word	1080544624
 1423 0a90 B81E85EB 		.word	3951369912
 1424 0a94 51386940 		.word	1080637521
 1425 0a98 8FC2F528 		.word	687194767
 1426 0a9c 5CB76A40 		.word	1080735580
 1427 0aa0 66666666 		.word	1717986918
 1428 0aa4 664E6C40 		.word	1080839782
 1429 0aa8 40000000 		.word	.LC15
 1430 0aac 04000000 		.word	.LC1
 1431 0ab0 00000000 		.word	Font_11x18
 1432 0ab4 44000000 		.word	.LC16
 1433 0ab8 48000000 		.word	.LC17
 1434 0abc 4C000000 		.word	.LC18
 1435 0ac0 50000000 		.word	.LC19
 1436 0ac4 54000000 		.word	.LC20
 1437 0ac8 58000000 		.word	.LC21
 1438 0acc 5C8FC2F5 		.word	4123168604
 1439 0ad0 28E46240 		.word	1080222760
 1440 0ad4 CDCCCCCC 		.word	3435973837
 1441 0ad8 CCD46140 		.word	1080153292
 1442              	.L63:
 300:Src/noteDetect.c ****   }
 301:Src/noteDetect.c **** 
 302:Src/noteDetect.c ****   /*A3 note */
 303:Src/noteDetect.c ****   else if(frequency <= 226.45 && frequency >= 213.74){
 1443              		.loc 1 303 0
 1444 0adc 2046     		mov	r0, r4
 1445 0ade 2946     		mov	r1, r5
 1446 0ae0 DBA3     		adr	r3, .L185+120
 1447 0ae2 D3E90023 		ldrd	r2, [r3]
 1448 0ae6 FFF7FEFF 		bl	__aeabi_dcmple
 1449              	.LVL192:
 1450 0aea 70B3     		cbz	r0, .L66
 1451              		.loc 1 303 0 is_stmt 0 discriminator 1
 1452 0aec 2046     		mov	r0, r4
 1453 0aee 2946     		mov	r1, r5
 1454 0af0 D9A3     		adr	r3, .L185+128
 1455 0af2 D3E90023 		ldrd	r2, [r3]
 1456 0af6 FFF7FEFF 		bl	__aeabi_dcmpge
 1457              	.LVL193:
 1458 0afa 30B3     		cbz	r0, .L66
 304:Src/noteDetect.c ****     sprintf(note, "A3");
 1459              		.loc 1 304 0 is_stmt 1
 1460 0afc CA4B     		ldr	r3, .L185+80
 1461 0afe 1A88     		ldrh	r2, [r3]	@ unaligned
 1462 0b00 9B78     		ldrb	r3, [r3, #2]	@ zero_extendqisi2
 1463 0b02 3280     		strh	r2, [r6]	@ unaligned
ARM GAS  /var/folders/bq/zy6zjhwd1qn4sn8dk3jpjcq80000gn/T//ccGW5XvH.s 			page 32


 1464 0b04 B370     		strb	r3, [r6, #2]
 305:Src/noteDetect.c ****     sprintf(noteFreq, "%.2f", frequency);
 1465              		.loc 1 305 0
 1466 0b06 3846     		mov	r0, r7
 1467 0b08 C849     		ldr	r1, .L185+84
 1468 0b0a 2246     		mov	r2, r4
 1469 0b0c 2B46     		mov	r3, r5
 1470 0b0e FFF7FEFF 		bl	sprintf
 1471              	.LVL194:
 306:Src/noteDetect.c **** 
 307:Src/noteDetect.c ****     ssd1306_SetCursor(50,50);
 1472              		.loc 1 307 0
 1473 0b12 3220     		movs	r0, #50
 1474 0b14 0146     		mov	r1, r0
 1475 0b16 FFF7FEFF 		bl	ssd1306_SetCursor
 1476              	.LVL195:
 308:Src/noteDetect.c ****     ssd1306_WriteString(note,Font_11x18,Black);
 1477              		.loc 1 308 0
 1478 0b1a C54C     		ldr	r4, .L185+88
 1479 0b1c 3046     		mov	r0, r6
 1480 0b1e 94E80600 		ldmia	r4, {r1, r2}
 1481 0b22 0023     		movs	r3, #0
 1482 0b24 FFF7FEFF 		bl	ssd1306_WriteString
 1483              	.LVL196:
 309:Src/noteDetect.c ****     ssd1306_SetCursor(10,10);
 1484              		.loc 1 309 0
 1485 0b28 0A20     		movs	r0, #10
 1486 0b2a 0146     		mov	r1, r0
 1487 0b2c FFF7FEFF 		bl	ssd1306_SetCursor
 1488              	.LVL197:
 310:Src/noteDetect.c ****     ssd1306_WriteString(noteFreq,Font_11x18,Black);
 1489              		.loc 1 310 0
 1490 0b30 3846     		mov	r0, r7
 1491 0b32 94E80600 		ldmia	r4, {r1, r2}
 1492 0b36 0023     		movs	r3, #0
 1493 0b38 FFF7FEFF 		bl	ssd1306_WriteString
 1494              	.LVL198:
 311:Src/noteDetect.c **** 
 312:Src/noteDetect.c ****     ssd1306_UpdateScreen();
 1495              		.loc 1 312 0
 1496 0b3c FFF7FEFF 		bl	ssd1306_UpdateScreen
 1497              	.LVL199:
 313:Src/noteDetect.c ****     HAL_Delay(500);
 1498              		.loc 1 313 0
 1499 0b40 4FF4FA70 		mov	r0, #500
 1500 0b44 FFF7FEFF 		bl	HAL_Delay
 1501              	.LVL200:
 1502 0b48 10E3     		b	.L1
 1503              	.L66:
 314:Src/noteDetect.c ****   }
 315:Src/noteDetect.c **** 
 316:Src/noteDetect.c ****   /*Bb3 note */
 317:Src/noteDetect.c ****   else if(frequency <= 239.91 && frequency >= 226.46){
 1504              		.loc 1 317 0
 1505 0b4a 2046     		mov	r0, r4
 1506 0b4c 2946     		mov	r1, r5
 1507 0b4e A2A3     		adr	r3, .L185
ARM GAS  /var/folders/bq/zy6zjhwd1qn4sn8dk3jpjcq80000gn/T//ccGW5XvH.s 			page 33


 1508 0b50 D3E90023 		ldrd	r2, [r3]
 1509 0b54 FFF7FEFF 		bl	__aeabi_dcmple
 1510              	.LVL201:
 1511 0b58 60B3     		cbz	r0, .L69
 1512              		.loc 1 317 0 is_stmt 0 discriminator 1
 1513 0b5a 2046     		mov	r0, r4
 1514 0b5c 2946     		mov	r1, r5
 1515 0b5e A0A3     		adr	r3, .L185+8
 1516 0b60 D3E90023 		ldrd	r2, [r3]
 1517 0b64 FFF7FEFF 		bl	__aeabi_dcmpge
 1518              	.LVL202:
 1519 0b68 20B3     		cbz	r0, .L69
 318:Src/noteDetect.c ****     sprintf(note, "Bb3");
 1520              		.loc 1 318 0 is_stmt 1
 1521 0b6a B24B     		ldr	r3, .L185+92
 1522 0b6c 1868     		ldr	r0, [r3]	@ unaligned
 1523 0b6e 3060     		str	r0, [r6]	@ unaligned
 319:Src/noteDetect.c ****     sprintf(noteFreq, "%.2f", frequency);
 1524              		.loc 1 319 0
 1525 0b70 3846     		mov	r0, r7
 1526 0b72 AE49     		ldr	r1, .L185+84
 1527 0b74 2246     		mov	r2, r4
 1528 0b76 2B46     		mov	r3, r5
 1529 0b78 FFF7FEFF 		bl	sprintf
 1530              	.LVL203:
 320:Src/noteDetect.c **** 
 321:Src/noteDetect.c ****     ssd1306_SetCursor(50,50);
 1531              		.loc 1 321 0
 1532 0b7c 3220     		movs	r0, #50
 1533 0b7e 0146     		mov	r1, r0
 1534 0b80 FFF7FEFF 		bl	ssd1306_SetCursor
 1535              	.LVL204:
 322:Src/noteDetect.c ****     ssd1306_WriteString(note,Font_11x18,Black);
 1536              		.loc 1 322 0
 1537 0b84 AA4C     		ldr	r4, .L185+88
 1538 0b86 3046     		mov	r0, r6
 1539 0b88 94E80600 		ldmia	r4, {r1, r2}
 1540 0b8c 0023     		movs	r3, #0
 1541 0b8e FFF7FEFF 		bl	ssd1306_WriteString
 1542              	.LVL205:
 323:Src/noteDetect.c ****     ssd1306_SetCursor(10,10);
 1543              		.loc 1 323 0
 1544 0b92 0A20     		movs	r0, #10
 1545 0b94 0146     		mov	r1, r0
 1546 0b96 FFF7FEFF 		bl	ssd1306_SetCursor
 1547              	.LVL206:
 324:Src/noteDetect.c ****     ssd1306_WriteString(noteFreq,Font_11x18,Black);
 1548              		.loc 1 324 0
 1549 0b9a 3846     		mov	r0, r7
 1550 0b9c 94E80600 		ldmia	r4, {r1, r2}
 1551 0ba0 0023     		movs	r3, #0
 1552 0ba2 FFF7FEFF 		bl	ssd1306_WriteString
 1553              	.LVL207:
 325:Src/noteDetect.c **** 
 326:Src/noteDetect.c ****     ssd1306_UpdateScreen();
 1554              		.loc 1 326 0
 1555 0ba6 FFF7FEFF 		bl	ssd1306_UpdateScreen
ARM GAS  /var/folders/bq/zy6zjhwd1qn4sn8dk3jpjcq80000gn/T//ccGW5XvH.s 			page 34


 1556              	.LVL208:
 327:Src/noteDetect.c ****     HAL_Delay(500);
 1557              		.loc 1 327 0
 1558 0baa 4FF4FA70 		mov	r0, #500
 1559 0bae FFF7FEFF 		bl	HAL_Delay
 1560              	.LVL209:
 1561 0bb2 DBE2     		b	.L1
 1562              	.L69:
 328:Src/noteDetect.c ****   }
 329:Src/noteDetect.c **** 
 330:Src/noteDetect.c ****   /*B3 note */
 331:Src/noteDetect.c ****   else if(frequency <= 254.18 && frequency >= 239.92){
 1563              		.loc 1 331 0
 1564 0bb4 2046     		mov	r0, r4
 1565 0bb6 2946     		mov	r1, r5
 1566 0bb8 8BA3     		adr	r3, .L185+16
 1567 0bba D3E90023 		ldrd	r2, [r3]
 1568 0bbe FFF7FEFF 		bl	__aeabi_dcmple
 1569              	.LVL210:
 1570 0bc2 70B3     		cbz	r0, .L72
 1571              		.loc 1 331 0 is_stmt 0 discriminator 1
 1572 0bc4 2046     		mov	r0, r4
 1573 0bc6 2946     		mov	r1, r5
 1574 0bc8 89A3     		adr	r3, .L185+24
 1575 0bca D3E90023 		ldrd	r2, [r3]
 1576 0bce FFF7FEFF 		bl	__aeabi_dcmpge
 1577              	.LVL211:
 1578 0bd2 30B3     		cbz	r0, .L72
 332:Src/noteDetect.c ****     sprintf(note, "B3");
 1579              		.loc 1 332 0 is_stmt 1
 1580 0bd4 984B     		ldr	r3, .L185+96
 1581 0bd6 1A88     		ldrh	r2, [r3]	@ unaligned
 1582 0bd8 9B78     		ldrb	r3, [r3, #2]	@ zero_extendqisi2
 1583 0bda 3280     		strh	r2, [r6]	@ unaligned
 1584 0bdc B370     		strb	r3, [r6, #2]
 333:Src/noteDetect.c ****     sprintf(noteFreq, "%.2f", frequency);
 1585              		.loc 1 333 0
 1586 0bde 3846     		mov	r0, r7
 1587 0be0 9249     		ldr	r1, .L185+84
 1588 0be2 2246     		mov	r2, r4
 1589 0be4 2B46     		mov	r3, r5
 1590 0be6 FFF7FEFF 		bl	sprintf
 1591              	.LVL212:
 334:Src/noteDetect.c **** 
 335:Src/noteDetect.c ****     ssd1306_SetCursor(50,50);
 1592              		.loc 1 335 0
 1593 0bea 3220     		movs	r0, #50
 1594 0bec 0146     		mov	r1, r0
 1595 0bee FFF7FEFF 		bl	ssd1306_SetCursor
 1596              	.LVL213:
 336:Src/noteDetect.c ****     ssd1306_WriteString(note,Font_11x18,Black);
 1597              		.loc 1 336 0
 1598 0bf2 8F4C     		ldr	r4, .L185+88
 1599 0bf4 3046     		mov	r0, r6
 1600 0bf6 94E80600 		ldmia	r4, {r1, r2}
 1601 0bfa 0023     		movs	r3, #0
 1602 0bfc FFF7FEFF 		bl	ssd1306_WriteString
ARM GAS  /var/folders/bq/zy6zjhwd1qn4sn8dk3jpjcq80000gn/T//ccGW5XvH.s 			page 35


 1603              	.LVL214:
 337:Src/noteDetect.c ****     ssd1306_SetCursor(10,10);
 1604              		.loc 1 337 0
 1605 0c00 0A20     		movs	r0, #10
 1606 0c02 0146     		mov	r1, r0
 1607 0c04 FFF7FEFF 		bl	ssd1306_SetCursor
 1608              	.LVL215:
 338:Src/noteDetect.c ****     ssd1306_WriteString(noteFreq,Font_11x18,Black);
 1609              		.loc 1 338 0
 1610 0c08 3846     		mov	r0, r7
 1611 0c0a 94E80600 		ldmia	r4, {r1, r2}
 1612 0c0e 0023     		movs	r3, #0
 1613 0c10 FFF7FEFF 		bl	ssd1306_WriteString
 1614              	.LVL216:
 339:Src/noteDetect.c **** 
 340:Src/noteDetect.c ****     ssd1306_UpdateScreen();
 1615              		.loc 1 340 0
 1616 0c14 FFF7FEFF 		bl	ssd1306_UpdateScreen
 1617              	.LVL217:
 341:Src/noteDetect.c ****     HAL_Delay(500);
 1618              		.loc 1 341 0
 1619 0c18 4FF4FA70 		mov	r0, #500
 1620 0c1c FFF7FEFF 		bl	HAL_Delay
 1621              	.LVL218:
 1622 0c20 A4E2     		b	.L1
 1623              	.L72:
 342:Src/noteDetect.c ****   }
 343:Src/noteDetect.c **** 
 344:Src/noteDetect.c ****   /*C4 note */
 345:Src/noteDetect.c ****   else if(frequency <= 269.29 && frequency >= 254.19){
 1624              		.loc 1 345 0
 1625 0c22 2046     		mov	r0, r4
 1626 0c24 2946     		mov	r1, r5
 1627 0c26 74A3     		adr	r3, .L185+32
 1628 0c28 D3E90023 		ldrd	r2, [r3]
 1629 0c2c FFF7FEFF 		bl	__aeabi_dcmple
 1630              	.LVL219:
 1631 0c30 70B3     		cbz	r0, .L75
 1632              		.loc 1 345 0 is_stmt 0 discriminator 1
 1633 0c32 2046     		mov	r0, r4
 1634 0c34 2946     		mov	r1, r5
 1635 0c36 72A3     		adr	r3, .L185+40
 1636 0c38 D3E90023 		ldrd	r2, [r3]
 1637 0c3c FFF7FEFF 		bl	__aeabi_dcmpge
 1638              	.LVL220:
 1639 0c40 30B3     		cbz	r0, .L75
 346:Src/noteDetect.c ****     sprintf(note, "C4");
 1640              		.loc 1 346 0 is_stmt 1
 1641 0c42 7E4B     		ldr	r3, .L185+100
 1642 0c44 1A88     		ldrh	r2, [r3]	@ unaligned
 1643 0c46 9B78     		ldrb	r3, [r3, #2]	@ zero_extendqisi2
 1644 0c48 3280     		strh	r2, [r6]	@ unaligned
 1645 0c4a B370     		strb	r3, [r6, #2]
 347:Src/noteDetect.c ****     sprintf(noteFreq, "%.2f", frequency);
 1646              		.loc 1 347 0
 1647 0c4c 3846     		mov	r0, r7
 1648 0c4e 7749     		ldr	r1, .L185+84
ARM GAS  /var/folders/bq/zy6zjhwd1qn4sn8dk3jpjcq80000gn/T//ccGW5XvH.s 			page 36


 1649 0c50 2246     		mov	r2, r4
 1650 0c52 2B46     		mov	r3, r5
 1651 0c54 FFF7FEFF 		bl	sprintf
 1652              	.LVL221:
 348:Src/noteDetect.c **** 
 349:Src/noteDetect.c ****     ssd1306_SetCursor(50,50);
 1653              		.loc 1 349 0
 1654 0c58 3220     		movs	r0, #50
 1655 0c5a 0146     		mov	r1, r0
 1656 0c5c FFF7FEFF 		bl	ssd1306_SetCursor
 1657              	.LVL222:
 350:Src/noteDetect.c ****     ssd1306_WriteString(note,Font_11x18,Black);
 1658              		.loc 1 350 0
 1659 0c60 734C     		ldr	r4, .L185+88
 1660 0c62 3046     		mov	r0, r6
 1661 0c64 94E80600 		ldmia	r4, {r1, r2}
 1662 0c68 0023     		movs	r3, #0
 1663 0c6a FFF7FEFF 		bl	ssd1306_WriteString
 1664              	.LVL223:
 351:Src/noteDetect.c ****     ssd1306_SetCursor(10,10);
 1665              		.loc 1 351 0
 1666 0c6e 0A20     		movs	r0, #10
 1667 0c70 0146     		mov	r1, r0
 1668 0c72 FFF7FEFF 		bl	ssd1306_SetCursor
 1669              	.LVL224:
 352:Src/noteDetect.c ****     ssd1306_WriteString(noteFreq,Font_11x18,Black);
 1670              		.loc 1 352 0
 1671 0c76 3846     		mov	r0, r7
 1672 0c78 94E80600 		ldmia	r4, {r1, r2}
 1673 0c7c 0023     		movs	r3, #0
 1674 0c7e FFF7FEFF 		bl	ssd1306_WriteString
 1675              	.LVL225:
 353:Src/noteDetect.c **** 
 354:Src/noteDetect.c ****     ssd1306_UpdateScreen();
 1676              		.loc 1 354 0
 1677 0c82 FFF7FEFF 		bl	ssd1306_UpdateScreen
 1678              	.LVL226:
 355:Src/noteDetect.c ****     HAL_Delay(500);
 1679              		.loc 1 355 0
 1680 0c86 4FF4FA70 		mov	r0, #500
 1681 0c8a FFF7FEFF 		bl	HAL_Delay
 1682              	.LVL227:
 1683 0c8e 6DE2     		b	.L1
 1684              	.L75:
 356:Src/noteDetect.c ****   }
 357:Src/noteDetect.c **** 
 358:Src/noteDetect.c ****   /*Db4 note */
 359:Src/noteDetect.c ****   else if(frequency <= 285.3 && frequency >= 269.29){
 1685              		.loc 1 359 0
 1686 0c90 2046     		mov	r0, r4
 1687 0c92 2946     		mov	r1, r5
 1688 0c94 5CA3     		adr	r3, .L185+48
 1689 0c96 D3E90023 		ldrd	r2, [r3]
 1690 0c9a FFF7FEFF 		bl	__aeabi_dcmple
 1691              	.LVL228:
 1692 0c9e 60B3     		cbz	r0, .L78
 1693              		.loc 1 359 0 is_stmt 0 discriminator 1
ARM GAS  /var/folders/bq/zy6zjhwd1qn4sn8dk3jpjcq80000gn/T//ccGW5XvH.s 			page 37


 1694 0ca0 2046     		mov	r0, r4
 1695 0ca2 2946     		mov	r1, r5
 1696 0ca4 54A3     		adr	r3, .L185+32
 1697 0ca6 D3E90023 		ldrd	r2, [r3]
 1698 0caa FFF7FEFF 		bl	__aeabi_dcmpge
 1699              	.LVL229:
 1700 0cae 20B3     		cbz	r0, .L78
 360:Src/noteDetect.c ****     sprintf(note, "Db4");
 1701              		.loc 1 360 0 is_stmt 1
 1702 0cb0 634B     		ldr	r3, .L185+104
 1703 0cb2 1868     		ldr	r0, [r3]	@ unaligned
 1704 0cb4 3060     		str	r0, [r6]	@ unaligned
 361:Src/noteDetect.c ****     sprintf(noteFreq, "%.2f", frequency);
 1705              		.loc 1 361 0
 1706 0cb6 3846     		mov	r0, r7
 1707 0cb8 5C49     		ldr	r1, .L185+84
 1708 0cba 2246     		mov	r2, r4
 1709 0cbc 2B46     		mov	r3, r5
 1710 0cbe FFF7FEFF 		bl	sprintf
 1711              	.LVL230:
 362:Src/noteDetect.c **** 
 363:Src/noteDetect.c ****     ssd1306_SetCursor(50,50);
 1712              		.loc 1 363 0
 1713 0cc2 3220     		movs	r0, #50
 1714 0cc4 0146     		mov	r1, r0
 1715 0cc6 FFF7FEFF 		bl	ssd1306_SetCursor
 1716              	.LVL231:
 364:Src/noteDetect.c ****     ssd1306_WriteString(note,Font_11x18,Black);
 1717              		.loc 1 364 0
 1718 0cca 594C     		ldr	r4, .L185+88
 1719 0ccc 3046     		mov	r0, r6
 1720 0cce 94E80600 		ldmia	r4, {r1, r2}
 1721 0cd2 0023     		movs	r3, #0
 1722 0cd4 FFF7FEFF 		bl	ssd1306_WriteString
 1723              	.LVL232:
 365:Src/noteDetect.c ****     ssd1306_SetCursor(10,10);
 1724              		.loc 1 365 0
 1725 0cd8 0A20     		movs	r0, #10
 1726 0cda 0146     		mov	r1, r0
 1727 0cdc FFF7FEFF 		bl	ssd1306_SetCursor
 1728              	.LVL233:
 366:Src/noteDetect.c ****     ssd1306_WriteString(noteFreq,Font_11x18,Black);
 1729              		.loc 1 366 0
 1730 0ce0 3846     		mov	r0, r7
 1731 0ce2 94E80600 		ldmia	r4, {r1, r2}
 1732 0ce6 0023     		movs	r3, #0
 1733 0ce8 FFF7FEFF 		bl	ssd1306_WriteString
 1734              	.LVL234:
 367:Src/noteDetect.c **** 
 368:Src/noteDetect.c ****     ssd1306_UpdateScreen();
 1735              		.loc 1 368 0
 1736 0cec FFF7FEFF 		bl	ssd1306_UpdateScreen
 1737              	.LVL235:
 369:Src/noteDetect.c ****     HAL_Delay(500);
 1738              		.loc 1 369 0
 1739 0cf0 4FF4FA70 		mov	r0, #500
 1740 0cf4 FFF7FEFF 		bl	HAL_Delay
ARM GAS  /var/folders/bq/zy6zjhwd1qn4sn8dk3jpjcq80000gn/T//ccGW5XvH.s 			page 38


 1741              	.LVL236:
 1742 0cf8 38E2     		b	.L1
 1743              	.L78:
 370:Src/noteDetect.c ****   }
 371:Src/noteDetect.c **** 
 372:Src/noteDetect.c ****   /*D4 note */
 373:Src/noteDetect.c ****   else if(frequency <= 302.26 && frequency >= 285.31){
 1744              		.loc 1 373 0
 1745 0cfa 2046     		mov	r0, r4
 1746 0cfc 2946     		mov	r1, r5
 1747 0cfe 44A3     		adr	r3, .L185+56
 1748 0d00 D3E90023 		ldrd	r2, [r3]
 1749 0d04 FFF7FEFF 		bl	__aeabi_dcmple
 1750              	.LVL237:
 1751 0d08 70B3     		cbz	r0, .L81
 1752              		.loc 1 373 0 is_stmt 0 discriminator 1
 1753 0d0a 2046     		mov	r0, r4
 1754 0d0c 2946     		mov	r1, r5
 1755 0d0e 42A3     		adr	r3, .L185+64
 1756 0d10 D3E90023 		ldrd	r2, [r3]
 1757 0d14 FFF7FEFF 		bl	__aeabi_dcmpge
 1758              	.LVL238:
 1759 0d18 30B3     		cbz	r0, .L81
 374:Src/noteDetect.c ****     sprintf(note, "D4");
 1760              		.loc 1 374 0 is_stmt 1
 1761 0d1a 4A4B     		ldr	r3, .L185+108
 1762 0d1c 1A88     		ldrh	r2, [r3]	@ unaligned
 1763 0d1e 9B78     		ldrb	r3, [r3, #2]	@ zero_extendqisi2
 1764 0d20 3280     		strh	r2, [r6]	@ unaligned
 1765 0d22 B370     		strb	r3, [r6, #2]
 375:Src/noteDetect.c ****     sprintf(noteFreq, "%.2f", frequency);
 1766              		.loc 1 375 0
 1767 0d24 3846     		mov	r0, r7
 1768 0d26 4149     		ldr	r1, .L185+84
 1769 0d28 2246     		mov	r2, r4
 1770 0d2a 2B46     		mov	r3, r5
 1771 0d2c FFF7FEFF 		bl	sprintf
 1772              	.LVL239:
 376:Src/noteDetect.c **** 
 377:Src/noteDetect.c ****     ssd1306_SetCursor(50,50);
 1773              		.loc 1 377 0
 1774 0d30 3220     		movs	r0, #50
 1775 0d32 0146     		mov	r1, r0
 1776 0d34 FFF7FEFF 		bl	ssd1306_SetCursor
 1777              	.LVL240:
 378:Src/noteDetect.c ****     ssd1306_WriteString(note,Font_11x18,Black);
 1778              		.loc 1 378 0
 1779 0d38 3D4C     		ldr	r4, .L185+88
 1780 0d3a 3046     		mov	r0, r6
 1781 0d3c 94E80600 		ldmia	r4, {r1, r2}
 1782 0d40 0023     		movs	r3, #0
 1783 0d42 FFF7FEFF 		bl	ssd1306_WriteString
 1784              	.LVL241:
 379:Src/noteDetect.c ****     ssd1306_SetCursor(10,10);
 1785              		.loc 1 379 0
 1786 0d46 0A20     		movs	r0, #10
 1787 0d48 0146     		mov	r1, r0
ARM GAS  /var/folders/bq/zy6zjhwd1qn4sn8dk3jpjcq80000gn/T//ccGW5XvH.s 			page 39


 1788 0d4a FFF7FEFF 		bl	ssd1306_SetCursor
 1789              	.LVL242:
 380:Src/noteDetect.c ****     ssd1306_WriteString(noteFreq,Font_11x18,Black);
 1790              		.loc 1 380 0
 1791 0d4e 3846     		mov	r0, r7
 1792 0d50 94E80600 		ldmia	r4, {r1, r2}
 1793 0d54 0023     		movs	r3, #0
 1794 0d56 FFF7FEFF 		bl	ssd1306_WriteString
 1795              	.LVL243:
 381:Src/noteDetect.c **** 
 382:Src/noteDetect.c ****     ssd1306_UpdateScreen();
 1796              		.loc 1 382 0
 1797 0d5a FFF7FEFF 		bl	ssd1306_UpdateScreen
 1798              	.LVL244:
 383:Src/noteDetect.c ****     HAL_Delay(500);
 1799              		.loc 1 383 0
 1800 0d5e 4FF4FA70 		mov	r0, #500
 1801 0d62 FFF7FEFF 		bl	HAL_Delay
 1802              	.LVL245:
 1803 0d66 01E2     		b	.L1
 1804              	.L81:
 384:Src/noteDetect.c ****   }
 385:Src/noteDetect.c **** 
 386:Src/noteDetect.c ****   /*Eb4 note */
 387:Src/noteDetect.c ****   else if(frequency <= 320.25 && frequency >= 392.27){
 1805              		.loc 1 387 0
 1806 0d68 DFED377A 		flds	s15, .L185+112
 1807 0d6c B4EEE78A 		fcmpes	s16, s15
 1808 0d70 F1EE10FA 		fmstat
 1809 0d74 74D8     		bhi	.L84
 1810              		.loc 1 387 0 is_stmt 0 discriminator 1
 1811 0d76 2046     		mov	r0, r4
 1812 0d78 2946     		mov	r1, r5
 1813 0d7a 29A3     		adr	r3, .L185+72
 1814 0d7c D3E90023 		ldrd	r2, [r3]
 1815 0d80 FFF7FEFF 		bl	__aeabi_dcmpge
 1816              	.LVL246:
 1817 0d84 0028     		cmp	r0, #0
 1818 0d86 6BD0     		beq	.L84
 388:Src/noteDetect.c ****     sprintf(note, "Eb4");
 1819              		.loc 1 388 0 is_stmt 1
 1820 0d88 304B     		ldr	r3, .L185+116
 1821 0d8a 1868     		ldr	r0, [r3]	@ unaligned
 1822 0d8c 3060     		str	r0, [r6]	@ unaligned
 389:Src/noteDetect.c ****     sprintf(noteFreq, "%.2f", frequency);
 1823              		.loc 1 389 0
 1824 0d8e 3846     		mov	r0, r7
 1825 0d90 2649     		ldr	r1, .L185+84
 1826 0d92 2246     		mov	r2, r4
 1827 0d94 2B46     		mov	r3, r5
 1828 0d96 FFF7FEFF 		bl	sprintf
 1829              	.LVL247:
 390:Src/noteDetect.c **** 
 391:Src/noteDetect.c ****     ssd1306_SetCursor(50,50);
 1830              		.loc 1 391 0
 1831 0d9a 3220     		movs	r0, #50
 1832 0d9c 0146     		mov	r1, r0
ARM GAS  /var/folders/bq/zy6zjhwd1qn4sn8dk3jpjcq80000gn/T//ccGW5XvH.s 			page 40


 1833 0d9e FFF7FEFF 		bl	ssd1306_SetCursor
 1834              	.LVL248:
 392:Src/noteDetect.c ****     ssd1306_WriteString(note,Font_11x18,Black);
 1835              		.loc 1 392 0
 1836 0da2 234C     		ldr	r4, .L185+88
 1837 0da4 3046     		mov	r0, r6
 1838 0da6 94E80600 		ldmia	r4, {r1, r2}
 1839 0daa 0023     		movs	r3, #0
 1840 0dac FFF7FEFF 		bl	ssd1306_WriteString
 1841              	.LVL249:
 393:Src/noteDetect.c ****     ssd1306_SetCursor(10,10);
 1842              		.loc 1 393 0
 1843 0db0 0A20     		movs	r0, #10
 1844 0db2 0146     		mov	r1, r0
 1845 0db4 FFF7FEFF 		bl	ssd1306_SetCursor
 1846              	.LVL250:
 394:Src/noteDetect.c ****     ssd1306_WriteString(noteFreq,Font_11x18,Black);
 1847              		.loc 1 394 0
 1848 0db8 3846     		mov	r0, r7
 1849 0dba 94E80600 		ldmia	r4, {r1, r2}
 1850 0dbe 0023     		movs	r3, #0
 1851 0dc0 FFF7FEFF 		bl	ssd1306_WriteString
 1852              	.LVL251:
 395:Src/noteDetect.c **** 
 396:Src/noteDetect.c ****     ssd1306_UpdateScreen();
 1853              		.loc 1 396 0
 1854 0dc4 FFF7FEFF 		bl	ssd1306_UpdateScreen
 1855              	.LVL252:
 397:Src/noteDetect.c ****     HAL_Delay(500);
 1856              		.loc 1 397 0
 1857 0dc8 4FF4FA70 		mov	r0, #500
 1858 0dcc FFF7FEFF 		bl	HAL_Delay
 1859              	.LVL253:
 1860 0dd0 CCE1     		b	.L1
 1861              	.L186:
 1862 0dd2 00BFAFF3 		.align	3
 1862      0080
 1863              	.L185:
 1864 0dd8 85EB51B8 		.word	3092376453
 1865 0ddc 1EFD6D40 		.word	1080950046
 1866 0de0 1F85EB51 		.word	1374389535
 1867 0de4 B84E6C40 		.word	1080839864
 1868 0de8 F6285C8F 		.word	2405181686
 1869 0dec C2C56F40 		.word	1081066946
 1870 0df0 3D0AD7A3 		.word	2748779069
 1871 0df4 70FD6D40 		.word	1080950128
 1872 0df8 713D0AD7 		.word	3607772529
 1873 0dfc A3D47040 		.word	1081136291
 1874 0e00 AE47E17A 		.word	2061584302
 1875 0e04 14C66F40 		.word	1081067028
 1876 0e08 CDCCCCCC 		.word	3435973837
 1877 0e0c CCD47140 		.word	1081201868
 1878 0e10 5C8FC2F5 		.word	4123168604
 1879 0e14 28E47240 		.word	1081271336
 1880 0e18 295C8FC2 		.word	3264175145
 1881 0e1c F5D47140 		.word	1081201909
 1882 0e20 B81E85EB 		.word	3951369912
ARM GAS  /var/folders/bq/zy6zjhwd1qn4sn8dk3jpjcq80000gn/T//ccGW5XvH.s 			page 41


 1883 0e24 51847840 		.word	1081640017
 1884 0e28 5C000000 		.word	.LC22
 1885 0e2c 04000000 		.word	.LC1
 1886 0e30 00000000 		.word	Font_11x18
 1887 0e34 60000000 		.word	.LC23
 1888 0e38 64000000 		.word	.LC24
 1889 0e3c 68000000 		.word	.LC25
 1890 0e40 6C000000 		.word	.LC26
 1891 0e44 70000000 		.word	.LC27
 1892 0e48 0020A043 		.word	1134567424
 1893 0e4c 74000000 		.word	.LC28
 1894 0e50 66666666 		.word	1717986918
 1895 0e54 664E6C40 		.word	1080839782
 1896 0e58 48E17A14 		.word	343597384
 1897 0e5c AEB76A40 		.word	1080735662
 1898              	.L84:
 398:Src/noteDetect.c ****   }
 399:Src/noteDetect.c **** 
 400:Src/noteDetect.c ****   /*E4 note */
 401:Src/noteDetect.c ****   else if(frequency <= 339.29 && frequency >= 320.26){
 1899              		.loc 1 401 0
 1900 0e60 2046     		mov	r0, r4
 1901 0e62 2946     		mov	r1, r5
 1902 0e64 E2A3     		adr	r3, .L187+120
 1903 0e66 D3E90023 		ldrd	r2, [r3]
 1904 0e6a FFF7FEFF 		bl	__aeabi_dcmple
 1905              	.LVL254:
 1906 0e6e 70B3     		cbz	r0, .L87
 1907              		.loc 1 401 0 is_stmt 0 discriminator 1
 1908 0e70 2046     		mov	r0, r4
 1909 0e72 2946     		mov	r1, r5
 1910 0e74 E0A3     		adr	r3, .L187+128
 1911 0e76 D3E90023 		ldrd	r2, [r3]
 1912 0e7a FFF7FEFF 		bl	__aeabi_dcmpge
 1913              	.LVL255:
 1914 0e7e 30B3     		cbz	r0, .L87
 402:Src/noteDetect.c ****     sprintf(note, "E4");
 1915              		.loc 1 402 0 is_stmt 1
 1916 0e80 D14B     		ldr	r3, .L187+80
 1917 0e82 1A88     		ldrh	r2, [r3]	@ unaligned
 1918 0e84 9B78     		ldrb	r3, [r3, #2]	@ zero_extendqisi2
 1919 0e86 3280     		strh	r2, [r6]	@ unaligned
 1920 0e88 B370     		strb	r3, [r6, #2]
 403:Src/noteDetect.c ****     sprintf(noteFreq, "%.2f", frequency);
 1921              		.loc 1 403 0
 1922 0e8a 3846     		mov	r0, r7
 1923 0e8c CF49     		ldr	r1, .L187+84
 1924 0e8e 2246     		mov	r2, r4
 1925 0e90 2B46     		mov	r3, r5
 1926 0e92 FFF7FEFF 		bl	sprintf
 1927              	.LVL256:
 404:Src/noteDetect.c **** 
 405:Src/noteDetect.c ****     ssd1306_SetCursor(50,50);
 1928              		.loc 1 405 0
 1929 0e96 3220     		movs	r0, #50
 1930 0e98 0146     		mov	r1, r0
 1931 0e9a FFF7FEFF 		bl	ssd1306_SetCursor
ARM GAS  /var/folders/bq/zy6zjhwd1qn4sn8dk3jpjcq80000gn/T//ccGW5XvH.s 			page 42


 1932              	.LVL257:
 406:Src/noteDetect.c ****     ssd1306_WriteString(note,Font_11x18,Black);
 1933              		.loc 1 406 0
 1934 0e9e CC4C     		ldr	r4, .L187+88
 1935 0ea0 3046     		mov	r0, r6
 1936 0ea2 94E80600 		ldmia	r4, {r1, r2}
 1937 0ea6 0023     		movs	r3, #0
 1938 0ea8 FFF7FEFF 		bl	ssd1306_WriteString
 1939              	.LVL258:
 407:Src/noteDetect.c ****     ssd1306_SetCursor(10,10);
 1940              		.loc 1 407 0
 1941 0eac 0A20     		movs	r0, #10
 1942 0eae 0146     		mov	r1, r0
 1943 0eb0 FFF7FEFF 		bl	ssd1306_SetCursor
 1944              	.LVL259:
 408:Src/noteDetect.c ****     ssd1306_WriteString(noteFreq,Font_11x18,Black);
 1945              		.loc 1 408 0
 1946 0eb4 3846     		mov	r0, r7
 1947 0eb6 94E80600 		ldmia	r4, {r1, r2}
 1948 0eba 0023     		movs	r3, #0
 1949 0ebc FFF7FEFF 		bl	ssd1306_WriteString
 1950              	.LVL260:
 409:Src/noteDetect.c **** 
 410:Src/noteDetect.c ****     ssd1306_UpdateScreen();
 1951              		.loc 1 410 0
 1952 0ec0 FFF7FEFF 		bl	ssd1306_UpdateScreen
 1953              	.LVL261:
 411:Src/noteDetect.c ****     HAL_Delay(500);
 1954              		.loc 1 411 0
 1955 0ec4 4FF4FA70 		mov	r0, #500
 1956 0ec8 FFF7FEFF 		bl	HAL_Delay
 1957              	.LVL262:
 1958 0ecc 4EE1     		b	.L1
 1959              	.L87:
 412:Src/noteDetect.c ****   }
 413:Src/noteDetect.c **** 
 414:Src/noteDetect.c ****   /*F4 note */
 415:Src/noteDetect.c ****   else if(frequency <= 359.46 && frequency >= 339.30){
 1960              		.loc 1 415 0
 1961 0ece 2046     		mov	r0, r4
 1962 0ed0 2946     		mov	r1, r5
 1963 0ed2 A9A3     		adr	r3, .L187
 1964 0ed4 D3E90023 		ldrd	r2, [r3]
 1965 0ed8 FFF7FEFF 		bl	__aeabi_dcmple
 1966              	.LVL263:
 1967 0edc 70B3     		cbz	r0, .L90
 1968              		.loc 1 415 0 is_stmt 0 discriminator 1
 1969 0ede 2046     		mov	r0, r4
 1970 0ee0 2946     		mov	r1, r5
 1971 0ee2 A7A3     		adr	r3, .L187+8
 1972 0ee4 D3E90023 		ldrd	r2, [r3]
 1973 0ee8 FFF7FEFF 		bl	__aeabi_dcmpge
 1974              	.LVL264:
 1975 0eec 30B3     		cbz	r0, .L90
 416:Src/noteDetect.c ****     sprintf(note, "F4");
 1976              		.loc 1 416 0 is_stmt 1
 1977 0eee B94B     		ldr	r3, .L187+92
ARM GAS  /var/folders/bq/zy6zjhwd1qn4sn8dk3jpjcq80000gn/T//ccGW5XvH.s 			page 43


 1978 0ef0 1A88     		ldrh	r2, [r3]	@ unaligned
 1979 0ef2 9B78     		ldrb	r3, [r3, #2]	@ zero_extendqisi2
 1980 0ef4 3280     		strh	r2, [r6]	@ unaligned
 1981 0ef6 B370     		strb	r3, [r6, #2]
 417:Src/noteDetect.c ****     sprintf(noteFreq, "%.2f", frequency);
 1982              		.loc 1 417 0
 1983 0ef8 3846     		mov	r0, r7
 1984 0efa B449     		ldr	r1, .L187+84
 1985 0efc 2246     		mov	r2, r4
 1986 0efe 2B46     		mov	r3, r5
 1987 0f00 FFF7FEFF 		bl	sprintf
 1988              	.LVL265:
 418:Src/noteDetect.c **** 
 419:Src/noteDetect.c ****     ssd1306_SetCursor(50,50);
 1989              		.loc 1 419 0
 1990 0f04 3220     		movs	r0, #50
 1991 0f06 0146     		mov	r1, r0
 1992 0f08 FFF7FEFF 		bl	ssd1306_SetCursor
 1993              	.LVL266:
 420:Src/noteDetect.c ****     ssd1306_WriteString(note,Font_11x18,Black);
 1994              		.loc 1 420 0
 1995 0f0c B04C     		ldr	r4, .L187+88
 1996 0f0e 3046     		mov	r0, r6
 1997 0f10 94E80600 		ldmia	r4, {r1, r2}
 1998 0f14 0023     		movs	r3, #0
 1999 0f16 FFF7FEFF 		bl	ssd1306_WriteString
 2000              	.LVL267:
 421:Src/noteDetect.c ****     ssd1306_SetCursor(10,10);
 2001              		.loc 1 421 0
 2002 0f1a 0A20     		movs	r0, #10
 2003 0f1c 0146     		mov	r1, r0
 2004 0f1e FFF7FEFF 		bl	ssd1306_SetCursor
 2005              	.LVL268:
 422:Src/noteDetect.c ****     ssd1306_WriteString(noteFreq,Font_11x18,Black);
 2006              		.loc 1 422 0
 2007 0f22 3846     		mov	r0, r7
 2008 0f24 94E80600 		ldmia	r4, {r1, r2}
 2009 0f28 0023     		movs	r3, #0
 2010 0f2a FFF7FEFF 		bl	ssd1306_WriteString
 2011              	.LVL269:
 423:Src/noteDetect.c **** 
 424:Src/noteDetect.c ****     ssd1306_UpdateScreen();
 2012              		.loc 1 424 0
 2013 0f2e FFF7FEFF 		bl	ssd1306_UpdateScreen
 2014              	.LVL270:
 425:Src/noteDetect.c ****     HAL_Delay(500);
 2015              		.loc 1 425 0
 2016 0f32 4FF4FA70 		mov	r0, #500
 2017 0f36 FFF7FEFF 		bl	HAL_Delay
 2018              	.LVL271:
 2019 0f3a 17E1     		b	.L1
 2020              	.L90:
 426:Src/noteDetect.c ****   }
 427:Src/noteDetect.c **** 
 428:Src/noteDetect.c ****   /*Gb4 note */
 429:Src/noteDetect.c ****   else if(frequency <= 380.83 && frequency >= 359.47){
 2021              		.loc 1 429 0
ARM GAS  /var/folders/bq/zy6zjhwd1qn4sn8dk3jpjcq80000gn/T//ccGW5XvH.s 			page 44


 2022 0f3c 2046     		mov	r0, r4
 2023 0f3e 2946     		mov	r1, r5
 2024 0f40 91A3     		adr	r3, .L187+16
 2025 0f42 D3E90023 		ldrd	r2, [r3]
 2026 0f46 FFF7FEFF 		bl	__aeabi_dcmple
 2027              	.LVL272:
 2028 0f4a 88B1     		cbz	r0, .L93
 2029              		.loc 1 429 0 is_stmt 0 discriminator 1
 2030 0f4c 2046     		mov	r0, r4
 2031 0f4e 2946     		mov	r1, r5
 2032 0f50 8FA3     		adr	r3, .L187+24
 2033 0f52 D3E90023 		ldrd	r2, [r3]
 2034 0f56 FFF7FEFF 		bl	__aeabi_dcmpge
 2035              	.LVL273:
 2036 0f5a 48B1     		cbz	r0, .L93
 430:Src/noteDetect.c ****     sprintf(note, "Gb4");
 2037              		.loc 1 430 0 is_stmt 1
 2038 0f5c 9E4B     		ldr	r3, .L187+96
 2039 0f5e 1868     		ldr	r0, [r3]	@ unaligned
 2040 0f60 3060     		str	r0, [r6]	@ unaligned
 431:Src/noteDetect.c ****     sprintf(noteFreq, "%.2f", frequency);
 2041              		.loc 1 431 0
 2042 0f62 3846     		mov	r0, r7
 2043 0f64 9949     		ldr	r1, .L187+84
 2044 0f66 2246     		mov	r2, r4
 2045 0f68 2B46     		mov	r3, r5
 2046 0f6a FFF7FEFF 		bl	sprintf
 2047              	.LVL274:
 2048 0f6e FDE0     		b	.L1
 2049              	.L93:
 432:Src/noteDetect.c ****   }
 433:Src/noteDetect.c **** 
 434:Src/noteDetect.c **** 
 435:Src/noteDetect.c ****   /*G4 note */
 436:Src/noteDetect.c ****   else if(frequency <= 403.49 && frequency >= 380.83){
 2050              		.loc 1 436 0
 2051 0f70 2046     		mov	r0, r4
 2052 0f72 2946     		mov	r1, r5
 2053 0f74 88A3     		adr	r3, .L187+32
 2054 0f76 D3E90023 		ldrd	r2, [r3]
 2055 0f7a FFF7FEFF 		bl	__aeabi_dcmple
 2056              	.LVL275:
 2057 0f7e 70B3     		cbz	r0, .L96
 2058              		.loc 1 436 0 is_stmt 0 discriminator 1
 2059 0f80 2046     		mov	r0, r4
 2060 0f82 2946     		mov	r1, r5
 2061 0f84 80A3     		adr	r3, .L187+16
 2062 0f86 D3E90023 		ldrd	r2, [r3]
 2063 0f8a FFF7FEFF 		bl	__aeabi_dcmpge
 2064              	.LVL276:
 2065 0f8e 30B3     		cbz	r0, .L96
 437:Src/noteDetect.c ****     sprintf(note, "G4");
 2066              		.loc 1 437 0 is_stmt 1
 2067 0f90 924B     		ldr	r3, .L187+100
 2068 0f92 1A88     		ldrh	r2, [r3]	@ unaligned
 2069 0f94 9B78     		ldrb	r3, [r3, #2]	@ zero_extendqisi2
 2070 0f96 3280     		strh	r2, [r6]	@ unaligned
ARM GAS  /var/folders/bq/zy6zjhwd1qn4sn8dk3jpjcq80000gn/T//ccGW5XvH.s 			page 45


 2071 0f98 B370     		strb	r3, [r6, #2]
 438:Src/noteDetect.c ****     sprintf(noteFreq, "%.2f", frequency);
 2072              		.loc 1 438 0
 2073 0f9a 3846     		mov	r0, r7
 2074 0f9c 8B49     		ldr	r1, .L187+84
 2075 0f9e 2246     		mov	r2, r4
 2076 0fa0 2B46     		mov	r3, r5
 2077 0fa2 FFF7FEFF 		bl	sprintf
 2078              	.LVL277:
 439:Src/noteDetect.c **** 
 440:Src/noteDetect.c ****     ssd1306_SetCursor(50,50);
 2079              		.loc 1 440 0
 2080 0fa6 3220     		movs	r0, #50
 2081 0fa8 0146     		mov	r1, r0
 2082 0faa FFF7FEFF 		bl	ssd1306_SetCursor
 2083              	.LVL278:
 441:Src/noteDetect.c ****     ssd1306_WriteString(note,Font_11x18,Black);
 2084              		.loc 1 441 0
 2085 0fae 884C     		ldr	r4, .L187+88
 2086 0fb0 3046     		mov	r0, r6
 2087 0fb2 94E80600 		ldmia	r4, {r1, r2}
 2088 0fb6 0023     		movs	r3, #0
 2089 0fb8 FFF7FEFF 		bl	ssd1306_WriteString
 2090              	.LVL279:
 442:Src/noteDetect.c ****     ssd1306_SetCursor(10,10);
 2091              		.loc 1 442 0
 2092 0fbc 0A20     		movs	r0, #10
 2093 0fbe 0146     		mov	r1, r0
 2094 0fc0 FFF7FEFF 		bl	ssd1306_SetCursor
 2095              	.LVL280:
 443:Src/noteDetect.c ****     ssd1306_WriteString(noteFreq,Font_11x18,Black);
 2096              		.loc 1 443 0
 2097 0fc4 3846     		mov	r0, r7
 2098 0fc6 94E80600 		ldmia	r4, {r1, r2}
 2099 0fca 0023     		movs	r3, #0
 2100 0fcc FFF7FEFF 		bl	ssd1306_WriteString
 2101              	.LVL281:
 444:Src/noteDetect.c **** 
 445:Src/noteDetect.c ****     ssd1306_UpdateScreen();
 2102              		.loc 1 445 0
 2103 0fd0 FFF7FEFF 		bl	ssd1306_UpdateScreen
 2104              	.LVL282:
 446:Src/noteDetect.c ****     HAL_Delay(500);
 2105              		.loc 1 446 0
 2106 0fd4 4FF4FA70 		mov	r0, #500
 2107 0fd8 FFF7FEFF 		bl	HAL_Delay
 2108              	.LVL283:
 2109 0fdc C6E0     		b	.L1
 2110              	.L96:
 447:Src/noteDetect.c ****   }
 448:Src/noteDetect.c **** 
 449:Src/noteDetect.c ****   /*Ab4 note */
 450:Src/noteDetect.c ****   else if(frequency <= 427.56 && frequency >= 452.89){
 2111              		.loc 1 450 0
 2112 0fde 2046     		mov	r0, r4
 2113 0fe0 2946     		mov	r1, r5
 2114 0fe2 6FA3     		adr	r3, .L187+40
ARM GAS  /var/folders/bq/zy6zjhwd1qn4sn8dk3jpjcq80000gn/T//ccGW5XvH.s 			page 46


 2115 0fe4 D3E90023 		ldrd	r2, [r3]
 2116 0fe8 FFF7FEFF 		bl	__aeabi_dcmple
 2117              	.LVL284:
 2118 0fec 60B3     		cbz	r0, .L99
 2119              		.loc 1 450 0 is_stmt 0 discriminator 1
 2120 0fee 2046     		mov	r0, r4
 2121 0ff0 2946     		mov	r1, r5
 2122 0ff2 6DA3     		adr	r3, .L187+48
 2123 0ff4 D3E90023 		ldrd	r2, [r3]
 2124 0ff8 FFF7FEFF 		bl	__aeabi_dcmpge
 2125              	.LVL285:
 2126 0ffc 20B3     		cbz	r0, .L99
 451:Src/noteDetect.c ****     sprintf(note, "Ab4");
 2127              		.loc 1 451 0 is_stmt 1
 2128 0ffe 784B     		ldr	r3, .L187+104
 2129 1000 1868     		ldr	r0, [r3]	@ unaligned
 2130 1002 3060     		str	r0, [r6]	@ unaligned
 452:Src/noteDetect.c ****     sprintf(noteFreq, "%.2f", frequency);
 2131              		.loc 1 452 0
 2132 1004 3846     		mov	r0, r7
 2133 1006 7149     		ldr	r1, .L187+84
 2134 1008 2246     		mov	r2, r4
 2135 100a 2B46     		mov	r3, r5
 2136 100c FFF7FEFF 		bl	sprintf
 2137              	.LVL286:
 453:Src/noteDetect.c **** 
 454:Src/noteDetect.c ****     ssd1306_SetCursor(50,50);
 2138              		.loc 1 454 0
 2139 1010 3220     		movs	r0, #50
 2140 1012 0146     		mov	r1, r0
 2141 1014 FFF7FEFF 		bl	ssd1306_SetCursor
 2142              	.LVL287:
 455:Src/noteDetect.c ****     ssd1306_WriteString(note,Font_11x18,Black);
 2143              		.loc 1 455 0
 2144 1018 6D4C     		ldr	r4, .L187+88
 2145 101a 3046     		mov	r0, r6
 2146 101c 94E80600 		ldmia	r4, {r1, r2}
 2147 1020 0023     		movs	r3, #0
 2148 1022 FFF7FEFF 		bl	ssd1306_WriteString
 2149              	.LVL288:
 456:Src/noteDetect.c ****     ssd1306_SetCursor(10,10);
 2150              		.loc 1 456 0
 2151 1026 0A20     		movs	r0, #10
 2152 1028 0146     		mov	r1, r0
 2153 102a FFF7FEFF 		bl	ssd1306_SetCursor
 2154              	.LVL289:
 457:Src/noteDetect.c ****     ssd1306_WriteString(noteFreq,Font_11x18,Black);
 2155              		.loc 1 457 0
 2156 102e 3846     		mov	r0, r7
 2157 1030 94E80600 		ldmia	r4, {r1, r2}
 2158 1034 0023     		movs	r3, #0
 2159 1036 FFF7FEFF 		bl	ssd1306_WriteString
 2160              	.LVL290:
 458:Src/noteDetect.c **** 
 459:Src/noteDetect.c ****     ssd1306_UpdateScreen();
 2161              		.loc 1 459 0
 2162 103a FFF7FEFF 		bl	ssd1306_UpdateScreen
ARM GAS  /var/folders/bq/zy6zjhwd1qn4sn8dk3jpjcq80000gn/T//ccGW5XvH.s 			page 47


 2163              	.LVL291:
 460:Src/noteDetect.c ****     HAL_Delay(500);
 2164              		.loc 1 460 0
 2165 103e 4FF4FA70 		mov	r0, #500
 2166 1042 FFF7FEFF 		bl	HAL_Delay
 2167              	.LVL292:
 2168 1046 91E0     		b	.L1
 2169              	.L99:
 461:Src/noteDetect.c ****   }
 462:Src/noteDetect.c **** 
 463:Src/noteDetect.c ****   /*A4 note */
 464:Src/noteDetect.c ****   else if(frequency <= 452.89 && frequency >= 427.57){
 2170              		.loc 1 464 0
 2171 1048 2046     		mov	r0, r4
 2172 104a 2946     		mov	r1, r5
 2173 104c 56A3     		adr	r3, .L187+48
 2174 104e D3E90023 		ldrd	r2, [r3]
 2175 1052 FFF7FEFF 		bl	__aeabi_dcmple
 2176              	.LVL293:
 2177 1056 70B3     		cbz	r0, .L102
 2178              		.loc 1 464 0 is_stmt 0 discriminator 1
 2179 1058 2046     		mov	r0, r4
 2180 105a 2946     		mov	r1, r5
 2181 105c 54A3     		adr	r3, .L187+56
 2182 105e D3E90023 		ldrd	r2, [r3]
 2183 1062 FFF7FEFF 		bl	__aeabi_dcmpge
 2184              	.LVL294:
 2185 1066 30B3     		cbz	r0, .L102
 465:Src/noteDetect.c ****     sprintf(note, "A4");
 2186              		.loc 1 465 0 is_stmt 1
 2187 1068 5E4B     		ldr	r3, .L187+108
 2188 106a 1A88     		ldrh	r2, [r3]	@ unaligned
 2189 106c 9B78     		ldrb	r3, [r3, #2]	@ zero_extendqisi2
 2190 106e 3280     		strh	r2, [r6]	@ unaligned
 2191 1070 B370     		strb	r3, [r6, #2]
 466:Src/noteDetect.c ****     sprintf(noteFreq, "%.2f", frequency);
 2192              		.loc 1 466 0
 2193 1072 3846     		mov	r0, r7
 2194 1074 5549     		ldr	r1, .L187+84
 2195 1076 2246     		mov	r2, r4
 2196 1078 2B46     		mov	r3, r5
 2197 107a FFF7FEFF 		bl	sprintf
 2198              	.LVL295:
 467:Src/noteDetect.c **** 
 468:Src/noteDetect.c ****     ssd1306_SetCursor(50,50);
 2199              		.loc 1 468 0
 2200 107e 3220     		movs	r0, #50
 2201 1080 0146     		mov	r1, r0
 2202 1082 FFF7FEFF 		bl	ssd1306_SetCursor
 2203              	.LVL296:
 469:Src/noteDetect.c ****     ssd1306_WriteString(note,Font_11x18,Black);
 2204              		.loc 1 469 0
 2205 1086 524C     		ldr	r4, .L187+88
 2206 1088 3046     		mov	r0, r6
 2207 108a 94E80600 		ldmia	r4, {r1, r2}
 2208 108e 0023     		movs	r3, #0
 2209 1090 FFF7FEFF 		bl	ssd1306_WriteString
ARM GAS  /var/folders/bq/zy6zjhwd1qn4sn8dk3jpjcq80000gn/T//ccGW5XvH.s 			page 48


 2210              	.LVL297:
 470:Src/noteDetect.c ****     ssd1306_SetCursor(10,10);
 2211              		.loc 1 470 0
 2212 1094 0A20     		movs	r0, #10
 2213 1096 0146     		mov	r1, r0
 2214 1098 FFF7FEFF 		bl	ssd1306_SetCursor
 2215              	.LVL298:
 471:Src/noteDetect.c ****     ssd1306_WriteString(noteFreq,Font_11x18,Black);
 2216              		.loc 1 471 0
 2217 109c 3846     		mov	r0, r7
 2218 109e 94E80600 		ldmia	r4, {r1, r2}
 2219 10a2 0023     		movs	r3, #0
 2220 10a4 FFF7FEFF 		bl	ssd1306_WriteString
 2221              	.LVL299:
 472:Src/noteDetect.c **** 
 473:Src/noteDetect.c ****     ssd1306_UpdateScreen();
 2222              		.loc 1 473 0
 2223 10a8 FFF7FEFF 		bl	ssd1306_UpdateScreen
 2224              	.LVL300:
 474:Src/noteDetect.c ****     HAL_Delay(500);
 2225              		.loc 1 474 0
 2226 10ac 4FF4FA70 		mov	r0, #500
 2227 10b0 FFF7FEFF 		bl	HAL_Delay
 2228              	.LVL301:
 2229 10b4 5AE0     		b	.L1
 2230              	.L102:
 475:Src/noteDetect.c ****   }
 476:Src/noteDetect.c **** 
 477:Src/noteDetect.c ****   /*Bb4 note */
 478:Src/noteDetect.c ****   else if(frequency <= 479.82 && frequency >= 452.90){
 2231              		.loc 1 478 0
 2232 10b6 2046     		mov	r0, r4
 2233 10b8 2946     		mov	r1, r5
 2234 10ba 3FA3     		adr	r3, .L187+64
 2235 10bc D3E90023 		ldrd	r2, [r3]
 2236 10c0 FFF7FEFF 		bl	__aeabi_dcmple
 2237              	.LVL302:
 2238 10c4 60B3     		cbz	r0, .L105
 2239              		.loc 1 478 0 is_stmt 0 discriminator 1
 2240 10c6 2046     		mov	r0, r4
 2241 10c8 2946     		mov	r1, r5
 2242 10ca 3DA3     		adr	r3, .L187+72
 2243 10cc D3E90023 		ldrd	r2, [r3]
 2244 10d0 FFF7FEFF 		bl	__aeabi_dcmpge
 2245              	.LVL303:
 2246 10d4 20B3     		cbz	r0, .L105
 479:Src/noteDetect.c ****     sprintf(note, "Bb4");
 2247              		.loc 1 479 0 is_stmt 1
 2248 10d6 444B     		ldr	r3, .L187+112
 2249 10d8 1868     		ldr	r0, [r3]	@ unaligned
 2250 10da 3060     		str	r0, [r6]	@ unaligned
 480:Src/noteDetect.c ****     sprintf(noteFreq, "%.2f", frequency);
 2251              		.loc 1 480 0
 2252 10dc 3846     		mov	r0, r7
 2253 10de 3B49     		ldr	r1, .L187+84
 2254 10e0 2246     		mov	r2, r4
 2255 10e2 2B46     		mov	r3, r5
ARM GAS  /var/folders/bq/zy6zjhwd1qn4sn8dk3jpjcq80000gn/T//ccGW5XvH.s 			page 49


 2256 10e4 FFF7FEFF 		bl	sprintf
 2257              	.LVL304:
 481:Src/noteDetect.c **** 
 482:Src/noteDetect.c ****     ssd1306_SetCursor(50,50);
 2258              		.loc 1 482 0
 2259 10e8 3220     		movs	r0, #50
 2260 10ea 0146     		mov	r1, r0
 2261 10ec FFF7FEFF 		bl	ssd1306_SetCursor
 2262              	.LVL305:
 483:Src/noteDetect.c ****     ssd1306_WriteString(note,Font_11x18,Black);
 2263              		.loc 1 483 0
 2264 10f0 374C     		ldr	r4, .L187+88
 2265 10f2 3046     		mov	r0, r6
 2266 10f4 94E80600 		ldmia	r4, {r1, r2}
 2267 10f8 0023     		movs	r3, #0
 2268 10fa FFF7FEFF 		bl	ssd1306_WriteString
 2269              	.LVL306:
 484:Src/noteDetect.c ****     ssd1306_SetCursor(10,10);
 2270              		.loc 1 484 0
 2271 10fe 0A20     		movs	r0, #10
 2272 1100 0146     		mov	r1, r0
 2273 1102 FFF7FEFF 		bl	ssd1306_SetCursor
 2274              	.LVL307:
 485:Src/noteDetect.c ****     ssd1306_WriteString(noteFreq,Font_11x18,Black);
 2275              		.loc 1 485 0
 2276 1106 3846     		mov	r0, r7
 2277 1108 94E80600 		ldmia	r4, {r1, r2}
 2278 110c 0023     		movs	r3, #0
 2279 110e FFF7FEFF 		bl	ssd1306_WriteString
 2280              	.LVL308:
 486:Src/noteDetect.c **** 
 487:Src/noteDetect.c ****     ssd1306_UpdateScreen();
 2281              		.loc 1 487 0
 2282 1112 FFF7FEFF 		bl	ssd1306_UpdateScreen
 2283              	.LVL309:
 488:Src/noteDetect.c ****     HAL_Delay(500);
 2284              		.loc 1 488 0
 2285 1116 4FF4FA70 		mov	r0, #500
 2286 111a FFF7FEFF 		bl	HAL_Delay
 2287              	.LVL310:
 2288 111e 25E0     		b	.L1
 2289              	.L105:
 489:Src/noteDetect.c ****   }
 490:Src/noteDetect.c **** 
 491:Src/noteDetect.c ****   else{
 492:Src/noteDetect.c ****     sprintf(note, "NULL");
 2290              		.loc 1 492 0
 2291 1120 324B     		ldr	r3, .L187+116
 2292 1122 1868     		ldr	r0, [r3]	@ unaligned
 2293 1124 3060     		str	r0, [r6]	@ unaligned
 2294 1126 1B79     		ldrb	r3, [r3, #4]	@ zero_extendqisi2
 2295 1128 3371     		strb	r3, [r6, #4]
 493:Src/noteDetect.c ****     sprintf(noteFreq, "%.2f", frequency);
 2296              		.loc 1 493 0
 2297 112a 3846     		mov	r0, r7
 2298 112c 2749     		ldr	r1, .L187+84
 2299 112e 2246     		mov	r2, r4
ARM GAS  /var/folders/bq/zy6zjhwd1qn4sn8dk3jpjcq80000gn/T//ccGW5XvH.s 			page 50


 2300 1130 2B46     		mov	r3, r5
 2301 1132 FFF7FEFF 		bl	sprintf
 2302              	.LVL311:
 494:Src/noteDetect.c **** 
 495:Src/noteDetect.c ****     ssd1306_SetCursor(50,50);
 2303              		.loc 1 495 0
 2304 1136 3220     		movs	r0, #50
 2305 1138 0146     		mov	r1, r0
 2306 113a FFF7FEFF 		bl	ssd1306_SetCursor
 2307              	.LVL312:
 496:Src/noteDetect.c ****     ssd1306_WriteString(note,Font_11x18,Black);
 2308              		.loc 1 496 0
 2309 113e 244C     		ldr	r4, .L187+88
 2310 1140 3046     		mov	r0, r6
 2311 1142 94E80600 		ldmia	r4, {r1, r2}
 2312 1146 0023     		movs	r3, #0
 2313 1148 FFF7FEFF 		bl	ssd1306_WriteString
 2314              	.LVL313:
 497:Src/noteDetect.c ****     ssd1306_SetCursor(10,10);
 2315              		.loc 1 497 0
 2316 114c 0A20     		movs	r0, #10
 2317 114e 0146     		mov	r1, r0
 2318 1150 FFF7FEFF 		bl	ssd1306_SetCursor
 2319              	.LVL314:
 498:Src/noteDetect.c ****     ssd1306_WriteString(noteFreq,Font_11x18,Black);
 2320              		.loc 1 498 0
 2321 1154 3846     		mov	r0, r7
 2322 1156 94E80600 		ldmia	r4, {r1, r2}
 2323 115a 0023     		movs	r3, #0
 2324 115c FFF7FEFF 		bl	ssd1306_WriteString
 2325              	.LVL315:
 499:Src/noteDetect.c **** 
 500:Src/noteDetect.c ****     ssd1306_UpdateScreen();
 2326              		.loc 1 500 0
 2327 1160 FFF7FEFF 		bl	ssd1306_UpdateScreen
 2328              	.LVL316:
 501:Src/noteDetect.c ****     HAL_Delay(500);
 2329              		.loc 1 501 0
 2330 1164 4FF4FA70 		mov	r0, #500
 2331 1168 FFF7FEFF 		bl	HAL_Delay
 2332              	.LVL317:
 2333              	.L1:
 502:Src/noteDetect.c **** 
 503:Src/noteDetect.c ****   }
 504:Src/noteDetect.c **** /*end note detect */
 505:Src/noteDetect.c **** }
 2334              		.loc 1 505 0
 2335 116c BDEC028B 		fldmfdd	sp!, {d8}
 2336              	.LCFI2:
 2337              		.cfi_restore 80
 2338              		.cfi_restore 81
 2339              		.cfi_def_cfa_offset 24
 2340              	.LVL318:
 2341 1170 F8BD     		pop	{r3, r4, r5, r6, r7, pc}
 2342              	.LVL319:
 2343              	.L188:
 2344 1172 00BFAFF3 		.align	3
ARM GAS  /var/folders/bq/zy6zjhwd1qn4sn8dk3jpjcq80000gn/T//ccGW5XvH.s 			page 51


 2344      0080
 2345              	.L187:
 2346 1178 8FC2F528 		.word	687194767
 2347 117c 5C777640 		.word	1081505628
 2348 1180 CDCCCCCC 		.word	3435973837
 2349 1184 CC347540 		.word	1081423052
 2350 1188 E17A14AE 		.word	2920577761
 2351 118c 47CD7740 		.word	1081593159
 2352 1190 EC51B81E 		.word	515396076
 2353 1194 85777640 		.word	1081505669
 2354 1198 A4703D0A 		.word	171798692
 2355 119c D7377940 		.word	1081685975
 2356 11a0 295C8FC2 		.word	3264175145
 2357 11a4 F5B87A40 		.word	1081784565
 2358 11a8 0AD7A370 		.word	1889785610
 2359 11ac 3D4E7C40 		.word	1081888317
 2360 11b0 85EB51B8 		.word	3092376453
 2361 11b4 1EB97A40 		.word	1081784606
 2362 11b8 85EB51B8 		.word	3092376453
 2363 11bc 1EFD7D40 		.word	1081998622
 2364 11c0 66666666 		.word	1717986918
 2365 11c4 664E7C40 		.word	1081888358
 2366 11c8 78000000 		.word	.LC29
 2367 11cc 04000000 		.word	.LC1
 2368 11d0 00000000 		.word	Font_11x18
 2369 11d4 7C000000 		.word	.LC30
 2370 11d8 80000000 		.word	.LC31
 2371 11dc 84000000 		.word	.LC32
 2372 11e0 88000000 		.word	.LC33
 2373 11e4 8C000000 		.word	.LC34
 2374 11e8 90000000 		.word	.LC35
 2375 11ec 94000000 		.word	.LC36
 2376 11f0 713D0AD7 		.word	3607772529
 2377 11f4 A3347540 		.word	1081423011
 2378 11f8 5C8FC2F5 		.word	4123168604
 2379 11fc 28047440 		.word	1081345064
 2380              		.cfi_endproc
 2381              	.LFE306:
 2383              		.section	.text.print2Screen,"ax",%progbits
 2384              		.align	2
 2385              		.global	print2Screen
 2386              		.thumb
 2387              		.thumb_func
 2389              	print2Screen:
 2390              	.LFB307:
 506:Src/noteDetect.c **** 
 507:Src/noteDetect.c **** 
 508:Src/noteDetect.c **** void print2Screen(float frequency, char *note, char *noteFreq)
 509:Src/noteDetect.c **** {
 2391              		.loc 1 509 0
 2392              		.cfi_startproc
 2393              		@ args = 0, pretend = 0, frame = 0
 2394              		@ frame_needed = 0, uses_anonymous_args = 0
 2395              	.LVL320:
 2396 0000 70B5     		push	{r4, r5, r6, lr}
 2397              	.LCFI3:
 2398              		.cfi_def_cfa_offset 16
ARM GAS  /var/folders/bq/zy6zjhwd1qn4sn8dk3jpjcq80000gn/T//ccGW5XvH.s 			page 52


 2399              		.cfi_offset 4, -16
 2400              		.cfi_offset 5, -12
 2401              		.cfi_offset 6, -8
 2402              		.cfi_offset 14, -4
 2403 0002 0646     		mov	r6, r0
 2404 0004 0D46     		mov	r5, r1
 510:Src/noteDetect.c **** 
 511:Src/noteDetect.c ****     findNote(frequency, note, noteFreq);
 2405              		.loc 1 511 0
 2406 0006 FFF7FEFF 		bl	findNote
 2407              	.LVL321:
 512:Src/noteDetect.c ****     ssd1306_SetCursor(50,50);
 2408              		.loc 1 512 0
 2409 000a 3220     		movs	r0, #50
 2410 000c 0146     		mov	r1, r0
 2411 000e FFF7FEFF 		bl	ssd1306_SetCursor
 2412              	.LVL322:
 513:Src/noteDetect.c ****     ssd1306_WriteString(note,Font_11x18,Black);
 2413              		.loc 1 513 0
 2414 0012 0C4C     		ldr	r4, .L191
 2415 0014 3046     		mov	r0, r6
 2416 0016 94E80600 		ldmia	r4, {r1, r2}
 2417 001a 0023     		movs	r3, #0
 2418 001c FFF7FEFF 		bl	ssd1306_WriteString
 2419              	.LVL323:
 514:Src/noteDetect.c ****     ssd1306_SetCursor(10,10);
 2420              		.loc 1 514 0
 2421 0020 0A20     		movs	r0, #10
 2422 0022 0146     		mov	r1, r0
 2423 0024 FFF7FEFF 		bl	ssd1306_SetCursor
 2424              	.LVL324:
 515:Src/noteDetect.c ****     ssd1306_WriteString(noteFreq,Font_11x18,Black);
 2425              		.loc 1 515 0
 2426 0028 2846     		mov	r0, r5
 2427 002a 94E80600 		ldmia	r4, {r1, r2}
 2428 002e 0023     		movs	r3, #0
 2429 0030 FFF7FEFF 		bl	ssd1306_WriteString
 2430              	.LVL325:
 516:Src/noteDetect.c **** 
 517:Src/noteDetect.c ****     ssd1306_UpdateScreen();
 2431              		.loc 1 517 0
 2432 0034 FFF7FEFF 		bl	ssd1306_UpdateScreen
 2433              	.LVL326:
 518:Src/noteDetect.c ****     HAL_Delay(500);
 2434              		.loc 1 518 0
 2435 0038 4FF4FA70 		mov	r0, #500
 2436 003c FFF7FEFF 		bl	HAL_Delay
 2437              	.LVL327:
 2438 0040 70BD     		pop	{r4, r5, r6, pc}
 2439              	.LVL328:
 2440              	.L192:
 2441 0042 00BF     		.align	2
 2442              	.L191:
 2443 0044 00000000 		.word	Font_11x18
 2444              		.cfi_endproc
 2445              	.LFE307:
 2447              		.section	.rodata.str1.4,"aMS",%progbits,1
ARM GAS  /var/folders/bq/zy6zjhwd1qn4sn8dk3jpjcq80000gn/T//ccGW5XvH.s 			page 53


 2448              		.align	2
 2449              	.LC0:
 2450 0000 423100   		.ascii	"B1\000"
 2451 0003 00       		.space	1
 2452              	.LC1:
 2453 0004 252E3266 		.ascii	"%.2f\000"
 2453      00
 2454 0009 000000   		.space	3
 2455              	.LC2:
 2456 000c 433200   		.ascii	"C2\000"
 2457 000f 00       		.space	1
 2458              	.LC3:
 2459 0010 44623200 		.ascii	"Db2\000"
 2460              	.LC4:
 2461 0014 443200   		.ascii	"D2\000"
 2462 0017 00       		.space	1
 2463              	.LC5:
 2464 0018 45623200 		.ascii	"Eb2\000"
 2465              	.LC6:
 2466 001c 453200   		.ascii	"E2\000"
 2467 001f 00       		.space	1
 2468              	.LC7:
 2469 0020 463200   		.ascii	"F2\000"
 2470 0023 00       		.space	1
 2471              	.LC8:
 2472 0024 47623200 		.ascii	"Gb2\000"
 2473              	.LC9:
 2474 0028 473200   		.ascii	"G2\000"
 2475 002b 00       		.space	1
 2476              	.LC10:
 2477 002c 41623200 		.ascii	"Ab2\000"
 2478              	.LC11:
 2479 0030 413200   		.ascii	"A2\000"
 2480 0033 00       		.space	1
 2481              	.LC12:
 2482 0034 423200   		.ascii	"B2\000"
 2483 0037 00       		.space	1
 2484              	.LC13:
 2485 0038 433300   		.ascii	"C3\000"
 2486 003b 00       		.space	1
 2487              	.LC14:
 2488 003c 44623300 		.ascii	"Db3\000"
 2489              	.LC15:
 2490 0040 443300   		.ascii	"D3\000"
 2491 0043 00       		.space	1
 2492              	.LC16:
 2493 0044 45623300 		.ascii	"Eb3\000"
 2494              	.LC17:
 2495 0048 453300   		.ascii	"E3\000"
 2496 004b 00       		.space	1
 2497              	.LC18:
 2498 004c 463300   		.ascii	"F3\000"
 2499 004f 00       		.space	1
 2500              	.LC19:
 2501 0050 47623300 		.ascii	"Gb3\000"
 2502              	.LC20:
 2503 0054 473300   		.ascii	"G3\000"
ARM GAS  /var/folders/bq/zy6zjhwd1qn4sn8dk3jpjcq80000gn/T//ccGW5XvH.s 			page 54


 2504 0057 00       		.space	1
 2505              	.LC21:
 2506 0058 41623300 		.ascii	"Ab3\000"
 2507              	.LC22:
 2508 005c 413300   		.ascii	"A3\000"
 2509 005f 00       		.space	1
 2510              	.LC23:
 2511 0060 42623300 		.ascii	"Bb3\000"
 2512              	.LC24:
 2513 0064 423300   		.ascii	"B3\000"
 2514 0067 00       		.space	1
 2515              	.LC25:
 2516 0068 433400   		.ascii	"C4\000"
 2517 006b 00       		.space	1
 2518              	.LC26:
 2519 006c 44623400 		.ascii	"Db4\000"
 2520              	.LC27:
 2521 0070 443400   		.ascii	"D4\000"
 2522 0073 00       		.space	1
 2523              	.LC28:
 2524 0074 45623400 		.ascii	"Eb4\000"
 2525              	.LC29:
 2526 0078 453400   		.ascii	"E4\000"
 2527 007b 00       		.space	1
 2528              	.LC30:
 2529 007c 463400   		.ascii	"F4\000"
 2530 007f 00       		.space	1
 2531              	.LC31:
 2532 0080 47623400 		.ascii	"Gb4\000"
 2533              	.LC32:
 2534 0084 473400   		.ascii	"G4\000"
 2535 0087 00       		.space	1
 2536              	.LC33:
 2537 0088 41623400 		.ascii	"Ab4\000"
 2538              	.LC34:
 2539 008c 413400   		.ascii	"A4\000"
 2540 008f 00       		.space	1
 2541              	.LC35:
 2542 0090 42623400 		.ascii	"Bb4\000"
 2543              	.LC36:
 2544 0094 4E554C4C 		.ascii	"NULL\000"
 2544      00
 2545              		.text
 2546              	.Letext0:
 2547              		.file 2 "/usr/local/Cellar/gcc-arm-none-eabi-49/20150925/arm-none-eabi/include/machine/_default_ty
 2548              		.file 3 "/usr/local/Cellar/gcc-arm-none-eabi-49/20150925/arm-none-eabi/include/sys/_stdint.h"
 2549              		.file 4 "Inc/fonts.h"
 2550              		.file 5 "Inc/ssd1306.h"
 2551              		.file 6 "Drivers/CMSIS/Include/core_cm4.h"
 2552              		.file 7 "/usr/local/Cellar/gcc-arm-none-eabi-49/20150925/arm-none-eabi/include/stdio.h"
 2553              		.file 8 "Drivers/STM32L4xx_HAL_Driver/Inc/stm32l4xx_hal.h"
ARM GAS  /var/folders/bq/zy6zjhwd1qn4sn8dk3jpjcq80000gn/T//ccGW5XvH.s 			page 55

