ARM GAS  /tmp/ccbt8LDA.s 			page 1


   1              		.cpu cortex-m4
   2              		.eabi_attribute 27, 1
   3              		.eabi_attribute 28, 1
   4              		.eabi_attribute 20, 1
   5              		.eabi_attribute 21, 1
   6              		.eabi_attribute 23, 3
   7              		.eabi_attribute 24, 1
   8              		.eabi_attribute 25, 1
   9              		.eabi_attribute 26, 1
  10              		.eabi_attribute 30, 1
  11              		.eabi_attribute 34, 1
  12              		.eabi_attribute 18, 4
  13              		.file	"noteDetect.c"
  14              		.text
  15              	.Ltext0:
  16              		.cfi_sections	.debug_frame
  17              		.global	__aeabi_f2d
  18              		.global	__aeabi_dcmpge
  19              		.global	__aeabi_dcmple
  20              		.section	.rodata.findNote.str1.4,"aMS",%progbits,1
  21              		.align	2
  22              	.LC1:
  23 0000 42312020 		.ascii	"B1  \000"
  23      00
  24 0005 000000   		.align	2
  25              	.LC2:
  26 0008 25342E32 		.ascii	"%4.2f\000"
  26      6600
  27 000e 0000     		.align	2
  28              	.LC3:
  29 0010 43322020 		.ascii	"C2  \000"
  29      00
  30 0015 000000   		.align	2
  31              	.LC4:
  32 0018 252E3266 		.ascii	"%.2f\000"
  32      00
  33 001d 000000   		.align	2
  34              	.LC5:
  35 0020 44623220 		.ascii	"Db2  \000"
  35      2000
  36 0026 0000     		.align	2
  37              	.LC6:
  38 0028 44322020 		.ascii	"D2  \000"
  38      00
  39 002d 000000   		.align	2
  40              	.LC7:
  41 0030 45623220 		.ascii	"Eb2  \000"
  41      2000
  42 0036 0000     		.align	2
  43              	.LC8:
  44 0038 45322020 		.ascii	"E2  \000"
  44      00
  45 003d 000000   		.align	2
  46              	.LC9:
  47 0040 46322020 		.ascii	"F2  \000"
  47      00
  48 0045 000000   		.align	2
ARM GAS  /tmp/ccbt8LDA.s 			page 2


  49              	.LC10:
  50 0048 47623220 		.ascii	"Gb2  \000"
  50      2000
  51 004e 0000     		.align	2
  52              	.LC11:
  53 0050 47322020 		.ascii	"G2  \000"
  53      00
  54 0055 000000   		.align	2
  55              	.LC12:
  56 0058 41623220 		.ascii	"Ab2  \000"
  56      2000
  57 005e 0000     		.align	2
  58              	.LC13:
  59 0060 41322020 		.ascii	"A2  \000"
  59      00
  60 0065 000000   		.align	2
  61              	.LC14:
  62 0068 42623220 		.ascii	"Bb2  \000"
  62      2000
  63 006e 0000     		.align	2
  64              	.LC15:
  65 0070 42322020 		.ascii	"B2  \000"
  65      00
  66 0075 000000   		.align	2
  67              	.LC16:
  68 0078 43332020 		.ascii	"C3  \000"
  68      00
  69 007d 000000   		.align	2
  70              	.LC17:
  71 0080 44623320 		.ascii	"Db3  \000"
  71      2000
  72 0086 0000     		.align	2
  73              	.LC18:
  74 0088 44332020 		.ascii	"D3  \000"
  74      00
  75 008d 000000   		.align	2
  76              	.LC19:
  77 0090 45623320 		.ascii	"Eb3  \000"
  77      2000
  78 0096 0000     		.align	2
  79              	.LC20:
  80 0098 45332020 		.ascii	"E3  \000"
  80      00
  81 009d 000000   		.align	2
  82              	.LC21:
  83 00a0 46332020 		.ascii	"F3  \000"
  83      00
  84 00a5 000000   		.align	2
  85              	.LC22:
  86 00a8 47623320 		.ascii	"Gb3  \000"
  86      2000
  87 00ae 0000     		.align	2
  88              	.LC23:
  89 00b0 47332020 		.ascii	"G3  \000"
  89      00
  90 00b5 000000   		.align	2
  91              	.LC24:
ARM GAS  /tmp/ccbt8LDA.s 			page 3


  92 00b8 41623320 		.ascii	"Ab3  \000"
  92      2000
  93 00be 0000     		.align	2
  94              	.LC25:
  95 00c0 41332020 		.ascii	"A3  \000"
  95      00
  96 00c5 000000   		.align	2
  97              	.LC26:
  98 00c8 42623320 		.ascii	"Bb3  \000"
  98      2000
  99 00ce 0000     		.align	2
 100              	.LC27:
 101 00d0 42332020 		.ascii	"B3  \000"
 101      00
 102 00d5 000000   		.align	2
 103              	.LC28:
 104 00d8 43342020 		.ascii	"C4  \000"
 104      00
 105 00dd 000000   		.align	2
 106              	.LC29:
 107 00e0 44623420 		.ascii	"Db4  \000"
 107      2000
 108 00e6 0000     		.align	2
 109              	.LC30:
 110 00e8 44342020 		.ascii	"D4  \000"
 110      00
 111 00ed 000000   		.align	2
 112              	.LC31:
 113 00f0 45623420 		.ascii	"Eb4  \000"
 113      2000
 114 00f6 0000     		.align	2
 115              	.LC32:
 116 00f8 45342020 		.ascii	"E4  \000"
 116      00
 117 00fd 000000   		.align	2
 118              	.LC33:
 119 0100 46342020 		.ascii	"F4  \000"
 119      00
 120 0105 000000   		.align	2
 121              	.LC34:
 122 0108 47623420 		.ascii	"Gb4  \000"
 122      2000
 123 010e 0000     		.align	2
 124              	.LC35:
 125 0110 47342020 		.ascii	"G4  \000"
 125      00
 126 0115 000000   		.align	2
 127              	.LC36:
 128 0118 41623420 		.ascii	"Ab4  \000"
 128      2000
 129 011e 0000     		.align	2
 130              	.LC37:
 131 0120 41342020 		.ascii	"A4  \000"
 131      00
 132 0125 000000   		.align	2
 133              	.LC38:
 134 0128 42623420 		.ascii	"Bb4  \000"
ARM GAS  /tmp/ccbt8LDA.s 			page 4


 134      2000
 135 012e 0000     		.align	2
 136              	.LC39:
 137 0130 4E554C4C 		.ascii	"NULL\000"
 137      00
 138              		.section	.text.findNote,"ax",%progbits
 139              		.align	1
 140              		.global	findNote
 141              		.arch armv7e-m
 142              		.syntax unified
 143              		.thumb
 144              		.thumb_func
 145              		.fpu fpv4-sp-d16
 147              	findNote:
 148              	.LVL0:
 149              	.LFB309:
 150              		.file 1 "Src/noteDetect.c"
   1:Src/noteDetect.c **** #include <stdio.h>
   2:Src/noteDetect.c **** #include "ssd1306.h"
   3:Src/noteDetect.c **** #include "fonts.h"
   4:Src/noteDetect.c **** 
   5:Src/noteDetect.c **** 
   6:Src/noteDetect.c **** #define NOTEX 40
   7:Src/noteDetect.c **** #define NOTEY 40
   8:Src/noteDetect.c **** #define FREQX 40
   9:Src/noteDetect.c **** #define FREQY 15
  10:Src/noteDetect.c **** #define INTUNE 35
  11:Src/noteDetect.c **** 
  12:Src/noteDetect.c **** 
  13:Src/noteDetect.c **** void findNote(float frequency)
  14:Src/noteDetect.c **** {
 151              		.loc 1 14 1 view -0
 152              		.cfi_startproc
 153              		@ args = 0, pretend = 0, frame = 120
 154              		@ frame_needed = 0, uses_anonymous_args = 0
 155              		.loc 1 14 1 is_stmt 0 view .LVU1
 156 0000 F0B5     		push	{r4, r5, r6, r7, lr}
 157              	.LCFI0:
 158              		.cfi_def_cfa_offset 20
 159              		.cfi_offset 4, -20
 160              		.cfi_offset 5, -16
 161              		.cfi_offset 6, -12
 162              		.cfi_offset 7, -8
 163              		.cfi_offset 14, -4
 164 0002 9FB0     		sub	sp, sp, #124
 165              	.LCFI1:
 166              		.cfi_def_cfa_offset 144
 167 0004 10EE106A 		vmov	r6, s0
  15:Src/noteDetect.c ****   char note[40] = "thing\n\r";
 168              		.loc 1 15 3 is_stmt 1 view .LVU2
 169              		.loc 1 15 8 is_stmt 0 view .LVU3
 170 0008 CB4C     		ldr	r4, .L436+224
 171 000a 14AB     		add	r3, sp, #80
 172 000c 94E80300 		ldm	r4, {r0, r1}
 173 0010 83E80300 		stm	r3, {r0, r1}
 174 0014 2025     		movs	r5, #32
 175 0016 2A46     		mov	r2, r5
ARM GAS  /tmp/ccbt8LDA.s 			page 5


 176 0018 0021     		movs	r1, #0
 177 001a 16A8     		add	r0, sp, #88
 178 001c FFF7FEFF 		bl	memset
 179              	.LVL1:
  16:Src/noteDetect.c ****   char noteFreq[40] = "thing\n\r";
 180              		.loc 1 16 3 is_stmt 1 view .LVU4
 181              		.loc 1 16 8 is_stmt 0 view .LVU5
 182 0020 0AAB     		add	r3, sp, #40
 183 0022 94E80300 		ldm	r4, {r0, r1}
 184 0026 83E80300 		stm	r3, {r0, r1}
 185 002a 2A46     		mov	r2, r5
 186 002c 0021     		movs	r1, #0
 187 002e 0CA8     		add	r0, sp, #48
 188 0030 FFF7FEFF 		bl	memset
 189              	.LVL2:
  17:Src/noteDetect.c ****   char dot[40] = "O";
 190              		.loc 1 17 3 is_stmt 1 view .LVU6
 191              		.loc 1 17 8 is_stmt 0 view .LVU7
 192 0034 4F23     		movs	r3, #79
 193 0036 0093     		str	r3, [sp]
 194 0038 2422     		movs	r2, #36
 195 003a 0021     		movs	r1, #0
 196 003c 01A8     		add	r0, sp, #4
 197 003e FFF7FEFF 		bl	memset
 198              	.LVL3:
  18:Src/noteDetect.c ****   /*B1 note */
  19:Src/noteDetect.c ****   if(frequency>= 59.98 && frequency <= 63.55){
 199              		.loc 1 19 3 is_stmt 1 view .LVU8
 200              		.loc 1 19 15 is_stmt 0 view .LVU9
 201 0042 3046     		mov	r0, r6	@ float
 202 0044 FFF7FEFF 		bl	__aeabi_f2d
 203              	.LVL4:
 204 0048 0446     		mov	r4, r0
 205 004a 0D46     		mov	r5, r1
 206              		.loc 1 19 5 view .LVU10
 207 004c 82A3     		adr	r3, .L436
 208 004e D3E90023 		ldrd	r2, [r3]
 209 0052 FFF7FEFF 		bl	__aeabi_dcmpge
 210              	.LVL5:
 211 0056 48B1     		cbz	r0, .L2
 212              		.loc 1 19 24 discriminator 1 view .LVU11
 213 0058 81A3     		adr	r3, .L436+8
 214 005a D3E90023 		ldrd	r2, [r3]
 215 005e 2046     		mov	r0, r4
 216 0060 2946     		mov	r1, r5
 217 0062 FFF7FEFF 		bl	__aeabi_dcmple
 218              	.LVL6:
 219 0066 0028     		cmp	r0, #0
 220 0068 40F02E83 		bne	.L364
 221              	.L2:
  20:Src/noteDetect.c ****     sprintf(note, "B1  ");
  21:Src/noteDetect.c ****     sprintf(noteFreq, "%4.2f", frequency);
  22:Src/noteDetect.c ****     ssd1306_SetCursor(NOTEX, NOTEY);
  23:Src/noteDetect.c ****     ssd1306_WriteString(note,Font_11x18,Black);
  24:Src/noteDetect.c ****     ssd1306_SetCursor(FREQX,FREQY);
  25:Src/noteDetect.c ****     ssd1306_WriteString(noteFreq,Font_11x18,Black);
  26:Src/noteDetect.c **** 
ARM GAS  /tmp/ccbt8LDA.s 			page 6


  27:Src/noteDetect.c ****       /*if in tune plus/minus 10 cents */
  28:Src/noteDetect.c ****       if(frequency>= 61.38 && frequency <= 62.09){
  29:Src/noteDetect.c ****         ssd1306_SetCursor(NOTEX + INTUNE, NOTEY);
  30:Src/noteDetect.c ****         ssd1306_WriteString(dot,Font_11x18,Black);
  31:Src/noteDetect.c **** 
  32:Src/noteDetect.c ****       }
  33:Src/noteDetect.c **** 
  34:Src/noteDetect.c ****       ssd1306_UpdateScreen();
  35:Src/noteDetect.c ****       HAL_Delay(500);
  36:Src/noteDetect.c ****   }
  37:Src/noteDetect.c **** 
  38:Src/noteDetect.c ****   /*C2 note */
  39:Src/noteDetect.c ****   else if(frequency>= 63.56 && frequency <= 67.33){
 222              		.loc 1 39 8 is_stmt 1 view .LVU12
 223              		.loc 1 39 10 is_stmt 0 view .LVU13
 224 006c 7EA3     		adr	r3, .L436+16
 225 006e D3E90023 		ldrd	r2, [r3]
 226 0072 2046     		mov	r0, r4
 227 0074 2946     		mov	r1, r5
 228 0076 FFF7FEFF 		bl	__aeabi_dcmpge
 229              	.LVL7:
 230 007a 48B1     		cbz	r0, .L9
 231              		.loc 1 39 29 discriminator 1 view .LVU14
 232 007c 7CA3     		adr	r3, .L436+24
 233 007e D3E90023 		ldrd	r2, [r3]
 234 0082 2046     		mov	r0, r4
 235 0084 2946     		mov	r1, r5
 236 0086 FFF7FEFF 		bl	__aeabi_dcmple
 237              	.LVL8:
 238 008a 0028     		cmp	r0, #0
 239 008c 40F06083 		bne	.L365
 240              	.L9:
  40:Src/noteDetect.c ****     sprintf(note, "C2  ");
  41:Src/noteDetect.c ****     sprintf(noteFreq, "%.2f", frequency);
  42:Src/noteDetect.c ****     ssd1306_SetCursor(NOTEX, NOTEY);
  43:Src/noteDetect.c ****     ssd1306_WriteString(note,Font_11x18,Black);
  44:Src/noteDetect.c ****     ssd1306_SetCursor(FREQX,FREQY);
  45:Src/noteDetect.c ****     ssd1306_WriteString(noteFreq,Font_11x18,Black);
  46:Src/noteDetect.c **** 
  47:Src/noteDetect.c ****     /*if in tune plus/minus 10 cents */
  48:Src/noteDetect.c ****     if(frequency>= 65.03 && frequency <= 65.79){
  49:Src/noteDetect.c ****       ssd1306_SetCursor(NOTEX + INTUNE, NOTEY);
  50:Src/noteDetect.c ****       ssd1306_WriteString(dot,Font_11x18,Black);
  51:Src/noteDetect.c **** 
  52:Src/noteDetect.c ****     }
  53:Src/noteDetect.c **** 
  54:Src/noteDetect.c ****     ssd1306_UpdateScreen();
  55:Src/noteDetect.c ****     HAL_Delay(500);
  56:Src/noteDetect.c ****   }
  57:Src/noteDetect.c **** 
  58:Src/noteDetect.c ****   /*Db2 note */
  59:Src/noteDetect.c ****   else if(frequency>= 67.34 && frequency <= 71.33){
 241              		.loc 1 59 8 is_stmt 1 view .LVU15
 242              		.loc 1 59 10 is_stmt 0 view .LVU16
 243 0090 79A3     		adr	r3, .L436+32
 244 0092 D3E90023 		ldrd	r2, [r3]
 245 0096 2046     		mov	r0, r4
ARM GAS  /tmp/ccbt8LDA.s 			page 7


 246 0098 2946     		mov	r1, r5
 247 009a FFF7FEFF 		bl	__aeabi_dcmpge
 248              	.LVL9:
 249 009e 48B1     		cbz	r0, .L15
 250              		.loc 1 59 29 discriminator 1 view .LVU17
 251 00a0 77A3     		adr	r3, .L436+40
 252 00a2 D3E90023 		ldrd	r2, [r3]
 253 00a6 2046     		mov	r0, r4
 254 00a8 2946     		mov	r1, r5
 255 00aa FFF7FEFF 		bl	__aeabi_dcmple
 256              	.LVL10:
 257 00ae 0028     		cmp	r0, #0
 258 00b0 40F04284 		bne	.L366
 259              	.L15:
  60:Src/noteDetect.c ****     sprintf(note, "Db2  ");
  61:Src/noteDetect.c ****     sprintf(noteFreq, "%.2f", frequency);
  62:Src/noteDetect.c ****     ssd1306_SetCursor(NOTEX, NOTEY);
  63:Src/noteDetect.c ****     ssd1306_WriteString(note,Font_11x18,Black);
  64:Src/noteDetect.c ****     ssd1306_SetCursor(FREQX,FREQY);
  65:Src/noteDetect.c ****     ssd1306_WriteString(noteFreq,Font_11x18,Black);
  66:Src/noteDetect.c **** 
  67:Src/noteDetect.c ****     /*if in tune plus/minus 10 cents */
  68:Src/noteDetect.c ****     if(frequency>= 68.9 && frequency <= 69.7){
  69:Src/noteDetect.c ****       ssd1306_SetCursor(NOTEX + INTUNE, NOTEY);
  70:Src/noteDetect.c ****       ssd1306_WriteString(dot,Font_11x18,Black);
  71:Src/noteDetect.c **** 
  72:Src/noteDetect.c ****     }
  73:Src/noteDetect.c **** 
  74:Src/noteDetect.c ****     ssd1306_UpdateScreen();
  75:Src/noteDetect.c ****     HAL_Delay(500);
  76:Src/noteDetect.c ****   }
  77:Src/noteDetect.c **** 
  78:Src/noteDetect.c **** 
  79:Src/noteDetect.c ****   /*D2 note */
  80:Src/noteDetect.c ****   else if(frequency>= 71.34 && frequency <= 75.53){
 260              		.loc 1 80 8 is_stmt 1 view .LVU18
 261              		.loc 1 80 10 is_stmt 0 view .LVU19
 262 00b4 74A3     		adr	r3, .L436+48
 263 00b6 D3E90023 		ldrd	r2, [r3]
 264 00ba 2046     		mov	r0, r4
 265 00bc 2946     		mov	r1, r5
 266 00be FFF7FEFF 		bl	__aeabi_dcmpge
 267              	.LVL11:
 268 00c2 48B1     		cbz	r0, .L21
 269              		.loc 1 80 29 discriminator 1 view .LVU20
 270 00c4 72A3     		adr	r3, .L436+56
 271 00c6 D3E90023 		ldrd	r2, [r3]
 272 00ca 2046     		mov	r0, r4
 273 00cc 2946     		mov	r1, r5
 274 00ce FFF7FEFF 		bl	__aeabi_dcmple
 275              	.LVL12:
 276 00d2 0028     		cmp	r0, #0
 277 00d4 40F07384 		bne	.L367
 278              	.L21:
  81:Src/noteDetect.c ****     sprintf(note, "D2  ");
  82:Src/noteDetect.c ****     sprintf(noteFreq, "%.2f", frequency);
  83:Src/noteDetect.c ****     ssd1306_SetCursor(NOTEX, NOTEY);
ARM GAS  /tmp/ccbt8LDA.s 			page 8


  84:Src/noteDetect.c ****     ssd1306_WriteString(note,Font_11x18,Black);
  85:Src/noteDetect.c ****     ssd1306_SetCursor(FREQX,FREQY);
  86:Src/noteDetect.c ****     ssd1306_WriteString(noteFreq,Font_11x18,Black);
  87:Src/noteDetect.c **** 
  88:Src/noteDetect.c ****     /*if in tune plus/minus 10 cents */
  89:Src/noteDetect.c ****     if(frequency>= 68.9 && frequency <= 69.7){
  90:Src/noteDetect.c ****       ssd1306_SetCursor(NOTEX + INTUNE, NOTEY);
  91:Src/noteDetect.c ****       ssd1306_WriteString(dot,Font_11x18,Black);
  92:Src/noteDetect.c **** 
  93:Src/noteDetect.c ****     }
  94:Src/noteDetect.c **** 
  95:Src/noteDetect.c ****     ssd1306_UpdateScreen();
  96:Src/noteDetect.c ****     HAL_Delay(500);
  97:Src/noteDetect.c ****   }
  98:Src/noteDetect.c **** 
  99:Src/noteDetect.c **** 
 100:Src/noteDetect.c ****   /*Eb2 note */
 101:Src/noteDetect.c ****   else if(frequency <= 80.59 && frequency >= 75.57 ){
 279              		.loc 1 101 8 is_stmt 1 view .LVU21
 280              		.loc 1 101 10 is_stmt 0 view .LVU22
 281 00d8 6FA3     		adr	r3, .L436+64
 282 00da D3E90023 		ldrd	r2, [r3]
 283 00de 2046     		mov	r0, r4
 284 00e0 2946     		mov	r1, r5
 285 00e2 FFF7FEFF 		bl	__aeabi_dcmple
 286              	.LVL13:
 287 00e6 48B1     		cbz	r0, .L27
 288              		.loc 1 101 30 discriminator 1 view .LVU23
 289 00e8 6DA3     		adr	r3, .L436+72
 290 00ea D3E90023 		ldrd	r2, [r3]
 291 00ee 2046     		mov	r0, r4
 292 00f0 2946     		mov	r1, r5
 293 00f2 FFF7FEFF 		bl	__aeabi_dcmpge
 294              	.LVL14:
 295 00f6 0028     		cmp	r0, #0
 296 00f8 40F0A484 		bne	.L368
 297              	.L27:
 102:Src/noteDetect.c ****     sprintf(note, "Eb2  ");
 103:Src/noteDetect.c ****     sprintf(noteFreq, "%.2f", frequency);
 104:Src/noteDetect.c ****     ssd1306_SetCursor(NOTEX, NOTEY);
 105:Src/noteDetect.c ****     ssd1306_WriteString(note,Font_11x18,Black);
 106:Src/noteDetect.c ****     ssd1306_SetCursor(FREQX,FREQY);
 107:Src/noteDetect.c ****     ssd1306_WriteString(noteFreq,Font_11x18,Black);
 108:Src/noteDetect.c **** 
 109:Src/noteDetect.c ****     /*if in tune plus/minus 10 cents */
 110:Src/noteDetect.c ****     if(frequency>= 77.33 && frequency <= 78.23){
 111:Src/noteDetect.c ****       ssd1306_SetCursor(NOTEX + INTUNE, NOTEY);
 112:Src/noteDetect.c ****       ssd1306_WriteString(dot,Font_11x18,Black);
 113:Src/noteDetect.c **** 
 114:Src/noteDetect.c ****     }
 115:Src/noteDetect.c **** 
 116:Src/noteDetect.c ****     ssd1306_UpdateScreen();
 117:Src/noteDetect.c ****     HAL_Delay(500);
 118:Src/noteDetect.c ****   }
 119:Src/noteDetect.c **** 
 120:Src/noteDetect.c ****   /*E2 note */
 121:Src/noteDetect.c ****   else if(frequency<=84.824 && frequency>=80.06){
ARM GAS  /tmp/ccbt8LDA.s 			page 9


 298              		.loc 1 121 8 is_stmt 1 view .LVU24
 299              		.loc 1 121 10 is_stmt 0 view .LVU25
 300 00fc 6AA3     		adr	r3, .L436+80
 301 00fe D3E90023 		ldrd	r2, [r3]
 302 0102 2046     		mov	r0, r4
 303 0104 2946     		mov	r1, r5
 304 0106 FFF7FEFF 		bl	__aeabi_dcmple
 305              	.LVL15:
 306 010a 48B1     		cbz	r0, .L33
 307              		.loc 1 121 29 discriminator 1 view .LVU26
 308 010c 68A3     		adr	r3, .L436+88
 309 010e D3E90023 		ldrd	r2, [r3]
 310 0112 2046     		mov	r0, r4
 311 0114 2946     		mov	r1, r5
 312 0116 FFF7FEFF 		bl	__aeabi_dcmpge
 313              	.LVL16:
 314 011a 0028     		cmp	r0, #0
 315 011c 40F0D584 		bne	.L369
 316              	.L33:
 122:Src/noteDetect.c ****     sprintf(note, "E2  ");
 123:Src/noteDetect.c ****     sprintf(noteFreq, "%.2f", frequency);
 124:Src/noteDetect.c **** 
 125:Src/noteDetect.c ****     ssd1306_SetCursor(NOTEX, NOTEY);
 126:Src/noteDetect.c ****     ssd1306_WriteString(note,Font_11x18,Black);
 127:Src/noteDetect.c ****     ssd1306_SetCursor(FREQX,FREQY);
 128:Src/noteDetect.c ****     ssd1306_WriteString(noteFreq,Font_11x18,Black);
 129:Src/noteDetect.c **** 
 130:Src/noteDetect.c ****     /*if in tune plus/minus 10 cents */
 131:Src/noteDetect.c ****     if(frequency>= 81.93 && frequency <= 82.89){
 132:Src/noteDetect.c ****       ssd1306_SetCursor(NOTEX + INTUNE, NOTEY);
 133:Src/noteDetect.c ****       ssd1306_WriteString(dot,Font_11x18,Black);
 134:Src/noteDetect.c **** 
 135:Src/noteDetect.c ****     }
 136:Src/noteDetect.c **** 
 137:Src/noteDetect.c ****     ssd1306_UpdateScreen();
 138:Src/noteDetect.c ****     HAL_Delay(500);
 139:Src/noteDetect.c ****   }
 140:Src/noteDetect.c **** 
 141:Src/noteDetect.c **** 
 142:Src/noteDetect.c ****   /*F2 note */
 143:Src/noteDetect.c ****   else if(frequency <= 89.87 && frequency >= 84.82){
 317              		.loc 1 143 8 is_stmt 1 view .LVU27
 318              		.loc 1 143 10 is_stmt 0 view .LVU28
 319 0120 65A3     		adr	r3, .L436+96
 320 0122 D3E90023 		ldrd	r2, [r3]
 321 0126 2046     		mov	r0, r4
 322 0128 2946     		mov	r1, r5
 323 012a FFF7FEFF 		bl	__aeabi_dcmple
 324              	.LVL17:
 325 012e 48B1     		cbz	r0, .L39
 326              		.loc 1 143 30 discriminator 1 view .LVU29
 327 0130 63A3     		adr	r3, .L436+104
 328 0132 D3E90023 		ldrd	r2, [r3]
 329 0136 2046     		mov	r0, r4
 330 0138 2946     		mov	r1, r5
 331 013a FFF7FEFF 		bl	__aeabi_dcmpge
 332              	.LVL18:
ARM GAS  /tmp/ccbt8LDA.s 			page 10


 333 013e 0028     		cmp	r0, #0
 334 0140 40F00685 		bne	.L370
 335              	.L39:
 144:Src/noteDetect.c ****     sprintf(note, "F2  ");
 145:Src/noteDetect.c ****     sprintf(noteFreq, "%.2f", frequency);
 146:Src/noteDetect.c **** 
 147:Src/noteDetect.c ****     ssd1306_SetCursor(NOTEX, NOTEY);
 148:Src/noteDetect.c ****     ssd1306_WriteString(note,Font_11x18,Black);
 149:Src/noteDetect.c ****     ssd1306_SetCursor(FREQX,FREQY);
 150:Src/noteDetect.c ****     ssd1306_WriteString(noteFreq,Font_11x18,Black);
 151:Src/noteDetect.c **** 
 152:Src/noteDetect.c ****     /*if in tune plus/minus 10 cents */
 153:Src/noteDetect.c ****     if(frequency>= 86.81 && frequency <= 87.81){
 154:Src/noteDetect.c ****       ssd1306_SetCursor(NOTEX + INTUNE, NOTEY);
 155:Src/noteDetect.c ****       ssd1306_WriteString(dot,Font_11x18,Black);
 156:Src/noteDetect.c **** 
 157:Src/noteDetect.c ****     }
 158:Src/noteDetect.c **** 
 159:Src/noteDetect.c ****     ssd1306_UpdateScreen();
 160:Src/noteDetect.c ****     HAL_Delay(500);
 161:Src/noteDetect.c ****   }
 162:Src/noteDetect.c **** 
 163:Src/noteDetect.c ****   /*Gb2 note */
 164:Src/noteDetect.c ****   else if(frequency <= 95.21 && frequency >= 89.88){
 336              		.loc 1 164 8 is_stmt 1 view .LVU30
 337              		.loc 1 164 10 is_stmt 0 view .LVU31
 338 0144 60A3     		adr	r3, .L436+112
 339 0146 D3E90023 		ldrd	r2, [r3]
 340 014a 2046     		mov	r0, r4
 341 014c 2946     		mov	r1, r5
 342 014e FFF7FEFF 		bl	__aeabi_dcmple
 343              	.LVL19:
 344 0152 48B1     		cbz	r0, .L45
 345              		.loc 1 164 30 discriminator 1 view .LVU32
 346 0154 5EA3     		adr	r3, .L436+120
 347 0156 D3E90023 		ldrd	r2, [r3]
 348 015a 2046     		mov	r0, r4
 349 015c 2946     		mov	r1, r5
 350 015e FFF7FEFF 		bl	__aeabi_dcmpge
 351              	.LVL20:
 352 0162 0028     		cmp	r0, #0
 353 0164 40F06685 		bne	.L371
 354              	.L45:
 165:Src/noteDetect.c ****     sprintf(note, "Gb2  ");
 166:Src/noteDetect.c ****     sprintf(noteFreq, "%.2f", frequency);
 167:Src/noteDetect.c **** 
 168:Src/noteDetect.c ****     ssd1306_SetCursor(NOTEX, NOTEY);
 169:Src/noteDetect.c ****     ssd1306_WriteString(note,Font_11x18,Black);
 170:Src/noteDetect.c ****     ssd1306_SetCursor(FREQX,FREQY);
 171:Src/noteDetect.c ****     ssd1306_WriteString(noteFreq,Font_11x18,Black);
 172:Src/noteDetect.c **** 
 173:Src/noteDetect.c ****     /*if in tune plus/minus 10 cents */
 174:Src/noteDetect.c ****     if(frequency>= 91.96 && frequency <= 93.03){
 175:Src/noteDetect.c ****       ssd1306_SetCursor(NOTEX + INTUNE, NOTEY);
 176:Src/noteDetect.c ****       ssd1306_WriteString(dot,Font_11x18,Black);
 177:Src/noteDetect.c **** 
 178:Src/noteDetect.c ****     }
ARM GAS  /tmp/ccbt8LDA.s 			page 11


 179:Src/noteDetect.c **** 
 180:Src/noteDetect.c ****     ssd1306_UpdateScreen();
 181:Src/noteDetect.c ****     HAL_Delay(500);
 182:Src/noteDetect.c ****   }
 183:Src/noteDetect.c **** 
 184:Src/noteDetect.c ****   /*G2 note */
 185:Src/noteDetect.c ****   else if(frequency <= 100.87 && frequency >= 95.22){
 355              		.loc 1 185 8 is_stmt 1 view .LVU33
 356              		.loc 1 185 10 is_stmt 0 view .LVU34
 357 0168 5BA3     		adr	r3, .L436+128
 358 016a D3E90023 		ldrd	r2, [r3]
 359 016e 2046     		mov	r0, r4
 360 0170 2946     		mov	r1, r5
 361 0172 FFF7FEFF 		bl	__aeabi_dcmple
 362              	.LVL21:
 363 0176 48B1     		cbz	r0, .L51
 364              		.loc 1 185 31 discriminator 1 view .LVU35
 365 0178 59A3     		adr	r3, .L436+136
 366 017a D3E90023 		ldrd	r2, [r3]
 367 017e 2046     		mov	r0, r4
 368 0180 2946     		mov	r1, r5
 369 0182 FFF7FEFF 		bl	__aeabi_dcmpge
 370              	.LVL22:
 371 0186 0028     		cmp	r0, #0
 372 0188 40F09785 		bne	.L372
 373              	.L51:
 186:Src/noteDetect.c ****     sprintf(note, "G2  ");
 187:Src/noteDetect.c ****     sprintf(noteFreq, "%.2f", frequency);
 188:Src/noteDetect.c **** 
 189:Src/noteDetect.c ****     ssd1306_SetCursor(NOTEX, NOTEY);
 190:Src/noteDetect.c ****     ssd1306_WriteString(note,Font_11x18,Black);
 191:Src/noteDetect.c ****     ssd1306_SetCursor(FREQX,FREQY);
 192:Src/noteDetect.c ****     ssd1306_WriteString(noteFreq,Font_11x18,Black);
 193:Src/noteDetect.c **** 
 194:Src/noteDetect.c ****     /*if in tune plus/minus 10 cents */
 195:Src/noteDetect.c ****     if(frequency>= 97.435 && frequency <= 98.57){
 196:Src/noteDetect.c ****       ssd1306_SetCursor(NOTEX + INTUNE, NOTEY);
 197:Src/noteDetect.c ****       ssd1306_WriteString(dot,Font_11x18,Black);
 198:Src/noteDetect.c **** 
 199:Src/noteDetect.c ****     }
 200:Src/noteDetect.c **** 
 201:Src/noteDetect.c ****     ssd1306_UpdateScreen();
 202:Src/noteDetect.c ****     HAL_Delay(500);
 203:Src/noteDetect.c ****   }
 204:Src/noteDetect.c **** 
 205:Src/noteDetect.c ****   /*Ab2 note */
 206:Src/noteDetect.c ****   else if(frequency <= 106.873 && frequency >= 100.88){
 374              		.loc 1 206 8 is_stmt 1 view .LVU36
 375              		.loc 1 206 10 is_stmt 0 view .LVU37
 376 018c 56A3     		adr	r3, .L436+144
 377 018e D3E90023 		ldrd	r2, [r3]
 378 0192 2046     		mov	r0, r4
 379 0194 2946     		mov	r1, r5
 380 0196 FFF7FEFF 		bl	__aeabi_dcmple
 381              	.LVL23:
 382 019a 48B1     		cbz	r0, .L57
 383              		.loc 1 206 32 discriminator 1 view .LVU38
ARM GAS  /tmp/ccbt8LDA.s 			page 12


 384 019c 54A3     		adr	r3, .L436+152
 385 019e D3E90023 		ldrd	r2, [r3]
 386 01a2 2046     		mov	r0, r4
 387 01a4 2946     		mov	r1, r5
 388 01a6 FFF7FEFF 		bl	__aeabi_dcmpge
 389              	.LVL24:
 390 01aa 0028     		cmp	r0, #0
 391 01ac 40F0C885 		bne	.L373
 392              	.L57:
 207:Src/noteDetect.c ****     sprintf(note, "Ab2  ");
 208:Src/noteDetect.c ****     sprintf(noteFreq, "%.2f", frequency);
 209:Src/noteDetect.c **** 
 210:Src/noteDetect.c ****     ssd1306_SetCursor(NOTEX, NOTEY);
 211:Src/noteDetect.c ****     ssd1306_WriteString(note,Font_11x18,Black);
 212:Src/noteDetect.c ****     ssd1306_SetCursor(FREQX,FREQY);
 213:Src/noteDetect.c ****     ssd1306_WriteString(noteFreq,Font_11x18,Black);
 214:Src/noteDetect.c **** 
 215:Src/noteDetect.c ****     /*if in tune plus/minus 10 cents */
 216:Src/noteDetect.c ****     if(frequency>= 103.23 && frequency <= 104.43){
 217:Src/noteDetect.c ****       ssd1306_SetCursor(NOTEX + INTUNE, NOTEY);
 218:Src/noteDetect.c ****       ssd1306_WriteString(dot,Font_11x18,Black);
 219:Src/noteDetect.c **** 
 220:Src/noteDetect.c ****     }
 221:Src/noteDetect.c **** 
 222:Src/noteDetect.c ****     ssd1306_UpdateScreen();
 223:Src/noteDetect.c ****     HAL_Delay(500);
 224:Src/noteDetect.c ****   }
 225:Src/noteDetect.c **** 
 226:Src/noteDetect.c ****   /*A2 note */
 227:Src/noteDetect.c ****   else if(frequency <= 113.22 && frequency >= 106.88){
 393              		.loc 1 227 8 is_stmt 1 view .LVU39
 394              		.loc 1 227 10 is_stmt 0 view .LVU40
 395 01b0 51A3     		adr	r3, .L436+160
 396 01b2 D3E90023 		ldrd	r2, [r3]
 397 01b6 2046     		mov	r0, r4
 398 01b8 2946     		mov	r1, r5
 399 01ba FFF7FEFF 		bl	__aeabi_dcmple
 400              	.LVL25:
 401 01be 48B1     		cbz	r0, .L63
 402              		.loc 1 227 31 discriminator 1 view .LVU41
 403 01c0 4FA3     		adr	r3, .L436+168
 404 01c2 D3E90023 		ldrd	r2, [r3]
 405 01c6 2046     		mov	r0, r4
 406 01c8 2946     		mov	r1, r5
 407 01ca FFF7FEFF 		bl	__aeabi_dcmpge
 408              	.LVL26:
 409 01ce 0028     		cmp	r0, #0
 410 01d0 40F0F985 		bne	.L374
 411              	.L63:
 228:Src/noteDetect.c ****     sprintf(note, "A2  ");
 229:Src/noteDetect.c ****     sprintf(noteFreq, "%.2f", frequency);
 230:Src/noteDetect.c **** 
 231:Src/noteDetect.c ****     ssd1306_SetCursor(NOTEX, NOTEY);
 232:Src/noteDetect.c ****     ssd1306_WriteString(note,Font_11x18,Black);
 233:Src/noteDetect.c ****     ssd1306_SetCursor(FREQX,FREQY);
 234:Src/noteDetect.c ****     ssd1306_WriteString(noteFreq,Font_11x18,Black);
 235:Src/noteDetect.c **** 
ARM GAS  /tmp/ccbt8LDA.s 			page 13


 236:Src/noteDetect.c ****     /*if in tune plus/minus 10 cents */
 237:Src/noteDetect.c ****     if(frequency>= 109.36 && frequency <= 110.64){
 238:Src/noteDetect.c ****       ssd1306_SetCursor(NOTEX + INTUNE, NOTEY);
 239:Src/noteDetect.c ****       ssd1306_WriteString(dot,Font_11x18,Black);
 240:Src/noteDetect.c **** 
 241:Src/noteDetect.c ****     }
 242:Src/noteDetect.c **** 
 243:Src/noteDetect.c ****     ssd1306_UpdateScreen();
 244:Src/noteDetect.c ****     HAL_Delay(500);
 245:Src/noteDetect.c ****   }
 246:Src/noteDetect.c **** 
 247:Src/noteDetect.c ****   /*Bb2 note */
 248:Src/noteDetect.c ****   else if(frequency <= 119.929 && frequency >= 106.9){
 412              		.loc 1 248 8 is_stmt 1 view .LVU42
 413              		.loc 1 248 10 is_stmt 0 view .LVU43
 414 01d4 4CA3     		adr	r3, .L436+176
 415 01d6 D3E90023 		ldrd	r2, [r3]
 416 01da 2046     		mov	r0, r4
 417 01dc 2946     		mov	r1, r5
 418 01de FFF7FEFF 		bl	__aeabi_dcmple
 419              	.LVL27:
 420 01e2 48B1     		cbz	r0, .L69
 421              		.loc 1 248 32 discriminator 1 view .LVU44
 422 01e4 4AA3     		adr	r3, .L436+184
 423 01e6 D3E90023 		ldrd	r2, [r3]
 424 01ea 2046     		mov	r0, r4
 425 01ec 2946     		mov	r1, r5
 426 01ee FFF7FEFF 		bl	__aeabi_dcmpge
 427              	.LVL28:
 428 01f2 0028     		cmp	r0, #0
 429 01f4 40F02A86 		bne	.L375
 430              	.L69:
 249:Src/noteDetect.c ****     sprintf(note, "Bb2  ");
 250:Src/noteDetect.c ****     sprintf(noteFreq, "%.2f", frequency);
 251:Src/noteDetect.c **** 
 252:Src/noteDetect.c ****     ssd1306_SetCursor(NOTEX, NOTEY);
 253:Src/noteDetect.c ****     ssd1306_WriteString(note,Font_11x18,Black);
 254:Src/noteDetect.c ****     ssd1306_SetCursor(FREQX,FREQY);
 255:Src/noteDetect.c ****     ssd1306_WriteString(noteFreq,Font_11x18,Black);
 256:Src/noteDetect.c **** 
 257:Src/noteDetect.c ****     /*if in tune plus/minus 10 cents */
 258:Src/noteDetect.c ****     if(frequency>= 115.85 && frequency <= 117.19){
 259:Src/noteDetect.c ****       ssd1306_SetCursor(NOTEX + INTUNE, NOTEY);
 260:Src/noteDetect.c ****       ssd1306_WriteString(dot,Font_11x18,Black);
 261:Src/noteDetect.c **** 
 262:Src/noteDetect.c ****     }
 263:Src/noteDetect.c **** 
 264:Src/noteDetect.c ****     ssd1306_UpdateScreen();
 265:Src/noteDetect.c ****     HAL_Delay(500);
 266:Src/noteDetect.c ****   }
 267:Src/noteDetect.c **** 
 268:Src/noteDetect.c **** 
 269:Src/noteDetect.c ****   /*B2 note */
 270:Src/noteDetect.c ****   else if(frequency <= 127.08 && frequency >= 119.93){
 431              		.loc 1 270 8 is_stmt 1 view .LVU45
 432              		.loc 1 270 10 is_stmt 0 view .LVU46
 433 01f8 47A3     		adr	r3, .L436+192
ARM GAS  /tmp/ccbt8LDA.s 			page 14


 434 01fa D3E90023 		ldrd	r2, [r3]
 435 01fe 2046     		mov	r0, r4
 436 0200 2946     		mov	r1, r5
 437 0202 FFF7FEFF 		bl	__aeabi_dcmple
 438              	.LVL29:
 439 0206 48B1     		cbz	r0, .L75
 440              		.loc 1 270 31 discriminator 1 view .LVU47
 441 0208 45A3     		adr	r3, .L436+200
 442 020a D3E90023 		ldrd	r2, [r3]
 443 020e 2046     		mov	r0, r4
 444 0210 2946     		mov	r1, r5
 445 0212 FFF7FEFF 		bl	__aeabi_dcmpge
 446              	.LVL30:
 447 0216 0028     		cmp	r0, #0
 448 0218 40F09486 		bne	.L376
 449              	.L75:
 271:Src/noteDetect.c ****     sprintf(note, "B2  ");
 272:Src/noteDetect.c ****     sprintf(noteFreq, "%.2f", frequency);
 273:Src/noteDetect.c **** 
 274:Src/noteDetect.c ****     ssd1306_SetCursor(NOTEX, NOTEY);
 275:Src/noteDetect.c ****     ssd1306_WriteString(note,Font_11x18,Black);
 276:Src/noteDetect.c ****     ssd1306_SetCursor(FREQX,FREQY);
 277:Src/noteDetect.c ****     ssd1306_WriteString(noteFreq,Font_11x18,Black);
 278:Src/noteDetect.c **** 
 279:Src/noteDetect.c ****     /*if in tune plus/minus 10 cents */
 280:Src/noteDetect.c ****     if(frequency>= 122.76 && frequency <= 124.19){
 281:Src/noteDetect.c ****       ssd1306_SetCursor(NOTEX + INTUNE, NOTEY);
 282:Src/noteDetect.c ****       ssd1306_WriteString(dot,Font_11x18,Black);
 283:Src/noteDetect.c **** 
 284:Src/noteDetect.c ****     }
 285:Src/noteDetect.c **** 
 286:Src/noteDetect.c ****     ssd1306_UpdateScreen();
 287:Src/noteDetect.c ****     HAL_Delay(500);
 288:Src/noteDetect.c ****   }
 289:Src/noteDetect.c **** 
 290:Src/noteDetect.c ****   /*C3 note */
 291:Src/noteDetect.c ****   else if(frequency <= 134.64 && frequency >= 127.08){
 450              		.loc 1 291 8 is_stmt 1 view .LVU48
 451              		.loc 1 291 10 is_stmt 0 view .LVU49
 452 021c 42A3     		adr	r3, .L436+208
 453 021e D3E90023 		ldrd	r2, [r3]
 454 0222 2046     		mov	r0, r4
 455 0224 2946     		mov	r1, r5
 456 0226 FFF7FEFF 		bl	__aeabi_dcmple
 457              	.LVL31:
 458 022a 48B1     		cbz	r0, .L81
 459              		.loc 1 291 31 discriminator 1 view .LVU50
 460 022c 3AA3     		adr	r3, .L436+192
 461 022e D3E90023 		ldrd	r2, [r3]
 462 0232 2046     		mov	r0, r4
 463 0234 2946     		mov	r1, r5
 464 0236 FFF7FEFF 		bl	__aeabi_dcmpge
 465              	.LVL32:
 466 023a 0028     		cmp	r0, #0
 467 023c 40F0C686 		bne	.L377
 468              	.L81:
 292:Src/noteDetect.c ****     sprintf(note, "C3  ");
ARM GAS  /tmp/ccbt8LDA.s 			page 15


 293:Src/noteDetect.c ****     sprintf(noteFreq, "%.2f", frequency);
 294:Src/noteDetect.c **** 
 295:Src/noteDetect.c ****     ssd1306_SetCursor(NOTEX, NOTEY);
 296:Src/noteDetect.c ****     ssd1306_WriteString(note,Font_11x18,Black);
 297:Src/noteDetect.c ****     ssd1306_SetCursor(FREQX,FREQY);
 298:Src/noteDetect.c ****     ssd1306_WriteString(noteFreq,Font_11x18,Black);
 299:Src/noteDetect.c **** 
 300:Src/noteDetect.c ****     /*if in tune plus/minus 10 cents */
 301:Src/noteDetect.c ****     if(frequency>= 130.05 && frequency <= 131.57){
 302:Src/noteDetect.c ****       ssd1306_SetCursor(NOTEX + INTUNE, NOTEY);
 303:Src/noteDetect.c ****       ssd1306_WriteString(dot,Font_11x18,Black);
 304:Src/noteDetect.c **** 
 305:Src/noteDetect.c ****     }
 306:Src/noteDetect.c **** 
 307:Src/noteDetect.c ****     ssd1306_UpdateScreen();
 308:Src/noteDetect.c ****     HAL_Delay(500);
 309:Src/noteDetect.c ****   }
 310:Src/noteDetect.c **** 
 311:Src/noteDetect.c ****   /*Db3 note */
 312:Src/noteDetect.c ****   else if(frequency <= 142.65 && frequency >= 134.65){
 469              		.loc 1 312 8 is_stmt 1 view .LVU51
 470              		.loc 1 312 10 is_stmt 0 view .LVU52
 471 0240 3BA3     		adr	r3, .L436+216
 472 0242 D3E90023 		ldrd	r2, [r3]
 473 0246 2046     		mov	r0, r4
 474 0248 2946     		mov	r1, r5
 475 024a FFF7FEFF 		bl	__aeabi_dcmple
 476              	.LVL33:
 477 024e 0028     		cmp	r0, #0
 478 0250 7FD0     		beq	.L87
 479 0252 73E0     		b	.L437
 480              	.L438:
 481 0254 AFF30080 		.align	3
 482              	.L436:
 483 0258 3D0AD7A3 		.word	2748779069
 484 025c 70FD4D40 		.word	1078852976
 485 0260 66666666 		.word	1717986918
 486 0264 66C64F40 		.word	1078969958
 487 0268 48E17A14 		.word	343597384
 488 026c AEC74F40 		.word	1078970286
 489 0270 85EB51B8 		.word	3092376453
 490 0274 1ED55040 		.word	1079039262
 491 0278 F6285C8F 		.word	2405181686
 492 027c C2D55040 		.word	1079039426
 493 0280 85EB51B8 		.word	3092376453
 494 0284 1ED55140 		.word	1079104798
 495 0288 F6285C8F 		.word	2405181686
 496 028c C2D55140 		.word	1079104962
 497 0290 52B81E85 		.word	2233382994
 498 0294 EBE15240 		.word	1079173611
 499 0298 F6285C8F 		.word	2405181686
 500 029c C2255440 		.word	1079256514
 501 02a0 14AE47E1 		.word	3779571220
 502 02a4 7AE45240 		.word	1079174266
 503 02a8 DBF97E6A 		.word	1786706395
 504 02ac BC345540 		.word	1079325884
 505 02b0 A4703D0A 		.word	171798692
ARM GAS  /tmp/ccbt8LDA.s 			page 16


 506 02b4 D7035440 		.word	1079247831
 507 02b8 48E17A14 		.word	343597384
 508 02bc AE775640 		.word	1079408558
 509 02c0 14AE47E1 		.word	3779571220
 510 02c4 7A345540 		.word	1079325818
 511 02c8 3D0AD7A3 		.word	2748779069
 512 02cc 70CD5740 		.word	1079496048
 513 02d0 B81E85EB 		.word	3951369912
 514 02d4 51785640 		.word	1079408721
 515 02d8 48E17A14 		.word	343597384
 516 02dc AE375940 		.word	1079588782
 517 02e0 AE47E17A 		.word	2061584302
 518 02e4 14CE5740 		.word	1079496212
 519 02e8 1D5A643B 		.word	996432413
 520 02ec DFB75A40 		.word	1079687135
 521 02f0 B81E85EB 		.word	3951369912
 522 02f4 51385940 		.word	1079588945
 523 02f8 AE47E17A 		.word	2061584302
 524 02fc 144E5C40 		.word	1079791124
 525 0300 B81E85EB 		.word	3951369912
 526 0304 51B85A40 		.word	1079687249
 527 0308 FA7E6ABC 		.word	3161095930
 528 030c 74FB5D40 		.word	1079901044
 529 0310 9A999999 		.word	2576980378
 530 0314 99B95A40 		.word	1079687577
 531 0318 85EB51B8 		.word	3092376453
 532 031c 1EC55F40 		.word	1080018206
 533 0320 EC51B81E 		.word	515396076
 534 0324 85FB5D40 		.word	1079901061
 535 0328 14AE47E1 		.word	3779571220
 536 032c 7AD46040 		.word	1080087674
 537 0330 CDCCCCCC 		.word	3435973837
 538 0334 CCD46140 		.word	1080153292
 539 0338 00000000 		.word	.LANCHOR0
 540              	.L437:
 541              		.loc 1 312 31 discriminator 1 view .LVU53
 542 033c 0FF24053 		adr	r3, .L439+168
 543 0340 D3E90023 		ldrd	r2, [r3]
 544 0344 2046     		mov	r0, r4
 545 0346 2946     		mov	r1, r5
 546 0348 FFF7FEFF 		bl	__aeabi_dcmpge
 547              	.LVL34:
 548 034c 0028     		cmp	r0, #0
 549 034e 40F08186 		bne	.L378
 550              	.L87:
 313:Src/noteDetect.c ****     sprintf(note, "Db3  ");
 314:Src/noteDetect.c ****     sprintf(noteFreq, "%.2f", frequency);
 315:Src/noteDetect.c **** 
 316:Src/noteDetect.c ****     ssd1306_SetCursor(NOTEX, NOTEY);
 317:Src/noteDetect.c ****     ssd1306_WriteString(note,Font_11x18,Black);
 318:Src/noteDetect.c ****     ssd1306_SetCursor(FREQX,FREQY);
 319:Src/noteDetect.c ****     ssd1306_WriteString(noteFreq,Font_11x18,Black);
 320:Src/noteDetect.c **** 
 321:Src/noteDetect.c ****     /*if in tune plus/minus 10 cents */
 322:Src/noteDetect.c ****     if(frequency>= 137.79 && frequency <= 139.39){
 323:Src/noteDetect.c ****       ssd1306_SetCursor(NOTEX + INTUNE, NOTEY);
 324:Src/noteDetect.c ****       ssd1306_WriteString(dot,Font_11x18,Black);
ARM GAS  /tmp/ccbt8LDA.s 			page 17


 325:Src/noteDetect.c **** 
 326:Src/noteDetect.c ****     }
 327:Src/noteDetect.c **** 
 328:Src/noteDetect.c ****     ssd1306_UpdateScreen();
 329:Src/noteDetect.c ****     HAL_Delay(500);
 330:Src/noteDetect.c ****   }
 331:Src/noteDetect.c **** 
 332:Src/noteDetect.c ****   /* D3 note */
 333:Src/noteDetect.c ****   else if(frequency <= 151.13 && frequency >= 142.65){
 551              		.loc 1 333 8 is_stmt 1 view .LVU54
 552              		.loc 1 333 10 is_stmt 0 view .LVU55
 553 0352 0FF23453 		adr	r3, .L439+176
 554 0356 D3E90023 		ldrd	r2, [r3]
 555 035a 2046     		mov	r0, r4
 556 035c 2946     		mov	r1, r5
 557 035e FFF7FEFF 		bl	__aeabi_dcmple
 558              	.LVL35:
 559 0362 50B1     		cbz	r0, .L93
 560              		.loc 1 333 31 discriminator 1 view .LVU56
 561 0364 0FF22853 		adr	r3, .L439+184
 562 0368 D3E90023 		ldrd	r2, [r3]
 563 036c 2046     		mov	r0, r4
 564 036e 2946     		mov	r1, r5
 565 0370 FFF7FEFF 		bl	__aeabi_dcmpge
 566              	.LVL36:
 567 0374 0028     		cmp	r0, #0
 568 0376 40F0B186 		bne	.L379
 569              	.L93:
 334:Src/noteDetect.c ****     sprintf(note, "D3  ");
 335:Src/noteDetect.c ****     sprintf(noteFreq, "%.2f", frequency);
 336:Src/noteDetect.c **** 
 337:Src/noteDetect.c ****     ssd1306_SetCursor(NOTEX, NOTEY);
 338:Src/noteDetect.c ****     ssd1306_WriteString(note,Font_11x18,Black);
 339:Src/noteDetect.c ****     ssd1306_SetCursor(FREQX,FREQY);
 340:Src/noteDetect.c ****     ssd1306_WriteString(noteFreq,Font_11x18,Black);
 341:Src/noteDetect.c **** 
 342:Src/noteDetect.c ****     /*if in tune plus/minus 10 cents */
 343:Src/noteDetect.c ****     if(frequency>= 145.98 && frequency <= 147.68){
 344:Src/noteDetect.c ****       ssd1306_SetCursor(NOTEX + INTUNE, NOTEY);
 345:Src/noteDetect.c ****       ssd1306_WriteString(dot,Font_11x18,Black);
 346:Src/noteDetect.c **** 
 347:Src/noteDetect.c ****     }
 348:Src/noteDetect.c **** 
 349:Src/noteDetect.c **** 
 350:Src/noteDetect.c **** 
 351:Src/noteDetect.c ****     ssd1306_UpdateScreen();
 352:Src/noteDetect.c ****     HAL_Delay(500);
 353:Src/noteDetect.c ****   }
 354:Src/noteDetect.c **** 
 355:Src/noteDetect.c ****   /*Eb3 note */
 356:Src/noteDetect.c ****   else if(frequency <= 160.11 && frequency >= 151.14){
 570              		.loc 1 356 8 is_stmt 1 view .LVU57
 571              		.loc 1 356 10 is_stmt 0 view .LVU58
 572 037a 0FF21C53 		adr	r3, .L439+192
 573 037e D3E90023 		ldrd	r2, [r3]
 574 0382 2046     		mov	r0, r4
 575 0384 2946     		mov	r1, r5
ARM GAS  /tmp/ccbt8LDA.s 			page 18


 576 0386 FFF7FEFF 		bl	__aeabi_dcmple
 577              	.LVL37:
 578 038a 50B1     		cbz	r0, .L99
 579              		.loc 1 356 31 discriminator 1 view .LVU59
 580 038c 0FF21053 		adr	r3, .L439+200
 581 0390 D3E90023 		ldrd	r2, [r3]
 582 0394 2046     		mov	r0, r4
 583 0396 2946     		mov	r1, r5
 584 0398 FFF7FEFF 		bl	__aeabi_dcmpge
 585              	.LVL38:
 586 039c 0028     		cmp	r0, #0
 587 039e 40F0E186 		bne	.L380
 588              	.L99:
 357:Src/noteDetect.c ****     sprintf(note, "Eb3  ");
 358:Src/noteDetect.c ****     sprintf(noteFreq, "%.2f", frequency);
 359:Src/noteDetect.c **** 
 360:Src/noteDetect.c ****     ssd1306_SetCursor(NOTEX, NOTEY);
 361:Src/noteDetect.c ****     ssd1306_WriteString(note,Font_11x18,Black);
 362:Src/noteDetect.c ****     ssd1306_SetCursor(FREQX,FREQY);
 363:Src/noteDetect.c ****     ssd1306_WriteString(noteFreq,Font_11x18,Black);
 364:Src/noteDetect.c **** 
 365:Src/noteDetect.c ****     /*if in tune plus/minus 10 cents */
 366:Src/noteDetect.c ****     if(frequency>= 154.66 && frequency <= 156.46){
 367:Src/noteDetect.c ****       ssd1306_SetCursor(NOTEX + INTUNE, NOTEY);
 368:Src/noteDetect.c ****       ssd1306_WriteString(dot,Font_11x18,Black);
 369:Src/noteDetect.c **** 
 370:Src/noteDetect.c ****     }
 371:Src/noteDetect.c **** 
 372:Src/noteDetect.c ****     ssd1306_UpdateScreen();
 373:Src/noteDetect.c ****     HAL_Delay(500);
 374:Src/noteDetect.c ****   }
 375:Src/noteDetect.c **** 
 376:Src/noteDetect.c ****   /*E3 note */
 377:Src/noteDetect.c ****   else if(frequency <= 169.64 && frequency >= 160.12){
 589              		.loc 1 377 8 is_stmt 1 view .LVU60
 590              		.loc 1 377 10 is_stmt 0 view .LVU61
 591 03a2 0FF20453 		adr	r3, .L439+208
 592 03a6 D3E90023 		ldrd	r2, [r3]
 593 03aa 2046     		mov	r0, r4
 594 03ac 2946     		mov	r1, r5
 595 03ae FFF7FEFF 		bl	__aeabi_dcmple
 596              	.LVL39:
 597 03b2 50B1     		cbz	r0, .L105
 598              		.loc 1 377 31 discriminator 1 view .LVU62
 599 03b4 0FF2F843 		adr	r3, .L439+216
 600 03b8 D3E90023 		ldrd	r2, [r3]
 601 03bc 2046     		mov	r0, r4
 602 03be 2946     		mov	r1, r5
 603 03c0 FFF7FEFF 		bl	__aeabi_dcmpge
 604              	.LVL40:
 605 03c4 0028     		cmp	r0, #0
 606 03c6 40F04987 		bne	.L381
 607              	.L105:
 378:Src/noteDetect.c ****     sprintf(note, "E3  ");
 379:Src/noteDetect.c ****     sprintf(noteFreq, "%.2f", frequency);
 380:Src/noteDetect.c **** 
 381:Src/noteDetect.c ****     ssd1306_SetCursor(NOTEX, NOTEY);
ARM GAS  /tmp/ccbt8LDA.s 			page 19


 382:Src/noteDetect.c ****     ssd1306_WriteString(note,Font_11x18,Black);
 383:Src/noteDetect.c ****     ssd1306_SetCursor(FREQX,FREQY);
 384:Src/noteDetect.c ****     ssd1306_WriteString(noteFreq,Font_11x18,Black);
 385:Src/noteDetect.c **** 
 386:Src/noteDetect.c ****     /*if in tune plus/minus 10 cents */
 387:Src/noteDetect.c ****     if(frequency>= 163.86 && frequency <= 165.76){
 388:Src/noteDetect.c ****       ssd1306_SetCursor(NOTEX + INTUNE, NOTEY);
 389:Src/noteDetect.c ****       ssd1306_WriteString(dot,Font_11x18,Black);
 390:Src/noteDetect.c **** 
 391:Src/noteDetect.c ****     }
 392:Src/noteDetect.c **** 
 393:Src/noteDetect.c ****     ssd1306_UpdateScreen();
 394:Src/noteDetect.c ****     HAL_Delay(500);
 395:Src/noteDetect.c ****   }
 396:Src/noteDetect.c **** 
 397:Src/noteDetect.c ****   /*F3 note */
 398:Src/noteDetect.c ****   else if(frequency <= 180.76 && frequency >= 169.65){
 608              		.loc 1 398 8 is_stmt 1 view .LVU63
 609              		.loc 1 398 10 is_stmt 0 view .LVU64
 610 03ca 0FF2EC43 		adr	r3, .L439+224
 611 03ce D3E90023 		ldrd	r2, [r3]
 612 03d2 2046     		mov	r0, r4
 613 03d4 2946     		mov	r1, r5
 614 03d6 FFF7FEFF 		bl	__aeabi_dcmple
 615              	.LVL41:
 616 03da 50B1     		cbz	r0, .L111
 617              		.loc 1 398 31 discriminator 1 view .LVU65
 618 03dc 0FF2E043 		adr	r3, .L439+232
 619 03e0 D3E90023 		ldrd	r2, [r3]
 620 03e4 2046     		mov	r0, r4
 621 03e6 2946     		mov	r1, r5
 622 03e8 FFF7FEFF 		bl	__aeabi_dcmpge
 623              	.LVL42:
 624 03ec 0028     		cmp	r0, #0
 625 03ee 40F07987 		bne	.L382
 626              	.L111:
 399:Src/noteDetect.c ****     sprintf(note, "F3  ");
 400:Src/noteDetect.c ****     sprintf(noteFreq, "%.2f", frequency);
 401:Src/noteDetect.c **** 
 402:Src/noteDetect.c ****     ssd1306_SetCursor(NOTEX, NOTEY);
 403:Src/noteDetect.c ****     ssd1306_WriteString(note,Font_11x18,Black);
 404:Src/noteDetect.c ****     ssd1306_SetCursor(FREQX,FREQY);
 405:Src/noteDetect.c ****     ssd1306_WriteString(noteFreq,Font_11x18,Black);
 406:Src/noteDetect.c **** 
 407:Src/noteDetect.c ****     /*if in tune plus/minus 10 cents */
 408:Src/noteDetect.c ****     if(frequency>= 174.59 && frequency <= 176.63){
 409:Src/noteDetect.c ****       ssd1306_SetCursor(NOTEX + INTUNE, NOTEY);
 410:Src/noteDetect.c ****       ssd1306_WriteString(dot,Font_11x18,Black);
 411:Src/noteDetect.c **** 
 412:Src/noteDetect.c ****     }
 413:Src/noteDetect.c **** 
 414:Src/noteDetect.c ****     ssd1306_UpdateScreen();
 415:Src/noteDetect.c ****     HAL_Delay(500);
 416:Src/noteDetect.c ****   }
 417:Src/noteDetect.c **** 
 418:Src/noteDetect.c ****   /*Gb3 note */
 419:Src/noteDetect.c ****   else if(frequency <= 190.42 && frequency >= 180.76){
ARM GAS  /tmp/ccbt8LDA.s 			page 20


 627              		.loc 1 419 8 is_stmt 1 view .LVU66
 628              		.loc 1 419 10 is_stmt 0 view .LVU67
 629 03f2 0FF2D443 		adr	r3, .L439+240
 630 03f6 D3E90023 		ldrd	r2, [r3]
 631 03fa 2046     		mov	r0, r4
 632 03fc 2946     		mov	r1, r5
 633 03fe FFF7FEFF 		bl	__aeabi_dcmple
 634              	.LVL43:
 635 0402 50B1     		cbz	r0, .L117
 636              		.loc 1 419 31 discriminator 1 view .LVU68
 637 0404 0FF2B043 		adr	r3, .L439+224
 638 0408 D3E90023 		ldrd	r2, [r3]
 639 040c 2046     		mov	r0, r4
 640 040e 2946     		mov	r1, r5
 641 0410 FFF7FEFF 		bl	__aeabi_dcmpge
 642              	.LVL44:
 643 0414 0028     		cmp	r0, #0
 644 0416 40F0A987 		bne	.L383
 645              	.L117:
 420:Src/noteDetect.c ****     sprintf(note, "Gb3  ");
 421:Src/noteDetect.c ****     sprintf(noteFreq, "%.2f", frequency);
 422:Src/noteDetect.c **** 
 423:Src/noteDetect.c ****     ssd1306_SetCursor(NOTEX, NOTEY);
 424:Src/noteDetect.c ****     ssd1306_WriteString(note,Font_11x18,Black);
 425:Src/noteDetect.c ****     ssd1306_SetCursor(FREQX,FREQY);
 426:Src/noteDetect.c ****     ssd1306_WriteString(noteFreq,Font_11x18,Black);
 427:Src/noteDetect.c **** 
 428:Src/noteDetect.c ****     /*if in tune plus/minus 10 cents */
 429:Src/noteDetect.c ****     if(frequency>= 183.93 && frequency <= 186.07){
 430:Src/noteDetect.c ****       ssd1306_SetCursor(NOTEX + INTUNE, NOTEY);
 431:Src/noteDetect.c ****       ssd1306_WriteString(dot,Font_11x18,Black);
 432:Src/noteDetect.c **** 
 433:Src/noteDetect.c ****     }
 434:Src/noteDetect.c **** 
 435:Src/noteDetect.c ****     ssd1306_UpdateScreen();
 436:Src/noteDetect.c ****     HAL_Delay(500);
 437:Src/noteDetect.c ****   }
 438:Src/noteDetect.c **** 
 439:Src/noteDetect.c ****   /*G3 note */
 440:Src/noteDetect.c ****   else if(frequency <= 201.76 && frequency >= 190.42){
 646              		.loc 1 440 8 is_stmt 1 view .LVU69
 647              		.loc 1 440 10 is_stmt 0 view .LVU70
 648 041a 0FF2B443 		adr	r3, .L439+248
 649 041e D3E90023 		ldrd	r2, [r3]
 650 0422 2046     		mov	r0, r4
 651 0424 2946     		mov	r1, r5
 652 0426 FFF7FEFF 		bl	__aeabi_dcmple
 653              	.LVL45:
 654 042a 50B1     		cbz	r0, .L123
 655              		.loc 1 440 31 discriminator 1 view .LVU71
 656 042c 0FF29843 		adr	r3, .L439+240
 657 0430 D3E90023 		ldrd	r2, [r3]
 658 0434 2046     		mov	r0, r4
 659 0436 2946     		mov	r1, r5
 660 0438 FFF7FEFF 		bl	__aeabi_dcmpge
 661              	.LVL46:
 662 043c 0028     		cmp	r0, #0
ARM GAS  /tmp/ccbt8LDA.s 			page 21


 663 043e 40F0D987 		bne	.L384
 664              	.L123:
 441:Src/noteDetect.c ****     sprintf(note, "G3  ");
 442:Src/noteDetect.c ****     sprintf(noteFreq, "%.2f", frequency);
 443:Src/noteDetect.c **** 
 444:Src/noteDetect.c ****     ssd1306_SetCursor(NOTEX, NOTEY);
 445:Src/noteDetect.c ****     ssd1306_WriteString(note,Font_11x18,Black);
 446:Src/noteDetect.c ****     ssd1306_SetCursor(FREQX,FREQY);
 447:Src/noteDetect.c ****     ssd1306_WriteString(noteFreq,Font_11x18,Black);
 448:Src/noteDetect.c **** 
 449:Src/noteDetect.c ****     /*if in tune plus/minus 10 cents */
 450:Src/noteDetect.c ****     if(frequency>= 194.87 && frequency <= 197.14){
 451:Src/noteDetect.c ****       ssd1306_SetCursor(NOTEX + INTUNE, NOTEY);
 452:Src/noteDetect.c ****       ssd1306_WriteString(dot,Font_11x18,Black);
 453:Src/noteDetect.c **** 
 454:Src/noteDetect.c ****     }
 455:Src/noteDetect.c **** 
 456:Src/noteDetect.c ****     ssd1306_UpdateScreen();
 457:Src/noteDetect.c ****     HAL_Delay(500);
 458:Src/noteDetect.c ****   }
 459:Src/noteDetect.c **** 
 460:Src/noteDetect.c ****   /*Ab3 note */
 461:Src/noteDetect.c ****   else if(frequency <= 213.73 && frequency >= 226.45){
 665              		.loc 1 461 8 is_stmt 1 view .LVU72
 666              		.loc 1 461 10 is_stmt 0 view .LVU73
 667 0442 0FF29443 		adr	r3, .L439+256
 668 0446 D3E90023 		ldrd	r2, [r3]
 669 044a 2046     		mov	r0, r4
 670 044c 2946     		mov	r1, r5
 671 044e FFF7FEFF 		bl	__aeabi_dcmple
 672              	.LVL47:
 673 0452 50B1     		cbz	r0, .L129
 674              		.loc 1 461 31 discriminator 1 view .LVU74
 675 0454 0FF28843 		adr	r3, .L439+264
 676 0458 D3E90023 		ldrd	r2, [r3]
 677 045c 2046     		mov	r0, r4
 678 045e 2946     		mov	r1, r5
 679 0460 FFF7FEFF 		bl	__aeabi_dcmpge
 680              	.LVL48:
 681 0464 0028     		cmp	r0, #0
 682 0466 41F00980 		bne	.L385
 683              	.L129:
 462:Src/noteDetect.c ****     sprintf(note, "Ab3  ");
 463:Src/noteDetect.c ****     sprintf(noteFreq, "%.2f", frequency);
 464:Src/noteDetect.c **** 
 465:Src/noteDetect.c ****     ssd1306_SetCursor(NOTEX, NOTEY);
 466:Src/noteDetect.c ****     ssd1306_WriteString(note,Font_11x18,Black);
 467:Src/noteDetect.c ****     ssd1306_SetCursor(FREQX,FREQY);
 468:Src/noteDetect.c ****     ssd1306_WriteString(noteFreq,Font_11x18,Black);
 469:Src/noteDetect.c **** 
 470:Src/noteDetect.c ****     /*if in tune plus/minus 10 cents */
 471:Src/noteDetect.c ****     if(frequency>= 206.45 && frequency <= 208.85){
 472:Src/noteDetect.c ****       ssd1306_SetCursor(NOTEX + INTUNE, NOTEY);
 473:Src/noteDetect.c ****       ssd1306_WriteString(dot,Font_11x18,Black);
 474:Src/noteDetect.c **** 
 475:Src/noteDetect.c ****     }
 476:Src/noteDetect.c **** 
ARM GAS  /tmp/ccbt8LDA.s 			page 22


 477:Src/noteDetect.c ****     ssd1306_UpdateScreen();
 478:Src/noteDetect.c ****     HAL_Delay(500);
 479:Src/noteDetect.c ****   }
 480:Src/noteDetect.c **** 
 481:Src/noteDetect.c ****   /*A3 note */
 482:Src/noteDetect.c ****   else if(frequency <= 226.45 && frequency >= 213.74){
 684              		.loc 1 482 8 is_stmt 1 view .LVU75
 685              		.loc 1 482 10 is_stmt 0 view .LVU76
 686 046a 0FF27443 		adr	r3, .L439+264
 687 046e D3E90023 		ldrd	r2, [r3]
 688 0472 2046     		mov	r0, r4
 689 0474 2946     		mov	r1, r5
 690 0476 FFF7FEFF 		bl	__aeabi_dcmple
 691              	.LVL49:
 692 047a 50B1     		cbz	r0, .L135
 693              		.loc 1 482 31 discriminator 1 view .LVU77
 694 047c 0FF26843 		adr	r3, .L439+272
 695 0480 D3E90023 		ldrd	r2, [r3]
 696 0484 2046     		mov	r0, r4
 697 0486 2946     		mov	r1, r5
 698 0488 FFF7FEFF 		bl	__aeabi_dcmpge
 699              	.LVL50:
 700 048c 0028     		cmp	r0, #0
 701 048e 41F07180 		bne	.L386
 702              	.L135:
 483:Src/noteDetect.c ****     sprintf(note, "A3  ");
 484:Src/noteDetect.c ****     sprintf(noteFreq, "%.2f", frequency);
 485:Src/noteDetect.c **** 
 486:Src/noteDetect.c ****     ssd1306_SetCursor(NOTEX, NOTEY);
 487:Src/noteDetect.c ****     ssd1306_WriteString(note,Font_11x18,Black);
 488:Src/noteDetect.c ****     ssd1306_SetCursor(FREQX,FREQY);
 489:Src/noteDetect.c ****     ssd1306_WriteString(noteFreq,Font_11x18,Black);
 490:Src/noteDetect.c **** 
 491:Src/noteDetect.c ****     /*if in tune plus/minus 10 cents */
 492:Src/noteDetect.c ****     if(frequency>= 218.73 && frequency <= 221.27){
 493:Src/noteDetect.c ****       ssd1306_SetCursor(NOTEX + INTUNE, NOTEY);
 494:Src/noteDetect.c ****       ssd1306_WriteString(dot,Font_11x18,Black);
 495:Src/noteDetect.c **** 
 496:Src/noteDetect.c ****     }
 497:Src/noteDetect.c **** 
 498:Src/noteDetect.c ****     ssd1306_UpdateScreen();
 499:Src/noteDetect.c ****     HAL_Delay(500);
 500:Src/noteDetect.c ****   }
 501:Src/noteDetect.c **** 
 502:Src/noteDetect.c ****   /*Bb3 note */
 503:Src/noteDetect.c ****   else if(frequency <= 239.91 && frequency >= 226.46){
 703              		.loc 1 503 8 is_stmt 1 view .LVU78
 704              		.loc 1 503 10 is_stmt 0 view .LVU79
 705 0492 0FF25C43 		adr	r3, .L439+280
 706 0496 D3E90023 		ldrd	r2, [r3]
 707 049a 2046     		mov	r0, r4
 708 049c 2946     		mov	r1, r5
 709 049e FFF7FEFF 		bl	__aeabi_dcmple
 710              	.LVL51:
 711 04a2 50B1     		cbz	r0, .L141
 712              		.loc 1 503 31 discriminator 1 view .LVU80
 713 04a4 0FF25043 		adr	r3, .L439+288
ARM GAS  /tmp/ccbt8LDA.s 			page 23


 714 04a8 D3E90023 		ldrd	r2, [r3]
 715 04ac 2046     		mov	r0, r4
 716 04ae 2946     		mov	r1, r5
 717 04b0 FFF7FEFF 		bl	__aeabi_dcmpge
 718              	.LVL52:
 719 04b4 0028     		cmp	r0, #0
 720 04b6 41F0A180 		bne	.L387
 721              	.L141:
 504:Src/noteDetect.c ****     sprintf(note, "Bb3  ");
 505:Src/noteDetect.c ****     sprintf(noteFreq, "%.2f", frequency);
 506:Src/noteDetect.c **** 
 507:Src/noteDetect.c ****     ssd1306_SetCursor(NOTEX, NOTEY);
 508:Src/noteDetect.c ****     ssd1306_WriteString(note,Font_11x18,Black);
 509:Src/noteDetect.c ****     ssd1306_SetCursor(FREQX,FREQY);
 510:Src/noteDetect.c ****     ssd1306_WriteString(noteFreq,Font_11x18,Black);
 511:Src/noteDetect.c **** 
 512:Src/noteDetect.c ****     /*if in tune plus/minus 10 cents */
 513:Src/noteDetect.c ****     if(frequency>= 231.73 && frequency <= 234.43){
 514:Src/noteDetect.c ****       ssd1306_SetCursor(NOTEX + INTUNE, NOTEY);
 515:Src/noteDetect.c ****       ssd1306_WriteString(dot,Font_11x18,Black);
 516:Src/noteDetect.c **** 
 517:Src/noteDetect.c ****     }
 518:Src/noteDetect.c **** 
 519:Src/noteDetect.c ****     ssd1306_UpdateScreen();
 520:Src/noteDetect.c ****     HAL_Delay(500);
 521:Src/noteDetect.c ****   }
 522:Src/noteDetect.c **** 
 523:Src/noteDetect.c ****   /*B3 note */
 524:Src/noteDetect.c ****   else if(frequency <= 254.18 && frequency >= 239.92){
 722              		.loc 1 524 8 is_stmt 1 view .LVU81
 723              		.loc 1 524 10 is_stmt 0 view .LVU82
 724 04ba 0FF24443 		adr	r3, .L439+296
 725 04be D3E90023 		ldrd	r2, [r3]
 726 04c2 2046     		mov	r0, r4
 727 04c4 2946     		mov	r1, r5
 728 04c6 FFF7FEFF 		bl	__aeabi_dcmple
 729              	.LVL53:
 730 04ca 50B1     		cbz	r0, .L147
 731              		.loc 1 524 31 discriminator 1 view .LVU83
 732 04cc 0FF23843 		adr	r3, .L439+304
 733 04d0 D3E90023 		ldrd	r2, [r3]
 734 04d4 2046     		mov	r0, r4
 735 04d6 2946     		mov	r1, r5
 736 04d8 FFF7FEFF 		bl	__aeabi_dcmpge
 737              	.LVL54:
 738 04dc 0028     		cmp	r0, #0
 739 04de 41F0D180 		bne	.L388
 740              	.L147:
 525:Src/noteDetect.c ****     sprintf(note, "B3  ");
 526:Src/noteDetect.c ****     sprintf(noteFreq, "%.2f", frequency);
 527:Src/noteDetect.c **** 
 528:Src/noteDetect.c ****     ssd1306_SetCursor(NOTEX, NOTEY);
 529:Src/noteDetect.c ****     ssd1306_WriteString(note,Font_11x18,Black);
 530:Src/noteDetect.c ****     ssd1306_SetCursor(FREQX,FREQY);
 531:Src/noteDetect.c ****     ssd1306_WriteString(noteFreq,Font_11x18,Black);
 532:Src/noteDetect.c **** 
 533:Src/noteDetect.c ****     /*if in tune plus/minus 10 cents */
ARM GAS  /tmp/ccbt8LDA.s 			page 24


 534:Src/noteDetect.c ****     if(frequency>= 245.52 && frequency <= 248.37){
 535:Src/noteDetect.c ****       ssd1306_SetCursor(NOTEX + INTUNE, NOTEY);
 536:Src/noteDetect.c ****       ssd1306_WriteString(dot,Font_11x18,Black);
 537:Src/noteDetect.c **** 
 538:Src/noteDetect.c ****     }
 539:Src/noteDetect.c **** 
 540:Src/noteDetect.c ****     ssd1306_UpdateScreen();
 541:Src/noteDetect.c ****     HAL_Delay(500);
 542:Src/noteDetect.c ****   }
 543:Src/noteDetect.c **** 
 544:Src/noteDetect.c ****   /*C4 note */
 545:Src/noteDetect.c ****   else if(frequency <= 269.29 && frequency >= 254.19){
 741              		.loc 1 545 8 is_stmt 1 view .LVU84
 742              		.loc 1 545 10 is_stmt 0 view .LVU85
 743 04e2 0FF22C43 		adr	r3, .L439+312
 744 04e6 D3E90023 		ldrd	r2, [r3]
 745 04ea 2046     		mov	r0, r4
 746 04ec 2946     		mov	r1, r5
 747 04ee FFF7FEFF 		bl	__aeabi_dcmple
 748              	.LVL55:
 749 04f2 50B1     		cbz	r0, .L153
 750              		.loc 1 545 31 discriminator 1 view .LVU86
 751 04f4 0FF22043 		adr	r3, .L439+320
 752 04f8 D3E90023 		ldrd	r2, [r3]
 753 04fc 2046     		mov	r0, r4
 754 04fe 2946     		mov	r1, r5
 755 0500 FFF7FEFF 		bl	__aeabi_dcmpge
 756              	.LVL56:
 757 0504 0028     		cmp	r0, #0
 758 0506 41F00181 		bne	.L389
 759              	.L153:
 546:Src/noteDetect.c ****     sprintf(note, "C4  ");
 547:Src/noteDetect.c ****     sprintf(noteFreq, "%.2f", frequency);
 548:Src/noteDetect.c **** 
 549:Src/noteDetect.c ****     ssd1306_SetCursor(NOTEX, NOTEY);
 550:Src/noteDetect.c ****     ssd1306_WriteString(note,Font_11x18,Black);
 551:Src/noteDetect.c ****     ssd1306_SetCursor(FREQX,FREQY);
 552:Src/noteDetect.c ****     ssd1306_WriteString(noteFreq,Font_11x18,Black);
 553:Src/noteDetect.c **** 
 554:Src/noteDetect.c ****     /*if in tune plus/minus 10 cents */
 555:Src/noteDetect.c ****     if(frequency>= 260.12 && frequency <= 263.15){
 556:Src/noteDetect.c ****       ssd1306_SetCursor(NOTEX + INTUNE, NOTEY);
 557:Src/noteDetect.c ****       ssd1306_WriteString(dot,Font_11x18,Black);
 558:Src/noteDetect.c **** 
 559:Src/noteDetect.c ****     }
 560:Src/noteDetect.c **** 
 561:Src/noteDetect.c ****     ssd1306_UpdateScreen();
 562:Src/noteDetect.c ****     HAL_Delay(500);
 563:Src/noteDetect.c ****   }
 564:Src/noteDetect.c **** 
 565:Src/noteDetect.c ****   /*Db4 note */
 566:Src/noteDetect.c ****   else if(frequency <= 285.3 && frequency >= 269.29){
 760              		.loc 1 566 8 is_stmt 1 view .LVU87
 761              		.loc 1 566 10 is_stmt 0 view .LVU88
 762 050a 0FF21443 		adr	r3, .L439+328
 763 050e D3E90023 		ldrd	r2, [r3]
 764 0512 2046     		mov	r0, r4
ARM GAS  /tmp/ccbt8LDA.s 			page 25


 765 0514 2946     		mov	r1, r5
 766 0516 FFF7FEFF 		bl	__aeabi_dcmple
 767              	.LVL57:
 768 051a 48B1     		cbz	r0, .L159
 769              		.loc 1 566 30 discriminator 1 view .LVU89
 770 051c FCA3     		adr	r3, .L439+312
 771 051e D3E90023 		ldrd	r2, [r3]
 772 0522 2046     		mov	r0, r4
 773 0524 2946     		mov	r1, r5
 774 0526 FFF7FEFF 		bl	__aeabi_dcmpge
 775              	.LVL58:
 776 052a 0028     		cmp	r0, #0
 777 052c 41F03281 		bne	.L390
 778              	.L159:
 567:Src/noteDetect.c ****     sprintf(note, "Db4  ");
 568:Src/noteDetect.c ****     sprintf(noteFreq, "%.2f", frequency);
 569:Src/noteDetect.c **** 
 570:Src/noteDetect.c ****     ssd1306_SetCursor(NOTEX, NOTEY);
 571:Src/noteDetect.c ****     ssd1306_WriteString(note,Font_11x18,Black);
 572:Src/noteDetect.c ****     ssd1306_SetCursor(FREQX,FREQY);
 573:Src/noteDetect.c ****     ssd1306_WriteString(noteFreq,Font_11x18,Black);
 574:Src/noteDetect.c **** 
 575:Src/noteDetect.c ****     /*if in tune plus/minus 10 cents */
 576:Src/noteDetect.c ****     if(frequency>= 275.59 && frequency <= 278.78){
 577:Src/noteDetect.c ****       ssd1306_SetCursor(NOTEX + INTUNE, NOTEY);
 578:Src/noteDetect.c ****       ssd1306_WriteString(dot,Font_11x18,Black);
 579:Src/noteDetect.c **** 
 580:Src/noteDetect.c ****     }
 581:Src/noteDetect.c **** 
 582:Src/noteDetect.c ****     ssd1306_UpdateScreen();
 583:Src/noteDetect.c ****     HAL_Delay(500);
 584:Src/noteDetect.c ****   }
 585:Src/noteDetect.c **** 
 586:Src/noteDetect.c ****   /*D4 note */
 587:Src/noteDetect.c ****   else if(frequency <= 302.26 && frequency >= 285.31){
 779              		.loc 1 587 8 is_stmt 1 view .LVU90
 780              		.loc 1 587 10 is_stmt 0 view .LVU91
 781 0530 FDA3     		adr	r3, .L439+336
 782 0532 D3E90023 		ldrd	r2, [r3]
 783 0536 2046     		mov	r0, r4
 784 0538 2946     		mov	r1, r5
 785 053a FFF7FEFF 		bl	__aeabi_dcmple
 786              	.LVL59:
 787 053e 48B1     		cbz	r0, .L165
 788              		.loc 1 587 31 discriminator 1 view .LVU92
 789 0540 FBA3     		adr	r3, .L439+344
 790 0542 D3E90023 		ldrd	r2, [r3]
 791 0546 2046     		mov	r0, r4
 792 0548 2946     		mov	r1, r5
 793 054a FFF7FEFF 		bl	__aeabi_dcmpge
 794              	.LVL60:
 795 054e 0028     		cmp	r0, #0
 796 0550 41F09C81 		bne	.L391
 797              	.L165:
 588:Src/noteDetect.c ****     sprintf(note, "D4  ");
 589:Src/noteDetect.c ****     sprintf(noteFreq, "%.2f", frequency);
 590:Src/noteDetect.c **** 
ARM GAS  /tmp/ccbt8LDA.s 			page 26


 591:Src/noteDetect.c ****     ssd1306_SetCursor(NOTEX, NOTEY);
 592:Src/noteDetect.c ****     ssd1306_WriteString(note,Font_11x18,Black);
 593:Src/noteDetect.c ****     ssd1306_SetCursor(FREQX,FREQY);
 594:Src/noteDetect.c ****     ssd1306_WriteString(noteFreq,Font_11x18,Black);
 595:Src/noteDetect.c **** 
 596:Src/noteDetect.c ****     /*if in tune plus/minus 10 cents */
 597:Src/noteDetect.c ****     if(frequency>= 291.97 && frequency <= 295.36){
 598:Src/noteDetect.c ****       ssd1306_SetCursor(NOTEX + INTUNE, NOTEY);
 599:Src/noteDetect.c ****       ssd1306_WriteString(dot,Font_11x18,Black);
 600:Src/noteDetect.c **** 
 601:Src/noteDetect.c ****     }
 602:Src/noteDetect.c **** 
 603:Src/noteDetect.c ****     ssd1306_UpdateScreen();
 604:Src/noteDetect.c ****     HAL_Delay(500);
 605:Src/noteDetect.c ****   }
 606:Src/noteDetect.c **** 
 607:Src/noteDetect.c ****   /*Eb4 note */
 608:Src/noteDetect.c ****   else if(frequency <= 320.25 && frequency >= 392.27){
 798              		.loc 1 608 8 is_stmt 1 view .LVU93
 799              		.loc 1 608 10 is_stmt 0 view .LVU94
 800 0554 DFEDC27A 		vldr.32	s15, .L439+136
 801 0558 07EE106A 		vmov	s14, r6
 802 055c B4EEE77A 		vcmpe.f32	s14, s15
 803 0560 F1EE10FA 		vmrs	APSR_nzcv, FPSCR
 804 0564 09D8     		bhi	.L171
 805              		.loc 1 608 31 discriminator 1 view .LVU95
 806 0566 9CA3     		adr	r3, .L439
 807 0568 D3E90023 		ldrd	r2, [r3]
 808 056c 2046     		mov	r0, r4
 809 056e 2946     		mov	r1, r5
 810 0570 FFF7FEFF 		bl	__aeabi_dcmpge
 811              	.LVL61:
 812 0574 0028     		cmp	r0, #0
 813 0576 41F0CD81 		bne	.L392
 814              	.L171:
 609:Src/noteDetect.c ****     sprintf(note, "Eb4  ");
 610:Src/noteDetect.c ****     sprintf(noteFreq, "%.2f", frequency);
 611:Src/noteDetect.c **** 
 612:Src/noteDetect.c ****     ssd1306_SetCursor(NOTEX, NOTEY);
 613:Src/noteDetect.c ****     ssd1306_WriteString(note,Font_11x18,Black);
 614:Src/noteDetect.c ****     ssd1306_SetCursor(FREQX,FREQY);
 615:Src/noteDetect.c ****     ssd1306_WriteString(noteFreq,Font_11x18,Black);
 616:Src/noteDetect.c **** 
 617:Src/noteDetect.c ****     /*if in tune plus/minus 10 cents */
 618:Src/noteDetect.c ****     if(frequency>= 309.34 && frequency <= 312.93){
 619:Src/noteDetect.c ****       ssd1306_SetCursor(NOTEX + INTUNE, NOTEY);
 620:Src/noteDetect.c ****       ssd1306_WriteString(dot,Font_11x18,Black);
 621:Src/noteDetect.c **** 
 622:Src/noteDetect.c ****     }
 623:Src/noteDetect.c **** 
 624:Src/noteDetect.c ****     ssd1306_UpdateScreen();
 625:Src/noteDetect.c ****     HAL_Delay(500);
 626:Src/noteDetect.c ****   }
 627:Src/noteDetect.c **** 
 628:Src/noteDetect.c ****   /*E4 note */
 629:Src/noteDetect.c ****   else if(frequency <= 339.29 && frequency >= 320.26){
 815              		.loc 1 629 8 is_stmt 1 view .LVU96
ARM GAS  /tmp/ccbt8LDA.s 			page 27


 816              		.loc 1 629 10 is_stmt 0 view .LVU97
 817 057a 99A3     		adr	r3, .L439+8
 818 057c D3E90023 		ldrd	r2, [r3]
 819 0580 2046     		mov	r0, r4
 820 0582 2946     		mov	r1, r5
 821 0584 FFF7FEFF 		bl	__aeabi_dcmple
 822              	.LVL62:
 823 0588 48B1     		cbz	r0, .L177
 824              		.loc 1 629 31 discriminator 1 view .LVU98
 825 058a 97A3     		adr	r3, .L439+16
 826 058c D3E90023 		ldrd	r2, [r3]
 827 0590 2046     		mov	r0, r4
 828 0592 2946     		mov	r1, r5
 829 0594 FFF7FEFF 		bl	__aeabi_dcmpge
 830              	.LVL63:
 831 0598 0028     		cmp	r0, #0
 832 059a 41F0FF81 		bne	.L393
 833              	.L177:
 630:Src/noteDetect.c ****     sprintf(note, "E4  ");
 631:Src/noteDetect.c ****     sprintf(noteFreq, "%.2f", frequency);
 632:Src/noteDetect.c **** 
 633:Src/noteDetect.c ****     ssd1306_SetCursor(NOTEX, NOTEY);
 634:Src/noteDetect.c ****     ssd1306_WriteString(note,Font_11x18,Black);
 635:Src/noteDetect.c ****     ssd1306_SetCursor(FREQX,FREQY);
 636:Src/noteDetect.c ****     ssd1306_WriteString(noteFreq,Font_11x18,Black);
 637:Src/noteDetect.c **** 
 638:Src/noteDetect.c ****     /*if in tune plus/minus 10 cents */
 639:Src/noteDetect.c ****     if(frequency>= 327.73 && frequency <= 331.54){
 640:Src/noteDetect.c ****       ssd1306_SetCursor(NOTEX + INTUNE, NOTEY);
 641:Src/noteDetect.c ****       ssd1306_WriteString(dot,Font_11x18,Black);
 642:Src/noteDetect.c **** 
 643:Src/noteDetect.c ****     }
 644:Src/noteDetect.c **** 
 645:Src/noteDetect.c ****     ssd1306_UpdateScreen();
 646:Src/noteDetect.c ****     HAL_Delay(500);
 647:Src/noteDetect.c ****   }
 648:Src/noteDetect.c **** 
 649:Src/noteDetect.c ****   /*F4 note */
 650:Src/noteDetect.c ****   else if(frequency <= 359.46 && frequency >= 339.30){
 834              		.loc 1 650 8 is_stmt 1 view .LVU99
 835              		.loc 1 650 10 is_stmt 0 view .LVU100
 836 059e 94A3     		adr	r3, .L439+24
 837 05a0 D3E90023 		ldrd	r2, [r3]
 838 05a4 2046     		mov	r0, r4
 839 05a6 2946     		mov	r1, r5
 840 05a8 FFF7FEFF 		bl	__aeabi_dcmple
 841              	.LVL64:
 842 05ac 48B1     		cbz	r0, .L183
 843              		.loc 1 650 31 discriminator 1 view .LVU101
 844 05ae 92A3     		adr	r3, .L439+32
 845 05b0 D3E90023 		ldrd	r2, [r3]
 846 05b4 2046     		mov	r0, r4
 847 05b6 2946     		mov	r1, r5
 848 05b8 FFF7FEFF 		bl	__aeabi_dcmpge
 849              	.LVL65:
 850 05bc 0028     		cmp	r0, #0
 851 05be 41F03182 		bne	.L394
ARM GAS  /tmp/ccbt8LDA.s 			page 28


 852              	.L183:
 651:Src/noteDetect.c ****     sprintf(note, "F4  ");
 652:Src/noteDetect.c ****     sprintf(noteFreq, "%.2f", frequency);
 653:Src/noteDetect.c **** 
 654:Src/noteDetect.c ****     ssd1306_SetCursor(NOTEX, NOTEY);
 655:Src/noteDetect.c ****     ssd1306_WriteString(note,Font_11x18,Black);
 656:Src/noteDetect.c ****     ssd1306_SetCursor(FREQX,FREQY);
 657:Src/noteDetect.c ****     ssd1306_WriteString(noteFreq,Font_11x18,Black);
 658:Src/noteDetect.c **** 
 659:Src/noteDetect.c ****     /*if in tune plus/minus 10 cents */
 660:Src/noteDetect.c ****     if(frequency>= 347.22 && frequency <= 351.25){
 661:Src/noteDetect.c ****       ssd1306_SetCursor(NOTEX + INTUNE, NOTEY);
 662:Src/noteDetect.c ****       ssd1306_WriteString(dot,Font_11x18,Black);
 663:Src/noteDetect.c **** 
 664:Src/noteDetect.c ****     }
 665:Src/noteDetect.c **** 
 666:Src/noteDetect.c ****     ssd1306_UpdateScreen();
 667:Src/noteDetect.c ****     HAL_Delay(500);
 668:Src/noteDetect.c ****   }
 669:Src/noteDetect.c **** 
 670:Src/noteDetect.c ****   /*Gb4 note */
 671:Src/noteDetect.c ****   else if(frequency <= 380.83 && frequency >= 359.47){
 853              		.loc 1 671 8 is_stmt 1 view .LVU102
 854              		.loc 1 671 10 is_stmt 0 view .LVU103
 855 05c2 8FA3     		adr	r3, .L439+40
 856 05c4 D3E90023 		ldrd	r2, [r3]
 857 05c8 2046     		mov	r0, r4
 858 05ca 2946     		mov	r1, r5
 859 05cc FFF7FEFF 		bl	__aeabi_dcmple
 860              	.LVL66:
 861 05d0 48B1     		cbz	r0, .L189
 862              		.loc 1 671 31 discriminator 1 view .LVU104
 863 05d2 8DA3     		adr	r3, .L439+48
 864 05d4 D3E90023 		ldrd	r2, [r3]
 865 05d8 2046     		mov	r0, r4
 866 05da 2946     		mov	r1, r5
 867 05dc FFF7FEFF 		bl	__aeabi_dcmpge
 868              	.LVL67:
 869 05e0 0028     		cmp	r0, #0
 870 05e2 41F06482 		bne	.L395
 871              	.L189:
 672:Src/noteDetect.c ****     sprintf(note, "Gb4  ");
 673:Src/noteDetect.c ****     sprintf(noteFreq, "%.2f", frequency);
 674:Src/noteDetect.c **** 
 675:Src/noteDetect.c ****     ssd1306_SetCursor(NOTEX, NOTEY);
 676:Src/noteDetect.c ****     ssd1306_WriteString(note,Font_11x18,Black);
 677:Src/noteDetect.c ****     ssd1306_SetCursor(FREQX,FREQY);
 678:Src/noteDetect.c ****     ssd1306_WriteString(noteFreq,Font_11x18,Black);
 679:Src/noteDetect.c **** 
 680:Src/noteDetect.c ****     /*if in tune plus/minus 10 cents */
 681:Src/noteDetect.c ****     if(frequency>= 367.86 && frequency <= 372.13){
 682:Src/noteDetect.c ****       ssd1306_SetCursor(NOTEX + INTUNE, NOTEY);
 683:Src/noteDetect.c ****       ssd1306_WriteString(dot,Font_11x18,Black);
 684:Src/noteDetect.c **** 
 685:Src/noteDetect.c ****     }
 686:Src/noteDetect.c **** 
 687:Src/noteDetect.c ****     ssd1306_UpdateScreen();
ARM GAS  /tmp/ccbt8LDA.s 			page 29


 688:Src/noteDetect.c ****     HAL_Delay(500);
 689:Src/noteDetect.c ****   }
 690:Src/noteDetect.c **** 
 691:Src/noteDetect.c **** 
 692:Src/noteDetect.c ****   /*G4 note */
 693:Src/noteDetect.c ****   else if(frequency <= 403.49 && frequency >= 380.83){
 872              		.loc 1 693 8 is_stmt 1 view .LVU105
 873              		.loc 1 693 10 is_stmt 0 view .LVU106
 874 05e6 8AA3     		adr	r3, .L439+56
 875 05e8 D3E90023 		ldrd	r2, [r3]
 876 05ec 2046     		mov	r0, r4
 877 05ee 2946     		mov	r1, r5
 878 05f0 FFF7FEFF 		bl	__aeabi_dcmple
 879              	.LVL68:
 880 05f4 48B1     		cbz	r0, .L195
 881              		.loc 1 693 31 discriminator 1 view .LVU107
 882 05f6 82A3     		adr	r3, .L439+40
 883 05f8 D3E90023 		ldrd	r2, [r3]
 884 05fc 2046     		mov	r0, r4
 885 05fe 2946     		mov	r1, r5
 886 0600 FFF7FEFF 		bl	__aeabi_dcmpge
 887              	.LVL69:
 888 0604 0028     		cmp	r0, #0
 889 0606 41F0CB82 		bne	.L396
 890              	.L195:
 694:Src/noteDetect.c ****     sprintf(note, "G4  ");
 695:Src/noteDetect.c ****     sprintf(noteFreq, "%4.2f", frequency);
 696:Src/noteDetect.c **** 
 697:Src/noteDetect.c ****     ssd1306_SetCursor(NOTEX, NOTEY);
 698:Src/noteDetect.c ****     ssd1306_WriteString(note,Font_11x18,Black);
 699:Src/noteDetect.c ****     ssd1306_SetCursor(FREQX,FREQY);
 700:Src/noteDetect.c ****     ssd1306_WriteString(noteFreq,Font_11x18,Black);
 701:Src/noteDetect.c **** 
 702:Src/noteDetect.c ****     /*if in tune plus/minus 10 cents */
 703:Src/noteDetect.c ****     if(frequency>= 389.74 && frequency <= 394.27){
 704:Src/noteDetect.c ****       ssd1306_SetCursor(NOTEX + INTUNE, NOTEY);
 705:Src/noteDetect.c ****       ssd1306_WriteString(dot,Font_11x18,Black);
 706:Src/noteDetect.c **** 
 707:Src/noteDetect.c ****     }
 708:Src/noteDetect.c **** 
 709:Src/noteDetect.c ****     ssd1306_UpdateScreen();
 710:Src/noteDetect.c ****     HAL_Delay(500);
 711:Src/noteDetect.c ****   }
 712:Src/noteDetect.c **** 
 713:Src/noteDetect.c **** 
 714:Src/noteDetect.c **** 
 715:Src/noteDetect.c **** 
 716:Src/noteDetect.c ****   /*Ab4 note */
 717:Src/noteDetect.c ****   else if(frequency >= 403.50 && frequency <= 427.56){
 891              		.loc 1 717 8 is_stmt 1 view .LVU108
 892              		.loc 1 717 10 is_stmt 0 view .LVU109
 893 060a DFED967A 		vldr.32	s15, .L439+140
 894 060e 07EE106A 		vmov	s14, r6
 895 0612 B4EEE77A 		vcmpe.f32	s14, s15
 896 0616 F1EE10FA 		vmrs	APSR_nzcv, FPSCR
 897 061a 09DB     		blt	.L201
 898              		.loc 1 717 31 discriminator 1 view .LVU110
ARM GAS  /tmp/ccbt8LDA.s 			page 30


 899 061c 7EA3     		adr	r3, .L439+64
 900 061e D3E90023 		ldrd	r2, [r3]
 901 0622 2046     		mov	r0, r4
 902 0624 2946     		mov	r1, r5
 903 0626 FFF7FEFF 		bl	__aeabi_dcmple
 904              	.LVL70:
 905 062a 0028     		cmp	r0, #0
 906 062c 41F0FC82 		bne	.L397
 907              	.L201:
 718:Src/noteDetect.c ****     sprintf(note, "Ab4  ");
 719:Src/noteDetect.c ****     sprintf(noteFreq, "%.2f", frequency);
 720:Src/noteDetect.c **** 
 721:Src/noteDetect.c ****     ssd1306_SetCursor(NOTEX, NOTEY);
 722:Src/noteDetect.c ****     ssd1306_WriteString(note,Font_11x18,Black);
 723:Src/noteDetect.c ****     ssd1306_SetCursor(FREQX,FREQY);
 724:Src/noteDetect.c ****     ssd1306_WriteString(noteFreq,Font_11x18,Black);
 725:Src/noteDetect.c **** 
 726:Src/noteDetect.c ****     /*if in tune plus/minus 10 cents */
 727:Src/noteDetect.c ****     if(frequency>= 412.99 && frequency <= 417.79){
 728:Src/noteDetect.c ****       ssd1306_SetCursor(NOTEX + INTUNE, NOTEY);
 729:Src/noteDetect.c ****       ssd1306_WriteString(dot,Font_11x18,Black);
 730:Src/noteDetect.c **** 
 731:Src/noteDetect.c ****     }
 732:Src/noteDetect.c **** 
 733:Src/noteDetect.c ****     ssd1306_UpdateScreen();
 734:Src/noteDetect.c ****     HAL_Delay(500);
 735:Src/noteDetect.c ****   }
 736:Src/noteDetect.c **** 
 737:Src/noteDetect.c ****   /*A4 note */
 738:Src/noteDetect.c ****   else if(frequency <= 452.89 && frequency >= 427.57){
 908              		.loc 1 738 8 is_stmt 1 view .LVU111
 909              		.loc 1 738 10 is_stmt 0 view .LVU112
 910 0630 7BA3     		adr	r3, .L439+72
 911 0632 D3E90023 		ldrd	r2, [r3]
 912 0636 2046     		mov	r0, r4
 913 0638 2946     		mov	r1, r5
 914 063a FFF7FEFF 		bl	__aeabi_dcmple
 915              	.LVL71:
 916 063e 48B1     		cbz	r0, .L207
 917              		.loc 1 738 31 discriminator 1 view .LVU113
 918 0640 79A3     		adr	r3, .L439+80
 919 0642 D3E90023 		ldrd	r2, [r3]
 920 0646 2046     		mov	r0, r4
 921 0648 2946     		mov	r1, r5
 922 064a FFF7FEFF 		bl	__aeabi_dcmpge
 923              	.LVL72:
 924 064e 0028     		cmp	r0, #0
 925 0650 41F02E83 		bne	.L398
 926              	.L207:
 739:Src/noteDetect.c ****     sprintf(note, "A4  ");
 740:Src/noteDetect.c ****     sprintf(noteFreq, "%.2f", frequency);
 741:Src/noteDetect.c **** 
 742:Src/noteDetect.c ****     ssd1306_SetCursor(NOTEX, NOTEY);
 743:Src/noteDetect.c ****     ssd1306_WriteString(note,Font_11x18,Black);
 744:Src/noteDetect.c ****     ssd1306_SetCursor(FREQX,FREQY);
 745:Src/noteDetect.c ****     ssd1306_WriteString(noteFreq,Font_11x18,Black);
 746:Src/noteDetect.c **** 
ARM GAS  /tmp/ccbt8LDA.s 			page 31


 747:Src/noteDetect.c ****     /*if in tune plus/minus 10 cents */
 748:Src/noteDetect.c ****     if(frequency>= 437.47 && frequency <= 442.55){
 749:Src/noteDetect.c ****       ssd1306_SetCursor(NOTEX + INTUNE, NOTEY);
 750:Src/noteDetect.c ****       ssd1306_WriteString(dot,Font_11x18,Black);
 751:Src/noteDetect.c **** 
 752:Src/noteDetect.c ****     }
 753:Src/noteDetect.c **** 
 754:Src/noteDetect.c ****     ssd1306_UpdateScreen();
 755:Src/noteDetect.c ****     HAL_Delay(500);
 756:Src/noteDetect.c ****   }
 757:Src/noteDetect.c **** 
 758:Src/noteDetect.c ****   /*Bb4 note */
 759:Src/noteDetect.c ****   else if(frequency <= 479.82 && frequency >= 452.90){
 927              		.loc 1 759 8 is_stmt 1 view .LVU114
 928              		.loc 1 759 10 is_stmt 0 view .LVU115
 929 0654 76A3     		adr	r3, .L439+88
 930 0656 D3E90023 		ldrd	r2, [r3]
 931 065a 2046     		mov	r0, r4
 932 065c 2946     		mov	r1, r5
 933 065e FFF7FEFF 		bl	__aeabi_dcmple
 934              	.LVL73:
 935 0662 48B1     		cbz	r0, .L213
 936              		.loc 1 759 31 discriminator 1 view .LVU116
 937 0664 74A3     		adr	r3, .L439+96
 938 0666 D3E90023 		ldrd	r2, [r3]
 939 066a 2046     		mov	r0, r4
 940 066c 2946     		mov	r1, r5
 941 066e FFF7FEFF 		bl	__aeabi_dcmpge
 942              	.LVL74:
 943 0672 0028     		cmp	r0, #0
 944 0674 41F06083 		bne	.L399
 945              	.L213:
 760:Src/noteDetect.c ****     sprintf(note, "Bb4  ");
 761:Src/noteDetect.c ****     sprintf(noteFreq, "%.2f", frequency);
 762:Src/noteDetect.c **** 
 763:Src/noteDetect.c ****     ssd1306_SetCursor(NOTEX, NOTEY);
 764:Src/noteDetect.c ****     ssd1306_WriteString(note,Font_11x18,Black);
 765:Src/noteDetect.c ****     ssd1306_SetCursor(FREQX,FREQY);
 766:Src/noteDetect.c ****     ssd1306_WriteString(noteFreq,Font_11x18,Black);
 767:Src/noteDetect.c **** 
 768:Src/noteDetect.c ****     /*if in tune plus/minus 10 cents */
 769:Src/noteDetect.c ****     if(frequency>= 463.48 && frequency <= 468.86){
 770:Src/noteDetect.c ****       ssd1306_SetCursor(NOTEX + INTUNE, NOTEY);
 771:Src/noteDetect.c ****       ssd1306_WriteString(dot,Font_11x18,Black);
 772:Src/noteDetect.c **** 
 773:Src/noteDetect.c ****     }
 774:Src/noteDetect.c **** 
 775:Src/noteDetect.c ****     ssd1306_UpdateScreen();
 776:Src/noteDetect.c ****     HAL_Delay(500);
 777:Src/noteDetect.c ****   }
 778:Src/noteDetect.c **** 
 779:Src/noteDetect.c ****   else{
 780:Src/noteDetect.c ****     sprintf(note, "NULL");
 946              		.loc 1 780 5 is_stmt 1 view .LVU117
 947 0678 7B4B     		ldr	r3, .L439+144
 948 067a 93E80300 		ldm	r3, {r0, r1}
 949 067e 1490     		str	r0, [sp, #80]
ARM GAS  /tmp/ccbt8LDA.s 			page 32


 950 0680 8DF85410 		strb	r1, [sp, #84]
 781:Src/noteDetect.c ****     sprintf(noteFreq, "%.2f", frequency);
 951              		.loc 1 781 5 view .LVU118
 952 0684 2246     		mov	r2, r4
 953 0686 2B46     		mov	r3, r5
 954 0688 7849     		ldr	r1, .L439+148
 955 068a 0AA8     		add	r0, sp, #40
 956 068c FFF7FEFF 		bl	sprintf
 957              	.LVL75:
 782:Src/noteDetect.c **** 
 783:Src/noteDetect.c ****     ssd1306_SetCursor(NOTEX, NOTEY);
 958              		.loc 1 783 5 view .LVU119
 959 0690 2821     		movs	r1, #40
 960 0692 0846     		mov	r0, r1
 961 0694 FFF7FEFF 		bl	ssd1306_SetCursor
 962              	.LVL76:
 784:Src/noteDetect.c ****     ssd1306_WriteString(note,Font_11x18,Black);
 963              		.loc 1 784 5 view .LVU120
 964 0698 754C     		ldr	r4, .L439+152
 965 069a 0023     		movs	r3, #0
 966 069c 94E80600 		ldm	r4, {r1, r2}
 967 06a0 14A8     		add	r0, sp, #80
 968 06a2 FFF7FEFF 		bl	ssd1306_WriteString
 969              	.LVL77:
 785:Src/noteDetect.c ****     ssd1306_SetCursor(FREQX,FREQY);
 970              		.loc 1 785 5 view .LVU121
 971 06a6 0F21     		movs	r1, #15
 972 06a8 2820     		movs	r0, #40
 973 06aa FFF7FEFF 		bl	ssd1306_SetCursor
 974              	.LVL78:
 786:Src/noteDetect.c ****     ssd1306_WriteString(noteFreq,Font_11x18,Black);
 975              		.loc 1 786 5 view .LVU122
 976 06ae 0023     		movs	r3, #0
 977 06b0 94E80600 		ldm	r4, {r1, r2}
 978 06b4 0AA8     		add	r0, sp, #40
 979 06b6 FFF7FEFF 		bl	ssd1306_WriteString
 980              	.LVL79:
 787:Src/noteDetect.c **** 
 788:Src/noteDetect.c ****     ssd1306_UpdateScreen();
 981              		.loc 1 788 5 view .LVU123
 982 06ba FFF7FEFF 		bl	ssd1306_UpdateScreen
 983              	.LVL80:
 789:Src/noteDetect.c ****     HAL_Delay(500);
 984              		.loc 1 789 5 view .LVU124
 985 06be 4FF4FA70 		mov	r0, #500
 986 06c2 FFF7FEFF 		bl	HAL_Delay
 987              	.LVL81:
 790:Src/noteDetect.c **** 
 791:Src/noteDetect.c ****   }
 792:Src/noteDetect.c **** /*end note detect */
 793:Src/noteDetect.c **** }
 988              		.loc 1 793 1 is_stmt 0 view .LVU125
 989 06c6 36E0     		b	.L1
 990              	.L364:
  20:Src/noteDetect.c ****     sprintf(noteFreq, "%4.2f", frequency);
 991              		.loc 1 20 5 is_stmt 1 view .LVU126
 992 06c8 6A4B     		ldr	r3, .L439+156
ARM GAS  /tmp/ccbt8LDA.s 			page 33


 993 06ca 93E80300 		ldm	r3, {r0, r1}
 994 06ce 1490     		str	r0, [sp, #80]
 995 06d0 8DF85410 		strb	r1, [sp, #84]
  21:Src/noteDetect.c ****     ssd1306_SetCursor(NOTEX, NOTEY);
 996              		.loc 1 21 5 view .LVU127
 997 06d4 2246     		mov	r2, r4
 998 06d6 2B46     		mov	r3, r5
 999 06d8 6749     		ldr	r1, .L439+160
 1000 06da 0AA8     		add	r0, sp, #40
 1001 06dc FFF7FEFF 		bl	sprintf
 1002              	.LVL82:
  22:Src/noteDetect.c ****     ssd1306_WriteString(note,Font_11x18,Black);
 1003              		.loc 1 22 5 view .LVU128
 1004 06e0 2821     		movs	r1, #40
 1005 06e2 0846     		mov	r0, r1
 1006 06e4 FFF7FEFF 		bl	ssd1306_SetCursor
 1007              	.LVL83:
  23:Src/noteDetect.c ****     ssd1306_SetCursor(FREQX,FREQY);
 1008              		.loc 1 23 5 view .LVU129
 1009 06e8 614E     		ldr	r6, .L439+152
 1010              	.LVL84:
  23:Src/noteDetect.c ****     ssd1306_SetCursor(FREQX,FREQY);
 1011              		.loc 1 23 5 is_stmt 0 view .LVU130
 1012 06ea 0023     		movs	r3, #0
 1013 06ec 96E80600 		ldm	r6, {r1, r2}
 1014 06f0 14A8     		add	r0, sp, #80
 1015 06f2 FFF7FEFF 		bl	ssd1306_WriteString
 1016              	.LVL85:
  24:Src/noteDetect.c ****     ssd1306_WriteString(noteFreq,Font_11x18,Black);
 1017              		.loc 1 24 5 is_stmt 1 view .LVU131
 1018 06f6 0F21     		movs	r1, #15
 1019 06f8 2820     		movs	r0, #40
 1020 06fa FFF7FEFF 		bl	ssd1306_SetCursor
 1021              	.LVL86:
  25:Src/noteDetect.c **** 
 1022              		.loc 1 25 5 view .LVU132
 1023 06fe 0023     		movs	r3, #0
 1024 0700 96E80600 		ldm	r6, {r1, r2}
 1025 0704 0AA8     		add	r0, sp, #40
 1026 0706 FFF7FEFF 		bl	ssd1306_WriteString
 1027              	.LVL87:
  28:Src/noteDetect.c ****         ssd1306_SetCursor(NOTEX + INTUNE, NOTEY);
 1028              		.loc 1 28 7 view .LVU133
  28:Src/noteDetect.c ****         ssd1306_SetCursor(NOTEX + INTUNE, NOTEY);
 1029              		.loc 1 28 9 is_stmt 0 view .LVU134
 1030 070a 4DA3     		adr	r3, .L439+104
 1031 070c D3E90023 		ldrd	r2, [r3]
 1032 0710 2046     		mov	r0, r4
 1033 0712 2946     		mov	r1, r5
 1034 0714 FFF7FEFF 		bl	__aeabi_dcmpge
 1035              	.LVL88:
 1036 0718 38B1     		cbz	r0, .L5
  28:Src/noteDetect.c ****         ssd1306_SetCursor(NOTEX + INTUNE, NOTEY);
 1037              		.loc 1 28 28 discriminator 1 view .LVU135
 1038 071a 4BA3     		adr	r3, .L439+112
 1039 071c D3E90023 		ldrd	r2, [r3]
 1040 0720 2046     		mov	r0, r4
ARM GAS  /tmp/ccbt8LDA.s 			page 34


 1041 0722 2946     		mov	r1, r5
 1042 0724 FFF7FEFF 		bl	__aeabi_dcmple
 1043              	.LVL89:
 1044 0728 38B9     		cbnz	r0, .L400
 1045              	.L5:
  34:Src/noteDetect.c ****       HAL_Delay(500);
 1046              		.loc 1 34 7 is_stmt 1 view .LVU136
 1047 072a FFF7FEFF 		bl	ssd1306_UpdateScreen
 1048              	.LVL90:
  35:Src/noteDetect.c ****   }
 1049              		.loc 1 35 7 view .LVU137
 1050 072e 4FF4FA70 		mov	r0, #500
 1051 0732 FFF7FEFF 		bl	HAL_Delay
 1052              	.LVL91:
 1053              	.L1:
 1054              		.loc 1 793 1 is_stmt 0 view .LVU138
 1055 0736 1FB0     		add	sp, sp, #124
 1056              	.LCFI2:
 1057              		.cfi_remember_state
 1058              		.cfi_def_cfa_offset 20
 1059              		@ sp needed
 1060 0738 F0BD     		pop	{r4, r5, r6, r7, pc}
 1061              	.L400:
 1062              	.LCFI3:
 1063              		.cfi_restore_state
  29:Src/noteDetect.c ****         ssd1306_WriteString(dot,Font_11x18,Black);
 1064              		.loc 1 29 9 is_stmt 1 view .LVU139
 1065 073a 2821     		movs	r1, #40
 1066 073c 4B20     		movs	r0, #75
 1067 073e FFF7FEFF 		bl	ssd1306_SetCursor
 1068              	.LVL92:
  30:Src/noteDetect.c **** 
 1069              		.loc 1 30 9 view .LVU140
 1070 0742 0023     		movs	r3, #0
 1071 0744 D6E90012 		ldrd	r1, r2, [r6]
 1072 0748 6846     		mov	r0, sp
 1073 074a FFF7FEFF 		bl	ssd1306_WriteString
 1074              	.LVL93:
 1075 074e ECE7     		b	.L5
 1076              	.LVL94:
 1077              	.L365:
  40:Src/noteDetect.c ****     sprintf(noteFreq, "%.2f", frequency);
 1078              		.loc 1 40 5 view .LVU141
 1079 0750 4A4B     		ldr	r3, .L439+164
 1080 0752 93E80300 		ldm	r3, {r0, r1}
 1081 0756 1490     		str	r0, [sp, #80]
 1082 0758 8DF85410 		strb	r1, [sp, #84]
  41:Src/noteDetect.c ****     ssd1306_SetCursor(NOTEX, NOTEY);
 1083              		.loc 1 41 5 view .LVU142
 1084 075c 2246     		mov	r2, r4
 1085 075e 2B46     		mov	r3, r5
 1086 0760 4249     		ldr	r1, .L439+148
 1087 0762 0AA8     		add	r0, sp, #40
 1088 0764 FFF7FEFF 		bl	sprintf
 1089              	.LVL95:
  42:Src/noteDetect.c ****     ssd1306_WriteString(note,Font_11x18,Black);
 1090              		.loc 1 42 5 view .LVU143
ARM GAS  /tmp/ccbt8LDA.s 			page 35


 1091 0768 2821     		movs	r1, #40
 1092 076a 0846     		mov	r0, r1
 1093 076c FFF7FEFF 		bl	ssd1306_SetCursor
 1094              	.LVL96:
  43:Src/noteDetect.c ****     ssd1306_SetCursor(FREQX,FREQY);
 1095              		.loc 1 43 5 view .LVU144
 1096 0770 3F4E     		ldr	r6, .L439+152
 1097              	.LVL97:
  43:Src/noteDetect.c ****     ssd1306_SetCursor(FREQX,FREQY);
 1098              		.loc 1 43 5 is_stmt 0 view .LVU145
 1099 0772 0023     		movs	r3, #0
 1100 0774 96E80600 		ldm	r6, {r1, r2}
 1101 0778 14A8     		add	r0, sp, #80
 1102 077a FFF7FEFF 		bl	ssd1306_WriteString
 1103              	.LVL98:
  44:Src/noteDetect.c ****     ssd1306_WriteString(noteFreq,Font_11x18,Black);
 1104              		.loc 1 44 5 is_stmt 1 view .LVU146
 1105 077e 0F21     		movs	r1, #15
 1106 0780 2820     		movs	r0, #40
 1107 0782 FFF7FEFF 		bl	ssd1306_SetCursor
 1108              	.LVL99:
  45:Src/noteDetect.c **** 
 1109              		.loc 1 45 5 view .LVU147
 1110 0786 0023     		movs	r3, #0
 1111 0788 96E80600 		ldm	r6, {r1, r2}
 1112 078c 0AA8     		add	r0, sp, #40
 1113 078e FFF7FEFF 		bl	ssd1306_WriteString
 1114              	.LVL100:
  48:Src/noteDetect.c ****       ssd1306_SetCursor(NOTEX + INTUNE, NOTEY);
 1115              		.loc 1 48 5 view .LVU148
  48:Src/noteDetect.c ****       ssd1306_SetCursor(NOTEX + INTUNE, NOTEY);
 1116              		.loc 1 48 7 is_stmt 0 view .LVU149
 1117 0792 2FA3     		adr	r3, .L439+120
 1118 0794 D3E90023 		ldrd	r2, [r3]
 1119 0798 2046     		mov	r0, r4
 1120 079a 2946     		mov	r1, r5
 1121 079c FFF7FEFF 		bl	__aeabi_dcmpge
 1122              	.LVL101:
 1123 07a0 38B1     		cbz	r0, .L12
  48:Src/noteDetect.c ****       ssd1306_SetCursor(NOTEX + INTUNE, NOTEY);
 1124              		.loc 1 48 26 discriminator 1 view .LVU150
 1125 07a2 2DA3     		adr	r3, .L439+128
 1126 07a4 D3E90023 		ldrd	r2, [r3]
 1127 07a8 2046     		mov	r0, r4
 1128 07aa 2946     		mov	r1, r5
 1129 07ac FFF7FEFF 		bl	__aeabi_dcmple
 1130              	.LVL102:
 1131 07b0 30B9     		cbnz	r0, .L401
 1132              	.L12:
  54:Src/noteDetect.c ****     HAL_Delay(500);
 1133              		.loc 1 54 5 is_stmt 1 view .LVU151
 1134 07b2 FFF7FEFF 		bl	ssd1306_UpdateScreen
 1135              	.LVL103:
  55:Src/noteDetect.c ****   }
 1136              		.loc 1 55 5 view .LVU152
 1137 07b6 4FF4FA70 		mov	r0, #500
 1138 07ba FFF7FEFF 		bl	HAL_Delay
ARM GAS  /tmp/ccbt8LDA.s 			page 36


 1139              	.LVL104:
 1140 07be BAE7     		b	.L1
 1141              	.L401:
  49:Src/noteDetect.c ****       ssd1306_WriteString(dot,Font_11x18,Black);
 1142              		.loc 1 49 7 view .LVU153
 1143 07c0 2821     		movs	r1, #40
 1144 07c2 4B20     		movs	r0, #75
 1145 07c4 FFF7FEFF 		bl	ssd1306_SetCursor
 1146              	.LVL105:
  50:Src/noteDetect.c **** 
 1147              		.loc 1 50 7 view .LVU154
 1148 07c8 0023     		movs	r3, #0
 1149 07ca D6E90012 		ldrd	r1, r2, [r6]
 1150 07ce 6846     		mov	r0, sp
 1151 07d0 FFF7FEFF 		bl	ssd1306_WriteString
 1152              	.LVL106:
 1153 07d4 EDE7     		b	.L12
 1154              	.L440:
 1155 07d6 00BF     		.align	3
 1156              	.L439:
 1157 07d8 B81E85EB 		.word	3951369912
 1158 07dc 51847840 		.word	1081640017
 1159 07e0 713D0AD7 		.word	3607772529
 1160 07e4 A3347540 		.word	1081423011
 1161 07e8 5C8FC2F5 		.word	4123168604
 1162 07ec 28047440 		.word	1081345064
 1163 07f0 8FC2F528 		.word	687194767
 1164 07f4 5C777640 		.word	1081505628
 1165 07f8 CDCCCCCC 		.word	3435973837
 1166 07fc CC347540 		.word	1081423052
 1167 0800 E17A14AE 		.word	2920577761
 1168 0804 47CD7740 		.word	1081593159
 1169 0808 EC51B81E 		.word	515396076
 1170 080c 85777640 		.word	1081505669
 1171 0810 A4703D0A 		.word	171798692
 1172 0814 D7377940 		.word	1081685975
 1173 0818 295C8FC2 		.word	3264175145
 1174 081c F5B87A40 		.word	1081784565
 1175 0820 0AD7A370 		.word	1889785610
 1176 0824 3D4E7C40 		.word	1081888317
 1177 0828 85EB51B8 		.word	3092376453
 1178 082c 1EB97A40 		.word	1081784606
 1179 0830 85EB51B8 		.word	3092376453
 1180 0834 1EFD7D40 		.word	1081998622
 1181 0838 66666666 		.word	1717986918
 1182 083c 664E7C40 		.word	1081888358
 1183 0840 713D0AD7 		.word	3607772529
 1184 0844 A3B04E40 		.word	1078898851
 1185 0848 EC51B81E 		.word	515396076
 1186 084c 850B4F40 		.word	1078922117
 1187 0850 52B81E85 		.word	2233382994
 1188 0854 EB415040 		.word	1079001579
 1189 0858 C3F5285C 		.word	1546188227
 1190 085c 8F725040 		.word	1079014031
 1191 0860 0020A043 		.word	1134567424
 1192 0864 00C0C943 		.word	1137295360
 1193 0868 30010000 		.word	.LC39
ARM GAS  /tmp/ccbt8LDA.s 			page 37


 1194 086c 18000000 		.word	.LC4
 1195 0870 00000000 		.word	Font_11x18
 1196 0874 00000000 		.word	.LC1
 1197 0878 08000000 		.word	.LC2
 1198 087c 10000000 		.word	.LC3
 1199 0880 CDCCCCCC 		.word	3435973837
 1200 0884 CCD46040 		.word	1080087756
 1201 0888 5C8FC2F5 		.word	4123168604
 1202 088c 28E46240 		.word	1080222760
 1203 0890 CDCCCCCC 		.word	3435973837
 1204 0894 CCD46140 		.word	1080153292
 1205 0898 EC51B81E 		.word	515396076
 1206 089c 85036440 		.word	1080296325
 1207 08a0 14AE47E1 		.word	3779571220
 1208 08a4 7AE46240 		.word	1080222842
 1209 08a8 14AE47E1 		.word	3779571220
 1210 08ac 7A346540 		.word	1080374394
 1211 08b0 A4703D0A 		.word	171798692
 1212 08b4 D7036440 		.word	1080296407
 1213 08b8 B81E85EB 		.word	3951369912
 1214 08bc 51986640 		.word	1080465489
 1215 08c0 CDCCCCCC 		.word	3435973837
 1216 08c4 CC346540 		.word	1080374476
 1217 08c8 3D0AD7A3 		.word	2748779069
 1218 08cc 70CD6740 		.word	1080544624
 1219 08d0 B81E85EB 		.word	3951369912
 1220 08d4 51386940 		.word	1080637521
 1221 08d8 8FC2F528 		.word	687194767
 1222 08dc 5CB76A40 		.word	1080735580
 1223 08e0 66666666 		.word	1717986918
 1224 08e4 664E6C40 		.word	1080839782
 1225 08e8 48E17A14 		.word	343597384
 1226 08ec AEB76A40 		.word	1080735662
 1227 08f0 85EB51B8 		.word	3092376453
 1228 08f4 1EFD6D40 		.word	1080950046
 1229 08f8 1F85EB51 		.word	1374389535
 1230 08fc B84E6C40 		.word	1080839864
 1231 0900 F6285C8F 		.word	2405181686
 1232 0904 C2C56F40 		.word	1081066946
 1233 0908 3D0AD7A3 		.word	2748779069
 1234 090c 70FD6D40 		.word	1080950128
 1235 0910 713D0AD7 		.word	3607772529
 1236 0914 A3D47040 		.word	1081136291
 1237 0918 AE47E17A 		.word	2061584302
 1238 091c 14C66F40 		.word	1081067028
 1239 0920 CDCCCCCC 		.word	3435973837
 1240 0924 CCD47140 		.word	1081201868
 1241 0928 5C8FC2F5 		.word	4123168604
 1242 092c 28E47240 		.word	1081271336
 1243 0930 295C8FC2 		.word	3264175145
 1244 0934 F5D47140 		.word	1081201909
 1245              	.LVL107:
 1246              	.L366:
  60:Src/noteDetect.c ****     sprintf(noteFreq, "%.2f", frequency);
 1247              		.loc 1 60 5 view .LVU155
 1248 0938 B74B     		ldr	r3, .L441+64
 1249 093a 93E80300 		ldm	r3, {r0, r1}
ARM GAS  /tmp/ccbt8LDA.s 			page 38


 1250 093e 1490     		str	r0, [sp, #80]
 1251 0940 ADF85410 		strh	r1, [sp, #84]	@ movhi
  61:Src/noteDetect.c ****     ssd1306_SetCursor(NOTEX, NOTEY);
 1252              		.loc 1 61 5 view .LVU156
 1253 0944 2246     		mov	r2, r4
 1254 0946 2B46     		mov	r3, r5
 1255 0948 B449     		ldr	r1, .L441+68
 1256 094a 0AA8     		add	r0, sp, #40
 1257 094c FFF7FEFF 		bl	sprintf
 1258              	.LVL108:
  62:Src/noteDetect.c ****     ssd1306_WriteString(note,Font_11x18,Black);
 1259              		.loc 1 62 5 view .LVU157
 1260 0950 2821     		movs	r1, #40
 1261 0952 0846     		mov	r0, r1
 1262 0954 FFF7FEFF 		bl	ssd1306_SetCursor
 1263              	.LVL109:
  63:Src/noteDetect.c ****     ssd1306_SetCursor(FREQX,FREQY);
 1264              		.loc 1 63 5 view .LVU158
 1265 0958 B14E     		ldr	r6, .L441+72
 1266              	.LVL110:
  63:Src/noteDetect.c ****     ssd1306_SetCursor(FREQX,FREQY);
 1267              		.loc 1 63 5 is_stmt 0 view .LVU159
 1268 095a 0023     		movs	r3, #0
 1269 095c 96E80600 		ldm	r6, {r1, r2}
 1270 0960 14A8     		add	r0, sp, #80
 1271 0962 FFF7FEFF 		bl	ssd1306_WriteString
 1272              	.LVL111:
  64:Src/noteDetect.c ****     ssd1306_WriteString(noteFreq,Font_11x18,Black);
 1273              		.loc 1 64 5 is_stmt 1 view .LVU160
 1274 0966 0F21     		movs	r1, #15
 1275 0968 2820     		movs	r0, #40
 1276 096a FFF7FEFF 		bl	ssd1306_SetCursor
 1277              	.LVL112:
  65:Src/noteDetect.c **** 
 1278              		.loc 1 65 5 view .LVU161
 1279 096e 0023     		movs	r3, #0
 1280 0970 96E80600 		ldm	r6, {r1, r2}
 1281 0974 0AA8     		add	r0, sp, #40
 1282 0976 FFF7FEFF 		bl	ssd1306_WriteString
 1283              	.LVL113:
  68:Src/noteDetect.c ****       ssd1306_SetCursor(NOTEX + INTUNE, NOTEY);
 1284              		.loc 1 68 5 view .LVU162
  68:Src/noteDetect.c ****       ssd1306_SetCursor(NOTEX + INTUNE, NOTEY);
 1285              		.loc 1 68 7 is_stmt 0 view .LVU163
 1286 097a 97A3     		adr	r3, .L441
 1287 097c D3E90023 		ldrd	r2, [r3]
 1288 0980 2046     		mov	r0, r4
 1289 0982 2946     		mov	r1, r5
 1290 0984 FFF7FEFF 		bl	__aeabi_dcmpge
 1291              	.LVL114:
 1292 0988 38B1     		cbz	r0, .L18
  68:Src/noteDetect.c ****       ssd1306_SetCursor(NOTEX + INTUNE, NOTEY);
 1293              		.loc 1 68 25 discriminator 1 view .LVU164
 1294 098a 95A3     		adr	r3, .L441+8
 1295 098c D3E90023 		ldrd	r2, [r3]
 1296 0990 2046     		mov	r0, r4
 1297 0992 2946     		mov	r1, r5
ARM GAS  /tmp/ccbt8LDA.s 			page 39


 1298 0994 FFF7FEFF 		bl	__aeabi_dcmple
 1299              	.LVL115:
 1300 0998 30B9     		cbnz	r0, .L402
 1301              	.L18:
  74:Src/noteDetect.c ****     HAL_Delay(500);
 1302              		.loc 1 74 5 is_stmt 1 view .LVU165
 1303 099a FFF7FEFF 		bl	ssd1306_UpdateScreen
 1304              	.LVL116:
  75:Src/noteDetect.c ****   }
 1305              		.loc 1 75 5 view .LVU166
 1306 099e 4FF4FA70 		mov	r0, #500
 1307 09a2 FFF7FEFF 		bl	HAL_Delay
 1308              	.LVL117:
 1309 09a6 C6E6     		b	.L1
 1310              	.L402:
  69:Src/noteDetect.c ****       ssd1306_WriteString(dot,Font_11x18,Black);
 1311              		.loc 1 69 7 view .LVU167
 1312 09a8 2821     		movs	r1, #40
 1313 09aa 4B20     		movs	r0, #75
 1314 09ac FFF7FEFF 		bl	ssd1306_SetCursor
 1315              	.LVL118:
  70:Src/noteDetect.c **** 
 1316              		.loc 1 70 7 view .LVU168
 1317 09b0 0023     		movs	r3, #0
 1318 09b2 D6E90012 		ldrd	r1, r2, [r6]
 1319 09b6 6846     		mov	r0, sp
 1320 09b8 FFF7FEFF 		bl	ssd1306_WriteString
 1321              	.LVL119:
 1322 09bc EDE7     		b	.L18
 1323              	.LVL120:
 1324              	.L367:
  81:Src/noteDetect.c ****     sprintf(noteFreq, "%.2f", frequency);
 1325              		.loc 1 81 5 view .LVU169
 1326 09be 994B     		ldr	r3, .L441+76
 1327 09c0 93E80300 		ldm	r3, {r0, r1}
 1328 09c4 1490     		str	r0, [sp, #80]
 1329 09c6 8DF85410 		strb	r1, [sp, #84]
  82:Src/noteDetect.c ****     ssd1306_SetCursor(NOTEX, NOTEY);
 1330              		.loc 1 82 5 view .LVU170
 1331 09ca 2246     		mov	r2, r4
 1332 09cc 2B46     		mov	r3, r5
 1333 09ce 9349     		ldr	r1, .L441+68
 1334 09d0 0AA8     		add	r0, sp, #40
 1335 09d2 FFF7FEFF 		bl	sprintf
 1336              	.LVL121:
  83:Src/noteDetect.c ****     ssd1306_WriteString(note,Font_11x18,Black);
 1337              		.loc 1 83 5 view .LVU171
 1338 09d6 2821     		movs	r1, #40
 1339 09d8 0846     		mov	r0, r1
 1340 09da FFF7FEFF 		bl	ssd1306_SetCursor
 1341              	.LVL122:
  84:Src/noteDetect.c ****     ssd1306_SetCursor(FREQX,FREQY);
 1342              		.loc 1 84 5 view .LVU172
 1343 09de 904E     		ldr	r6, .L441+72
 1344              	.LVL123:
  84:Src/noteDetect.c ****     ssd1306_SetCursor(FREQX,FREQY);
 1345              		.loc 1 84 5 is_stmt 0 view .LVU173
ARM GAS  /tmp/ccbt8LDA.s 			page 40


 1346 09e0 0023     		movs	r3, #0
 1347 09e2 96E80600 		ldm	r6, {r1, r2}
 1348 09e6 14A8     		add	r0, sp, #80
 1349 09e8 FFF7FEFF 		bl	ssd1306_WriteString
 1350              	.LVL124:
  85:Src/noteDetect.c ****     ssd1306_WriteString(noteFreq,Font_11x18,Black);
 1351              		.loc 1 85 5 is_stmt 1 view .LVU174
 1352 09ec 0F21     		movs	r1, #15
 1353 09ee 2820     		movs	r0, #40
 1354 09f0 FFF7FEFF 		bl	ssd1306_SetCursor
 1355              	.LVL125:
  86:Src/noteDetect.c **** 
 1356              		.loc 1 86 5 view .LVU175
 1357 09f4 0023     		movs	r3, #0
 1358 09f6 96E80600 		ldm	r6, {r1, r2}
 1359 09fa 0AA8     		add	r0, sp, #40
 1360 09fc FFF7FEFF 		bl	ssd1306_WriteString
 1361              	.LVL126:
  89:Src/noteDetect.c ****       ssd1306_SetCursor(NOTEX + INTUNE, NOTEY);
 1362              		.loc 1 89 5 view .LVU176
  89:Src/noteDetect.c ****       ssd1306_SetCursor(NOTEX + INTUNE, NOTEY);
 1363              		.loc 1 89 7 is_stmt 0 view .LVU177
 1364 0a00 75A3     		adr	r3, .L441
 1365 0a02 D3E90023 		ldrd	r2, [r3]
 1366 0a06 2046     		mov	r0, r4
 1367 0a08 2946     		mov	r1, r5
 1368 0a0a FFF7FEFF 		bl	__aeabi_dcmpge
 1369              	.LVL127:
 1370 0a0e 38B1     		cbz	r0, .L24
  89:Src/noteDetect.c ****       ssd1306_SetCursor(NOTEX + INTUNE, NOTEY);
 1371              		.loc 1 89 25 discriminator 1 view .LVU178
 1372 0a10 73A3     		adr	r3, .L441+8
 1373 0a12 D3E90023 		ldrd	r2, [r3]
 1374 0a16 2046     		mov	r0, r4
 1375 0a18 2946     		mov	r1, r5
 1376 0a1a FFF7FEFF 		bl	__aeabi_dcmple
 1377              	.LVL128:
 1378 0a1e 30B9     		cbnz	r0, .L403
 1379              	.L24:
  95:Src/noteDetect.c ****     HAL_Delay(500);
 1380              		.loc 1 95 5 is_stmt 1 view .LVU179
 1381 0a20 FFF7FEFF 		bl	ssd1306_UpdateScreen
 1382              	.LVL129:
  96:Src/noteDetect.c ****   }
 1383              		.loc 1 96 5 view .LVU180
 1384 0a24 4FF4FA70 		mov	r0, #500
 1385 0a28 FFF7FEFF 		bl	HAL_Delay
 1386              	.LVL130:
 1387 0a2c 83E6     		b	.L1
 1388              	.L403:
  90:Src/noteDetect.c ****       ssd1306_WriteString(dot,Font_11x18,Black);
 1389              		.loc 1 90 7 view .LVU181
 1390 0a2e 2821     		movs	r1, #40
 1391 0a30 4B20     		movs	r0, #75
 1392 0a32 FFF7FEFF 		bl	ssd1306_SetCursor
 1393              	.LVL131:
  91:Src/noteDetect.c **** 
ARM GAS  /tmp/ccbt8LDA.s 			page 41


 1394              		.loc 1 91 7 view .LVU182
 1395 0a36 0023     		movs	r3, #0
 1396 0a38 D6E90012 		ldrd	r1, r2, [r6]
 1397 0a3c 6846     		mov	r0, sp
 1398 0a3e FFF7FEFF 		bl	ssd1306_WriteString
 1399              	.LVL132:
 1400 0a42 EDE7     		b	.L24
 1401              	.LVL133:
 1402              	.L368:
 102:Src/noteDetect.c ****     sprintf(noteFreq, "%.2f", frequency);
 1403              		.loc 1 102 5 view .LVU183
 1404 0a44 784B     		ldr	r3, .L441+80
 1405 0a46 93E80300 		ldm	r3, {r0, r1}
 1406 0a4a 1490     		str	r0, [sp, #80]
 1407 0a4c ADF85410 		strh	r1, [sp, #84]	@ movhi
 103:Src/noteDetect.c ****     ssd1306_SetCursor(NOTEX, NOTEY);
 1408              		.loc 1 103 5 view .LVU184
 1409 0a50 2246     		mov	r2, r4
 1410 0a52 2B46     		mov	r3, r5
 1411 0a54 7149     		ldr	r1, .L441+68
 1412 0a56 0AA8     		add	r0, sp, #40
 1413 0a58 FFF7FEFF 		bl	sprintf
 1414              	.LVL134:
 104:Src/noteDetect.c ****     ssd1306_WriteString(note,Font_11x18,Black);
 1415              		.loc 1 104 5 view .LVU185
 1416 0a5c 2821     		movs	r1, #40
 1417 0a5e 0846     		mov	r0, r1
 1418 0a60 FFF7FEFF 		bl	ssd1306_SetCursor
 1419              	.LVL135:
 105:Src/noteDetect.c ****     ssd1306_SetCursor(FREQX,FREQY);
 1420              		.loc 1 105 5 view .LVU186
 1421 0a64 6E4E     		ldr	r6, .L441+72
 1422              	.LVL136:
 105:Src/noteDetect.c ****     ssd1306_SetCursor(FREQX,FREQY);
 1423              		.loc 1 105 5 is_stmt 0 view .LVU187
 1424 0a66 0023     		movs	r3, #0
 1425 0a68 96E80600 		ldm	r6, {r1, r2}
 1426 0a6c 14A8     		add	r0, sp, #80
 1427 0a6e FFF7FEFF 		bl	ssd1306_WriteString
 1428              	.LVL137:
 106:Src/noteDetect.c ****     ssd1306_WriteString(noteFreq,Font_11x18,Black);
 1429              		.loc 1 106 5 is_stmt 1 view .LVU188
 1430 0a72 0F21     		movs	r1, #15
 1431 0a74 2820     		movs	r0, #40
 1432 0a76 FFF7FEFF 		bl	ssd1306_SetCursor
 1433              	.LVL138:
 107:Src/noteDetect.c **** 
 1434              		.loc 1 107 5 view .LVU189
 1435 0a7a 0023     		movs	r3, #0
 1436 0a7c 96E80600 		ldm	r6, {r1, r2}
 1437 0a80 0AA8     		add	r0, sp, #40
 1438 0a82 FFF7FEFF 		bl	ssd1306_WriteString
 1439              	.LVL139:
 110:Src/noteDetect.c ****       ssd1306_SetCursor(NOTEX + INTUNE, NOTEY);
 1440              		.loc 1 110 5 view .LVU190
 110:Src/noteDetect.c ****       ssd1306_SetCursor(NOTEX + INTUNE, NOTEY);
 1441              		.loc 1 110 7 is_stmt 0 view .LVU191
ARM GAS  /tmp/ccbt8LDA.s 			page 42


 1442 0a86 58A3     		adr	r3, .L441+16
 1443 0a88 D3E90023 		ldrd	r2, [r3]
 1444 0a8c 2046     		mov	r0, r4
 1445 0a8e 2946     		mov	r1, r5
 1446 0a90 FFF7FEFF 		bl	__aeabi_dcmpge
 1447              	.LVL140:
 1448 0a94 38B1     		cbz	r0, .L30
 110:Src/noteDetect.c ****       ssd1306_SetCursor(NOTEX + INTUNE, NOTEY);
 1449              		.loc 1 110 26 discriminator 1 view .LVU192
 1450 0a96 56A3     		adr	r3, .L441+24
 1451 0a98 D3E90023 		ldrd	r2, [r3]
 1452 0a9c 2046     		mov	r0, r4
 1453 0a9e 2946     		mov	r1, r5
 1454 0aa0 FFF7FEFF 		bl	__aeabi_dcmple
 1455              	.LVL141:
 1456 0aa4 30B9     		cbnz	r0, .L404
 1457              	.L30:
 116:Src/noteDetect.c ****     HAL_Delay(500);
 1458              		.loc 1 116 5 is_stmt 1 view .LVU193
 1459 0aa6 FFF7FEFF 		bl	ssd1306_UpdateScreen
 1460              	.LVL142:
 117:Src/noteDetect.c ****   }
 1461              		.loc 1 117 5 view .LVU194
 1462 0aaa 4FF4FA70 		mov	r0, #500
 1463 0aae FFF7FEFF 		bl	HAL_Delay
 1464              	.LVL143:
 1465 0ab2 40E6     		b	.L1
 1466              	.L404:
 111:Src/noteDetect.c ****       ssd1306_WriteString(dot,Font_11x18,Black);
 1467              		.loc 1 111 7 view .LVU195
 1468 0ab4 2821     		movs	r1, #40
 1469 0ab6 4B20     		movs	r0, #75
 1470 0ab8 FFF7FEFF 		bl	ssd1306_SetCursor
 1471              	.LVL144:
 112:Src/noteDetect.c **** 
 1472              		.loc 1 112 7 view .LVU196
 1473 0abc 0023     		movs	r3, #0
 1474 0abe D6E90012 		ldrd	r1, r2, [r6]
 1475 0ac2 6846     		mov	r0, sp
 1476 0ac4 FFF7FEFF 		bl	ssd1306_WriteString
 1477              	.LVL145:
 1478 0ac8 EDE7     		b	.L30
 1479              	.LVL146:
 1480              	.L369:
 122:Src/noteDetect.c ****     sprintf(noteFreq, "%.2f", frequency);
 1481              		.loc 1 122 5 view .LVU197
 1482 0aca 584B     		ldr	r3, .L441+84
 1483 0acc 93E80300 		ldm	r3, {r0, r1}
 1484 0ad0 1490     		str	r0, [sp, #80]
 1485 0ad2 8DF85410 		strb	r1, [sp, #84]
 123:Src/noteDetect.c **** 
 1486              		.loc 1 123 5 view .LVU198
 1487 0ad6 2246     		mov	r2, r4
 1488 0ad8 2B46     		mov	r3, r5
 1489 0ada 5049     		ldr	r1, .L441+68
 1490 0adc 0AA8     		add	r0, sp, #40
 1491 0ade FFF7FEFF 		bl	sprintf
ARM GAS  /tmp/ccbt8LDA.s 			page 43


 1492              	.LVL147:
 125:Src/noteDetect.c ****     ssd1306_WriteString(note,Font_11x18,Black);
 1493              		.loc 1 125 5 view .LVU199
 1494 0ae2 2821     		movs	r1, #40
 1495 0ae4 0846     		mov	r0, r1
 1496 0ae6 FFF7FEFF 		bl	ssd1306_SetCursor
 1497              	.LVL148:
 126:Src/noteDetect.c ****     ssd1306_SetCursor(FREQX,FREQY);
 1498              		.loc 1 126 5 view .LVU200
 1499 0aea 4D4E     		ldr	r6, .L441+72
 1500              	.LVL149:
 126:Src/noteDetect.c ****     ssd1306_SetCursor(FREQX,FREQY);
 1501              		.loc 1 126 5 is_stmt 0 view .LVU201
 1502 0aec 0023     		movs	r3, #0
 1503 0aee 96E80600 		ldm	r6, {r1, r2}
 1504 0af2 14A8     		add	r0, sp, #80
 1505 0af4 FFF7FEFF 		bl	ssd1306_WriteString
 1506              	.LVL150:
 127:Src/noteDetect.c ****     ssd1306_WriteString(noteFreq,Font_11x18,Black);
 1507              		.loc 1 127 5 is_stmt 1 view .LVU202
 1508 0af8 0F21     		movs	r1, #15
 1509 0afa 2820     		movs	r0, #40
 1510 0afc FFF7FEFF 		bl	ssd1306_SetCursor
 1511              	.LVL151:
 128:Src/noteDetect.c **** 
 1512              		.loc 1 128 5 view .LVU203
 1513 0b00 0023     		movs	r3, #0
 1514 0b02 96E80600 		ldm	r6, {r1, r2}
 1515 0b06 0AA8     		add	r0, sp, #40
 1516 0b08 FFF7FEFF 		bl	ssd1306_WriteString
 1517              	.LVL152:
 131:Src/noteDetect.c ****       ssd1306_SetCursor(NOTEX + INTUNE, NOTEY);
 1518              		.loc 1 131 5 view .LVU204
 131:Src/noteDetect.c ****       ssd1306_SetCursor(NOTEX + INTUNE, NOTEY);
 1519              		.loc 1 131 7 is_stmt 0 view .LVU205
 1520 0b0c 3AA3     		adr	r3, .L441+32
 1521 0b0e D3E90023 		ldrd	r2, [r3]
 1522 0b12 2046     		mov	r0, r4
 1523 0b14 2946     		mov	r1, r5
 1524 0b16 FFF7FEFF 		bl	__aeabi_dcmpge
 1525              	.LVL153:
 1526 0b1a 38B1     		cbz	r0, .L36
 131:Src/noteDetect.c ****       ssd1306_SetCursor(NOTEX + INTUNE, NOTEY);
 1527              		.loc 1 131 26 discriminator 1 view .LVU206
 1528 0b1c 38A3     		adr	r3, .L441+40
 1529 0b1e D3E90023 		ldrd	r2, [r3]
 1530 0b22 2046     		mov	r0, r4
 1531 0b24 2946     		mov	r1, r5
 1532 0b26 FFF7FEFF 		bl	__aeabi_dcmple
 1533              	.LVL154:
 1534 0b2a 30B9     		cbnz	r0, .L405
 1535              	.L36:
 137:Src/noteDetect.c ****     HAL_Delay(500);
 1536              		.loc 1 137 5 is_stmt 1 view .LVU207
 1537 0b2c FFF7FEFF 		bl	ssd1306_UpdateScreen
 1538              	.LVL155:
 138:Src/noteDetect.c ****   }
ARM GAS  /tmp/ccbt8LDA.s 			page 44


 1539              		.loc 1 138 5 view .LVU208
 1540 0b30 4FF4FA70 		mov	r0, #500
 1541 0b34 FFF7FEFF 		bl	HAL_Delay
 1542              	.LVL156:
 1543 0b38 FDE5     		b	.L1
 1544              	.L405:
 132:Src/noteDetect.c ****       ssd1306_WriteString(dot,Font_11x18,Black);
 1545              		.loc 1 132 7 view .LVU209
 1546 0b3a 2821     		movs	r1, #40
 1547 0b3c 4B20     		movs	r0, #75
 1548 0b3e FFF7FEFF 		bl	ssd1306_SetCursor
 1549              	.LVL157:
 133:Src/noteDetect.c **** 
 1550              		.loc 1 133 7 view .LVU210
 1551 0b42 0023     		movs	r3, #0
 1552 0b44 D6E90012 		ldrd	r1, r2, [r6]
 1553 0b48 6846     		mov	r0, sp
 1554 0b4a FFF7FEFF 		bl	ssd1306_WriteString
 1555              	.LVL158:
 1556 0b4e EDE7     		b	.L36
 1557              	.LVL159:
 1558              	.L370:
 144:Src/noteDetect.c ****     sprintf(noteFreq, "%.2f", frequency);
 1559              		.loc 1 144 5 view .LVU211
 1560 0b50 374B     		ldr	r3, .L441+88
 1561 0b52 93E80300 		ldm	r3, {r0, r1}
 1562 0b56 1490     		str	r0, [sp, #80]
 1563 0b58 8DF85410 		strb	r1, [sp, #84]
 145:Src/noteDetect.c **** 
 1564              		.loc 1 145 5 view .LVU212
 1565 0b5c 2246     		mov	r2, r4
 1566 0b5e 2B46     		mov	r3, r5
 1567 0b60 2E49     		ldr	r1, .L441+68
 1568 0b62 0AA8     		add	r0, sp, #40
 1569 0b64 FFF7FEFF 		bl	sprintf
 1570              	.LVL160:
 147:Src/noteDetect.c ****     ssd1306_WriteString(note,Font_11x18,Black);
 1571              		.loc 1 147 5 view .LVU213
 1572 0b68 2821     		movs	r1, #40
 1573 0b6a 0846     		mov	r0, r1
 1574 0b6c FFF7FEFF 		bl	ssd1306_SetCursor
 1575              	.LVL161:
 148:Src/noteDetect.c ****     ssd1306_SetCursor(FREQX,FREQY);
 1576              		.loc 1 148 5 view .LVU214
 1577 0b70 2B4E     		ldr	r6, .L441+72
 1578              	.LVL162:
 148:Src/noteDetect.c ****     ssd1306_SetCursor(FREQX,FREQY);
 1579              		.loc 1 148 5 is_stmt 0 view .LVU215
 1580 0b72 0023     		movs	r3, #0
 1581 0b74 96E80600 		ldm	r6, {r1, r2}
 1582 0b78 14A8     		add	r0, sp, #80
 1583 0b7a FFF7FEFF 		bl	ssd1306_WriteString
 1584              	.LVL163:
 149:Src/noteDetect.c ****     ssd1306_WriteString(noteFreq,Font_11x18,Black);
 1585              		.loc 1 149 5 is_stmt 1 view .LVU216
 1586 0b7e 0F21     		movs	r1, #15
 1587 0b80 2820     		movs	r0, #40
ARM GAS  /tmp/ccbt8LDA.s 			page 45


 1588 0b82 FFF7FEFF 		bl	ssd1306_SetCursor
 1589              	.LVL164:
 150:Src/noteDetect.c **** 
 1590              		.loc 1 150 5 view .LVU217
 1591 0b86 0023     		movs	r3, #0
 1592 0b88 96E80600 		ldm	r6, {r1, r2}
 1593 0b8c 0AA8     		add	r0, sp, #40
 1594 0b8e FFF7FEFF 		bl	ssd1306_WriteString
 1595              	.LVL165:
 153:Src/noteDetect.c ****       ssd1306_SetCursor(NOTEX + INTUNE, NOTEY);
 1596              		.loc 1 153 5 view .LVU218
 153:Src/noteDetect.c ****       ssd1306_SetCursor(NOTEX + INTUNE, NOTEY);
 1597              		.loc 1 153 7 is_stmt 0 view .LVU219
 1598 0b92 1DA3     		adr	r3, .L441+48
 1599 0b94 D3E90023 		ldrd	r2, [r3]
 1600 0b98 2046     		mov	r0, r4
 1601 0b9a 2946     		mov	r1, r5
 1602 0b9c FFF7FEFF 		bl	__aeabi_dcmpge
 1603              	.LVL166:
 1604 0ba0 38B1     		cbz	r0, .L42
 153:Src/noteDetect.c ****       ssd1306_SetCursor(NOTEX + INTUNE, NOTEY);
 1605              		.loc 1 153 26 discriminator 1 view .LVU220
 1606 0ba2 1BA3     		adr	r3, .L441+56
 1607 0ba4 D3E90023 		ldrd	r2, [r3]
 1608 0ba8 2046     		mov	r0, r4
 1609 0baa 2946     		mov	r1, r5
 1610 0bac FFF7FEFF 		bl	__aeabi_dcmple
 1611              	.LVL167:
 1612 0bb0 30B9     		cbnz	r0, .L406
 1613              	.L42:
 159:Src/noteDetect.c ****     HAL_Delay(500);
 1614              		.loc 1 159 5 is_stmt 1 view .LVU221
 1615 0bb2 FFF7FEFF 		bl	ssd1306_UpdateScreen
 1616              	.LVL168:
 160:Src/noteDetect.c ****   }
 1617              		.loc 1 160 5 view .LVU222
 1618 0bb6 4FF4FA70 		mov	r0, #500
 1619 0bba FFF7FEFF 		bl	HAL_Delay
 1620              	.LVL169:
 1621 0bbe BAE5     		b	.L1
 1622              	.L406:
 154:Src/noteDetect.c ****       ssd1306_WriteString(dot,Font_11x18,Black);
 1623              		.loc 1 154 7 view .LVU223
 1624 0bc0 2821     		movs	r1, #40
 1625 0bc2 4B20     		movs	r0, #75
 1626 0bc4 FFF7FEFF 		bl	ssd1306_SetCursor
 1627              	.LVL170:
 155:Src/noteDetect.c **** 
 1628              		.loc 1 155 7 view .LVU224
 1629 0bc8 0023     		movs	r3, #0
 1630 0bca D6E90012 		ldrd	r1, r2, [r6]
 1631 0bce 6846     		mov	r0, sp
 1632 0bd0 FFF7FEFF 		bl	ssd1306_WriteString
 1633              	.LVL171:
 1634 0bd4 EDE7     		b	.L42
 1635              	.L442:
 1636 0bd6 00BF     		.align	3
ARM GAS  /tmp/ccbt8LDA.s 			page 46


 1637              	.L441:
 1638 0bd8 9A999999 		.word	2576980378
 1639 0bdc 99395140 		.word	1079064985
 1640 0be0 CDCCCCCC 		.word	3435973837
 1641 0be4 CC6C5140 		.word	1079078092
 1642 0be8 85EB51B8 		.word	3092376453
 1643 0bec 1E555340 		.word	1079203102
 1644 0bf0 1F85EB51 		.word	1374389535
 1645 0bf4 B88E5340 		.word	1079217848
 1646 0bf8 EC51B81E 		.word	515396076
 1647 0bfc 857B5440 		.word	1079278469
 1648 0c00 295C8FC2 		.word	3264175145
 1649 0c04 F5B85440 		.word	1079294197
 1650 0c08 A4703D0A 		.word	171798692
 1651 0c0c D7B35540 		.word	1079358423
 1652 0c10 A4703D0A 		.word	171798692
 1653 0c14 D7F35540 		.word	1079374807
 1654 0c18 20000000 		.word	.LC5
 1655 0c1c 18000000 		.word	.LC4
 1656 0c20 00000000 		.word	Font_11x18
 1657 0c24 28000000 		.word	.LC6
 1658 0c28 30000000 		.word	.LC7
 1659 0c2c 38000000 		.word	.LC8
 1660 0c30 40000000 		.word	.LC9
 1661              	.LVL172:
 1662              	.L371:
 165:Src/noteDetect.c ****     sprintf(noteFreq, "%.2f", frequency);
 1663              		.loc 1 165 5 view .LVU225
 1664 0c34 BC4B     		ldr	r3, .L443+80
 1665 0c36 93E80300 		ldm	r3, {r0, r1}
 1666 0c3a 1490     		str	r0, [sp, #80]
 1667 0c3c ADF85410 		strh	r1, [sp, #84]	@ movhi
 166:Src/noteDetect.c **** 
 1668              		.loc 1 166 5 view .LVU226
 1669 0c40 2246     		mov	r2, r4
 1670 0c42 2B46     		mov	r3, r5
 1671 0c44 B949     		ldr	r1, .L443+84
 1672 0c46 0AA8     		add	r0, sp, #40
 1673 0c48 FFF7FEFF 		bl	sprintf
 1674              	.LVL173:
 168:Src/noteDetect.c ****     ssd1306_WriteString(note,Font_11x18,Black);
 1675              		.loc 1 168 5 view .LVU227
 1676 0c4c 2821     		movs	r1, #40
 1677 0c4e 0846     		mov	r0, r1
 1678 0c50 FFF7FEFF 		bl	ssd1306_SetCursor
 1679              	.LVL174:
 169:Src/noteDetect.c ****     ssd1306_SetCursor(FREQX,FREQY);
 1680              		.loc 1 169 5 view .LVU228
 1681 0c54 B64E     		ldr	r6, .L443+88
 1682              	.LVL175:
 169:Src/noteDetect.c ****     ssd1306_SetCursor(FREQX,FREQY);
 1683              		.loc 1 169 5 is_stmt 0 view .LVU229
 1684 0c56 0023     		movs	r3, #0
 1685 0c58 96E80600 		ldm	r6, {r1, r2}
 1686 0c5c 14A8     		add	r0, sp, #80
 1687 0c5e FFF7FEFF 		bl	ssd1306_WriteString
 1688              	.LVL176:
ARM GAS  /tmp/ccbt8LDA.s 			page 47


 170:Src/noteDetect.c ****     ssd1306_WriteString(noteFreq,Font_11x18,Black);
 1689              		.loc 1 170 5 is_stmt 1 view .LVU230
 1690 0c62 0F21     		movs	r1, #15
 1691 0c64 2820     		movs	r0, #40
 1692 0c66 FFF7FEFF 		bl	ssd1306_SetCursor
 1693              	.LVL177:
 171:Src/noteDetect.c **** 
 1694              		.loc 1 171 5 view .LVU231
 1695 0c6a 0023     		movs	r3, #0
 1696 0c6c 96E80600 		ldm	r6, {r1, r2}
 1697 0c70 0AA8     		add	r0, sp, #40
 1698 0c72 FFF7FEFF 		bl	ssd1306_WriteString
 1699              	.LVL178:
 174:Src/noteDetect.c ****       ssd1306_SetCursor(NOTEX + INTUNE, NOTEY);
 1700              		.loc 1 174 5 view .LVU232
 174:Src/noteDetect.c ****       ssd1306_SetCursor(NOTEX + INTUNE, NOTEY);
 1701              		.loc 1 174 7 is_stmt 0 view .LVU233
 1702 0c76 98A3     		adr	r3, .L443
 1703 0c78 D3E90023 		ldrd	r2, [r3]
 1704 0c7c 2046     		mov	r0, r4
 1705 0c7e 2946     		mov	r1, r5
 1706 0c80 FFF7FEFF 		bl	__aeabi_dcmpge
 1707              	.LVL179:
 1708 0c84 38B1     		cbz	r0, .L48
 174:Src/noteDetect.c ****       ssd1306_SetCursor(NOTEX + INTUNE, NOTEY);
 1709              		.loc 1 174 26 discriminator 1 view .LVU234
 1710 0c86 96A3     		adr	r3, .L443+8
 1711 0c88 D3E90023 		ldrd	r2, [r3]
 1712 0c8c 2046     		mov	r0, r4
 1713 0c8e 2946     		mov	r1, r5
 1714 0c90 FFF7FEFF 		bl	__aeabi_dcmple
 1715              	.LVL180:
 1716 0c94 30B9     		cbnz	r0, .L407
 1717              	.L48:
 180:Src/noteDetect.c ****     HAL_Delay(500);
 1718              		.loc 1 180 5 is_stmt 1 view .LVU235
 1719 0c96 FFF7FEFF 		bl	ssd1306_UpdateScreen
 1720              	.LVL181:
 181:Src/noteDetect.c ****   }
 1721              		.loc 1 181 5 view .LVU236
 1722 0c9a 4FF4FA70 		mov	r0, #500
 1723 0c9e FFF7FEFF 		bl	HAL_Delay
 1724              	.LVL182:
 1725 0ca2 48E5     		b	.L1
 1726              	.L407:
 175:Src/noteDetect.c ****       ssd1306_WriteString(dot,Font_11x18,Black);
 1727              		.loc 1 175 7 view .LVU237
 1728 0ca4 2821     		movs	r1, #40
 1729 0ca6 4B20     		movs	r0, #75
 1730 0ca8 FFF7FEFF 		bl	ssd1306_SetCursor
 1731              	.LVL183:
 176:Src/noteDetect.c **** 
 1732              		.loc 1 176 7 view .LVU238
 1733 0cac 0023     		movs	r3, #0
 1734 0cae D6E90012 		ldrd	r1, r2, [r6]
 1735 0cb2 6846     		mov	r0, sp
 1736 0cb4 FFF7FEFF 		bl	ssd1306_WriteString
ARM GAS  /tmp/ccbt8LDA.s 			page 48


 1737              	.LVL184:
 1738 0cb8 EDE7     		b	.L48
 1739              	.LVL185:
 1740              	.L372:
 186:Src/noteDetect.c ****     sprintf(noteFreq, "%.2f", frequency);
 1741              		.loc 1 186 5 view .LVU239
 1742 0cba 9E4B     		ldr	r3, .L443+92
 1743 0cbc 93E80300 		ldm	r3, {r0, r1}
 1744 0cc0 1490     		str	r0, [sp, #80]
 1745 0cc2 8DF85410 		strb	r1, [sp, #84]
 187:Src/noteDetect.c **** 
 1746              		.loc 1 187 5 view .LVU240
 1747 0cc6 2246     		mov	r2, r4
 1748 0cc8 2B46     		mov	r3, r5
 1749 0cca 9849     		ldr	r1, .L443+84
 1750 0ccc 0AA8     		add	r0, sp, #40
 1751 0cce FFF7FEFF 		bl	sprintf
 1752              	.LVL186:
 189:Src/noteDetect.c ****     ssd1306_WriteString(note,Font_11x18,Black);
 1753              		.loc 1 189 5 view .LVU241
 1754 0cd2 2821     		movs	r1, #40
 1755 0cd4 0846     		mov	r0, r1
 1756 0cd6 FFF7FEFF 		bl	ssd1306_SetCursor
 1757              	.LVL187:
 190:Src/noteDetect.c ****     ssd1306_SetCursor(FREQX,FREQY);
 1758              		.loc 1 190 5 view .LVU242
 1759 0cda 954E     		ldr	r6, .L443+88
 1760              	.LVL188:
 190:Src/noteDetect.c ****     ssd1306_SetCursor(FREQX,FREQY);
 1761              		.loc 1 190 5 is_stmt 0 view .LVU243
 1762 0cdc 0023     		movs	r3, #0
 1763 0cde 96E80600 		ldm	r6, {r1, r2}
 1764 0ce2 14A8     		add	r0, sp, #80
 1765 0ce4 FFF7FEFF 		bl	ssd1306_WriteString
 1766              	.LVL189:
 191:Src/noteDetect.c ****     ssd1306_WriteString(noteFreq,Font_11x18,Black);
 1767              		.loc 1 191 5 is_stmt 1 view .LVU244
 1768 0ce8 0F21     		movs	r1, #15
 1769 0cea 2820     		movs	r0, #40
 1770 0cec FFF7FEFF 		bl	ssd1306_SetCursor
 1771              	.LVL190:
 192:Src/noteDetect.c **** 
 1772              		.loc 1 192 5 view .LVU245
 1773 0cf0 0023     		movs	r3, #0
 1774 0cf2 96E80600 		ldm	r6, {r1, r2}
 1775 0cf6 0AA8     		add	r0, sp, #40
 1776 0cf8 FFF7FEFF 		bl	ssd1306_WriteString
 1777              	.LVL191:
 195:Src/noteDetect.c ****       ssd1306_SetCursor(NOTEX + INTUNE, NOTEY);
 1778              		.loc 1 195 5 view .LVU246
 195:Src/noteDetect.c ****       ssd1306_SetCursor(NOTEX + INTUNE, NOTEY);
 1779              		.loc 1 195 7 is_stmt 0 view .LVU247
 1780 0cfc 7AA3     		adr	r3, .L443+16
 1781 0cfe D3E90023 		ldrd	r2, [r3]
 1782 0d02 2046     		mov	r0, r4
 1783 0d04 2946     		mov	r1, r5
 1784 0d06 FFF7FEFF 		bl	__aeabi_dcmpge
ARM GAS  /tmp/ccbt8LDA.s 			page 49


 1785              	.LVL192:
 1786 0d0a 38B1     		cbz	r0, .L54
 195:Src/noteDetect.c ****       ssd1306_SetCursor(NOTEX + INTUNE, NOTEY);
 1787              		.loc 1 195 27 discriminator 1 view .LVU248
 1788 0d0c 78A3     		adr	r3, .L443+24
 1789 0d0e D3E90023 		ldrd	r2, [r3]
 1790 0d12 2046     		mov	r0, r4
 1791 0d14 2946     		mov	r1, r5
 1792 0d16 FFF7FEFF 		bl	__aeabi_dcmple
 1793              	.LVL193:
 1794 0d1a 30B9     		cbnz	r0, .L408
 1795              	.L54:
 201:Src/noteDetect.c ****     HAL_Delay(500);
 1796              		.loc 1 201 5 is_stmt 1 view .LVU249
 1797 0d1c FFF7FEFF 		bl	ssd1306_UpdateScreen
 1798              	.LVL194:
 202:Src/noteDetect.c ****   }
 1799              		.loc 1 202 5 view .LVU250
 1800 0d20 4FF4FA70 		mov	r0, #500
 1801 0d24 FFF7FEFF 		bl	HAL_Delay
 1802              	.LVL195:
 1803 0d28 05E5     		b	.L1
 1804              	.L408:
 196:Src/noteDetect.c ****       ssd1306_WriteString(dot,Font_11x18,Black);
 1805              		.loc 1 196 7 view .LVU251
 1806 0d2a 2821     		movs	r1, #40
 1807 0d2c 4B20     		movs	r0, #75
 1808 0d2e FFF7FEFF 		bl	ssd1306_SetCursor
 1809              	.LVL196:
 197:Src/noteDetect.c **** 
 1810              		.loc 1 197 7 view .LVU252
 1811 0d32 0023     		movs	r3, #0
 1812 0d34 D6E90012 		ldrd	r1, r2, [r6]
 1813 0d38 6846     		mov	r0, sp
 1814 0d3a FFF7FEFF 		bl	ssd1306_WriteString
 1815              	.LVL197:
 1816 0d3e EDE7     		b	.L54
 1817              	.LVL198:
 1818              	.L373:
 207:Src/noteDetect.c ****     sprintf(noteFreq, "%.2f", frequency);
 1819              		.loc 1 207 5 view .LVU253
 1820 0d40 7D4B     		ldr	r3, .L443+96
 1821 0d42 93E80300 		ldm	r3, {r0, r1}
 1822 0d46 1490     		str	r0, [sp, #80]
 1823 0d48 ADF85410 		strh	r1, [sp, #84]	@ movhi
 208:Src/noteDetect.c **** 
 1824              		.loc 1 208 5 view .LVU254
 1825 0d4c 2246     		mov	r2, r4
 1826 0d4e 2B46     		mov	r3, r5
 1827 0d50 7649     		ldr	r1, .L443+84
 1828 0d52 0AA8     		add	r0, sp, #40
 1829 0d54 FFF7FEFF 		bl	sprintf
 1830              	.LVL199:
 210:Src/noteDetect.c ****     ssd1306_WriteString(note,Font_11x18,Black);
 1831              		.loc 1 210 5 view .LVU255
 1832 0d58 2821     		movs	r1, #40
 1833 0d5a 0846     		mov	r0, r1
ARM GAS  /tmp/ccbt8LDA.s 			page 50


 1834 0d5c FFF7FEFF 		bl	ssd1306_SetCursor
 1835              	.LVL200:
 211:Src/noteDetect.c ****     ssd1306_SetCursor(FREQX,FREQY);
 1836              		.loc 1 211 5 view .LVU256
 1837 0d60 734E     		ldr	r6, .L443+88
 1838              	.LVL201:
 211:Src/noteDetect.c ****     ssd1306_SetCursor(FREQX,FREQY);
 1839              		.loc 1 211 5 is_stmt 0 view .LVU257
 1840 0d62 0023     		movs	r3, #0
 1841 0d64 96E80600 		ldm	r6, {r1, r2}
 1842 0d68 14A8     		add	r0, sp, #80
 1843 0d6a FFF7FEFF 		bl	ssd1306_WriteString
 1844              	.LVL202:
 212:Src/noteDetect.c ****     ssd1306_WriteString(noteFreq,Font_11x18,Black);
 1845              		.loc 1 212 5 is_stmt 1 view .LVU258
 1846 0d6e 0F21     		movs	r1, #15
 1847 0d70 2820     		movs	r0, #40
 1848 0d72 FFF7FEFF 		bl	ssd1306_SetCursor
 1849              	.LVL203:
 213:Src/noteDetect.c **** 
 1850              		.loc 1 213 5 view .LVU259
 1851 0d76 0023     		movs	r3, #0
 1852 0d78 96E80600 		ldm	r6, {r1, r2}
 1853 0d7c 0AA8     		add	r0, sp, #40
 1854 0d7e FFF7FEFF 		bl	ssd1306_WriteString
 1855              	.LVL204:
 216:Src/noteDetect.c ****       ssd1306_SetCursor(NOTEX + INTUNE, NOTEY);
 1856              		.loc 1 216 5 view .LVU260
 216:Src/noteDetect.c ****       ssd1306_SetCursor(NOTEX + INTUNE, NOTEY);
 1857              		.loc 1 216 7 is_stmt 0 view .LVU261
 1858 0d82 5DA3     		adr	r3, .L443+32
 1859 0d84 D3E90023 		ldrd	r2, [r3]
 1860 0d88 2046     		mov	r0, r4
 1861 0d8a 2946     		mov	r1, r5
 1862 0d8c FFF7FEFF 		bl	__aeabi_dcmpge
 1863              	.LVL205:
 1864 0d90 38B1     		cbz	r0, .L60
 216:Src/noteDetect.c ****       ssd1306_SetCursor(NOTEX + INTUNE, NOTEY);
 1865              		.loc 1 216 27 discriminator 1 view .LVU262
 1866 0d92 5BA3     		adr	r3, .L443+40
 1867 0d94 D3E90023 		ldrd	r2, [r3]
 1868 0d98 2046     		mov	r0, r4
 1869 0d9a 2946     		mov	r1, r5
 1870 0d9c FFF7FEFF 		bl	__aeabi_dcmple
 1871              	.LVL206:
 1872 0da0 30B9     		cbnz	r0, .L409
 1873              	.L60:
 222:Src/noteDetect.c ****     HAL_Delay(500);
 1874              		.loc 1 222 5 is_stmt 1 view .LVU263
 1875 0da2 FFF7FEFF 		bl	ssd1306_UpdateScreen
 1876              	.LVL207:
 223:Src/noteDetect.c ****   }
 1877              		.loc 1 223 5 view .LVU264
 1878 0da6 4FF4FA70 		mov	r0, #500
 1879 0daa FFF7FEFF 		bl	HAL_Delay
 1880              	.LVL208:
 1881 0dae C2E4     		b	.L1
ARM GAS  /tmp/ccbt8LDA.s 			page 51


 1882              	.L409:
 217:Src/noteDetect.c ****       ssd1306_WriteString(dot,Font_11x18,Black);
 1883              		.loc 1 217 7 view .LVU265
 1884 0db0 2821     		movs	r1, #40
 1885 0db2 4B20     		movs	r0, #75
 1886 0db4 FFF7FEFF 		bl	ssd1306_SetCursor
 1887              	.LVL209:
 218:Src/noteDetect.c **** 
 1888              		.loc 1 218 7 view .LVU266
 1889 0db8 0023     		movs	r3, #0
 1890 0dba D6E90012 		ldrd	r1, r2, [r6]
 1891 0dbe 6846     		mov	r0, sp
 1892 0dc0 FFF7FEFF 		bl	ssd1306_WriteString
 1893              	.LVL210:
 1894 0dc4 EDE7     		b	.L60
 1895              	.LVL211:
 1896              	.L374:
 228:Src/noteDetect.c ****     sprintf(noteFreq, "%.2f", frequency);
 1897              		.loc 1 228 5 view .LVU267
 1898 0dc6 5D4B     		ldr	r3, .L443+100
 1899 0dc8 93E80300 		ldm	r3, {r0, r1}
 1900 0dcc 1490     		str	r0, [sp, #80]
 1901 0dce 8DF85410 		strb	r1, [sp, #84]
 229:Src/noteDetect.c **** 
 1902              		.loc 1 229 5 view .LVU268
 1903 0dd2 2246     		mov	r2, r4
 1904 0dd4 2B46     		mov	r3, r5
 1905 0dd6 5549     		ldr	r1, .L443+84
 1906 0dd8 0AA8     		add	r0, sp, #40
 1907 0dda FFF7FEFF 		bl	sprintf
 1908              	.LVL212:
 231:Src/noteDetect.c ****     ssd1306_WriteString(note,Font_11x18,Black);
 1909              		.loc 1 231 5 view .LVU269
 1910 0dde 2821     		movs	r1, #40
 1911 0de0 0846     		mov	r0, r1
 1912 0de2 FFF7FEFF 		bl	ssd1306_SetCursor
 1913              	.LVL213:
 232:Src/noteDetect.c ****     ssd1306_SetCursor(FREQX,FREQY);
 1914              		.loc 1 232 5 view .LVU270
 1915 0de6 524E     		ldr	r6, .L443+88
 1916              	.LVL214:
 232:Src/noteDetect.c ****     ssd1306_SetCursor(FREQX,FREQY);
 1917              		.loc 1 232 5 is_stmt 0 view .LVU271
 1918 0de8 0023     		movs	r3, #0
 1919 0dea 96E80600 		ldm	r6, {r1, r2}
 1920 0dee 14A8     		add	r0, sp, #80
 1921 0df0 FFF7FEFF 		bl	ssd1306_WriteString
 1922              	.LVL215:
 233:Src/noteDetect.c ****     ssd1306_WriteString(noteFreq,Font_11x18,Black);
 1923              		.loc 1 233 5 is_stmt 1 view .LVU272
 1924 0df4 0F21     		movs	r1, #15
 1925 0df6 2820     		movs	r0, #40
 1926 0df8 FFF7FEFF 		bl	ssd1306_SetCursor
 1927              	.LVL216:
 234:Src/noteDetect.c **** 
 1928              		.loc 1 234 5 view .LVU273
 1929 0dfc 0023     		movs	r3, #0
ARM GAS  /tmp/ccbt8LDA.s 			page 52


 1930 0dfe 96E80600 		ldm	r6, {r1, r2}
 1931 0e02 0AA8     		add	r0, sp, #40
 1932 0e04 FFF7FEFF 		bl	ssd1306_WriteString
 1933              	.LVL217:
 237:Src/noteDetect.c ****       ssd1306_SetCursor(NOTEX + INTUNE, NOTEY);
 1934              		.loc 1 237 5 view .LVU274
 237:Src/noteDetect.c ****       ssd1306_SetCursor(NOTEX + INTUNE, NOTEY);
 1935              		.loc 1 237 7 is_stmt 0 view .LVU275
 1936 0e08 3FA3     		adr	r3, .L443+48
 1937 0e0a D3E90023 		ldrd	r2, [r3]
 1938 0e0e 2046     		mov	r0, r4
 1939 0e10 2946     		mov	r1, r5
 1940 0e12 FFF7FEFF 		bl	__aeabi_dcmpge
 1941              	.LVL218:
 1942 0e16 38B1     		cbz	r0, .L66
 237:Src/noteDetect.c ****       ssd1306_SetCursor(NOTEX + INTUNE, NOTEY);
 1943              		.loc 1 237 27 discriminator 1 view .LVU276
 1944 0e18 3DA3     		adr	r3, .L443+56
 1945 0e1a D3E90023 		ldrd	r2, [r3]
 1946 0e1e 2046     		mov	r0, r4
 1947 0e20 2946     		mov	r1, r5
 1948 0e22 FFF7FEFF 		bl	__aeabi_dcmple
 1949              	.LVL219:
 1950 0e26 30B9     		cbnz	r0, .L410
 1951              	.L66:
 243:Src/noteDetect.c ****     HAL_Delay(500);
 1952              		.loc 1 243 5 is_stmt 1 view .LVU277
 1953 0e28 FFF7FEFF 		bl	ssd1306_UpdateScreen
 1954              	.LVL220:
 244:Src/noteDetect.c ****   }
 1955              		.loc 1 244 5 view .LVU278
 1956 0e2c 4FF4FA70 		mov	r0, #500
 1957 0e30 FFF7FEFF 		bl	HAL_Delay
 1958              	.LVL221:
 1959 0e34 7FE4     		b	.L1
 1960              	.L410:
 238:Src/noteDetect.c ****       ssd1306_WriteString(dot,Font_11x18,Black);
 1961              		.loc 1 238 7 view .LVU279
 1962 0e36 2821     		movs	r1, #40
 1963 0e38 4B20     		movs	r0, #75
 1964 0e3a FFF7FEFF 		bl	ssd1306_SetCursor
 1965              	.LVL222:
 239:Src/noteDetect.c **** 
 1966              		.loc 1 239 7 view .LVU280
 1967 0e3e 0023     		movs	r3, #0
 1968 0e40 D6E90012 		ldrd	r1, r2, [r6]
 1969 0e44 6846     		mov	r0, sp
 1970 0e46 FFF7FEFF 		bl	ssd1306_WriteString
 1971              	.LVL223:
 1972 0e4a EDE7     		b	.L66
 1973              	.LVL224:
 1974              	.L375:
 249:Src/noteDetect.c ****     sprintf(noteFreq, "%.2f", frequency);
 1975              		.loc 1 249 5 view .LVU281
 1976 0e4c 3C4B     		ldr	r3, .L443+104
 1977 0e4e 93E80300 		ldm	r3, {r0, r1}
 1978 0e52 1490     		str	r0, [sp, #80]
ARM GAS  /tmp/ccbt8LDA.s 			page 53


 1979 0e54 ADF85410 		strh	r1, [sp, #84]	@ movhi
 250:Src/noteDetect.c **** 
 1980              		.loc 1 250 5 view .LVU282
 1981 0e58 2246     		mov	r2, r4
 1982 0e5a 2B46     		mov	r3, r5
 1983 0e5c 3349     		ldr	r1, .L443+84
 1984 0e5e 0AA8     		add	r0, sp, #40
 1985 0e60 FFF7FEFF 		bl	sprintf
 1986              	.LVL225:
 252:Src/noteDetect.c ****     ssd1306_WriteString(note,Font_11x18,Black);
 1987              		.loc 1 252 5 view .LVU283
 1988 0e64 2821     		movs	r1, #40
 1989 0e66 0846     		mov	r0, r1
 1990 0e68 FFF7FEFF 		bl	ssd1306_SetCursor
 1991              	.LVL226:
 253:Src/noteDetect.c ****     ssd1306_SetCursor(FREQX,FREQY);
 1992              		.loc 1 253 5 view .LVU284
 1993 0e6c 304E     		ldr	r6, .L443+88
 1994              	.LVL227:
 253:Src/noteDetect.c ****     ssd1306_SetCursor(FREQX,FREQY);
 1995              		.loc 1 253 5 is_stmt 0 view .LVU285
 1996 0e6e 0023     		movs	r3, #0
 1997 0e70 96E80600 		ldm	r6, {r1, r2}
 1998 0e74 14A8     		add	r0, sp, #80
 1999 0e76 FFF7FEFF 		bl	ssd1306_WriteString
 2000              	.LVL228:
 254:Src/noteDetect.c ****     ssd1306_WriteString(noteFreq,Font_11x18,Black);
 2001              		.loc 1 254 5 is_stmt 1 view .LVU286
 2002 0e7a 0F21     		movs	r1, #15
 2003 0e7c 2820     		movs	r0, #40
 2004 0e7e FFF7FEFF 		bl	ssd1306_SetCursor
 2005              	.LVL229:
 255:Src/noteDetect.c **** 
 2006              		.loc 1 255 5 view .LVU287
 2007 0e82 0023     		movs	r3, #0
 2008 0e84 96E80600 		ldm	r6, {r1, r2}
 2009 0e88 0AA8     		add	r0, sp, #40
 2010 0e8a FFF7FEFF 		bl	ssd1306_WriteString
 2011              	.LVL230:
 258:Src/noteDetect.c ****       ssd1306_SetCursor(NOTEX + INTUNE, NOTEY);
 2012              		.loc 1 258 5 view .LVU288
 258:Src/noteDetect.c ****       ssd1306_SetCursor(NOTEX + INTUNE, NOTEY);
 2013              		.loc 1 258 7 is_stmt 0 view .LVU289
 2014 0e8e 22A3     		adr	r3, .L443+64
 2015 0e90 D3E90023 		ldrd	r2, [r3]
 2016 0e94 2046     		mov	r0, r4
 2017 0e96 2946     		mov	r1, r5
 2018 0e98 FFF7FEFF 		bl	__aeabi_dcmpge
 2019              	.LVL231:
 2020 0e9c 38B1     		cbz	r0, .L72
 258:Src/noteDetect.c ****       ssd1306_SetCursor(NOTEX + INTUNE, NOTEY);
 2021              		.loc 1 258 27 discriminator 1 view .LVU290
 2022 0e9e 20A3     		adr	r3, .L443+72
 2023 0ea0 D3E90023 		ldrd	r2, [r3]
 2024 0ea4 2046     		mov	r0, r4
 2025 0ea6 2946     		mov	r1, r5
 2026 0ea8 FFF7FEFF 		bl	__aeabi_dcmple
ARM GAS  /tmp/ccbt8LDA.s 			page 54


 2027              	.LVL232:
 2028 0eac 30B9     		cbnz	r0, .L411
 2029              	.L72:
 264:Src/noteDetect.c ****     HAL_Delay(500);
 2030              		.loc 1 264 5 is_stmt 1 view .LVU291
 2031 0eae FFF7FEFF 		bl	ssd1306_UpdateScreen
 2032              	.LVL233:
 265:Src/noteDetect.c ****   }
 2033              		.loc 1 265 5 view .LVU292
 2034 0eb2 4FF4FA70 		mov	r0, #500
 2035 0eb6 FFF7FEFF 		bl	HAL_Delay
 2036              	.LVL234:
 2037 0eba 3CE4     		b	.L1
 2038              	.L411:
 259:Src/noteDetect.c ****       ssd1306_WriteString(dot,Font_11x18,Black);
 2039              		.loc 1 259 7 view .LVU293
 2040 0ebc 2821     		movs	r1, #40
 2041 0ebe 4B20     		movs	r0, #75
 2042 0ec0 FFF7FEFF 		bl	ssd1306_SetCursor
 2043              	.LVL235:
 260:Src/noteDetect.c **** 
 2044              		.loc 1 260 7 view .LVU294
 2045 0ec4 0023     		movs	r3, #0
 2046 0ec6 D6E90012 		ldrd	r1, r2, [r6]
 2047 0eca 6846     		mov	r0, sp
 2048 0ecc FFF7FEFF 		bl	ssd1306_WriteString
 2049              	.LVL236:
 2050 0ed0 EDE7     		b	.L72
 2051              	.L444:
 2052 0ed2 00BFAFF3 		.align	3
 2052      0080
 2053              	.L443:
 2054 0ed8 3D0AD7A3 		.word	2748779069
 2055 0edc 70FD5640 		.word	1079442800
 2056 0ee0 52B81E85 		.word	2233382994
 2057 0ee4 EB415740 		.word	1079460331
 2058 0ee8 A4703D0A 		.word	171798692
 2059 0eec D75B5840 		.word	1079532503
 2060 0ef0 14AE47E1 		.word	3779571220
 2061 0ef4 7AA45840 		.word	1079551098
 2062 0ef8 1F85EB51 		.word	1374389535
 2063 0efc B8CE5940 		.word	1079627448
 2064 0f00 EC51B81E 		.word	515396076
 2065 0f04 851B5A40 		.word	1079647109
 2066 0f08 D7A3703D 		.word	1030792151
 2067 0f0c 0A575B40 		.word	1079727882
 2068 0f10 295C8FC2 		.word	3264175145
 2069 0f14 F5A85B40 		.word	1079748853
 2070 0f18 66666666 		.word	1717986918
 2071 0f1c 66F65C40 		.word	1079834214
 2072 0f20 5C8FC2F5 		.word	4123168604
 2073 0f24 284C5D40 		.word	1079856168
 2074 0f28 48000000 		.word	.LC10
 2075 0f2c 18000000 		.word	.LC4
 2076 0f30 00000000 		.word	Font_11x18
 2077 0f34 50000000 		.word	.LC11
 2078 0f38 58000000 		.word	.LC12
ARM GAS  /tmp/ccbt8LDA.s 			page 55


 2079 0f3c 60000000 		.word	.LC13
 2080 0f40 68000000 		.word	.LC14
 2081              	.LVL237:
 2082              	.L376:
 271:Src/noteDetect.c ****     sprintf(noteFreq, "%.2f", frequency);
 2083              		.loc 1 271 5 view .LVU295
 2084 0f44 BE4B     		ldr	r3, .L445+80
 2085 0f46 93E80300 		ldm	r3, {r0, r1}
 2086 0f4a 1490     		str	r0, [sp, #80]
 2087 0f4c 8DF85410 		strb	r1, [sp, #84]
 272:Src/noteDetect.c **** 
 2088              		.loc 1 272 5 view .LVU296
 2089 0f50 2246     		mov	r2, r4
 2090 0f52 2B46     		mov	r3, r5
 2091 0f54 BB49     		ldr	r1, .L445+84
 2092 0f56 0AA8     		add	r0, sp, #40
 2093 0f58 FFF7FEFF 		bl	sprintf
 2094              	.LVL238:
 274:Src/noteDetect.c ****     ssd1306_WriteString(note,Font_11x18,Black);
 2095              		.loc 1 274 5 view .LVU297
 2096 0f5c 2821     		movs	r1, #40
 2097 0f5e 0846     		mov	r0, r1
 2098 0f60 FFF7FEFF 		bl	ssd1306_SetCursor
 2099              	.LVL239:
 275:Src/noteDetect.c ****     ssd1306_SetCursor(FREQX,FREQY);
 2100              		.loc 1 275 5 view .LVU298
 2101 0f64 B84E     		ldr	r6, .L445+88
 2102              	.LVL240:
 275:Src/noteDetect.c ****     ssd1306_SetCursor(FREQX,FREQY);
 2103              		.loc 1 275 5 is_stmt 0 view .LVU299
 2104 0f66 0023     		movs	r3, #0
 2105 0f68 96E80600 		ldm	r6, {r1, r2}
 2106 0f6c 14A8     		add	r0, sp, #80
 2107 0f6e FFF7FEFF 		bl	ssd1306_WriteString
 2108              	.LVL241:
 276:Src/noteDetect.c ****     ssd1306_WriteString(noteFreq,Font_11x18,Black);
 2109              		.loc 1 276 5 is_stmt 1 view .LVU300
 2110 0f72 0F21     		movs	r1, #15
 2111 0f74 2820     		movs	r0, #40
 2112 0f76 FFF7FEFF 		bl	ssd1306_SetCursor
 2113              	.LVL242:
 277:Src/noteDetect.c **** 
 2114              		.loc 1 277 5 view .LVU301
 2115 0f7a 0023     		movs	r3, #0
 2116 0f7c 96E80600 		ldm	r6, {r1, r2}
 2117 0f80 0AA8     		add	r0, sp, #40
 2118 0f82 FFF7FEFF 		bl	ssd1306_WriteString
 2119              	.LVL243:
 280:Src/noteDetect.c ****       ssd1306_SetCursor(NOTEX + INTUNE, NOTEY);
 2120              		.loc 1 280 5 view .LVU302
 280:Src/noteDetect.c ****       ssd1306_SetCursor(NOTEX + INTUNE, NOTEY);
 2121              		.loc 1 280 7 is_stmt 0 view .LVU303
 2122 0f86 9AA3     		adr	r3, .L445
 2123 0f88 D3E90023 		ldrd	r2, [r3]
 2124 0f8c 2046     		mov	r0, r4
 2125 0f8e 2946     		mov	r1, r5
 2126 0f90 FFF7FEFF 		bl	__aeabi_dcmpge
ARM GAS  /tmp/ccbt8LDA.s 			page 56


 2127              	.LVL244:
 2128 0f94 38B1     		cbz	r0, .L78
 280:Src/noteDetect.c ****       ssd1306_SetCursor(NOTEX + INTUNE, NOTEY);
 2129              		.loc 1 280 27 discriminator 1 view .LVU304
 2130 0f96 98A3     		adr	r3, .L445+8
 2131 0f98 D3E90023 		ldrd	r2, [r3]
 2132 0f9c 2046     		mov	r0, r4
 2133 0f9e 2946     		mov	r1, r5
 2134 0fa0 FFF7FEFF 		bl	__aeabi_dcmple
 2135              	.LVL245:
 2136 0fa4 38B9     		cbnz	r0, .L412
 2137              	.L78:
 286:Src/noteDetect.c ****     HAL_Delay(500);
 2138              		.loc 1 286 5 is_stmt 1 view .LVU305
 2139 0fa6 FFF7FEFF 		bl	ssd1306_UpdateScreen
 2140              	.LVL246:
 287:Src/noteDetect.c ****   }
 2141              		.loc 1 287 5 view .LVU306
 2142 0faa 4FF4FA70 		mov	r0, #500
 2143 0fae FFF7FEFF 		bl	HAL_Delay
 2144              	.LVL247:
 2145 0fb2 FFF7C0BB 		b	.L1
 2146              	.L412:
 281:Src/noteDetect.c ****       ssd1306_WriteString(dot,Font_11x18,Black);
 2147              		.loc 1 281 7 view .LVU307
 2148 0fb6 2821     		movs	r1, #40
 2149 0fb8 4B20     		movs	r0, #75
 2150 0fba FFF7FEFF 		bl	ssd1306_SetCursor
 2151              	.LVL248:
 282:Src/noteDetect.c **** 
 2152              		.loc 1 282 7 view .LVU308
 2153 0fbe 0023     		movs	r3, #0
 2154 0fc0 D6E90012 		ldrd	r1, r2, [r6]
 2155 0fc4 6846     		mov	r0, sp
 2156 0fc6 FFF7FEFF 		bl	ssd1306_WriteString
 2157              	.LVL249:
 2158 0fca ECE7     		b	.L78
 2159              	.LVL250:
 2160              	.L377:
 292:Src/noteDetect.c ****     sprintf(noteFreq, "%.2f", frequency);
 2161              		.loc 1 292 5 view .LVU309
 2162 0fcc 9F4B     		ldr	r3, .L445+92
 2163 0fce 93E80300 		ldm	r3, {r0, r1}
 2164 0fd2 1490     		str	r0, [sp, #80]
 2165 0fd4 8DF85410 		strb	r1, [sp, #84]
 293:Src/noteDetect.c **** 
 2166              		.loc 1 293 5 view .LVU310
 2167 0fd8 2246     		mov	r2, r4
 2168 0fda 2B46     		mov	r3, r5
 2169 0fdc 9949     		ldr	r1, .L445+84
 2170 0fde 0AA8     		add	r0, sp, #40
 2171 0fe0 FFF7FEFF 		bl	sprintf
 2172              	.LVL251:
 295:Src/noteDetect.c ****     ssd1306_WriteString(note,Font_11x18,Black);
 2173              		.loc 1 295 5 view .LVU311
 2174 0fe4 2821     		movs	r1, #40
 2175 0fe6 0846     		mov	r0, r1
ARM GAS  /tmp/ccbt8LDA.s 			page 57


 2176 0fe8 FFF7FEFF 		bl	ssd1306_SetCursor
 2177              	.LVL252:
 296:Src/noteDetect.c ****     ssd1306_SetCursor(FREQX,FREQY);
 2178              		.loc 1 296 5 view .LVU312
 2179 0fec 964E     		ldr	r6, .L445+88
 2180              	.LVL253:
 296:Src/noteDetect.c ****     ssd1306_SetCursor(FREQX,FREQY);
 2181              		.loc 1 296 5 is_stmt 0 view .LVU313
 2182 0fee 0023     		movs	r3, #0
 2183 0ff0 96E80600 		ldm	r6, {r1, r2}
 2184 0ff4 14A8     		add	r0, sp, #80
 2185 0ff6 FFF7FEFF 		bl	ssd1306_WriteString
 2186              	.LVL254:
 297:Src/noteDetect.c ****     ssd1306_WriteString(noteFreq,Font_11x18,Black);
 2187              		.loc 1 297 5 is_stmt 1 view .LVU314
 2188 0ffa 0F21     		movs	r1, #15
 2189 0ffc 2820     		movs	r0, #40
 2190 0ffe FFF7FEFF 		bl	ssd1306_SetCursor
 2191              	.LVL255:
 298:Src/noteDetect.c **** 
 2192              		.loc 1 298 5 view .LVU315
 2193 1002 0023     		movs	r3, #0
 2194 1004 96E80600 		ldm	r6, {r1, r2}
 2195 1008 0AA8     		add	r0, sp, #40
 2196 100a FFF7FEFF 		bl	ssd1306_WriteString
 2197              	.LVL256:
 301:Src/noteDetect.c ****       ssd1306_SetCursor(NOTEX + INTUNE, NOTEY);
 2198              		.loc 1 301 5 view .LVU316
 301:Src/noteDetect.c ****       ssd1306_SetCursor(NOTEX + INTUNE, NOTEY);
 2199              		.loc 1 301 7 is_stmt 0 view .LVU317
 2200 100e 7CA3     		adr	r3, .L445+16
 2201 1010 D3E90023 		ldrd	r2, [r3]
 2202 1014 2046     		mov	r0, r4
 2203 1016 2946     		mov	r1, r5
 2204 1018 FFF7FEFF 		bl	__aeabi_dcmpge
 2205              	.LVL257:
 2206 101c 38B1     		cbz	r0, .L84
 301:Src/noteDetect.c ****       ssd1306_SetCursor(NOTEX + INTUNE, NOTEY);
 2207              		.loc 1 301 27 discriminator 1 view .LVU318
 2208 101e 7AA3     		adr	r3, .L445+24
 2209 1020 D3E90023 		ldrd	r2, [r3]
 2210 1024 2046     		mov	r0, r4
 2211 1026 2946     		mov	r1, r5
 2212 1028 FFF7FEFF 		bl	__aeabi_dcmple
 2213              	.LVL258:
 2214 102c 38B9     		cbnz	r0, .L413
 2215              	.L84:
 307:Src/noteDetect.c ****     HAL_Delay(500);
 2216              		.loc 1 307 5 is_stmt 1 view .LVU319
 2217 102e FFF7FEFF 		bl	ssd1306_UpdateScreen
 2218              	.LVL259:
 308:Src/noteDetect.c ****   }
 2219              		.loc 1 308 5 view .LVU320
 2220 1032 4FF4FA70 		mov	r0, #500
 2221 1036 FFF7FEFF 		bl	HAL_Delay
 2222              	.LVL260:
 2223 103a FFF77CBB 		b	.L1
ARM GAS  /tmp/ccbt8LDA.s 			page 58


 2224              	.L413:
 302:Src/noteDetect.c ****       ssd1306_WriteString(dot,Font_11x18,Black);
 2225              		.loc 1 302 7 view .LVU321
 2226 103e 2821     		movs	r1, #40
 2227 1040 4B20     		movs	r0, #75
 2228 1042 FFF7FEFF 		bl	ssd1306_SetCursor
 2229              	.LVL261:
 303:Src/noteDetect.c **** 
 2230              		.loc 1 303 7 view .LVU322
 2231 1046 0023     		movs	r3, #0
 2232 1048 D6E90012 		ldrd	r1, r2, [r6]
 2233 104c 6846     		mov	r0, sp
 2234 104e FFF7FEFF 		bl	ssd1306_WriteString
 2235              	.LVL262:
 2236 1052 ECE7     		b	.L84
 2237              	.LVL263:
 2238              	.L378:
 313:Src/noteDetect.c ****     sprintf(noteFreq, "%.2f", frequency);
 2239              		.loc 1 313 5 view .LVU323
 2240 1054 7E4B     		ldr	r3, .L445+96
 2241 1056 93E80300 		ldm	r3, {r0, r1}
 2242 105a 1490     		str	r0, [sp, #80]
 2243 105c ADF85410 		strh	r1, [sp, #84]	@ movhi
 314:Src/noteDetect.c **** 
 2244              		.loc 1 314 5 view .LVU324
 2245 1060 2246     		mov	r2, r4
 2246 1062 2B46     		mov	r3, r5
 2247 1064 7749     		ldr	r1, .L445+84
 2248 1066 0AA8     		add	r0, sp, #40
 2249 1068 FFF7FEFF 		bl	sprintf
 2250              	.LVL264:
 316:Src/noteDetect.c ****     ssd1306_WriteString(note,Font_11x18,Black);
 2251              		.loc 1 316 5 view .LVU325
 2252 106c 2821     		movs	r1, #40
 2253 106e 0846     		mov	r0, r1
 2254 1070 FFF7FEFF 		bl	ssd1306_SetCursor
 2255              	.LVL265:
 317:Src/noteDetect.c ****     ssd1306_SetCursor(FREQX,FREQY);
 2256              		.loc 1 317 5 view .LVU326
 2257 1074 744E     		ldr	r6, .L445+88
 2258              	.LVL266:
 317:Src/noteDetect.c ****     ssd1306_SetCursor(FREQX,FREQY);
 2259              		.loc 1 317 5 is_stmt 0 view .LVU327
 2260 1076 0023     		movs	r3, #0
 2261 1078 96E80600 		ldm	r6, {r1, r2}
 2262 107c 14A8     		add	r0, sp, #80
 2263 107e FFF7FEFF 		bl	ssd1306_WriteString
 2264              	.LVL267:
 318:Src/noteDetect.c ****     ssd1306_WriteString(noteFreq,Font_11x18,Black);
 2265              		.loc 1 318 5 is_stmt 1 view .LVU328
 2266 1082 0F21     		movs	r1, #15
 2267 1084 2820     		movs	r0, #40
 2268 1086 FFF7FEFF 		bl	ssd1306_SetCursor
 2269              	.LVL268:
 319:Src/noteDetect.c **** 
 2270              		.loc 1 319 5 view .LVU329
 2271 108a 0023     		movs	r3, #0
ARM GAS  /tmp/ccbt8LDA.s 			page 59


 2272 108c 96E80600 		ldm	r6, {r1, r2}
 2273 1090 0AA8     		add	r0, sp, #40
 2274 1092 FFF7FEFF 		bl	ssd1306_WriteString
 2275              	.LVL269:
 322:Src/noteDetect.c ****       ssd1306_SetCursor(NOTEX + INTUNE, NOTEY);
 2276              		.loc 1 322 5 view .LVU330
 322:Src/noteDetect.c ****       ssd1306_SetCursor(NOTEX + INTUNE, NOTEY);
 2277              		.loc 1 322 7 is_stmt 0 view .LVU331
 2278 1096 5EA3     		adr	r3, .L445+32
 2279 1098 D3E90023 		ldrd	r2, [r3]
 2280 109c 2046     		mov	r0, r4
 2281 109e 2946     		mov	r1, r5
 2282 10a0 FFF7FEFF 		bl	__aeabi_dcmpge
 2283              	.LVL270:
 2284 10a4 38B1     		cbz	r0, .L90
 322:Src/noteDetect.c ****       ssd1306_SetCursor(NOTEX + INTUNE, NOTEY);
 2285              		.loc 1 322 27 discriminator 1 view .LVU332
 2286 10a6 5CA3     		adr	r3, .L445+40
 2287 10a8 D3E90023 		ldrd	r2, [r3]
 2288 10ac 2046     		mov	r0, r4
 2289 10ae 2946     		mov	r1, r5
 2290 10b0 FFF7FEFF 		bl	__aeabi_dcmple
 2291              	.LVL271:
 2292 10b4 38B9     		cbnz	r0, .L414
 2293              	.L90:
 328:Src/noteDetect.c ****     HAL_Delay(500);
 2294              		.loc 1 328 5 is_stmt 1 view .LVU333
 2295 10b6 FFF7FEFF 		bl	ssd1306_UpdateScreen
 2296              	.LVL272:
 329:Src/noteDetect.c ****   }
 2297              		.loc 1 329 5 view .LVU334
 2298 10ba 4FF4FA70 		mov	r0, #500
 2299 10be FFF7FEFF 		bl	HAL_Delay
 2300              	.LVL273:
 2301 10c2 FFF738BB 		b	.L1
 2302              	.L414:
 323:Src/noteDetect.c ****       ssd1306_WriteString(dot,Font_11x18,Black);
 2303              		.loc 1 323 7 view .LVU335
 2304 10c6 2821     		movs	r1, #40
 2305 10c8 4B20     		movs	r0, #75
 2306 10ca FFF7FEFF 		bl	ssd1306_SetCursor
 2307              	.LVL274:
 324:Src/noteDetect.c **** 
 2308              		.loc 1 324 7 view .LVU336
 2309 10ce 0023     		movs	r3, #0
 2310 10d0 D6E90012 		ldrd	r1, r2, [r6]
 2311 10d4 6846     		mov	r0, sp
 2312 10d6 FFF7FEFF 		bl	ssd1306_WriteString
 2313              	.LVL275:
 2314 10da ECE7     		b	.L90
 2315              	.LVL276:
 2316              	.L379:
 334:Src/noteDetect.c ****     sprintf(noteFreq, "%.2f", frequency);
 2317              		.loc 1 334 5 view .LVU337
 2318 10dc 5D4B     		ldr	r3, .L445+100
 2319 10de 93E80300 		ldm	r3, {r0, r1}
 2320 10e2 1490     		str	r0, [sp, #80]
ARM GAS  /tmp/ccbt8LDA.s 			page 60


 2321 10e4 8DF85410 		strb	r1, [sp, #84]
 335:Src/noteDetect.c **** 
 2322              		.loc 1 335 5 view .LVU338
 2323 10e8 2246     		mov	r2, r4
 2324 10ea 2B46     		mov	r3, r5
 2325 10ec 5549     		ldr	r1, .L445+84
 2326 10ee 0AA8     		add	r0, sp, #40
 2327 10f0 FFF7FEFF 		bl	sprintf
 2328              	.LVL277:
 337:Src/noteDetect.c ****     ssd1306_WriteString(note,Font_11x18,Black);
 2329              		.loc 1 337 5 view .LVU339
 2330 10f4 2821     		movs	r1, #40
 2331 10f6 0846     		mov	r0, r1
 2332 10f8 FFF7FEFF 		bl	ssd1306_SetCursor
 2333              	.LVL278:
 338:Src/noteDetect.c ****     ssd1306_SetCursor(FREQX,FREQY);
 2334              		.loc 1 338 5 view .LVU340
 2335 10fc 524E     		ldr	r6, .L445+88
 2336              	.LVL279:
 338:Src/noteDetect.c ****     ssd1306_SetCursor(FREQX,FREQY);
 2337              		.loc 1 338 5 is_stmt 0 view .LVU341
 2338 10fe 0023     		movs	r3, #0
 2339 1100 96E80600 		ldm	r6, {r1, r2}
 2340 1104 14A8     		add	r0, sp, #80
 2341 1106 FFF7FEFF 		bl	ssd1306_WriteString
 2342              	.LVL280:
 339:Src/noteDetect.c ****     ssd1306_WriteString(noteFreq,Font_11x18,Black);
 2343              		.loc 1 339 5 is_stmt 1 view .LVU342
 2344 110a 0F21     		movs	r1, #15
 2345 110c 2820     		movs	r0, #40
 2346 110e FFF7FEFF 		bl	ssd1306_SetCursor
 2347              	.LVL281:
 340:Src/noteDetect.c **** 
 2348              		.loc 1 340 5 view .LVU343
 2349 1112 0023     		movs	r3, #0
 2350 1114 96E80600 		ldm	r6, {r1, r2}
 2351 1118 0AA8     		add	r0, sp, #40
 2352 111a FFF7FEFF 		bl	ssd1306_WriteString
 2353              	.LVL282:
 343:Src/noteDetect.c ****       ssd1306_SetCursor(NOTEX + INTUNE, NOTEY);
 2354              		.loc 1 343 5 view .LVU344
 343:Src/noteDetect.c ****       ssd1306_SetCursor(NOTEX + INTUNE, NOTEY);
 2355              		.loc 1 343 7 is_stmt 0 view .LVU345
 2356 111e 40A3     		adr	r3, .L445+48
 2357 1120 D3E90023 		ldrd	r2, [r3]
 2358 1124 2046     		mov	r0, r4
 2359 1126 2946     		mov	r1, r5
 2360 1128 FFF7FEFF 		bl	__aeabi_dcmpge
 2361              	.LVL283:
 2362 112c 38B1     		cbz	r0, .L96
 343:Src/noteDetect.c ****       ssd1306_SetCursor(NOTEX + INTUNE, NOTEY);
 2363              		.loc 1 343 27 discriminator 1 view .LVU346
 2364 112e 3EA3     		adr	r3, .L445+56
 2365 1130 D3E90023 		ldrd	r2, [r3]
 2366 1134 2046     		mov	r0, r4
 2367 1136 2946     		mov	r1, r5
 2368 1138 FFF7FEFF 		bl	__aeabi_dcmple
ARM GAS  /tmp/ccbt8LDA.s 			page 61


 2369              	.LVL284:
 2370 113c 38B9     		cbnz	r0, .L415
 2371              	.L96:
 351:Src/noteDetect.c ****     HAL_Delay(500);
 2372              		.loc 1 351 5 is_stmt 1 view .LVU347
 2373 113e FFF7FEFF 		bl	ssd1306_UpdateScreen
 2374              	.LVL285:
 352:Src/noteDetect.c ****   }
 2375              		.loc 1 352 5 view .LVU348
 2376 1142 4FF4FA70 		mov	r0, #500
 2377 1146 FFF7FEFF 		bl	HAL_Delay
 2378              	.LVL286:
 2379 114a FFF7F4BA 		b	.L1
 2380              	.L415:
 344:Src/noteDetect.c ****       ssd1306_WriteString(dot,Font_11x18,Black);
 2381              		.loc 1 344 7 view .LVU349
 2382 114e 2821     		movs	r1, #40
 2383 1150 4B20     		movs	r0, #75
 2384 1152 FFF7FEFF 		bl	ssd1306_SetCursor
 2385              	.LVL287:
 345:Src/noteDetect.c **** 
 2386              		.loc 1 345 7 view .LVU350
 2387 1156 0023     		movs	r3, #0
 2388 1158 D6E90012 		ldrd	r1, r2, [r6]
 2389 115c 6846     		mov	r0, sp
 2390 115e FFF7FEFF 		bl	ssd1306_WriteString
 2391              	.LVL288:
 2392 1162 ECE7     		b	.L96
 2393              	.LVL289:
 2394              	.L380:
 357:Src/noteDetect.c ****     sprintf(noteFreq, "%.2f", frequency);
 2395              		.loc 1 357 5 view .LVU351
 2396 1164 3C4B     		ldr	r3, .L445+104
 2397 1166 93E80300 		ldm	r3, {r0, r1}
 2398 116a 1490     		str	r0, [sp, #80]
 2399 116c ADF85410 		strh	r1, [sp, #84]	@ movhi
 358:Src/noteDetect.c **** 
 2400              		.loc 1 358 5 view .LVU352
 2401 1170 2246     		mov	r2, r4
 2402 1172 2B46     		mov	r3, r5
 2403 1174 3349     		ldr	r1, .L445+84
 2404 1176 0AA8     		add	r0, sp, #40
 2405 1178 FFF7FEFF 		bl	sprintf
 2406              	.LVL290:
 360:Src/noteDetect.c ****     ssd1306_WriteString(note,Font_11x18,Black);
 2407              		.loc 1 360 5 view .LVU353
 2408 117c 2821     		movs	r1, #40
 2409 117e 0846     		mov	r0, r1
 2410 1180 FFF7FEFF 		bl	ssd1306_SetCursor
 2411              	.LVL291:
 361:Src/noteDetect.c ****     ssd1306_SetCursor(FREQX,FREQY);
 2412              		.loc 1 361 5 view .LVU354
 2413 1184 304E     		ldr	r6, .L445+88
 2414              	.LVL292:
 361:Src/noteDetect.c ****     ssd1306_SetCursor(FREQX,FREQY);
 2415              		.loc 1 361 5 is_stmt 0 view .LVU355
 2416 1186 0023     		movs	r3, #0
ARM GAS  /tmp/ccbt8LDA.s 			page 62


 2417 1188 96E80600 		ldm	r6, {r1, r2}
 2418 118c 14A8     		add	r0, sp, #80
 2419 118e FFF7FEFF 		bl	ssd1306_WriteString
 2420              	.LVL293:
 362:Src/noteDetect.c ****     ssd1306_WriteString(noteFreq,Font_11x18,Black);
 2421              		.loc 1 362 5 is_stmt 1 view .LVU356
 2422 1192 0F21     		movs	r1, #15
 2423 1194 2820     		movs	r0, #40
 2424 1196 FFF7FEFF 		bl	ssd1306_SetCursor
 2425              	.LVL294:
 363:Src/noteDetect.c **** 
 2426              		.loc 1 363 5 view .LVU357
 2427 119a 0023     		movs	r3, #0
 2428 119c 96E80600 		ldm	r6, {r1, r2}
 2429 11a0 0AA8     		add	r0, sp, #40
 2430 11a2 FFF7FEFF 		bl	ssd1306_WriteString
 2431              	.LVL295:
 366:Src/noteDetect.c ****       ssd1306_SetCursor(NOTEX + INTUNE, NOTEY);
 2432              		.loc 1 366 5 view .LVU358
 366:Src/noteDetect.c ****       ssd1306_SetCursor(NOTEX + INTUNE, NOTEY);
 2433              		.loc 1 366 7 is_stmt 0 view .LVU359
 2434 11a6 22A3     		adr	r3, .L445+64
 2435 11a8 D3E90023 		ldrd	r2, [r3]
 2436 11ac 2046     		mov	r0, r4
 2437 11ae 2946     		mov	r1, r5
 2438 11b0 FFF7FEFF 		bl	__aeabi_dcmpge
 2439              	.LVL296:
 2440 11b4 38B1     		cbz	r0, .L102
 366:Src/noteDetect.c ****       ssd1306_SetCursor(NOTEX + INTUNE, NOTEY);
 2441              		.loc 1 366 27 discriminator 1 view .LVU360
 2442 11b6 20A3     		adr	r3, .L445+72
 2443 11b8 D3E90023 		ldrd	r2, [r3]
 2444 11bc 2046     		mov	r0, r4
 2445 11be 2946     		mov	r1, r5
 2446 11c0 FFF7FEFF 		bl	__aeabi_dcmple
 2447              	.LVL297:
 2448 11c4 38B9     		cbnz	r0, .L416
 2449              	.L102:
 372:Src/noteDetect.c ****     HAL_Delay(500);
 2450              		.loc 1 372 5 is_stmt 1 view .LVU361
 2451 11c6 FFF7FEFF 		bl	ssd1306_UpdateScreen
 2452              	.LVL298:
 373:Src/noteDetect.c ****   }
 2453              		.loc 1 373 5 view .LVU362
 2454 11ca 4FF4FA70 		mov	r0, #500
 2455 11ce FFF7FEFF 		bl	HAL_Delay
 2456              	.LVL299:
 2457 11d2 FFF7B0BA 		b	.L1
 2458              	.L416:
 367:Src/noteDetect.c ****       ssd1306_WriteString(dot,Font_11x18,Black);
 2459              		.loc 1 367 7 view .LVU363
 2460 11d6 2821     		movs	r1, #40
 2461 11d8 4B20     		movs	r0, #75
 2462 11da FFF7FEFF 		bl	ssd1306_SetCursor
 2463              	.LVL300:
 368:Src/noteDetect.c **** 
 2464              		.loc 1 368 7 view .LVU364
ARM GAS  /tmp/ccbt8LDA.s 			page 63


 2465 11de 0023     		movs	r3, #0
 2466 11e0 D6E90012 		ldrd	r1, r2, [r6]
 2467 11e4 6846     		mov	r0, sp
 2468 11e6 FFF7FEFF 		bl	ssd1306_WriteString
 2469              	.LVL301:
 2470 11ea ECE7     		b	.L102
 2471              	.L446:
 2472 11ec AFF30080 		.align	3
 2473              	.L445:
 2474 11f0 713D0AD7 		.word	3607772529
 2475 11f4 A3B05E40 		.word	1079947427
 2476 11f8 5C8FC2F5 		.word	4123168604
 2477 11fc 280C5F40 		.word	1079970856
 2478 1200 9A999999 		.word	2576980378
 2479 1204 99416040 		.word	1080050073
 2480 1208 0AD7A370 		.word	1889785610
 2481 120c 3D726040 		.word	1080062525
 2482 1210 E17A14AE 		.word	2920577761
 2483 1214 47396140 		.word	1080113479
 2484 1218 14AE47E1 		.word	3779571220
 2485 121c 7A6C6140 		.word	1080126586
 2486 1220 8FC2F528 		.word	687194767
 2487 1224 5C3F6240 		.word	1080180572
 2488 1228 F6285C8F 		.word	2405181686
 2489 122c C2756240 		.word	1080194498
 2490 1230 85EB51B8 		.word	3092376453
 2491 1234 1E556340 		.word	1080251678
 2492 1238 1F85EB51 		.word	1374389535
 2493 123c B88E6340 		.word	1080266424
 2494 1240 70000000 		.word	.LC15
 2495 1244 18000000 		.word	.LC4
 2496 1248 00000000 		.word	Font_11x18
 2497 124c 78000000 		.word	.LC16
 2498 1250 80000000 		.word	.LC17
 2499 1254 88000000 		.word	.LC18
 2500 1258 90000000 		.word	.LC19
 2501              	.LVL302:
 2502              	.L381:
 378:Src/noteDetect.c ****     sprintf(noteFreq, "%.2f", frequency);
 2503              		.loc 1 378 5 view .LVU365
 2504 125c BE4B     		ldr	r3, .L447+80
 2505 125e 93E80300 		ldm	r3, {r0, r1}
 2506 1262 1490     		str	r0, [sp, #80]
 2507 1264 8DF85410 		strb	r1, [sp, #84]
 379:Src/noteDetect.c **** 
 2508              		.loc 1 379 5 view .LVU366
 2509 1268 2246     		mov	r2, r4
 2510 126a 2B46     		mov	r3, r5
 2511 126c BB49     		ldr	r1, .L447+84
 2512 126e 0AA8     		add	r0, sp, #40
 2513 1270 FFF7FEFF 		bl	sprintf
 2514              	.LVL303:
 381:Src/noteDetect.c ****     ssd1306_WriteString(note,Font_11x18,Black);
 2515              		.loc 1 381 5 view .LVU367
 2516 1274 2821     		movs	r1, #40
 2517 1276 0846     		mov	r0, r1
 2518 1278 FFF7FEFF 		bl	ssd1306_SetCursor
ARM GAS  /tmp/ccbt8LDA.s 			page 64


 2519              	.LVL304:
 382:Src/noteDetect.c ****     ssd1306_SetCursor(FREQX,FREQY);
 2520              		.loc 1 382 5 view .LVU368
 2521 127c B84E     		ldr	r6, .L447+88
 2522              	.LVL305:
 382:Src/noteDetect.c ****     ssd1306_SetCursor(FREQX,FREQY);
 2523              		.loc 1 382 5 is_stmt 0 view .LVU369
 2524 127e 0023     		movs	r3, #0
 2525 1280 96E80600 		ldm	r6, {r1, r2}
 2526 1284 14A8     		add	r0, sp, #80
 2527 1286 FFF7FEFF 		bl	ssd1306_WriteString
 2528              	.LVL306:
 383:Src/noteDetect.c ****     ssd1306_WriteString(noteFreq,Font_11x18,Black);
 2529              		.loc 1 383 5 is_stmt 1 view .LVU370
 2530 128a 0F21     		movs	r1, #15
 2531 128c 2820     		movs	r0, #40
 2532 128e FFF7FEFF 		bl	ssd1306_SetCursor
 2533              	.LVL307:
 384:Src/noteDetect.c **** 
 2534              		.loc 1 384 5 view .LVU371
 2535 1292 0023     		movs	r3, #0
 2536 1294 96E80600 		ldm	r6, {r1, r2}
 2537 1298 0AA8     		add	r0, sp, #40
 2538 129a FFF7FEFF 		bl	ssd1306_WriteString
 2539              	.LVL308:
 387:Src/noteDetect.c ****       ssd1306_SetCursor(NOTEX + INTUNE, NOTEY);
 2540              		.loc 1 387 5 view .LVU372
 387:Src/noteDetect.c ****       ssd1306_SetCursor(NOTEX + INTUNE, NOTEY);
 2541              		.loc 1 387 7 is_stmt 0 view .LVU373
 2542 129e 9AA3     		adr	r3, .L447
 2543 12a0 D3E90023 		ldrd	r2, [r3]
 2544 12a4 2046     		mov	r0, r4
 2545 12a6 2946     		mov	r1, r5
 2546 12a8 FFF7FEFF 		bl	__aeabi_dcmpge
 2547              	.LVL309:
 2548 12ac 38B1     		cbz	r0, .L108
 387:Src/noteDetect.c ****       ssd1306_SetCursor(NOTEX + INTUNE, NOTEY);
 2549              		.loc 1 387 27 discriminator 1 view .LVU374
 2550 12ae 98A3     		adr	r3, .L447+8
 2551 12b0 D3E90023 		ldrd	r2, [r3]
 2552 12b4 2046     		mov	r0, r4
 2553 12b6 2946     		mov	r1, r5
 2554 12b8 FFF7FEFF 		bl	__aeabi_dcmple
 2555              	.LVL310:
 2556 12bc 38B9     		cbnz	r0, .L417
 2557              	.L108:
 393:Src/noteDetect.c ****     HAL_Delay(500);
 2558              		.loc 1 393 5 is_stmt 1 view .LVU375
 2559 12be FFF7FEFF 		bl	ssd1306_UpdateScreen
 2560              	.LVL311:
 394:Src/noteDetect.c ****   }
 2561              		.loc 1 394 5 view .LVU376
 2562 12c2 4FF4FA70 		mov	r0, #500
 2563 12c6 FFF7FEFF 		bl	HAL_Delay
 2564              	.LVL312:
 2565 12ca FFF734BA 		b	.L1
 2566              	.L417:
ARM GAS  /tmp/ccbt8LDA.s 			page 65


 388:Src/noteDetect.c ****       ssd1306_WriteString(dot,Font_11x18,Black);
 2567              		.loc 1 388 7 view .LVU377
 2568 12ce 2821     		movs	r1, #40
 2569 12d0 4B20     		movs	r0, #75
 2570 12d2 FFF7FEFF 		bl	ssd1306_SetCursor
 2571              	.LVL313:
 389:Src/noteDetect.c **** 
 2572              		.loc 1 389 7 view .LVU378
 2573 12d6 0023     		movs	r3, #0
 2574 12d8 D6E90012 		ldrd	r1, r2, [r6]
 2575 12dc 6846     		mov	r0, sp
 2576 12de FFF7FEFF 		bl	ssd1306_WriteString
 2577              	.LVL314:
 2578 12e2 ECE7     		b	.L108
 2579              	.LVL315:
 2580              	.L382:
 399:Src/noteDetect.c ****     sprintf(noteFreq, "%.2f", frequency);
 2581              		.loc 1 399 5 view .LVU379
 2582 12e4 9F4B     		ldr	r3, .L447+92
 2583 12e6 93E80300 		ldm	r3, {r0, r1}
 2584 12ea 1490     		str	r0, [sp, #80]
 2585 12ec 8DF85410 		strb	r1, [sp, #84]
 400:Src/noteDetect.c **** 
 2586              		.loc 1 400 5 view .LVU380
 2587 12f0 2246     		mov	r2, r4
 2588 12f2 2B46     		mov	r3, r5
 2589 12f4 9949     		ldr	r1, .L447+84
 2590 12f6 0AA8     		add	r0, sp, #40
 2591 12f8 FFF7FEFF 		bl	sprintf
 2592              	.LVL316:
 402:Src/noteDetect.c ****     ssd1306_WriteString(note,Font_11x18,Black);
 2593              		.loc 1 402 5 view .LVU381
 2594 12fc 2821     		movs	r1, #40
 2595 12fe 0846     		mov	r0, r1
 2596 1300 FFF7FEFF 		bl	ssd1306_SetCursor
 2597              	.LVL317:
 403:Src/noteDetect.c ****     ssd1306_SetCursor(FREQX,FREQY);
 2598              		.loc 1 403 5 view .LVU382
 2599 1304 964E     		ldr	r6, .L447+88
 2600              	.LVL318:
 403:Src/noteDetect.c ****     ssd1306_SetCursor(FREQX,FREQY);
 2601              		.loc 1 403 5 is_stmt 0 view .LVU383
 2602 1306 0023     		movs	r3, #0
 2603 1308 96E80600 		ldm	r6, {r1, r2}
 2604 130c 14A8     		add	r0, sp, #80
 2605 130e FFF7FEFF 		bl	ssd1306_WriteString
 2606              	.LVL319:
 404:Src/noteDetect.c ****     ssd1306_WriteString(noteFreq,Font_11x18,Black);
 2607              		.loc 1 404 5 is_stmt 1 view .LVU384
 2608 1312 0F21     		movs	r1, #15
 2609 1314 2820     		movs	r0, #40
 2610 1316 FFF7FEFF 		bl	ssd1306_SetCursor
 2611              	.LVL320:
 405:Src/noteDetect.c **** 
 2612              		.loc 1 405 5 view .LVU385
 2613 131a 0023     		movs	r3, #0
 2614 131c 96E80600 		ldm	r6, {r1, r2}
ARM GAS  /tmp/ccbt8LDA.s 			page 66


 2615 1320 0AA8     		add	r0, sp, #40
 2616 1322 FFF7FEFF 		bl	ssd1306_WriteString
 2617              	.LVL321:
 408:Src/noteDetect.c ****       ssd1306_SetCursor(NOTEX + INTUNE, NOTEY);
 2618              		.loc 1 408 5 view .LVU386
 408:Src/noteDetect.c ****       ssd1306_SetCursor(NOTEX + INTUNE, NOTEY);
 2619              		.loc 1 408 7 is_stmt 0 view .LVU387
 2620 1326 7CA3     		adr	r3, .L447+16
 2621 1328 D3E90023 		ldrd	r2, [r3]
 2622 132c 2046     		mov	r0, r4
 2623 132e 2946     		mov	r1, r5
 2624 1330 FFF7FEFF 		bl	__aeabi_dcmpge
 2625              	.LVL322:
 2626 1334 38B1     		cbz	r0, .L114
 408:Src/noteDetect.c ****       ssd1306_SetCursor(NOTEX + INTUNE, NOTEY);
 2627              		.loc 1 408 27 discriminator 1 view .LVU388
 2628 1336 7AA3     		adr	r3, .L447+24
 2629 1338 D3E90023 		ldrd	r2, [r3]
 2630 133c 2046     		mov	r0, r4
 2631 133e 2946     		mov	r1, r5
 2632 1340 FFF7FEFF 		bl	__aeabi_dcmple
 2633              	.LVL323:
 2634 1344 38B9     		cbnz	r0, .L418
 2635              	.L114:
 414:Src/noteDetect.c ****     HAL_Delay(500);
 2636              		.loc 1 414 5 is_stmt 1 view .LVU389
 2637 1346 FFF7FEFF 		bl	ssd1306_UpdateScreen
 2638              	.LVL324:
 415:Src/noteDetect.c ****   }
 2639              		.loc 1 415 5 view .LVU390
 2640 134a 4FF4FA70 		mov	r0, #500
 2641 134e FFF7FEFF 		bl	HAL_Delay
 2642              	.LVL325:
 2643 1352 FFF7F0B9 		b	.L1
 2644              	.L418:
 409:Src/noteDetect.c ****       ssd1306_WriteString(dot,Font_11x18,Black);
 2645              		.loc 1 409 7 view .LVU391
 2646 1356 2821     		movs	r1, #40
 2647 1358 4B20     		movs	r0, #75
 2648 135a FFF7FEFF 		bl	ssd1306_SetCursor
 2649              	.LVL326:
 410:Src/noteDetect.c **** 
 2650              		.loc 1 410 7 view .LVU392
 2651 135e 0023     		movs	r3, #0
 2652 1360 D6E90012 		ldrd	r1, r2, [r6]
 2653 1364 6846     		mov	r0, sp
 2654 1366 FFF7FEFF 		bl	ssd1306_WriteString
 2655              	.LVL327:
 2656 136a ECE7     		b	.L114
 2657              	.LVL328:
 2658              	.L383:
 420:Src/noteDetect.c ****     sprintf(noteFreq, "%.2f", frequency);
 2659              		.loc 1 420 5 view .LVU393
 2660 136c 7E4B     		ldr	r3, .L447+96
 2661 136e 93E80300 		ldm	r3, {r0, r1}
 2662 1372 1490     		str	r0, [sp, #80]
 2663 1374 ADF85410 		strh	r1, [sp, #84]	@ movhi
ARM GAS  /tmp/ccbt8LDA.s 			page 67


 421:Src/noteDetect.c **** 
 2664              		.loc 1 421 5 view .LVU394
 2665 1378 2246     		mov	r2, r4
 2666 137a 2B46     		mov	r3, r5
 2667 137c 7749     		ldr	r1, .L447+84
 2668 137e 0AA8     		add	r0, sp, #40
 2669 1380 FFF7FEFF 		bl	sprintf
 2670              	.LVL329:
 423:Src/noteDetect.c ****     ssd1306_WriteString(note,Font_11x18,Black);
 2671              		.loc 1 423 5 view .LVU395
 2672 1384 2821     		movs	r1, #40
 2673 1386 0846     		mov	r0, r1
 2674 1388 FFF7FEFF 		bl	ssd1306_SetCursor
 2675              	.LVL330:
 424:Src/noteDetect.c ****     ssd1306_SetCursor(FREQX,FREQY);
 2676              		.loc 1 424 5 view .LVU396
 2677 138c 744E     		ldr	r6, .L447+88
 2678              	.LVL331:
 424:Src/noteDetect.c ****     ssd1306_SetCursor(FREQX,FREQY);
 2679              		.loc 1 424 5 is_stmt 0 view .LVU397
 2680 138e 0023     		movs	r3, #0
 2681 1390 96E80600 		ldm	r6, {r1, r2}
 2682 1394 14A8     		add	r0, sp, #80
 2683 1396 FFF7FEFF 		bl	ssd1306_WriteString
 2684              	.LVL332:
 425:Src/noteDetect.c ****     ssd1306_WriteString(noteFreq,Font_11x18,Black);
 2685              		.loc 1 425 5 is_stmt 1 view .LVU398
 2686 139a 0F21     		movs	r1, #15
 2687 139c 2820     		movs	r0, #40
 2688 139e FFF7FEFF 		bl	ssd1306_SetCursor
 2689              	.LVL333:
 426:Src/noteDetect.c **** 
 2690              		.loc 1 426 5 view .LVU399
 2691 13a2 0023     		movs	r3, #0
 2692 13a4 96E80600 		ldm	r6, {r1, r2}
 2693 13a8 0AA8     		add	r0, sp, #40
 2694 13aa FFF7FEFF 		bl	ssd1306_WriteString
 2695              	.LVL334:
 429:Src/noteDetect.c ****       ssd1306_SetCursor(NOTEX + INTUNE, NOTEY);
 2696              		.loc 1 429 5 view .LVU400
 429:Src/noteDetect.c ****       ssd1306_SetCursor(NOTEX + INTUNE, NOTEY);
 2697              		.loc 1 429 7 is_stmt 0 view .LVU401
 2698 13ae 5EA3     		adr	r3, .L447+32
 2699 13b0 D3E90023 		ldrd	r2, [r3]
 2700 13b4 2046     		mov	r0, r4
 2701 13b6 2946     		mov	r1, r5
 2702 13b8 FFF7FEFF 		bl	__aeabi_dcmpge
 2703              	.LVL335:
 2704 13bc 38B1     		cbz	r0, .L120
 429:Src/noteDetect.c ****       ssd1306_SetCursor(NOTEX + INTUNE, NOTEY);
 2705              		.loc 1 429 27 discriminator 1 view .LVU402
 2706 13be 5CA3     		adr	r3, .L447+40
 2707 13c0 D3E90023 		ldrd	r2, [r3]
 2708 13c4 2046     		mov	r0, r4
 2709 13c6 2946     		mov	r1, r5
 2710 13c8 FFF7FEFF 		bl	__aeabi_dcmple
 2711              	.LVL336:
ARM GAS  /tmp/ccbt8LDA.s 			page 68


 2712 13cc 38B9     		cbnz	r0, .L419
 2713              	.L120:
 435:Src/noteDetect.c ****     HAL_Delay(500);
 2714              		.loc 1 435 5 is_stmt 1 view .LVU403
 2715 13ce FFF7FEFF 		bl	ssd1306_UpdateScreen
 2716              	.LVL337:
 436:Src/noteDetect.c ****   }
 2717              		.loc 1 436 5 view .LVU404
 2718 13d2 4FF4FA70 		mov	r0, #500
 2719 13d6 FFF7FEFF 		bl	HAL_Delay
 2720              	.LVL338:
 2721 13da FFF7ACB9 		b	.L1
 2722              	.L419:
 430:Src/noteDetect.c ****       ssd1306_WriteString(dot,Font_11x18,Black);
 2723              		.loc 1 430 7 view .LVU405
 2724 13de 2821     		movs	r1, #40
 2725 13e0 4B20     		movs	r0, #75
 2726 13e2 FFF7FEFF 		bl	ssd1306_SetCursor
 2727              	.LVL339:
 431:Src/noteDetect.c **** 
 2728              		.loc 1 431 7 view .LVU406
 2729 13e6 0023     		movs	r3, #0
 2730 13e8 D6E90012 		ldrd	r1, r2, [r6]
 2731 13ec 6846     		mov	r0, sp
 2732 13ee FFF7FEFF 		bl	ssd1306_WriteString
 2733              	.LVL340:
 2734 13f2 ECE7     		b	.L120
 2735              	.LVL341:
 2736              	.L384:
 441:Src/noteDetect.c ****     sprintf(noteFreq, "%.2f", frequency);
 2737              		.loc 1 441 5 view .LVU407
 2738 13f4 5D4B     		ldr	r3, .L447+100
 2739 13f6 93E80300 		ldm	r3, {r0, r1}
 2740 13fa 1490     		str	r0, [sp, #80]
 2741 13fc 8DF85410 		strb	r1, [sp, #84]
 442:Src/noteDetect.c **** 
 2742              		.loc 1 442 5 view .LVU408
 2743 1400 2246     		mov	r2, r4
 2744 1402 2B46     		mov	r3, r5
 2745 1404 5549     		ldr	r1, .L447+84
 2746 1406 0AA8     		add	r0, sp, #40
 2747 1408 FFF7FEFF 		bl	sprintf
 2748              	.LVL342:
 444:Src/noteDetect.c ****     ssd1306_WriteString(note,Font_11x18,Black);
 2749              		.loc 1 444 5 view .LVU409
 2750 140c 2821     		movs	r1, #40
 2751 140e 0846     		mov	r0, r1
 2752 1410 FFF7FEFF 		bl	ssd1306_SetCursor
 2753              	.LVL343:
 445:Src/noteDetect.c ****     ssd1306_SetCursor(FREQX,FREQY);
 2754              		.loc 1 445 5 view .LVU410
 2755 1414 524E     		ldr	r6, .L447+88
 2756              	.LVL344:
 445:Src/noteDetect.c ****     ssd1306_SetCursor(FREQX,FREQY);
 2757              		.loc 1 445 5 is_stmt 0 view .LVU411
 2758 1416 0023     		movs	r3, #0
 2759 1418 96E80600 		ldm	r6, {r1, r2}
ARM GAS  /tmp/ccbt8LDA.s 			page 69


 2760 141c 14A8     		add	r0, sp, #80
 2761 141e FFF7FEFF 		bl	ssd1306_WriteString
 2762              	.LVL345:
 446:Src/noteDetect.c ****     ssd1306_WriteString(noteFreq,Font_11x18,Black);
 2763              		.loc 1 446 5 is_stmt 1 view .LVU412
 2764 1422 0F21     		movs	r1, #15
 2765 1424 2820     		movs	r0, #40
 2766 1426 FFF7FEFF 		bl	ssd1306_SetCursor
 2767              	.LVL346:
 447:Src/noteDetect.c **** 
 2768              		.loc 1 447 5 view .LVU413
 2769 142a 0023     		movs	r3, #0
 2770 142c 96E80600 		ldm	r6, {r1, r2}
 2771 1430 0AA8     		add	r0, sp, #40
 2772 1432 FFF7FEFF 		bl	ssd1306_WriteString
 2773              	.LVL347:
 450:Src/noteDetect.c ****       ssd1306_SetCursor(NOTEX + INTUNE, NOTEY);
 2774              		.loc 1 450 5 view .LVU414
 450:Src/noteDetect.c ****       ssd1306_SetCursor(NOTEX + INTUNE, NOTEY);
 2775              		.loc 1 450 7 is_stmt 0 view .LVU415
 2776 1436 40A3     		adr	r3, .L447+48
 2777 1438 D3E90023 		ldrd	r2, [r3]
 2778 143c 2046     		mov	r0, r4
 2779 143e 2946     		mov	r1, r5
 2780 1440 FFF7FEFF 		bl	__aeabi_dcmpge
 2781              	.LVL348:
 2782 1444 38B1     		cbz	r0, .L126
 450:Src/noteDetect.c ****       ssd1306_SetCursor(NOTEX + INTUNE, NOTEY);
 2783              		.loc 1 450 27 discriminator 1 view .LVU416
 2784 1446 3EA3     		adr	r3, .L447+56
 2785 1448 D3E90023 		ldrd	r2, [r3]
 2786 144c 2046     		mov	r0, r4
 2787 144e 2946     		mov	r1, r5
 2788 1450 FFF7FEFF 		bl	__aeabi_dcmple
 2789              	.LVL349:
 2790 1454 38B9     		cbnz	r0, .L420
 2791              	.L126:
 456:Src/noteDetect.c ****     HAL_Delay(500);
 2792              		.loc 1 456 5 is_stmt 1 view .LVU417
 2793 1456 FFF7FEFF 		bl	ssd1306_UpdateScreen
 2794              	.LVL350:
 457:Src/noteDetect.c ****   }
 2795              		.loc 1 457 5 view .LVU418
 2796 145a 4FF4FA70 		mov	r0, #500
 2797 145e FFF7FEFF 		bl	HAL_Delay
 2798              	.LVL351:
 2799 1462 FFF768B9 		b	.L1
 2800              	.L420:
 451:Src/noteDetect.c ****       ssd1306_WriteString(dot,Font_11x18,Black);
 2801              		.loc 1 451 7 view .LVU419
 2802 1466 2821     		movs	r1, #40
 2803 1468 4B20     		movs	r0, #75
 2804 146a FFF7FEFF 		bl	ssd1306_SetCursor
 2805              	.LVL352:
 452:Src/noteDetect.c **** 
 2806              		.loc 1 452 7 view .LVU420
 2807 146e 0023     		movs	r3, #0
ARM GAS  /tmp/ccbt8LDA.s 			page 70


 2808 1470 D6E90012 		ldrd	r1, r2, [r6]
 2809 1474 6846     		mov	r0, sp
 2810 1476 FFF7FEFF 		bl	ssd1306_WriteString
 2811              	.LVL353:
 2812 147a ECE7     		b	.L126
 2813              	.LVL354:
 2814              	.L385:
 462:Src/noteDetect.c ****     sprintf(noteFreq, "%.2f", frequency);
 2815              		.loc 1 462 5 view .LVU421
 2816 147c 3C4B     		ldr	r3, .L447+104
 2817 147e 93E80300 		ldm	r3, {r0, r1}
 2818 1482 1490     		str	r0, [sp, #80]
 2819 1484 ADF85410 		strh	r1, [sp, #84]	@ movhi
 463:Src/noteDetect.c **** 
 2820              		.loc 1 463 5 view .LVU422
 2821 1488 2246     		mov	r2, r4
 2822 148a 2B46     		mov	r3, r5
 2823 148c 3349     		ldr	r1, .L447+84
 2824 148e 0AA8     		add	r0, sp, #40
 2825 1490 FFF7FEFF 		bl	sprintf
 2826              	.LVL355:
 465:Src/noteDetect.c ****     ssd1306_WriteString(note,Font_11x18,Black);
 2827              		.loc 1 465 5 view .LVU423
 2828 1494 2821     		movs	r1, #40
 2829 1496 0846     		mov	r0, r1
 2830 1498 FFF7FEFF 		bl	ssd1306_SetCursor
 2831              	.LVL356:
 466:Src/noteDetect.c ****     ssd1306_SetCursor(FREQX,FREQY);
 2832              		.loc 1 466 5 view .LVU424
 2833 149c 304E     		ldr	r6, .L447+88
 2834              	.LVL357:
 466:Src/noteDetect.c ****     ssd1306_SetCursor(FREQX,FREQY);
 2835              		.loc 1 466 5 is_stmt 0 view .LVU425
 2836 149e 0023     		movs	r3, #0
 2837 14a0 96E80600 		ldm	r6, {r1, r2}
 2838 14a4 14A8     		add	r0, sp, #80
 2839 14a6 FFF7FEFF 		bl	ssd1306_WriteString
 2840              	.LVL358:
 467:Src/noteDetect.c ****     ssd1306_WriteString(noteFreq,Font_11x18,Black);
 2841              		.loc 1 467 5 is_stmt 1 view .LVU426
 2842 14aa 0F21     		movs	r1, #15
 2843 14ac 2820     		movs	r0, #40
 2844 14ae FFF7FEFF 		bl	ssd1306_SetCursor
 2845              	.LVL359:
 468:Src/noteDetect.c **** 
 2846              		.loc 1 468 5 view .LVU427
 2847 14b2 0023     		movs	r3, #0
 2848 14b4 96E80600 		ldm	r6, {r1, r2}
 2849 14b8 0AA8     		add	r0, sp, #40
 2850 14ba FFF7FEFF 		bl	ssd1306_WriteString
 2851              	.LVL360:
 471:Src/noteDetect.c ****       ssd1306_SetCursor(NOTEX + INTUNE, NOTEY);
 2852              		.loc 1 471 5 view .LVU428
 471:Src/noteDetect.c ****       ssd1306_SetCursor(NOTEX + INTUNE, NOTEY);
 2853              		.loc 1 471 7 is_stmt 0 view .LVU429
 2854 14be 22A3     		adr	r3, .L447+64
 2855 14c0 D3E90023 		ldrd	r2, [r3]
ARM GAS  /tmp/ccbt8LDA.s 			page 71


 2856 14c4 2046     		mov	r0, r4
 2857 14c6 2946     		mov	r1, r5
 2858 14c8 FFF7FEFF 		bl	__aeabi_dcmpge
 2859              	.LVL361:
 2860 14cc 38B1     		cbz	r0, .L132
 471:Src/noteDetect.c ****       ssd1306_SetCursor(NOTEX + INTUNE, NOTEY);
 2861              		.loc 1 471 27 discriminator 1 view .LVU430
 2862 14ce 20A3     		adr	r3, .L447+72
 2863 14d0 D3E90023 		ldrd	r2, [r3]
 2864 14d4 2046     		mov	r0, r4
 2865 14d6 2946     		mov	r1, r5
 2866 14d8 FFF7FEFF 		bl	__aeabi_dcmple
 2867              	.LVL362:
 2868 14dc 38B9     		cbnz	r0, .L421
 2869              	.L132:
 477:Src/noteDetect.c ****     HAL_Delay(500);
 2870              		.loc 1 477 5 is_stmt 1 view .LVU431
 2871 14de FFF7FEFF 		bl	ssd1306_UpdateScreen
 2872              	.LVL363:
 478:Src/noteDetect.c ****   }
 2873              		.loc 1 478 5 view .LVU432
 2874 14e2 4FF4FA70 		mov	r0, #500
 2875 14e6 FFF7FEFF 		bl	HAL_Delay
 2876              	.LVL364:
 2877 14ea FFF724B9 		b	.L1
 2878              	.L421:
 472:Src/noteDetect.c ****       ssd1306_WriteString(dot,Font_11x18,Black);
 2879              		.loc 1 472 7 view .LVU433
 2880 14ee 2821     		movs	r1, #40
 2881 14f0 4B20     		movs	r0, #75
 2882 14f2 FFF7FEFF 		bl	ssd1306_SetCursor
 2883              	.LVL365:
 473:Src/noteDetect.c **** 
 2884              		.loc 1 473 7 view .LVU434
 2885 14f6 0023     		movs	r3, #0
 2886 14f8 D6E90012 		ldrd	r1, r2, [r6]
 2887 14fc 6846     		mov	r0, sp
 2888 14fe FFF7FEFF 		bl	ssd1306_WriteString
 2889              	.LVL366:
 2890 1502 ECE7     		b	.L132
 2891              	.L448:
 2892 1504 AFF30080 		.align	3
 2893              	.L447:
 2894 1508 EC51B81E 		.word	515396076
 2895 150c 857B6440 		.word	1080327045
 2896 1510 B81E85EB 		.word	3951369912
 2897 1514 51B86440 		.word	1080342609
 2898 1518 7B14AE47 		.word	1202590843
 2899 151c E1D26540 		.word	1080414945
 2900 1520 5C8FC2F5 		.word	4123168604
 2901 1524 28146640 		.word	1080431656
 2902 1528 F6285C8F 		.word	2405181686
 2903 152c C2FD6640 		.word	1080491458
 2904 1530 0AD7A370 		.word	1889785610
 2905 1534 3D426740 		.word	1080508989
 2906 1538 A4703D0A 		.word	171798692
 2907 153c D75B6840 		.word	1080581079
ARM GAS  /tmp/ccbt8LDA.s 			page 72


 2908 1540 14AE47E1 		.word	3779571220
 2909 1544 7AA46840 		.word	1080599674
 2910 1548 66666666 		.word	1717986918
 2911 154c 66CE6940 		.word	1080675942
 2912 1550 33333333 		.word	858993459
 2913 1554 331B6A40 		.word	1080695603
 2914 1558 98000000 		.word	.LC20
 2915 155c 18000000 		.word	.LC4
 2916 1560 00000000 		.word	Font_11x18
 2917 1564 A0000000 		.word	.LC21
 2918 1568 A8000000 		.word	.LC22
 2919 156c B0000000 		.word	.LC23
 2920 1570 B8000000 		.word	.LC24
 2921              	.LVL367:
 2922              	.L386:
 483:Src/noteDetect.c ****     sprintf(noteFreq, "%.2f", frequency);
 2923              		.loc 1 483 5 view .LVU435
 2924 1574 BE4B     		ldr	r3, .L449+80
 2925 1576 93E80300 		ldm	r3, {r0, r1}
 2926 157a 1490     		str	r0, [sp, #80]
 2927 157c 8DF85410 		strb	r1, [sp, #84]
 484:Src/noteDetect.c **** 
 2928              		.loc 1 484 5 view .LVU436
 2929 1580 2246     		mov	r2, r4
 2930 1582 2B46     		mov	r3, r5
 2931 1584 BB49     		ldr	r1, .L449+84
 2932 1586 0AA8     		add	r0, sp, #40
 2933 1588 FFF7FEFF 		bl	sprintf
 2934              	.LVL368:
 486:Src/noteDetect.c ****     ssd1306_WriteString(note,Font_11x18,Black);
 2935              		.loc 1 486 5 view .LVU437
 2936 158c 2821     		movs	r1, #40
 2937 158e 0846     		mov	r0, r1
 2938 1590 FFF7FEFF 		bl	ssd1306_SetCursor
 2939              	.LVL369:
 487:Src/noteDetect.c ****     ssd1306_SetCursor(FREQX,FREQY);
 2940              		.loc 1 487 5 view .LVU438
 2941 1594 B84E     		ldr	r6, .L449+88
 2942              	.LVL370:
 487:Src/noteDetect.c ****     ssd1306_SetCursor(FREQX,FREQY);
 2943              		.loc 1 487 5 is_stmt 0 view .LVU439
 2944 1596 0023     		movs	r3, #0
 2945 1598 96E80600 		ldm	r6, {r1, r2}
 2946 159c 14A8     		add	r0, sp, #80
 2947 159e FFF7FEFF 		bl	ssd1306_WriteString
 2948              	.LVL371:
 488:Src/noteDetect.c ****     ssd1306_WriteString(noteFreq,Font_11x18,Black);
 2949              		.loc 1 488 5 is_stmt 1 view .LVU440
 2950 15a2 0F21     		movs	r1, #15
 2951 15a4 2820     		movs	r0, #40
 2952 15a6 FFF7FEFF 		bl	ssd1306_SetCursor
 2953              	.LVL372:
 489:Src/noteDetect.c **** 
 2954              		.loc 1 489 5 view .LVU441
 2955 15aa 0023     		movs	r3, #0
 2956 15ac 96E80600 		ldm	r6, {r1, r2}
 2957 15b0 0AA8     		add	r0, sp, #40
ARM GAS  /tmp/ccbt8LDA.s 			page 73


 2958 15b2 FFF7FEFF 		bl	ssd1306_WriteString
 2959              	.LVL373:
 492:Src/noteDetect.c ****       ssd1306_SetCursor(NOTEX + INTUNE, NOTEY);
 2960              		.loc 1 492 5 view .LVU442
 492:Src/noteDetect.c ****       ssd1306_SetCursor(NOTEX + INTUNE, NOTEY);
 2961              		.loc 1 492 7 is_stmt 0 view .LVU443
 2962 15b6 9AA3     		adr	r3, .L449
 2963 15b8 D3E90023 		ldrd	r2, [r3]
 2964 15bc 2046     		mov	r0, r4
 2965 15be 2946     		mov	r1, r5
 2966 15c0 FFF7FEFF 		bl	__aeabi_dcmpge
 2967              	.LVL374:
 2968 15c4 38B1     		cbz	r0, .L138
 492:Src/noteDetect.c ****       ssd1306_SetCursor(NOTEX + INTUNE, NOTEY);
 2969              		.loc 1 492 27 discriminator 1 view .LVU444
 2970 15c6 98A3     		adr	r3, .L449+8
 2971 15c8 D3E90023 		ldrd	r2, [r3]
 2972 15cc 2046     		mov	r0, r4
 2973 15ce 2946     		mov	r1, r5
 2974 15d0 FFF7FEFF 		bl	__aeabi_dcmple
 2975              	.LVL375:
 2976 15d4 38B9     		cbnz	r0, .L422
 2977              	.L138:
 498:Src/noteDetect.c ****     HAL_Delay(500);
 2978              		.loc 1 498 5 is_stmt 1 view .LVU445
 2979 15d6 FFF7FEFF 		bl	ssd1306_UpdateScreen
 2980              	.LVL376:
 499:Src/noteDetect.c ****   }
 2981              		.loc 1 499 5 view .LVU446
 2982 15da 4FF4FA70 		mov	r0, #500
 2983 15de FFF7FEFF 		bl	HAL_Delay
 2984              	.LVL377:
 2985 15e2 FFF7A8B8 		b	.L1
 2986              	.L422:
 493:Src/noteDetect.c ****       ssd1306_WriteString(dot,Font_11x18,Black);
 2987              		.loc 1 493 7 view .LVU447
 2988 15e6 2821     		movs	r1, #40
 2989 15e8 4B20     		movs	r0, #75
 2990 15ea FFF7FEFF 		bl	ssd1306_SetCursor
 2991              	.LVL378:
 494:Src/noteDetect.c **** 
 2992              		.loc 1 494 7 view .LVU448
 2993 15ee 0023     		movs	r3, #0
 2994 15f0 D6E90012 		ldrd	r1, r2, [r6]
 2995 15f4 6846     		mov	r0, sp
 2996 15f6 FFF7FEFF 		bl	ssd1306_WriteString
 2997              	.LVL379:
 2998 15fa ECE7     		b	.L138
 2999              	.LVL380:
 3000              	.L387:
 504:Src/noteDetect.c ****     sprintf(noteFreq, "%.2f", frequency);
 3001              		.loc 1 504 5 view .LVU449
 3002 15fc 9F4B     		ldr	r3, .L449+92
 3003 15fe 93E80300 		ldm	r3, {r0, r1}
 3004 1602 1490     		str	r0, [sp, #80]
 3005 1604 ADF85410 		strh	r1, [sp, #84]	@ movhi
 505:Src/noteDetect.c **** 
ARM GAS  /tmp/ccbt8LDA.s 			page 74


 3006              		.loc 1 505 5 view .LVU450
 3007 1608 2246     		mov	r2, r4
 3008 160a 2B46     		mov	r3, r5
 3009 160c 9949     		ldr	r1, .L449+84
 3010 160e 0AA8     		add	r0, sp, #40
 3011 1610 FFF7FEFF 		bl	sprintf
 3012              	.LVL381:
 507:Src/noteDetect.c ****     ssd1306_WriteString(note,Font_11x18,Black);
 3013              		.loc 1 507 5 view .LVU451
 3014 1614 2821     		movs	r1, #40
 3015 1616 0846     		mov	r0, r1
 3016 1618 FFF7FEFF 		bl	ssd1306_SetCursor
 3017              	.LVL382:
 508:Src/noteDetect.c ****     ssd1306_SetCursor(FREQX,FREQY);
 3018              		.loc 1 508 5 view .LVU452
 3019 161c 964E     		ldr	r6, .L449+88
 3020              	.LVL383:
 508:Src/noteDetect.c ****     ssd1306_SetCursor(FREQX,FREQY);
 3021              		.loc 1 508 5 is_stmt 0 view .LVU453
 3022 161e 0023     		movs	r3, #0
 3023 1620 96E80600 		ldm	r6, {r1, r2}
 3024 1624 14A8     		add	r0, sp, #80
 3025 1626 FFF7FEFF 		bl	ssd1306_WriteString
 3026              	.LVL384:
 509:Src/noteDetect.c ****     ssd1306_WriteString(noteFreq,Font_11x18,Black);
 3027              		.loc 1 509 5 is_stmt 1 view .LVU454
 3028 162a 0F21     		movs	r1, #15
 3029 162c 2820     		movs	r0, #40
 3030 162e FFF7FEFF 		bl	ssd1306_SetCursor
 3031              	.LVL385:
 510:Src/noteDetect.c **** 
 3032              		.loc 1 510 5 view .LVU455
 3033 1632 0023     		movs	r3, #0
 3034 1634 96E80600 		ldm	r6, {r1, r2}
 3035 1638 0AA8     		add	r0, sp, #40
 3036 163a FFF7FEFF 		bl	ssd1306_WriteString
 3037              	.LVL386:
 513:Src/noteDetect.c ****       ssd1306_SetCursor(NOTEX + INTUNE, NOTEY);
 3038              		.loc 1 513 5 view .LVU456
 513:Src/noteDetect.c ****       ssd1306_SetCursor(NOTEX + INTUNE, NOTEY);
 3039              		.loc 1 513 7 is_stmt 0 view .LVU457
 3040 163e 7CA3     		adr	r3, .L449+16
 3041 1640 D3E90023 		ldrd	r2, [r3]
 3042 1644 2046     		mov	r0, r4
 3043 1646 2946     		mov	r1, r5
 3044 1648 FFF7FEFF 		bl	__aeabi_dcmpge
 3045              	.LVL387:
 3046 164c 38B1     		cbz	r0, .L144
 513:Src/noteDetect.c ****       ssd1306_SetCursor(NOTEX + INTUNE, NOTEY);
 3047              		.loc 1 513 27 discriminator 1 view .LVU458
 3048 164e 7AA3     		adr	r3, .L449+24
 3049 1650 D3E90023 		ldrd	r2, [r3]
 3050 1654 2046     		mov	r0, r4
 3051 1656 2946     		mov	r1, r5
 3052 1658 FFF7FEFF 		bl	__aeabi_dcmple
 3053              	.LVL388:
 3054 165c 38B9     		cbnz	r0, .L423
ARM GAS  /tmp/ccbt8LDA.s 			page 75


 3055              	.L144:
 519:Src/noteDetect.c ****     HAL_Delay(500);
 3056              		.loc 1 519 5 is_stmt 1 view .LVU459
 3057 165e FFF7FEFF 		bl	ssd1306_UpdateScreen
 3058              	.LVL389:
 520:Src/noteDetect.c ****   }
 3059              		.loc 1 520 5 view .LVU460
 3060 1662 4FF4FA70 		mov	r0, #500
 3061 1666 FFF7FEFF 		bl	HAL_Delay
 3062              	.LVL390:
 3063 166a FFF764B8 		b	.L1
 3064              	.L423:
 514:Src/noteDetect.c ****       ssd1306_WriteString(dot,Font_11x18,Black);
 3065              		.loc 1 514 7 view .LVU461
 3066 166e 2821     		movs	r1, #40
 3067 1670 4B20     		movs	r0, #75
 3068 1672 FFF7FEFF 		bl	ssd1306_SetCursor
 3069              	.LVL391:
 515:Src/noteDetect.c **** 
 3070              		.loc 1 515 7 view .LVU462
 3071 1676 0023     		movs	r3, #0
 3072 1678 D6E90012 		ldrd	r1, r2, [r6]
 3073 167c 6846     		mov	r0, sp
 3074 167e FFF7FEFF 		bl	ssd1306_WriteString
 3075              	.LVL392:
 3076 1682 ECE7     		b	.L144
 3077              	.LVL393:
 3078              	.L388:
 525:Src/noteDetect.c ****     sprintf(noteFreq, "%.2f", frequency);
 3079              		.loc 1 525 5 view .LVU463
 3080 1684 7E4B     		ldr	r3, .L449+96
 3081 1686 93E80300 		ldm	r3, {r0, r1}
 3082 168a 1490     		str	r0, [sp, #80]
 3083 168c 8DF85410 		strb	r1, [sp, #84]
 526:Src/noteDetect.c **** 
 3084              		.loc 1 526 5 view .LVU464
 3085 1690 2246     		mov	r2, r4
 3086 1692 2B46     		mov	r3, r5
 3087 1694 7749     		ldr	r1, .L449+84
 3088 1696 0AA8     		add	r0, sp, #40
 3089 1698 FFF7FEFF 		bl	sprintf
 3090              	.LVL394:
 528:Src/noteDetect.c ****     ssd1306_WriteString(note,Font_11x18,Black);
 3091              		.loc 1 528 5 view .LVU465
 3092 169c 2821     		movs	r1, #40
 3093 169e 0846     		mov	r0, r1
 3094 16a0 FFF7FEFF 		bl	ssd1306_SetCursor
 3095              	.LVL395:
 529:Src/noteDetect.c ****     ssd1306_SetCursor(FREQX,FREQY);
 3096              		.loc 1 529 5 view .LVU466
 3097 16a4 744E     		ldr	r6, .L449+88
 3098              	.LVL396:
 529:Src/noteDetect.c ****     ssd1306_SetCursor(FREQX,FREQY);
 3099              		.loc 1 529 5 is_stmt 0 view .LVU467
 3100 16a6 0023     		movs	r3, #0
 3101 16a8 96E80600 		ldm	r6, {r1, r2}
 3102 16ac 14A8     		add	r0, sp, #80
ARM GAS  /tmp/ccbt8LDA.s 			page 76


 3103 16ae FFF7FEFF 		bl	ssd1306_WriteString
 3104              	.LVL397:
 530:Src/noteDetect.c ****     ssd1306_WriteString(noteFreq,Font_11x18,Black);
 3105              		.loc 1 530 5 is_stmt 1 view .LVU468
 3106 16b2 0F21     		movs	r1, #15
 3107 16b4 2820     		movs	r0, #40
 3108 16b6 FFF7FEFF 		bl	ssd1306_SetCursor
 3109              	.LVL398:
 531:Src/noteDetect.c **** 
 3110              		.loc 1 531 5 view .LVU469
 3111 16ba 0023     		movs	r3, #0
 3112 16bc 96E80600 		ldm	r6, {r1, r2}
 3113 16c0 0AA8     		add	r0, sp, #40
 3114 16c2 FFF7FEFF 		bl	ssd1306_WriteString
 3115              	.LVL399:
 534:Src/noteDetect.c ****       ssd1306_SetCursor(NOTEX + INTUNE, NOTEY);
 3116              		.loc 1 534 5 view .LVU470
 534:Src/noteDetect.c ****       ssd1306_SetCursor(NOTEX + INTUNE, NOTEY);
 3117              		.loc 1 534 7 is_stmt 0 view .LVU471
 3118 16c6 5EA3     		adr	r3, .L449+32
 3119 16c8 D3E90023 		ldrd	r2, [r3]
 3120 16cc 2046     		mov	r0, r4
 3121 16ce 2946     		mov	r1, r5
 3122 16d0 FFF7FEFF 		bl	__aeabi_dcmpge
 3123              	.LVL400:
 3124 16d4 38B1     		cbz	r0, .L150
 534:Src/noteDetect.c ****       ssd1306_SetCursor(NOTEX + INTUNE, NOTEY);
 3125              		.loc 1 534 27 discriminator 1 view .LVU472
 3126 16d6 5CA3     		adr	r3, .L449+40
 3127 16d8 D3E90023 		ldrd	r2, [r3]
 3128 16dc 2046     		mov	r0, r4
 3129 16de 2946     		mov	r1, r5
 3130 16e0 FFF7FEFF 		bl	__aeabi_dcmple
 3131              	.LVL401:
 3132 16e4 38B9     		cbnz	r0, .L424
 3133              	.L150:
 540:Src/noteDetect.c ****     HAL_Delay(500);
 3134              		.loc 1 540 5 is_stmt 1 view .LVU473
 3135 16e6 FFF7FEFF 		bl	ssd1306_UpdateScreen
 3136              	.LVL402:
 541:Src/noteDetect.c ****   }
 3137              		.loc 1 541 5 view .LVU474
 3138 16ea 4FF4FA70 		mov	r0, #500
 3139 16ee FFF7FEFF 		bl	HAL_Delay
 3140              	.LVL403:
 3141 16f2 FFF720B8 		b	.L1
 3142              	.L424:
 535:Src/noteDetect.c ****       ssd1306_WriteString(dot,Font_11x18,Black);
 3143              		.loc 1 535 7 view .LVU475
 3144 16f6 2821     		movs	r1, #40
 3145 16f8 4B20     		movs	r0, #75
 3146 16fa FFF7FEFF 		bl	ssd1306_SetCursor
 3147              	.LVL404:
 536:Src/noteDetect.c **** 
 3148              		.loc 1 536 7 view .LVU476
 3149 16fe 0023     		movs	r3, #0
 3150 1700 D6E90012 		ldrd	r1, r2, [r6]
ARM GAS  /tmp/ccbt8LDA.s 			page 77


 3151 1704 6846     		mov	r0, sp
 3152 1706 FFF7FEFF 		bl	ssd1306_WriteString
 3153              	.LVL405:
 3154 170a ECE7     		b	.L150
 3155              	.LVL406:
 3156              	.L389:
 546:Src/noteDetect.c ****     sprintf(noteFreq, "%.2f", frequency);
 3157              		.loc 1 546 5 view .LVU477
 3158 170c 5D4B     		ldr	r3, .L449+100
 3159 170e 93E80300 		ldm	r3, {r0, r1}
 3160 1712 1490     		str	r0, [sp, #80]
 3161 1714 8DF85410 		strb	r1, [sp, #84]
 547:Src/noteDetect.c **** 
 3162              		.loc 1 547 5 view .LVU478
 3163 1718 2246     		mov	r2, r4
 3164 171a 2B46     		mov	r3, r5
 3165 171c 5549     		ldr	r1, .L449+84
 3166 171e 0AA8     		add	r0, sp, #40
 3167 1720 FFF7FEFF 		bl	sprintf
 3168              	.LVL407:
 549:Src/noteDetect.c ****     ssd1306_WriteString(note,Font_11x18,Black);
 3169              		.loc 1 549 5 view .LVU479
 3170 1724 2821     		movs	r1, #40
 3171 1726 0846     		mov	r0, r1
 3172 1728 FFF7FEFF 		bl	ssd1306_SetCursor
 3173              	.LVL408:
 550:Src/noteDetect.c ****     ssd1306_SetCursor(FREQX,FREQY);
 3174              		.loc 1 550 5 view .LVU480
 3175 172c 524E     		ldr	r6, .L449+88
 3176              	.LVL409:
 550:Src/noteDetect.c ****     ssd1306_SetCursor(FREQX,FREQY);
 3177              		.loc 1 550 5 is_stmt 0 view .LVU481
 3178 172e 0023     		movs	r3, #0
 3179 1730 96E80600 		ldm	r6, {r1, r2}
 3180 1734 14A8     		add	r0, sp, #80
 3181 1736 FFF7FEFF 		bl	ssd1306_WriteString
 3182              	.LVL410:
 551:Src/noteDetect.c ****     ssd1306_WriteString(noteFreq,Font_11x18,Black);
 3183              		.loc 1 551 5 is_stmt 1 view .LVU482
 3184 173a 0F21     		movs	r1, #15
 3185 173c 2820     		movs	r0, #40
 3186 173e FFF7FEFF 		bl	ssd1306_SetCursor
 3187              	.LVL411:
 552:Src/noteDetect.c **** 
 3188              		.loc 1 552 5 view .LVU483
 3189 1742 0023     		movs	r3, #0
 3190 1744 96E80600 		ldm	r6, {r1, r2}
 3191 1748 0AA8     		add	r0, sp, #40
 3192 174a FFF7FEFF 		bl	ssd1306_WriteString
 3193              	.LVL412:
 555:Src/noteDetect.c ****       ssd1306_SetCursor(NOTEX + INTUNE, NOTEY);
 3194              		.loc 1 555 5 view .LVU484
 555:Src/noteDetect.c ****       ssd1306_SetCursor(NOTEX + INTUNE, NOTEY);
 3195              		.loc 1 555 7 is_stmt 0 view .LVU485
 3196 174e 40A3     		adr	r3, .L449+48
 3197 1750 D3E90023 		ldrd	r2, [r3]
 3198 1754 2046     		mov	r0, r4
ARM GAS  /tmp/ccbt8LDA.s 			page 78


 3199 1756 2946     		mov	r1, r5
 3200 1758 FFF7FEFF 		bl	__aeabi_dcmpge
 3201              	.LVL413:
 3202 175c 38B1     		cbz	r0, .L156
 555:Src/noteDetect.c ****       ssd1306_SetCursor(NOTEX + INTUNE, NOTEY);
 3203              		.loc 1 555 27 discriminator 1 view .LVU486
 3204 175e 3EA3     		adr	r3, .L449+56
 3205 1760 D3E90023 		ldrd	r2, [r3]
 3206 1764 2046     		mov	r0, r4
 3207 1766 2946     		mov	r1, r5
 3208 1768 FFF7FEFF 		bl	__aeabi_dcmple
 3209              	.LVL414:
 3210 176c 38B9     		cbnz	r0, .L425
 3211              	.L156:
 561:Src/noteDetect.c ****     HAL_Delay(500);
 3212              		.loc 1 561 5 is_stmt 1 view .LVU487
 3213 176e FFF7FEFF 		bl	ssd1306_UpdateScreen
 3214              	.LVL415:
 562:Src/noteDetect.c ****   }
 3215              		.loc 1 562 5 view .LVU488
 3216 1772 4FF4FA70 		mov	r0, #500
 3217 1776 FFF7FEFF 		bl	HAL_Delay
 3218              	.LVL416:
 3219 177a FEF7DCBF 		b	.L1
 3220              	.L425:
 556:Src/noteDetect.c ****       ssd1306_WriteString(dot,Font_11x18,Black);
 3221              		.loc 1 556 7 view .LVU489
 3222 177e 2821     		movs	r1, #40
 3223 1780 4B20     		movs	r0, #75
 3224 1782 FFF7FEFF 		bl	ssd1306_SetCursor
 3225              	.LVL417:
 557:Src/noteDetect.c **** 
 3226              		.loc 1 557 7 view .LVU490
 3227 1786 0023     		movs	r3, #0
 3228 1788 D6E90012 		ldrd	r1, r2, [r6]
 3229 178c 6846     		mov	r0, sp
 3230 178e FFF7FEFF 		bl	ssd1306_WriteString
 3231              	.LVL418:
 3232 1792 ECE7     		b	.L156
 3233              	.LVL419:
 3234              	.L390:
 567:Src/noteDetect.c ****     sprintf(noteFreq, "%.2f", frequency);
 3235              		.loc 1 567 5 view .LVU491
 3236 1794 3C4B     		ldr	r3, .L449+104
 3237 1796 93E80300 		ldm	r3, {r0, r1}
 3238 179a 1490     		str	r0, [sp, #80]
 3239 179c ADF85410 		strh	r1, [sp, #84]	@ movhi
 568:Src/noteDetect.c **** 
 3240              		.loc 1 568 5 view .LVU492
 3241 17a0 2246     		mov	r2, r4
 3242 17a2 2B46     		mov	r3, r5
 3243 17a4 3349     		ldr	r1, .L449+84
 3244 17a6 0AA8     		add	r0, sp, #40
 3245 17a8 FFF7FEFF 		bl	sprintf
 3246              	.LVL420:
 570:Src/noteDetect.c ****     ssd1306_WriteString(note,Font_11x18,Black);
 3247              		.loc 1 570 5 view .LVU493
ARM GAS  /tmp/ccbt8LDA.s 			page 79


 3248 17ac 2821     		movs	r1, #40
 3249 17ae 0846     		mov	r0, r1
 3250 17b0 FFF7FEFF 		bl	ssd1306_SetCursor
 3251              	.LVL421:
 571:Src/noteDetect.c ****     ssd1306_SetCursor(FREQX,FREQY);
 3252              		.loc 1 571 5 view .LVU494
 3253 17b4 304E     		ldr	r6, .L449+88
 3254              	.LVL422:
 571:Src/noteDetect.c ****     ssd1306_SetCursor(FREQX,FREQY);
 3255              		.loc 1 571 5 is_stmt 0 view .LVU495
 3256 17b6 0023     		movs	r3, #0
 3257 17b8 96E80600 		ldm	r6, {r1, r2}
 3258 17bc 14A8     		add	r0, sp, #80
 3259 17be FFF7FEFF 		bl	ssd1306_WriteString
 3260              	.LVL423:
 572:Src/noteDetect.c ****     ssd1306_WriteString(noteFreq,Font_11x18,Black);
 3261              		.loc 1 572 5 is_stmt 1 view .LVU496
 3262 17c2 0F21     		movs	r1, #15
 3263 17c4 2820     		movs	r0, #40
 3264 17c6 FFF7FEFF 		bl	ssd1306_SetCursor
 3265              	.LVL424:
 573:Src/noteDetect.c **** 
 3266              		.loc 1 573 5 view .LVU497
 3267 17ca 0023     		movs	r3, #0
 3268 17cc 96E80600 		ldm	r6, {r1, r2}
 3269 17d0 0AA8     		add	r0, sp, #40
 3270 17d2 FFF7FEFF 		bl	ssd1306_WriteString
 3271              	.LVL425:
 576:Src/noteDetect.c ****       ssd1306_SetCursor(NOTEX + INTUNE, NOTEY);
 3272              		.loc 1 576 5 view .LVU498
 576:Src/noteDetect.c ****       ssd1306_SetCursor(NOTEX + INTUNE, NOTEY);
 3273              		.loc 1 576 7 is_stmt 0 view .LVU499
 3274 17d6 22A3     		adr	r3, .L449+64
 3275 17d8 D3E90023 		ldrd	r2, [r3]
 3276 17dc 2046     		mov	r0, r4
 3277 17de 2946     		mov	r1, r5
 3278 17e0 FFF7FEFF 		bl	__aeabi_dcmpge
 3279              	.LVL426:
 3280 17e4 38B1     		cbz	r0, .L162
 576:Src/noteDetect.c ****       ssd1306_SetCursor(NOTEX + INTUNE, NOTEY);
 3281              		.loc 1 576 27 discriminator 1 view .LVU500
 3282 17e6 20A3     		adr	r3, .L449+72
 3283 17e8 D3E90023 		ldrd	r2, [r3]
 3284 17ec 2046     		mov	r0, r4
 3285 17ee 2946     		mov	r1, r5
 3286 17f0 FFF7FEFF 		bl	__aeabi_dcmple
 3287              	.LVL427:
 3288 17f4 38B9     		cbnz	r0, .L426
 3289              	.L162:
 582:Src/noteDetect.c ****     HAL_Delay(500);
 3290              		.loc 1 582 5 is_stmt 1 view .LVU501
 3291 17f6 FFF7FEFF 		bl	ssd1306_UpdateScreen
 3292              	.LVL428:
 583:Src/noteDetect.c ****   }
 3293              		.loc 1 583 5 view .LVU502
 3294 17fa 4FF4FA70 		mov	r0, #500
 3295 17fe FFF7FEFF 		bl	HAL_Delay
ARM GAS  /tmp/ccbt8LDA.s 			page 80


 3296              	.LVL429:
 3297 1802 FEF798BF 		b	.L1
 3298              	.L426:
 577:Src/noteDetect.c ****       ssd1306_WriteString(dot,Font_11x18,Black);
 3299              		.loc 1 577 7 view .LVU503
 3300 1806 2821     		movs	r1, #40
 3301 1808 4B20     		movs	r0, #75
 3302 180a FFF7FEFF 		bl	ssd1306_SetCursor
 3303              	.LVL430:
 578:Src/noteDetect.c **** 
 3304              		.loc 1 578 7 view .LVU504
 3305 180e 0023     		movs	r3, #0
 3306 1810 D6E90012 		ldrd	r1, r2, [r6]
 3307 1814 6846     		mov	r0, sp
 3308 1816 FFF7FEFF 		bl	ssd1306_WriteString
 3309              	.LVL431:
 3310 181a ECE7     		b	.L162
 3311              	.L450:
 3312 181c AFF30080 		.align	3
 3313              	.L449:
 3314 1820 8FC2F528 		.word	687194767
 3315 1824 5C576B40 		.word	1080776540
 3316 1828 713D0AD7 		.word	3607772529
 3317 182c A3A86B40 		.word	1080797347
 3318 1830 8FC2F528 		.word	687194767
 3319 1834 5CF76C40 		.word	1080883036
 3320 1838 F6285C8F 		.word	2405181686
 3321 183c C24D6D40 		.word	1080905154
 3322 1840 713D0AD7 		.word	3607772529
 3323 1844 A3B06E40 		.word	1080996003
 3324 1848 A4703D0A 		.word	171798692
 3325 184c D70B6F40 		.word	1081019351
 3326 1850 52B81E85 		.word	2233382994
 3327 1854 EB417040 		.word	1081098731
 3328 1858 66666666 		.word	1717986918
 3329 185c 66727040 		.word	1081111142
 3330 1860 3D0AD7A3 		.word	2748779069
 3331 1864 70397140 		.word	1081162096
 3332 1868 14AE47E1 		.word	3779571220
 3333 186c 7A6C7140 		.word	1081175162
 3334 1870 C0000000 		.word	.LC25
 3335 1874 18000000 		.word	.LC4
 3336 1878 00000000 		.word	Font_11x18
 3337 187c C8000000 		.word	.LC26
 3338 1880 D0000000 		.word	.LC27
 3339 1884 D8000000 		.word	.LC28
 3340 1888 E0000000 		.word	.LC29
 3341              	.LVL432:
 3342              	.L391:
 588:Src/noteDetect.c ****     sprintf(noteFreq, "%.2f", frequency);
 3343              		.loc 1 588 5 view .LVU505
 3344 188c BC4B     		ldr	r3, .L451+72
 3345 188e 93E80300 		ldm	r3, {r0, r1}
 3346 1892 1490     		str	r0, [sp, #80]
 3347 1894 8DF85410 		strb	r1, [sp, #84]
 589:Src/noteDetect.c **** 
 3348              		.loc 1 589 5 view .LVU506
ARM GAS  /tmp/ccbt8LDA.s 			page 81


 3349 1898 2246     		mov	r2, r4
 3350 189a 2B46     		mov	r3, r5
 3351 189c B949     		ldr	r1, .L451+76
 3352 189e 0AA8     		add	r0, sp, #40
 3353 18a0 FFF7FEFF 		bl	sprintf
 3354              	.LVL433:
 591:Src/noteDetect.c ****     ssd1306_WriteString(note,Font_11x18,Black);
 3355              		.loc 1 591 5 view .LVU507
 3356 18a4 2821     		movs	r1, #40
 3357 18a6 0846     		mov	r0, r1
 3358 18a8 FFF7FEFF 		bl	ssd1306_SetCursor
 3359              	.LVL434:
 592:Src/noteDetect.c ****     ssd1306_SetCursor(FREQX,FREQY);
 3360              		.loc 1 592 5 view .LVU508
 3361 18ac B64E     		ldr	r6, .L451+80
 3362              	.LVL435:
 592:Src/noteDetect.c ****     ssd1306_SetCursor(FREQX,FREQY);
 3363              		.loc 1 592 5 is_stmt 0 view .LVU509
 3364 18ae 0023     		movs	r3, #0
 3365 18b0 96E80600 		ldm	r6, {r1, r2}
 3366 18b4 14A8     		add	r0, sp, #80
 3367 18b6 FFF7FEFF 		bl	ssd1306_WriteString
 3368              	.LVL436:
 593:Src/noteDetect.c ****     ssd1306_WriteString(noteFreq,Font_11x18,Black);
 3369              		.loc 1 593 5 is_stmt 1 view .LVU510
 3370 18ba 0F21     		movs	r1, #15
 3371 18bc 2820     		movs	r0, #40
 3372 18be FFF7FEFF 		bl	ssd1306_SetCursor
 3373              	.LVL437:
 594:Src/noteDetect.c **** 
 3374              		.loc 1 594 5 view .LVU511
 3375 18c2 0023     		movs	r3, #0
 3376 18c4 96E80600 		ldm	r6, {r1, r2}
 3377 18c8 0AA8     		add	r0, sp, #40
 3378 18ca FFF7FEFF 		bl	ssd1306_WriteString
 3379              	.LVL438:
 597:Src/noteDetect.c ****       ssd1306_SetCursor(NOTEX + INTUNE, NOTEY);
 3380              		.loc 1 597 5 view .LVU512
 597:Src/noteDetect.c ****       ssd1306_SetCursor(NOTEX + INTUNE, NOTEY);
 3381              		.loc 1 597 7 is_stmt 0 view .LVU513
 3382 18ce 9AA3     		adr	r3, .L451
 3383 18d0 D3E90023 		ldrd	r2, [r3]
 3384 18d4 2046     		mov	r0, r4
 3385 18d6 2946     		mov	r1, r5
 3386 18d8 FFF7FEFF 		bl	__aeabi_dcmpge
 3387              	.LVL439:
 3388 18dc 38B1     		cbz	r0, .L168
 597:Src/noteDetect.c ****       ssd1306_SetCursor(NOTEX + INTUNE, NOTEY);
 3389              		.loc 1 597 27 discriminator 1 view .LVU514
 3390 18de 98A3     		adr	r3, .L451+8
 3391 18e0 D3E90023 		ldrd	r2, [r3]
 3392 18e4 2046     		mov	r0, r4
 3393 18e6 2946     		mov	r1, r5
 3394 18e8 FFF7FEFF 		bl	__aeabi_dcmple
 3395              	.LVL440:
 3396 18ec 38B9     		cbnz	r0, .L427
 3397              	.L168:
ARM GAS  /tmp/ccbt8LDA.s 			page 82


 603:Src/noteDetect.c ****     HAL_Delay(500);
 3398              		.loc 1 603 5 is_stmt 1 view .LVU515
 3399 18ee FFF7FEFF 		bl	ssd1306_UpdateScreen
 3400              	.LVL441:
 604:Src/noteDetect.c ****   }
 3401              		.loc 1 604 5 view .LVU516
 3402 18f2 4FF4FA70 		mov	r0, #500
 3403 18f6 FFF7FEFF 		bl	HAL_Delay
 3404              	.LVL442:
 3405 18fa FEF71CBF 		b	.L1
 3406              	.L427:
 598:Src/noteDetect.c ****       ssd1306_WriteString(dot,Font_11x18,Black);
 3407              		.loc 1 598 7 view .LVU517
 3408 18fe 2821     		movs	r1, #40
 3409 1900 4B20     		movs	r0, #75
 3410 1902 FFF7FEFF 		bl	ssd1306_SetCursor
 3411              	.LVL443:
 599:Src/noteDetect.c **** 
 3412              		.loc 1 599 7 view .LVU518
 3413 1906 0023     		movs	r3, #0
 3414 1908 D6E90012 		ldrd	r1, r2, [r6]
 3415 190c 6846     		mov	r0, sp
 3416 190e FFF7FEFF 		bl	ssd1306_WriteString
 3417              	.LVL444:
 3418 1912 ECE7     		b	.L168
 3419              	.LVL445:
 3420              	.L392:
 609:Src/noteDetect.c ****     sprintf(noteFreq, "%.2f", frequency);
 3421              		.loc 1 609 5 view .LVU519
 3422 1914 9D4B     		ldr	r3, .L451+84
 3423 1916 93E80300 		ldm	r3, {r0, r1}
 3424 191a 1490     		str	r0, [sp, #80]
 3425 191c ADF85410 		strh	r1, [sp, #84]	@ movhi
 610:Src/noteDetect.c **** 
 3426              		.loc 1 610 5 view .LVU520
 3427 1920 2246     		mov	r2, r4
 3428 1922 2B46     		mov	r3, r5
 3429 1924 9749     		ldr	r1, .L451+76
 3430 1926 0AA8     		add	r0, sp, #40
 3431 1928 FFF7FEFF 		bl	sprintf
 3432              	.LVL446:
 612:Src/noteDetect.c ****     ssd1306_WriteString(note,Font_11x18,Black);
 3433              		.loc 1 612 5 view .LVU521
 3434 192c 2821     		movs	r1, #40
 3435 192e 0846     		mov	r0, r1
 3436 1930 FFF7FEFF 		bl	ssd1306_SetCursor
 3437              	.LVL447:
 613:Src/noteDetect.c ****     ssd1306_SetCursor(FREQX,FREQY);
 3438              		.loc 1 613 5 view .LVU522
 3439 1934 944E     		ldr	r6, .L451+80
 3440              	.LVL448:
 613:Src/noteDetect.c ****     ssd1306_SetCursor(FREQX,FREQY);
 3441              		.loc 1 613 5 is_stmt 0 view .LVU523
 3442 1936 0023     		movs	r3, #0
 3443 1938 96E80600 		ldm	r6, {r1, r2}
 3444 193c 14A8     		add	r0, sp, #80
 3445 193e FFF7FEFF 		bl	ssd1306_WriteString
ARM GAS  /tmp/ccbt8LDA.s 			page 83


 3446              	.LVL449:
 614:Src/noteDetect.c ****     ssd1306_WriteString(noteFreq,Font_11x18,Black);
 3447              		.loc 1 614 5 is_stmt 1 view .LVU524
 3448 1942 0F21     		movs	r1, #15
 3449 1944 2820     		movs	r0, #40
 3450 1946 FFF7FEFF 		bl	ssd1306_SetCursor
 3451              	.LVL450:
 615:Src/noteDetect.c **** 
 3452              		.loc 1 615 5 view .LVU525
 3453 194a 0023     		movs	r3, #0
 3454 194c 96E80600 		ldm	r6, {r1, r2}
 3455 1950 0AA8     		add	r0, sp, #40
 3456 1952 FFF7FEFF 		bl	ssd1306_WriteString
 3457              	.LVL451:
 618:Src/noteDetect.c ****       ssd1306_SetCursor(NOTEX + INTUNE, NOTEY);
 3458              		.loc 1 618 5 view .LVU526
 618:Src/noteDetect.c ****       ssd1306_SetCursor(NOTEX + INTUNE, NOTEY);
 3459              		.loc 1 618 7 is_stmt 0 view .LVU527
 3460 1956 7CA3     		adr	r3, .L451+16
 3461 1958 D3E90023 		ldrd	r2, [r3]
 3462 195c 2046     		mov	r0, r4
 3463 195e 2946     		mov	r1, r5
 3464 1960 FFF7FEFF 		bl	__aeabi_dcmpge
 3465              	.LVL452:
 3466 1964 38B1     		cbz	r0, .L174
 618:Src/noteDetect.c ****       ssd1306_SetCursor(NOTEX + INTUNE, NOTEY);
 3467              		.loc 1 618 27 discriminator 1 view .LVU528
 3468 1966 7AA3     		adr	r3, .L451+24
 3469 1968 D3E90023 		ldrd	r2, [r3]
 3470 196c 2046     		mov	r0, r4
 3471 196e 2946     		mov	r1, r5
 3472 1970 FFF7FEFF 		bl	__aeabi_dcmple
 3473              	.LVL453:
 3474 1974 38B9     		cbnz	r0, .L428
 3475              	.L174:
 624:Src/noteDetect.c ****     HAL_Delay(500);
 3476              		.loc 1 624 5 is_stmt 1 view .LVU529
 3477 1976 FFF7FEFF 		bl	ssd1306_UpdateScreen
 3478              	.LVL454:
 625:Src/noteDetect.c ****   }
 3479              		.loc 1 625 5 view .LVU530
 3480 197a 4FF4FA70 		mov	r0, #500
 3481 197e FFF7FEFF 		bl	HAL_Delay
 3482              	.LVL455:
 3483 1982 FEF7D8BE 		b	.L1
 3484              	.L428:
 619:Src/noteDetect.c ****       ssd1306_WriteString(dot,Font_11x18,Black);
 3485              		.loc 1 619 7 view .LVU531
 3486 1986 2821     		movs	r1, #40
 3487 1988 4B20     		movs	r0, #75
 3488 198a FFF7FEFF 		bl	ssd1306_SetCursor
 3489              	.LVL456:
 620:Src/noteDetect.c **** 
 3490              		.loc 1 620 7 view .LVU532
 3491 198e 0023     		movs	r3, #0
 3492 1990 D6E90012 		ldrd	r1, r2, [r6]
 3493 1994 6846     		mov	r0, sp
ARM GAS  /tmp/ccbt8LDA.s 			page 84


 3494 1996 FFF7FEFF 		bl	ssd1306_WriteString
 3495              	.LVL457:
 3496 199a ECE7     		b	.L174
 3497              	.LVL458:
 3498              	.L393:
 630:Src/noteDetect.c ****     sprintf(noteFreq, "%.2f", frequency);
 3499              		.loc 1 630 5 view .LVU533
 3500 199c 7C4B     		ldr	r3, .L451+88
 3501 199e 93E80300 		ldm	r3, {r0, r1}
 3502 19a2 1490     		str	r0, [sp, #80]
 3503 19a4 8DF85410 		strb	r1, [sp, #84]
 631:Src/noteDetect.c **** 
 3504              		.loc 1 631 5 view .LVU534
 3505 19a8 2246     		mov	r2, r4
 3506 19aa 2B46     		mov	r3, r5
 3507 19ac 7549     		ldr	r1, .L451+76
 3508 19ae 0AA8     		add	r0, sp, #40
 3509 19b0 FFF7FEFF 		bl	sprintf
 3510              	.LVL459:
 633:Src/noteDetect.c ****     ssd1306_WriteString(note,Font_11x18,Black);
 3511              		.loc 1 633 5 view .LVU535
 3512 19b4 2821     		movs	r1, #40
 3513 19b6 0846     		mov	r0, r1
 3514 19b8 FFF7FEFF 		bl	ssd1306_SetCursor
 3515              	.LVL460:
 634:Src/noteDetect.c ****     ssd1306_SetCursor(FREQX,FREQY);
 3516              		.loc 1 634 5 view .LVU536
 3517 19bc 724E     		ldr	r6, .L451+80
 3518              	.LVL461:
 634:Src/noteDetect.c ****     ssd1306_SetCursor(FREQX,FREQY);
 3519              		.loc 1 634 5 is_stmt 0 view .LVU537
 3520 19be 0023     		movs	r3, #0
 3521 19c0 96E80600 		ldm	r6, {r1, r2}
 3522 19c4 14A8     		add	r0, sp, #80
 3523 19c6 FFF7FEFF 		bl	ssd1306_WriteString
 3524              	.LVL462:
 635:Src/noteDetect.c ****     ssd1306_WriteString(noteFreq,Font_11x18,Black);
 3525              		.loc 1 635 5 is_stmt 1 view .LVU538
 3526 19ca 0F21     		movs	r1, #15
 3527 19cc 2820     		movs	r0, #40
 3528 19ce FFF7FEFF 		bl	ssd1306_SetCursor
 3529              	.LVL463:
 636:Src/noteDetect.c **** 
 3530              		.loc 1 636 5 view .LVU539
 3531 19d2 0023     		movs	r3, #0
 3532 19d4 96E80600 		ldm	r6, {r1, r2}
 3533 19d8 0AA8     		add	r0, sp, #40
 3534 19da FFF7FEFF 		bl	ssd1306_WriteString
 3535              	.LVL464:
 639:Src/noteDetect.c ****       ssd1306_SetCursor(NOTEX + INTUNE, NOTEY);
 3536              		.loc 1 639 5 view .LVU540
 639:Src/noteDetect.c ****       ssd1306_SetCursor(NOTEX + INTUNE, NOTEY);
 3537              		.loc 1 639 7 is_stmt 0 view .LVU541
 3538 19de 5EA3     		adr	r3, .L451+32
 3539 19e0 D3E90023 		ldrd	r2, [r3]
 3540 19e4 2046     		mov	r0, r4
 3541 19e6 2946     		mov	r1, r5
ARM GAS  /tmp/ccbt8LDA.s 			page 85


 3542 19e8 FFF7FEFF 		bl	__aeabi_dcmpge
 3543              	.LVL465:
 3544 19ec 38B1     		cbz	r0, .L180
 639:Src/noteDetect.c ****       ssd1306_SetCursor(NOTEX + INTUNE, NOTEY);
 3545              		.loc 1 639 27 discriminator 1 view .LVU542
 3546 19ee 5CA3     		adr	r3, .L451+40
 3547 19f0 D3E90023 		ldrd	r2, [r3]
 3548 19f4 2046     		mov	r0, r4
 3549 19f6 2946     		mov	r1, r5
 3550 19f8 FFF7FEFF 		bl	__aeabi_dcmple
 3551              	.LVL466:
 3552 19fc 38B9     		cbnz	r0, .L429
 3553              	.L180:
 645:Src/noteDetect.c ****     HAL_Delay(500);
 3554              		.loc 1 645 5 is_stmt 1 view .LVU543
 3555 19fe FFF7FEFF 		bl	ssd1306_UpdateScreen
 3556              	.LVL467:
 646:Src/noteDetect.c ****   }
 3557              		.loc 1 646 5 view .LVU544
 3558 1a02 4FF4FA70 		mov	r0, #500
 3559 1a06 FFF7FEFF 		bl	HAL_Delay
 3560              	.LVL468:
 3561 1a0a FEF794BE 		b	.L1
 3562              	.L429:
 640:Src/noteDetect.c ****       ssd1306_WriteString(dot,Font_11x18,Black);
 3563              		.loc 1 640 7 view .LVU545
 3564 1a0e 2821     		movs	r1, #40
 3565 1a10 4B20     		movs	r0, #75
 3566 1a12 FFF7FEFF 		bl	ssd1306_SetCursor
 3567              	.LVL469:
 641:Src/noteDetect.c **** 
 3568              		.loc 1 641 7 view .LVU546
 3569 1a16 0023     		movs	r3, #0
 3570 1a18 D6E90012 		ldrd	r1, r2, [r6]
 3571 1a1c 6846     		mov	r0, sp
 3572 1a1e FFF7FEFF 		bl	ssd1306_WriteString
 3573              	.LVL470:
 3574 1a22 ECE7     		b	.L180
 3575              	.LVL471:
 3576              	.L394:
 651:Src/noteDetect.c ****     sprintf(noteFreq, "%.2f", frequency);
 3577              		.loc 1 651 5 view .LVU547
 3578 1a24 5B4B     		ldr	r3, .L451+92
 3579 1a26 93E80300 		ldm	r3, {r0, r1}
 3580 1a2a 1490     		str	r0, [sp, #80]
 3581 1a2c 8DF85410 		strb	r1, [sp, #84]
 652:Src/noteDetect.c **** 
 3582              		.loc 1 652 5 view .LVU548
 3583 1a30 2246     		mov	r2, r4
 3584 1a32 2B46     		mov	r3, r5
 3585 1a34 5349     		ldr	r1, .L451+76
 3586 1a36 0AA8     		add	r0, sp, #40
 3587 1a38 FFF7FEFF 		bl	sprintf
 3588              	.LVL472:
 654:Src/noteDetect.c ****     ssd1306_WriteString(note,Font_11x18,Black);
 3589              		.loc 1 654 5 view .LVU549
 3590 1a3c 2821     		movs	r1, #40
ARM GAS  /tmp/ccbt8LDA.s 			page 86


 3591 1a3e 0846     		mov	r0, r1
 3592 1a40 FFF7FEFF 		bl	ssd1306_SetCursor
 3593              	.LVL473:
 655:Src/noteDetect.c ****     ssd1306_SetCursor(FREQX,FREQY);
 3594              		.loc 1 655 5 view .LVU550
 3595 1a44 504F     		ldr	r7, .L451+80
 3596 1a46 0023     		movs	r3, #0
 3597 1a48 97E80600 		ldm	r7, {r1, r2}
 3598 1a4c 14A8     		add	r0, sp, #80
 3599 1a4e FFF7FEFF 		bl	ssd1306_WriteString
 3600              	.LVL474:
 656:Src/noteDetect.c ****     ssd1306_WriteString(noteFreq,Font_11x18,Black);
 3601              		.loc 1 656 5 view .LVU551
 3602 1a52 0F21     		movs	r1, #15
 3603 1a54 2820     		movs	r0, #40
 3604 1a56 FFF7FEFF 		bl	ssd1306_SetCursor
 3605              	.LVL475:
 657:Src/noteDetect.c **** 
 3606              		.loc 1 657 5 view .LVU552
 3607 1a5a 0023     		movs	r3, #0
 3608 1a5c 97E80600 		ldm	r7, {r1, r2}
 3609 1a60 0AA8     		add	r0, sp, #40
 3610 1a62 FFF7FEFF 		bl	ssd1306_WriteString
 3611              	.LVL476:
 660:Src/noteDetect.c ****       ssd1306_SetCursor(NOTEX + INTUNE, NOTEY);
 3612              		.loc 1 660 5 view .LVU553
 660:Src/noteDetect.c ****       ssd1306_SetCursor(NOTEX + INTUNE, NOTEY);
 3613              		.loc 1 660 7 is_stmt 0 view .LVU554
 3614 1a66 40A3     		adr	r3, .L451+48
 3615 1a68 D3E90023 		ldrd	r2, [r3]
 3616 1a6c 2046     		mov	r0, r4
 3617 1a6e 2946     		mov	r1, r5
 3618 1a70 FFF7FEFF 		bl	__aeabi_dcmpge
 3619              	.LVL477:
 3620 1a74 40B1     		cbz	r0, .L186
 660:Src/noteDetect.c ****       ssd1306_SetCursor(NOTEX + INTUNE, NOTEY);
 3621              		.loc 1 660 27 discriminator 1 view .LVU555
 3622 1a76 DFED487A 		vldr.32	s15, .L451+96
 3623 1a7a 07EE106A 		vmov	s14, r6
 3624 1a7e B4EEE77A 		vcmpe.f32	s14, s15
 3625 1a82 F1EE10FA 		vmrs	APSR_nzcv, FPSCR
 3626 1a86 07D9     		bls	.L430
 3627              	.L186:
 666:Src/noteDetect.c ****     HAL_Delay(500);
 3628              		.loc 1 666 5 is_stmt 1 view .LVU556
 3629 1a88 FFF7FEFF 		bl	ssd1306_UpdateScreen
 3630              	.LVL478:
 667:Src/noteDetect.c ****   }
 3631              		.loc 1 667 5 view .LVU557
 3632 1a8c 4FF4FA70 		mov	r0, #500
 3633 1a90 FFF7FEFF 		bl	HAL_Delay
 3634              	.LVL479:
 3635 1a94 FEF74FBE 		b	.L1
 3636              	.L430:
 661:Src/noteDetect.c ****       ssd1306_WriteString(dot,Font_11x18,Black);
 3637              		.loc 1 661 7 view .LVU558
 3638 1a98 2821     		movs	r1, #40
ARM GAS  /tmp/ccbt8LDA.s 			page 87


 3639 1a9a 4B20     		movs	r0, #75
 3640 1a9c FFF7FEFF 		bl	ssd1306_SetCursor
 3641              	.LVL480:
 662:Src/noteDetect.c **** 
 3642              		.loc 1 662 7 view .LVU559
 3643 1aa0 0023     		movs	r3, #0
 3644 1aa2 D7E90012 		ldrd	r1, r2, [r7]
 3645 1aa6 6846     		mov	r0, sp
 3646 1aa8 FFF7FEFF 		bl	ssd1306_WriteString
 3647              	.LVL481:
 3648 1aac ECE7     		b	.L186
 3649              	.L395:
 672:Src/noteDetect.c ****     sprintf(noteFreq, "%.2f", frequency);
 3650              		.loc 1 672 5 view .LVU560
 3651 1aae 3B4B     		ldr	r3, .L451+100
 3652 1ab0 93E80300 		ldm	r3, {r0, r1}
 3653 1ab4 1490     		str	r0, [sp, #80]
 3654 1ab6 ADF85410 		strh	r1, [sp, #84]	@ movhi
 673:Src/noteDetect.c **** 
 3655              		.loc 1 673 5 view .LVU561
 3656 1aba 2246     		mov	r2, r4
 3657 1abc 2B46     		mov	r3, r5
 3658 1abe 3149     		ldr	r1, .L451+76
 3659 1ac0 0AA8     		add	r0, sp, #40
 3660 1ac2 FFF7FEFF 		bl	sprintf
 3661              	.LVL482:
 675:Src/noteDetect.c ****     ssd1306_WriteString(note,Font_11x18,Black);
 3662              		.loc 1 675 5 view .LVU562
 3663 1ac6 2821     		movs	r1, #40
 3664 1ac8 0846     		mov	r0, r1
 3665 1aca FFF7FEFF 		bl	ssd1306_SetCursor
 3666              	.LVL483:
 676:Src/noteDetect.c ****     ssd1306_SetCursor(FREQX,FREQY);
 3667              		.loc 1 676 5 view .LVU563
 3668 1ace 2E4E     		ldr	r6, .L451+80
 3669              	.LVL484:
 676:Src/noteDetect.c ****     ssd1306_SetCursor(FREQX,FREQY);
 3670              		.loc 1 676 5 is_stmt 0 view .LVU564
 3671 1ad0 0023     		movs	r3, #0
 3672 1ad2 96E80600 		ldm	r6, {r1, r2}
 3673 1ad6 14A8     		add	r0, sp, #80
 3674 1ad8 FFF7FEFF 		bl	ssd1306_WriteString
 3675              	.LVL485:
 677:Src/noteDetect.c ****     ssd1306_WriteString(noteFreq,Font_11x18,Black);
 3676              		.loc 1 677 5 is_stmt 1 view .LVU565
 3677 1adc 0F21     		movs	r1, #15
 3678 1ade 2820     		movs	r0, #40
 3679 1ae0 FFF7FEFF 		bl	ssd1306_SetCursor
 3680              	.LVL486:
 678:Src/noteDetect.c **** 
 3681              		.loc 1 678 5 view .LVU566
 3682 1ae4 0023     		movs	r3, #0
 3683 1ae6 96E80600 		ldm	r6, {r1, r2}
 3684 1aea 0AA8     		add	r0, sp, #40
 3685 1aec FFF7FEFF 		bl	ssd1306_WriteString
 3686              	.LVL487:
 681:Src/noteDetect.c ****       ssd1306_SetCursor(NOTEX + INTUNE, NOTEY);
ARM GAS  /tmp/ccbt8LDA.s 			page 88


 3687              		.loc 1 681 5 view .LVU567
 681:Src/noteDetect.c ****       ssd1306_SetCursor(NOTEX + INTUNE, NOTEY);
 3688              		.loc 1 681 7 is_stmt 0 view .LVU568
 3689 1af0 1FA3     		adr	r3, .L451+56
 3690 1af2 D3E90023 		ldrd	r2, [r3]
 3691 1af6 2046     		mov	r0, r4
 3692 1af8 2946     		mov	r1, r5
 3693 1afa FFF7FEFF 		bl	__aeabi_dcmpge
 3694              	.LVL488:
 3695 1afe 38B1     		cbz	r0, .L192
 681:Src/noteDetect.c ****       ssd1306_SetCursor(NOTEX + INTUNE, NOTEY);
 3696              		.loc 1 681 27 discriminator 1 view .LVU569
 3697 1b00 1DA3     		adr	r3, .L451+64
 3698 1b02 D3E90023 		ldrd	r2, [r3]
 3699 1b06 2046     		mov	r0, r4
 3700 1b08 2946     		mov	r1, r5
 3701 1b0a FFF7FEFF 		bl	__aeabi_dcmple
 3702              	.LVL489:
 3703 1b0e 38B9     		cbnz	r0, .L431
 3704              	.L192:
 687:Src/noteDetect.c ****     HAL_Delay(500);
 3705              		.loc 1 687 5 is_stmt 1 view .LVU570
 3706 1b10 FFF7FEFF 		bl	ssd1306_UpdateScreen
 3707              	.LVL490:
 688:Src/noteDetect.c ****   }
 3708              		.loc 1 688 5 view .LVU571
 3709 1b14 4FF4FA70 		mov	r0, #500
 3710 1b18 FFF7FEFF 		bl	HAL_Delay
 3711              	.LVL491:
 3712 1b1c FEF70BBE 		b	.L1
 3713              	.L431:
 682:Src/noteDetect.c ****       ssd1306_WriteString(dot,Font_11x18,Black);
 3714              		.loc 1 682 7 view .LVU572
 3715 1b20 2821     		movs	r1, #40
 3716 1b22 4B20     		movs	r0, #75
 3717 1b24 FFF7FEFF 		bl	ssd1306_SetCursor
 3718              	.LVL492:
 683:Src/noteDetect.c **** 
 3719              		.loc 1 683 7 view .LVU573
 3720 1b28 0023     		movs	r3, #0
 3721 1b2a D6E90012 		ldrd	r1, r2, [r6]
 3722 1b2e 6846     		mov	r0, sp
 3723 1b30 FFF7FEFF 		bl	ssd1306_WriteString
 3724              	.LVL493:
 3725 1b34 ECE7     		b	.L192
 3726              	.L452:
 3727 1b36 00BF     		.align	3
 3728              	.L451:
 3729 1b38 EC51B81E 		.word	515396076
 3730 1b3c 853F7240 		.word	1081229189
 3731 1b40 F6285C8F 		.word	2405181686
 3732 1b44 C2757240 		.word	1081243074
 3733 1b48 3D0AD7A3 		.word	2748779069
 3734 1b4c 70557340 		.word	1081300336
 3735 1b50 7B14AE47 		.word	1202590843
 3736 1b54 E18E7340 		.word	1081315041
 3737 1b58 48E17A14 		.word	343597384
ARM GAS  /tmp/ccbt8LDA.s 			page 89


 3738 1b5c AE7B7440 		.word	1081375662
 3739 1b60 713D0AD7 		.word	3607772529
 3740 1b64 A3B87440 		.word	1081391267
 3741 1b68 EC51B81E 		.word	515396076
 3742 1b6c 85B37540 		.word	1081455493
 3743 1b70 F6285C8F 		.word	2405181686
 3744 1b74 C2FD7640 		.word	1081540034
 3745 1b78 AE47E17A 		.word	2061584302
 3746 1b7c 14427740 		.word	1081557524
 3747 1b80 E8000000 		.word	.LC30
 3748 1b84 18000000 		.word	.LC4
 3749 1b88 00000000 		.word	Font_11x18
 3750 1b8c F0000000 		.word	.LC31
 3751 1b90 F8000000 		.word	.LC32
 3752 1b94 00010000 		.word	.LC33
 3753 1b98 00A0AF43 		.word	1135583232
 3754 1b9c 08010000 		.word	.LC34
 3755              	.LVL494:
 3756              	.L396:
 694:Src/noteDetect.c ****     sprintf(noteFreq, "%4.2f", frequency);
 3757              		.loc 1 694 5 view .LVU574
 3758 1ba0 974B     		ldr	r3, .L453+64
 3759 1ba2 93E80300 		ldm	r3, {r0, r1}
 3760 1ba6 1490     		str	r0, [sp, #80]
 3761 1ba8 8DF85410 		strb	r1, [sp, #84]
 695:Src/noteDetect.c **** 
 3762              		.loc 1 695 5 view .LVU575
 3763 1bac 2246     		mov	r2, r4
 3764 1bae 2B46     		mov	r3, r5
 3765 1bb0 9449     		ldr	r1, .L453+68
 3766 1bb2 0AA8     		add	r0, sp, #40
 3767 1bb4 FFF7FEFF 		bl	sprintf
 3768              	.LVL495:
 697:Src/noteDetect.c ****     ssd1306_WriteString(note,Font_11x18,Black);
 3769              		.loc 1 697 5 view .LVU576
 3770 1bb8 2821     		movs	r1, #40
 3771 1bba 0846     		mov	r0, r1
 3772 1bbc FFF7FEFF 		bl	ssd1306_SetCursor
 3773              	.LVL496:
 698:Src/noteDetect.c ****     ssd1306_SetCursor(FREQX,FREQY);
 3774              		.loc 1 698 5 view .LVU577
 3775 1bc0 914E     		ldr	r6, .L453+72
 3776              	.LVL497:
 698:Src/noteDetect.c ****     ssd1306_SetCursor(FREQX,FREQY);
 3777              		.loc 1 698 5 is_stmt 0 view .LVU578
 3778 1bc2 0023     		movs	r3, #0
 3779 1bc4 96E80600 		ldm	r6, {r1, r2}
 3780 1bc8 14A8     		add	r0, sp, #80
 3781 1bca FFF7FEFF 		bl	ssd1306_WriteString
 3782              	.LVL498:
 699:Src/noteDetect.c ****     ssd1306_WriteString(noteFreq,Font_11x18,Black);
 3783              		.loc 1 699 5 is_stmt 1 view .LVU579
 3784 1bce 0F21     		movs	r1, #15
 3785 1bd0 2820     		movs	r0, #40
 3786 1bd2 FFF7FEFF 		bl	ssd1306_SetCursor
 3787              	.LVL499:
 700:Src/noteDetect.c **** 
ARM GAS  /tmp/ccbt8LDA.s 			page 90


 3788              		.loc 1 700 5 view .LVU580
 3789 1bd6 0023     		movs	r3, #0
 3790 1bd8 96E80600 		ldm	r6, {r1, r2}
 3791 1bdc 0AA8     		add	r0, sp, #40
 3792 1bde FFF7FEFF 		bl	ssd1306_WriteString
 3793              	.LVL500:
 703:Src/noteDetect.c ****       ssd1306_SetCursor(NOTEX + INTUNE, NOTEY);
 3794              		.loc 1 703 5 view .LVU581
 703:Src/noteDetect.c ****       ssd1306_SetCursor(NOTEX + INTUNE, NOTEY);
 3795              		.loc 1 703 7 is_stmt 0 view .LVU582
 3796 1be2 77A3     		adr	r3, .L453
 3797 1be4 D3E90023 		ldrd	r2, [r3]
 3798 1be8 2046     		mov	r0, r4
 3799 1bea 2946     		mov	r1, r5
 3800 1bec FFF7FEFF 		bl	__aeabi_dcmpge
 3801              	.LVL501:
 3802 1bf0 38B1     		cbz	r0, .L198
 703:Src/noteDetect.c ****       ssd1306_SetCursor(NOTEX + INTUNE, NOTEY);
 3803              		.loc 1 703 27 discriminator 1 view .LVU583
 3804 1bf2 75A3     		adr	r3, .L453+8
 3805 1bf4 D3E90023 		ldrd	r2, [r3]
 3806 1bf8 2046     		mov	r0, r4
 3807 1bfa 2946     		mov	r1, r5
 3808 1bfc FFF7FEFF 		bl	__aeabi_dcmple
 3809              	.LVL502:
 3810 1c00 38B9     		cbnz	r0, .L432
 3811              	.L198:
 709:Src/noteDetect.c ****     HAL_Delay(500);
 3812              		.loc 1 709 5 is_stmt 1 view .LVU584
 3813 1c02 FFF7FEFF 		bl	ssd1306_UpdateScreen
 3814              	.LVL503:
 710:Src/noteDetect.c ****   }
 3815              		.loc 1 710 5 view .LVU585
 3816 1c06 4FF4FA70 		mov	r0, #500
 3817 1c0a FFF7FEFF 		bl	HAL_Delay
 3818              	.LVL504:
 3819 1c0e FEF792BD 		b	.L1
 3820              	.L432:
 704:Src/noteDetect.c ****       ssd1306_WriteString(dot,Font_11x18,Black);
 3821              		.loc 1 704 7 view .LVU586
 3822 1c12 2821     		movs	r1, #40
 3823 1c14 4B20     		movs	r0, #75
 3824 1c16 FFF7FEFF 		bl	ssd1306_SetCursor
 3825              	.LVL505:
 705:Src/noteDetect.c **** 
 3826              		.loc 1 705 7 view .LVU587
 3827 1c1a 0023     		movs	r3, #0
 3828 1c1c D6E90012 		ldrd	r1, r2, [r6]
 3829 1c20 6846     		mov	r0, sp
 3830 1c22 FFF7FEFF 		bl	ssd1306_WriteString
 3831              	.LVL506:
 3832 1c26 ECE7     		b	.L198
 3833              	.LVL507:
 3834              	.L397:
 718:Src/noteDetect.c ****     sprintf(noteFreq, "%.2f", frequency);
 3835              		.loc 1 718 5 view .LVU588
 3836 1c28 784B     		ldr	r3, .L453+76
ARM GAS  /tmp/ccbt8LDA.s 			page 91


 3837 1c2a 93E80300 		ldm	r3, {r0, r1}
 3838 1c2e 1490     		str	r0, [sp, #80]
 3839 1c30 ADF85410 		strh	r1, [sp, #84]	@ movhi
 719:Src/noteDetect.c **** 
 3840              		.loc 1 719 5 view .LVU589
 3841 1c34 2246     		mov	r2, r4
 3842 1c36 2B46     		mov	r3, r5
 3843 1c38 7549     		ldr	r1, .L453+80
 3844 1c3a 0AA8     		add	r0, sp, #40
 3845 1c3c FFF7FEFF 		bl	sprintf
 3846              	.LVL508:
 721:Src/noteDetect.c ****     ssd1306_WriteString(note,Font_11x18,Black);
 3847              		.loc 1 721 5 view .LVU590
 3848 1c40 2821     		movs	r1, #40
 3849 1c42 0846     		mov	r0, r1
 3850 1c44 FFF7FEFF 		bl	ssd1306_SetCursor
 3851              	.LVL509:
 722:Src/noteDetect.c ****     ssd1306_SetCursor(FREQX,FREQY);
 3852              		.loc 1 722 5 view .LVU591
 3853 1c48 6F4E     		ldr	r6, .L453+72
 3854              	.LVL510:
 722:Src/noteDetect.c ****     ssd1306_SetCursor(FREQX,FREQY);
 3855              		.loc 1 722 5 is_stmt 0 view .LVU592
 3856 1c4a 0023     		movs	r3, #0
 3857 1c4c 96E80600 		ldm	r6, {r1, r2}
 3858 1c50 14A8     		add	r0, sp, #80
 3859 1c52 FFF7FEFF 		bl	ssd1306_WriteString
 3860              	.LVL511:
 723:Src/noteDetect.c ****     ssd1306_WriteString(noteFreq,Font_11x18,Black);
 3861              		.loc 1 723 5 is_stmt 1 view .LVU593
 3862 1c56 0F21     		movs	r1, #15
 3863 1c58 2820     		movs	r0, #40
 3864 1c5a FFF7FEFF 		bl	ssd1306_SetCursor
 3865              	.LVL512:
 724:Src/noteDetect.c **** 
 3866              		.loc 1 724 5 view .LVU594
 3867 1c5e 0023     		movs	r3, #0
 3868 1c60 96E80600 		ldm	r6, {r1, r2}
 3869 1c64 0AA8     		add	r0, sp, #40
 3870 1c66 FFF7FEFF 		bl	ssd1306_WriteString
 3871              	.LVL513:
 727:Src/noteDetect.c ****       ssd1306_SetCursor(NOTEX + INTUNE, NOTEY);
 3872              		.loc 1 727 5 view .LVU595
 727:Src/noteDetect.c ****       ssd1306_SetCursor(NOTEX + INTUNE, NOTEY);
 3873              		.loc 1 727 7 is_stmt 0 view .LVU596
 3874 1c6a 59A3     		adr	r3, .L453+16
 3875 1c6c D3E90023 		ldrd	r2, [r3]
 3876 1c70 2046     		mov	r0, r4
 3877 1c72 2946     		mov	r1, r5
 3878 1c74 FFF7FEFF 		bl	__aeabi_dcmpge
 3879              	.LVL514:
 3880 1c78 38B1     		cbz	r0, .L204
 727:Src/noteDetect.c ****       ssd1306_SetCursor(NOTEX + INTUNE, NOTEY);
 3881              		.loc 1 727 27 discriminator 1 view .LVU597
 3882 1c7a 57A3     		adr	r3, .L453+24
 3883 1c7c D3E90023 		ldrd	r2, [r3]
 3884 1c80 2046     		mov	r0, r4
ARM GAS  /tmp/ccbt8LDA.s 			page 92


 3885 1c82 2946     		mov	r1, r5
 3886 1c84 FFF7FEFF 		bl	__aeabi_dcmple
 3887              	.LVL515:
 3888 1c88 38B9     		cbnz	r0, .L433
 3889              	.L204:
 733:Src/noteDetect.c ****     HAL_Delay(500);
 3890              		.loc 1 733 5 is_stmt 1 view .LVU598
 3891 1c8a FFF7FEFF 		bl	ssd1306_UpdateScreen
 3892              	.LVL516:
 734:Src/noteDetect.c ****   }
 3893              		.loc 1 734 5 view .LVU599
 3894 1c8e 4FF4FA70 		mov	r0, #500
 3895 1c92 FFF7FEFF 		bl	HAL_Delay
 3896              	.LVL517:
 3897 1c96 FEF74EBD 		b	.L1
 3898              	.L433:
 728:Src/noteDetect.c ****       ssd1306_WriteString(dot,Font_11x18,Black);
 3899              		.loc 1 728 7 view .LVU600
 3900 1c9a 2821     		movs	r1, #40
 3901 1c9c 4B20     		movs	r0, #75
 3902 1c9e FFF7FEFF 		bl	ssd1306_SetCursor
 3903              	.LVL518:
 729:Src/noteDetect.c **** 
 3904              		.loc 1 729 7 view .LVU601
 3905 1ca2 0023     		movs	r3, #0
 3906 1ca4 D6E90012 		ldrd	r1, r2, [r6]
 3907 1ca8 6846     		mov	r0, sp
 3908 1caa FFF7FEFF 		bl	ssd1306_WriteString
 3909              	.LVL519:
 3910 1cae ECE7     		b	.L204
 3911              	.LVL520:
 3912              	.L398:
 739:Src/noteDetect.c ****     sprintf(noteFreq, "%.2f", frequency);
 3913              		.loc 1 739 5 view .LVU602
 3914 1cb0 584B     		ldr	r3, .L453+84
 3915 1cb2 93E80300 		ldm	r3, {r0, r1}
 3916 1cb6 1490     		str	r0, [sp, #80]
 3917 1cb8 8DF85410 		strb	r1, [sp, #84]
 740:Src/noteDetect.c **** 
 3918              		.loc 1 740 5 view .LVU603
 3919 1cbc 2246     		mov	r2, r4
 3920 1cbe 2B46     		mov	r3, r5
 3921 1cc0 5349     		ldr	r1, .L453+80
 3922 1cc2 0AA8     		add	r0, sp, #40
 3923 1cc4 FFF7FEFF 		bl	sprintf
 3924              	.LVL521:
 742:Src/noteDetect.c ****     ssd1306_WriteString(note,Font_11x18,Black);
 3925              		.loc 1 742 5 view .LVU604
 3926 1cc8 2821     		movs	r1, #40
 3927 1cca 0846     		mov	r0, r1
 3928 1ccc FFF7FEFF 		bl	ssd1306_SetCursor
 3929              	.LVL522:
 743:Src/noteDetect.c ****     ssd1306_SetCursor(FREQX,FREQY);
 3930              		.loc 1 743 5 view .LVU605
 3931 1cd0 4D4E     		ldr	r6, .L453+72
 3932              	.LVL523:
 743:Src/noteDetect.c ****     ssd1306_SetCursor(FREQX,FREQY);
ARM GAS  /tmp/ccbt8LDA.s 			page 93


 3933              		.loc 1 743 5 is_stmt 0 view .LVU606
 3934 1cd2 0023     		movs	r3, #0
 3935 1cd4 96E80600 		ldm	r6, {r1, r2}
 3936 1cd8 14A8     		add	r0, sp, #80
 3937 1cda FFF7FEFF 		bl	ssd1306_WriteString
 3938              	.LVL524:
 744:Src/noteDetect.c ****     ssd1306_WriteString(noteFreq,Font_11x18,Black);
 3939              		.loc 1 744 5 is_stmt 1 view .LVU607
 3940 1cde 0F21     		movs	r1, #15
 3941 1ce0 2820     		movs	r0, #40
 3942 1ce2 FFF7FEFF 		bl	ssd1306_SetCursor
 3943              	.LVL525:
 745:Src/noteDetect.c **** 
 3944              		.loc 1 745 5 view .LVU608
 3945 1ce6 0023     		movs	r3, #0
 3946 1ce8 96E80600 		ldm	r6, {r1, r2}
 3947 1cec 0AA8     		add	r0, sp, #40
 3948 1cee FFF7FEFF 		bl	ssd1306_WriteString
 3949              	.LVL526:
 748:Src/noteDetect.c ****       ssd1306_SetCursor(NOTEX + INTUNE, NOTEY);
 3950              		.loc 1 748 5 view .LVU609
 748:Src/noteDetect.c ****       ssd1306_SetCursor(NOTEX + INTUNE, NOTEY);
 3951              		.loc 1 748 7 is_stmt 0 view .LVU610
 3952 1cf2 3BA3     		adr	r3, .L453+32
 3953 1cf4 D3E90023 		ldrd	r2, [r3]
 3954 1cf8 2046     		mov	r0, r4
 3955 1cfa 2946     		mov	r1, r5
 3956 1cfc FFF7FEFF 		bl	__aeabi_dcmpge
 3957              	.LVL527:
 3958 1d00 38B1     		cbz	r0, .L210
 748:Src/noteDetect.c ****       ssd1306_SetCursor(NOTEX + INTUNE, NOTEY);
 3959              		.loc 1 748 27 discriminator 1 view .LVU611
 3960 1d02 39A3     		adr	r3, .L453+40
 3961 1d04 D3E90023 		ldrd	r2, [r3]
 3962 1d08 2046     		mov	r0, r4
 3963 1d0a 2946     		mov	r1, r5
 3964 1d0c FFF7FEFF 		bl	__aeabi_dcmple
 3965              	.LVL528:
 3966 1d10 38B9     		cbnz	r0, .L434
 3967              	.L210:
 754:Src/noteDetect.c ****     HAL_Delay(500);
 3968              		.loc 1 754 5 is_stmt 1 view .LVU612
 3969 1d12 FFF7FEFF 		bl	ssd1306_UpdateScreen
 3970              	.LVL529:
 755:Src/noteDetect.c ****   }
 3971              		.loc 1 755 5 view .LVU613
 3972 1d16 4FF4FA70 		mov	r0, #500
 3973 1d1a FFF7FEFF 		bl	HAL_Delay
 3974              	.LVL530:
 3975 1d1e FEF70ABD 		b	.L1
 3976              	.L434:
 749:Src/noteDetect.c ****       ssd1306_WriteString(dot,Font_11x18,Black);
 3977              		.loc 1 749 7 view .LVU614
 3978 1d22 2821     		movs	r1, #40
 3979 1d24 4B20     		movs	r0, #75
 3980 1d26 FFF7FEFF 		bl	ssd1306_SetCursor
 3981              	.LVL531:
ARM GAS  /tmp/ccbt8LDA.s 			page 94


 750:Src/noteDetect.c **** 
 3982              		.loc 1 750 7 view .LVU615
 3983 1d2a 0023     		movs	r3, #0
 3984 1d2c D6E90012 		ldrd	r1, r2, [r6]
 3985 1d30 6846     		mov	r0, sp
 3986 1d32 FFF7FEFF 		bl	ssd1306_WriteString
 3987              	.LVL532:
 3988 1d36 ECE7     		b	.L210
 3989              	.LVL533:
 3990              	.L399:
 760:Src/noteDetect.c ****     sprintf(noteFreq, "%.2f", frequency);
 3991              		.loc 1 760 5 view .LVU616
 3992 1d38 374B     		ldr	r3, .L453+88
 3993 1d3a 93E80300 		ldm	r3, {r0, r1}
 3994 1d3e 1490     		str	r0, [sp, #80]
 3995 1d40 ADF85410 		strh	r1, [sp, #84]	@ movhi
 761:Src/noteDetect.c **** 
 3996              		.loc 1 761 5 view .LVU617
 3997 1d44 2246     		mov	r2, r4
 3998 1d46 2B46     		mov	r3, r5
 3999 1d48 3149     		ldr	r1, .L453+80
 4000 1d4a 0AA8     		add	r0, sp, #40
 4001 1d4c FFF7FEFF 		bl	sprintf
 4002              	.LVL534:
 763:Src/noteDetect.c ****     ssd1306_WriteString(note,Font_11x18,Black);
 4003              		.loc 1 763 5 view .LVU618
 4004 1d50 2821     		movs	r1, #40
 4005 1d52 0846     		mov	r0, r1
 4006 1d54 FFF7FEFF 		bl	ssd1306_SetCursor
 4007              	.LVL535:
 764:Src/noteDetect.c ****     ssd1306_SetCursor(FREQX,FREQY);
 4008              		.loc 1 764 5 view .LVU619
 4009 1d58 2B4E     		ldr	r6, .L453+72
 4010              	.LVL536:
 764:Src/noteDetect.c ****     ssd1306_SetCursor(FREQX,FREQY);
 4011              		.loc 1 764 5 is_stmt 0 view .LVU620
 4012 1d5a 0023     		movs	r3, #0
 4013 1d5c 96E80600 		ldm	r6, {r1, r2}
 4014 1d60 14A8     		add	r0, sp, #80
 4015 1d62 FFF7FEFF 		bl	ssd1306_WriteString
 4016              	.LVL537:
 765:Src/noteDetect.c ****     ssd1306_WriteString(noteFreq,Font_11x18,Black);
 4017              		.loc 1 765 5 is_stmt 1 view .LVU621
 4018 1d66 0F21     		movs	r1, #15
 4019 1d68 2820     		movs	r0, #40
 4020 1d6a FFF7FEFF 		bl	ssd1306_SetCursor
 4021              	.LVL538:
 766:Src/noteDetect.c **** 
 4022              		.loc 1 766 5 view .LVU622
 4023 1d6e 0023     		movs	r3, #0
 4024 1d70 96E80600 		ldm	r6, {r1, r2}
 4025 1d74 0AA8     		add	r0, sp, #40
 4026 1d76 FFF7FEFF 		bl	ssd1306_WriteString
 4027              	.LVL539:
 769:Src/noteDetect.c ****       ssd1306_SetCursor(NOTEX + INTUNE, NOTEY);
 4028              		.loc 1 769 5 view .LVU623
 769:Src/noteDetect.c ****       ssd1306_SetCursor(NOTEX + INTUNE, NOTEY);
ARM GAS  /tmp/ccbt8LDA.s 			page 95


 4029              		.loc 1 769 7 is_stmt 0 view .LVU624
 4030 1d7a 1DA3     		adr	r3, .L453+48
 4031 1d7c D3E90023 		ldrd	r2, [r3]
 4032 1d80 2046     		mov	r0, r4
 4033 1d82 2946     		mov	r1, r5
 4034 1d84 FFF7FEFF 		bl	__aeabi_dcmpge
 4035              	.LVL540:
 4036 1d88 38B1     		cbz	r0, .L216
 769:Src/noteDetect.c ****       ssd1306_SetCursor(NOTEX + INTUNE, NOTEY);
 4037              		.loc 1 769 27 discriminator 1 view .LVU625
 4038 1d8a 1BA3     		adr	r3, .L453+56
 4039 1d8c D3E90023 		ldrd	r2, [r3]
 4040 1d90 2046     		mov	r0, r4
 4041 1d92 2946     		mov	r1, r5
 4042 1d94 FFF7FEFF 		bl	__aeabi_dcmple
 4043              	.LVL541:
 4044 1d98 38B9     		cbnz	r0, .L435
 4045              	.L216:
 775:Src/noteDetect.c ****     HAL_Delay(500);
 4046              		.loc 1 775 5 is_stmt 1 view .LVU626
 4047 1d9a FFF7FEFF 		bl	ssd1306_UpdateScreen
 4048              	.LVL542:
 776:Src/noteDetect.c ****   }
 4049              		.loc 1 776 5 view .LVU627
 4050 1d9e 4FF4FA70 		mov	r0, #500
 4051 1da2 FFF7FEFF 		bl	HAL_Delay
 4052              	.LVL543:
 4053 1da6 FEF7C6BC 		b	.L1
 4054              	.L435:
 770:Src/noteDetect.c ****       ssd1306_WriteString(dot,Font_11x18,Black);
 4055              		.loc 1 770 7 view .LVU628
 4056 1daa 2821     		movs	r1, #40
 4057 1dac 4B20     		movs	r0, #75
 4058 1dae FFF7FEFF 		bl	ssd1306_SetCursor
 4059              	.LVL544:
 771:Src/noteDetect.c **** 
 4060              		.loc 1 771 7 view .LVU629
 4061 1db2 0023     		movs	r3, #0
 4062 1db4 D6E90012 		ldrd	r1, r2, [r6]
 4063 1db8 6846     		mov	r0, sp
 4064 1dba FFF7FEFF 		bl	ssd1306_WriteString
 4065              	.LVL545:
 4066 1dbe ECE7     		b	.L216
 4067              	.L454:
 4068              		.align	3
 4069              	.L453:
 4070 1dc0 A4703D0A 		.word	171798692
 4071 1dc4 D75B7840 		.word	1081629655
 4072 1dc8 B81E85EB 		.word	3951369912
 4073 1dcc 51A47840 		.word	1081648209
 4074 1dd0 A4703D0A 		.word	171798692
 4075 1dd4 D7CF7940 		.word	1081724887
 4076 1dd8 713D0AD7 		.word	3607772529
 4077 1ddc A31C7A40 		.word	1081744547
 4078 1de0 EC51B81E 		.word	515396076
 4079 1de4 85577B40 		.word	1081825157
 4080 1de8 CDCCCCCC 		.word	3435973837
ARM GAS  /tmp/ccbt8LDA.s 			page 96


 4081 1dec CCA87B40 		.word	1081845964
 4082 1df0 48E17A14 		.word	343597384
 4083 1df4 AEF77C40 		.word	1081931694
 4084 1df8 F6285C8F 		.word	2405181686
 4085 1dfc C24D7D40 		.word	1081953730
 4086 1e00 10010000 		.word	.LC35
 4087 1e04 08000000 		.word	.LC2
 4088 1e08 00000000 		.word	Font_11x18
 4089 1e0c 18010000 		.word	.LC36
 4090 1e10 18000000 		.word	.LC4
 4091 1e14 20010000 		.word	.LC37
 4092 1e18 28010000 		.word	.LC38
 4093              		.cfi_endproc
 4094              	.LFE309:
 4096              		.section	.text.print2Screen,"ax",%progbits
 4097              		.align	1
 4098              		.global	print2Screen
 4099              		.syntax unified
 4100              		.thumb
 4101              		.thumb_func
 4102              		.fpu fpv4-sp-d16
 4104              	print2Screen:
 4105              	.LVL546:
 4106              	.LFB310:
 794:Src/noteDetect.c **** 
 795:Src/noteDetect.c **** 
 796:Src/noteDetect.c **** void print2Screen(float frequency, char *note, char *noteFreq)
 797:Src/noteDetect.c **** {
 4107              		.loc 1 797 1 view -0
 4108              		.cfi_startproc
 4109              		@ args = 0, pretend = 0, frame = 0
 4110              		@ frame_needed = 0, uses_anonymous_args = 0
 4111              		.loc 1 797 1 is_stmt 0 view .LVU631
 4112 0000 70B5     		push	{r4, r5, r6, lr}
 4113              	.LCFI4:
 4114              		.cfi_def_cfa_offset 16
 4115              		.cfi_offset 4, -16
 4116              		.cfi_offset 5, -12
 4117              		.cfi_offset 6, -8
 4118              		.cfi_offset 14, -4
 4119 0002 0646     		mov	r6, r0
 4120 0004 0D46     		mov	r5, r1
 798:Src/noteDetect.c **** 
 799:Src/noteDetect.c ****     findNote(frequency);
 4121              		.loc 1 799 5 is_stmt 1 view .LVU632
 4122 0006 FFF7FEFF 		bl	findNote
 4123              	.LVL547:
 800:Src/noteDetect.c ****     ssd1306_SetCursor(FREQX,FREQY);
 4124              		.loc 1 800 5 view .LVU633
 4125 000a 0F21     		movs	r1, #15
 4126 000c 2820     		movs	r0, #40
 4127 000e FFF7FEFF 		bl	ssd1306_SetCursor
 4128              	.LVL548:
 801:Src/noteDetect.c ****     ssd1306_WriteString(note,Font_11x18,Black);
 4129              		.loc 1 801 5 view .LVU634
 4130 0012 0C4C     		ldr	r4, .L457
 4131 0014 0023     		movs	r3, #0
ARM GAS  /tmp/ccbt8LDA.s 			page 97


 4132 0016 94E80600 		ldm	r4, {r1, r2}
 4133 001a 3046     		mov	r0, r6
 4134 001c FFF7FEFF 		bl	ssd1306_WriteString
 4135              	.LVL549:
 802:Src/noteDetect.c ****     ssd1306_SetCursor(NOTEX,NOTEY);
 4136              		.loc 1 802 5 view .LVU635
 4137 0020 2821     		movs	r1, #40
 4138 0022 0846     		mov	r0, r1
 4139 0024 FFF7FEFF 		bl	ssd1306_SetCursor
 4140              	.LVL550:
 803:Src/noteDetect.c ****     ssd1306_WriteString(noteFreq,Font_11x18,Black);
 4141              		.loc 1 803 5 view .LVU636
 4142 0028 0023     		movs	r3, #0
 4143 002a 94E80600 		ldm	r4, {r1, r2}
 4144 002e 2846     		mov	r0, r5
 4145 0030 FFF7FEFF 		bl	ssd1306_WriteString
 4146              	.LVL551:
 804:Src/noteDetect.c **** 
 805:Src/noteDetect.c ****     ssd1306_UpdateScreen();
 4147              		.loc 1 805 5 view .LVU637
 4148 0034 FFF7FEFF 		bl	ssd1306_UpdateScreen
 4149              	.LVL552:
 806:Src/noteDetect.c ****     HAL_Delay(500);
 4150              		.loc 1 806 5 view .LVU638
 4151 0038 4FF4FA70 		mov	r0, #500
 4152 003c FFF7FEFF 		bl	HAL_Delay
 4153              	.LVL553:
 807:Src/noteDetect.c **** }
 4154              		.loc 1 807 1 is_stmt 0 view .LVU639
 4155 0040 70BD     		pop	{r4, r5, r6, pc}
 4156              	.LVL554:
 4157              	.L458:
 4158              		.loc 1 807 1 view .LVU640
 4159 0042 00BF     		.align	2
 4160              	.L457:
 4161 0044 00000000 		.word	Font_11x18
 4162              		.cfi_endproc
 4163              	.LFE310:
 4165              		.section	.rodata
 4166              		.align	2
 4167              		.set	.LANCHOR0,. + 0
 4168              	.LC0:
 4169 0000 7468696E 		.ascii	"thing\012\015\000"
 4169      670A0D00 
 4170 0008 00000000 		.space	32
 4170      00000000 
 4170      00000000 
 4170      00000000 
 4170      00000000 
 4171              		.text
 4172              	.Letext0:
 4173              		.file 2 "/usr/arm-none-eabi/include/machine/_default_types.h"
 4174              		.file 3 "/usr/arm-none-eabi/include/sys/lock.h"
 4175              		.file 4 "/usr/arm-none-eabi/include/sys/_types.h"
 4176              		.file 5 "/usr/lib/gcc/arm-none-eabi/9.2.0/include/stddef.h"
 4177              		.file 6 "/usr/arm-none-eabi/include/sys/reent.h"
 4178              		.file 7 "/usr/arm-none-eabi/include/sys/_stdint.h"
ARM GAS  /tmp/ccbt8LDA.s 			page 98


 4179              		.file 8 "Drivers/CMSIS/Include/core_cm4.h"
 4180              		.file 9 "Drivers/CMSIS/Device/ST/STM32L4xx/Include/system_stm32l4xx.h"
 4181              		.file 10 "Drivers/CMSIS/Device/ST/STM32L4xx/Include/stm32l476xx.h"
 4182              		.file 11 "Drivers/STM32L4xx_HAL_Driver/Inc/stm32l4xx_hal_def.h"
 4183              		.file 12 "Drivers/STM32L4xx_HAL_Driver/Inc/stm32l4xx_hal_dma.h"
 4184              		.file 13 "Drivers/STM32L4xx_HAL_Driver/Inc/stm32l4xx_hal_i2c.h"
 4185              		.file 14 "Inc/fonts.h"
 4186              		.file 15 "Inc/ssd1306.h"
 4187              		.file 16 "Drivers/STM32L4xx_HAL_Driver/Inc/stm32l4xx_hal.h"
 4188              		.file 17 "/usr/arm-none-eabi/include/stdio.h"
 4189              		.file 18 "<built-in>"
ARM GAS  /tmp/ccbt8LDA.s 			page 99


DEFINED SYMBOLS
                            *ABS*:0000000000000000 noteDetect.c
     /tmp/ccbt8LDA.s:21     .rodata.findNote.str1.4:0000000000000000 $d
     /tmp/ccbt8LDA.s:139    .text.findNote:0000000000000000 $t
     /tmp/ccbt8LDA.s:147    .text.findNote:0000000000000000 findNote
     /tmp/ccbt8LDA.s:483    .text.findNote:0000000000000258 $d
     /tmp/ccbt8LDA.s:542    .text.findNote:000000000000033c $t
     /tmp/ccbt8LDA.s:1157   .text.findNote:00000000000007d8 $d
     /tmp/ccbt8LDA.s:1248   .text.findNote:0000000000000938 $t
     /tmp/ccbt8LDA.s:1638   .text.findNote:0000000000000bd8 $d
     /tmp/ccbt8LDA.s:1664   .text.findNote:0000000000000c34 $t
     /tmp/ccbt8LDA.s:2054   .text.findNote:0000000000000ed8 $d
     /tmp/ccbt8LDA.s:2084   .text.findNote:0000000000000f44 $t
     /tmp/ccbt8LDA.s:2474   .text.findNote:00000000000011f0 $d
     /tmp/ccbt8LDA.s:2504   .text.findNote:000000000000125c $t
     /tmp/ccbt8LDA.s:2894   .text.findNote:0000000000001508 $d
     /tmp/ccbt8LDA.s:2924   .text.findNote:0000000000001574 $t
     /tmp/ccbt8LDA.s:3314   .text.findNote:0000000000001820 $d
     /tmp/ccbt8LDA.s:3344   .text.findNote:000000000000188c $t
     /tmp/ccbt8LDA.s:3729   .text.findNote:0000000000001b38 $d
     /tmp/ccbt8LDA.s:3758   .text.findNote:0000000000001ba0 $t
     /tmp/ccbt8LDA.s:4070   .text.findNote:0000000000001dc0 $d
     /tmp/ccbt8LDA.s:4097   .text.print2Screen:0000000000000000 $t
     /tmp/ccbt8LDA.s:4104   .text.print2Screen:0000000000000000 print2Screen
     /tmp/ccbt8LDA.s:4161   .text.print2Screen:0000000000000044 $d
     /tmp/ccbt8LDA.s:4166   .rodata:0000000000000000 $d

UNDEFINED SYMBOLS
__aeabi_f2d
__aeabi_dcmpge
__aeabi_dcmple
memset
sprintf
ssd1306_SetCursor
ssd1306_WriteString
ssd1306_UpdateScreen
HAL_Delay
Font_11x18
