ARM GAS  /tmp/ccdHqyqk.s 			page 1


   1              		.cpu cortex-m4
   2              		.eabi_attribute 27, 1
   3              		.eabi_attribute 28, 1
   4              		.eabi_attribute 20, 1
   5              		.eabi_attribute 21, 1
   6              		.eabi_attribute 23, 3
   7              		.eabi_attribute 24, 1
   8              		.eabi_attribute 25, 1
   9              		.eabi_attribute 26, 1
  10              		.eabi_attribute 30, 1
  11              		.eabi_attribute 34, 1
  12              		.eabi_attribute 18, 4
  13              		.file	"stm32l4xx_hal_opamp_ex.c"
  14              		.text
  15              	.Ltext0:
  16              		.cfi_sections	.debug_frame
  17              		.section	.text.HAL_OPAMPEx_SelfCalibrateAll,"ax",%progbits
  18              		.align	1
  19              		.global	HAL_OPAMPEx_SelfCalibrateAll
  20              		.arch armv7e-m
  21              		.syntax unified
  22              		.thumb
  23              		.thumb_func
  24              		.fpu fpv4-sp-d16
  26              	HAL_OPAMPEx_SelfCalibrateAll:
  27              	.LVL0:
  28              	.LFB309:
  29              		.file 1 "Drivers/STM32L4xx_HAL_Driver/Src/stm32l4xx_hal_opamp_ex.c"
   1:Drivers/STM32L4xx_HAL_Driver/Src/stm32l4xx_hal_opamp_ex.c **** /**
   2:Drivers/STM32L4xx_HAL_Driver/Src/stm32l4xx_hal_opamp_ex.c ****   ******************************************************************************
   3:Drivers/STM32L4xx_HAL_Driver/Src/stm32l4xx_hal_opamp_ex.c ****   * @file    stm32l4xx_hal_opamp_ex.c
   4:Drivers/STM32L4xx_HAL_Driver/Src/stm32l4xx_hal_opamp_ex.c ****   * @author  MCD Application Team
   5:Drivers/STM32L4xx_HAL_Driver/Src/stm32l4xx_hal_opamp_ex.c ****   * @brief   Extended OPAMP HAL module driver.
   6:Drivers/STM32L4xx_HAL_Driver/Src/stm32l4xx_hal_opamp_ex.c ****   *          This file provides firmware functions to manage the following
   7:Drivers/STM32L4xx_HAL_Driver/Src/stm32l4xx_hal_opamp_ex.c ****   *          functionalities of the operational amplifier(s)(OPAMP1, OPAMP2 etc)
   8:Drivers/STM32L4xx_HAL_Driver/Src/stm32l4xx_hal_opamp_ex.c ****   *          peripheral:
   9:Drivers/STM32L4xx_HAL_Driver/Src/stm32l4xx_hal_opamp_ex.c ****   *           + Extended Initialization and de-initialization functions
  10:Drivers/STM32L4xx_HAL_Driver/Src/stm32l4xx_hal_opamp_ex.c ****   *           + Extended Peripheral Control functions
  11:Drivers/STM32L4xx_HAL_Driver/Src/stm32l4xx_hal_opamp_ex.c ****   *         
  12:Drivers/STM32L4xx_HAL_Driver/Src/stm32l4xx_hal_opamp_ex.c ****   @verbatim
  13:Drivers/STM32L4xx_HAL_Driver/Src/stm32l4xx_hal_opamp_ex.c ****   ******************************************************************************
  14:Drivers/STM32L4xx_HAL_Driver/Src/stm32l4xx_hal_opamp_ex.c ****   * @attention
  15:Drivers/STM32L4xx_HAL_Driver/Src/stm32l4xx_hal_opamp_ex.c ****   *
  16:Drivers/STM32L4xx_HAL_Driver/Src/stm32l4xx_hal_opamp_ex.c ****   * <h2><center>&copy; COPYRIGHT(c) 2017 STMicroelectronics</center></h2>
  17:Drivers/STM32L4xx_HAL_Driver/Src/stm32l4xx_hal_opamp_ex.c ****   *
  18:Drivers/STM32L4xx_HAL_Driver/Src/stm32l4xx_hal_opamp_ex.c ****   * Redistribution and use in source and binary forms, with or without modification,
  19:Drivers/STM32L4xx_HAL_Driver/Src/stm32l4xx_hal_opamp_ex.c ****   * are permitted provided that the following conditions are met:
  20:Drivers/STM32L4xx_HAL_Driver/Src/stm32l4xx_hal_opamp_ex.c ****   *   1. Redistributions of source code must retain the above copyright notice,
  21:Drivers/STM32L4xx_HAL_Driver/Src/stm32l4xx_hal_opamp_ex.c ****   *      this list of conditions and the following disclaimer.
  22:Drivers/STM32L4xx_HAL_Driver/Src/stm32l4xx_hal_opamp_ex.c ****   *   2. Redistributions in binary form must reproduce the above copyright notice,
  23:Drivers/STM32L4xx_HAL_Driver/Src/stm32l4xx_hal_opamp_ex.c ****   *      this list of conditions and the following disclaimer in the documentation
  24:Drivers/STM32L4xx_HAL_Driver/Src/stm32l4xx_hal_opamp_ex.c ****   *      and/or other materials provided with the distribution.
  25:Drivers/STM32L4xx_HAL_Driver/Src/stm32l4xx_hal_opamp_ex.c ****   *   3. Neither the name of STMicroelectronics nor the names of its contributors
  26:Drivers/STM32L4xx_HAL_Driver/Src/stm32l4xx_hal_opamp_ex.c ****   *      may be used to endorse or promote products derived from this software
  27:Drivers/STM32L4xx_HAL_Driver/Src/stm32l4xx_hal_opamp_ex.c ****   *      without specific prior written permission.
  28:Drivers/STM32L4xx_HAL_Driver/Src/stm32l4xx_hal_opamp_ex.c ****   *
  29:Drivers/STM32L4xx_HAL_Driver/Src/stm32l4xx_hal_opamp_ex.c ****   * THIS SOFTWARE IS PROVIDED BY THE COPYRIGHT HOLDERS AND CONTRIBUTORS "AS IS"
ARM GAS  /tmp/ccdHqyqk.s 			page 2


  30:Drivers/STM32L4xx_HAL_Driver/Src/stm32l4xx_hal_opamp_ex.c ****   * AND ANY EXPRESS OR IMPLIED WARRANTIES, INCLUDING, BUT NOT LIMITED TO, THE
  31:Drivers/STM32L4xx_HAL_Driver/Src/stm32l4xx_hal_opamp_ex.c ****   * IMPLIED WARRANTIES OF MERCHANTABILITY AND FITNESS FOR A PARTICULAR PURPOSE ARE
  32:Drivers/STM32L4xx_HAL_Driver/Src/stm32l4xx_hal_opamp_ex.c ****   * DISCLAIMED. IN NO EVENT SHALL THE COPYRIGHT HOLDER OR CONTRIBUTORS BE LIABLE
  33:Drivers/STM32L4xx_HAL_Driver/Src/stm32l4xx_hal_opamp_ex.c ****   * FOR ANY DIRECT, INDIRECT, INCIDENTAL, SPECIAL, EXEMPLARY, OR CONSEQUENTIAL
  34:Drivers/STM32L4xx_HAL_Driver/Src/stm32l4xx_hal_opamp_ex.c ****   * DAMAGES (INCLUDING, BUT NOT LIMITED TO, PROCUREMENT OF SUBSTITUTE GOODS OR
  35:Drivers/STM32L4xx_HAL_Driver/Src/stm32l4xx_hal_opamp_ex.c ****   * SERVICES; LOSS OF USE, DATA, OR PROFITS; OR BUSINESS INTERRUPTION) HOWEVER
  36:Drivers/STM32L4xx_HAL_Driver/Src/stm32l4xx_hal_opamp_ex.c ****   * CAUSED AND ON ANY THEORY OF LIABILITY, WHETHER IN CONTRACT, STRICT LIABILITY,
  37:Drivers/STM32L4xx_HAL_Driver/Src/stm32l4xx_hal_opamp_ex.c ****   * OR TORT (INCLUDING NEGLIGENCE OR OTHERWISE) ARISING IN ANY WAY OUT OF THE USE
  38:Drivers/STM32L4xx_HAL_Driver/Src/stm32l4xx_hal_opamp_ex.c ****   * OF THIS SOFTWARE, EVEN IF ADVISED OF THE POSSIBILITY OF SUCH DAMAGE.
  39:Drivers/STM32L4xx_HAL_Driver/Src/stm32l4xx_hal_opamp_ex.c ****   *
  40:Drivers/STM32L4xx_HAL_Driver/Src/stm32l4xx_hal_opamp_ex.c ****   ******************************************************************************
  41:Drivers/STM32L4xx_HAL_Driver/Src/stm32l4xx_hal_opamp_ex.c ****   */
  42:Drivers/STM32L4xx_HAL_Driver/Src/stm32l4xx_hal_opamp_ex.c **** 
  43:Drivers/STM32L4xx_HAL_Driver/Src/stm32l4xx_hal_opamp_ex.c **** /* Includes ------------------------------------------------------------------*/
  44:Drivers/STM32L4xx_HAL_Driver/Src/stm32l4xx_hal_opamp_ex.c **** #include "stm32l4xx_hal.h"
  45:Drivers/STM32L4xx_HAL_Driver/Src/stm32l4xx_hal_opamp_ex.c **** 
  46:Drivers/STM32L4xx_HAL_Driver/Src/stm32l4xx_hal_opamp_ex.c **** /** @addtogroup STM32L4xx_HAL_Driver
  47:Drivers/STM32L4xx_HAL_Driver/Src/stm32l4xx_hal_opamp_ex.c ****   * @{
  48:Drivers/STM32L4xx_HAL_Driver/Src/stm32l4xx_hal_opamp_ex.c ****   */
  49:Drivers/STM32L4xx_HAL_Driver/Src/stm32l4xx_hal_opamp_ex.c **** 
  50:Drivers/STM32L4xx_HAL_Driver/Src/stm32l4xx_hal_opamp_ex.c **** /** @defgroup OPAMPEx OPAMPEx
  51:Drivers/STM32L4xx_HAL_Driver/Src/stm32l4xx_hal_opamp_ex.c ****   * @brief OPAMP Extended HAL module driver
  52:Drivers/STM32L4xx_HAL_Driver/Src/stm32l4xx_hal_opamp_ex.c ****   * @{
  53:Drivers/STM32L4xx_HAL_Driver/Src/stm32l4xx_hal_opamp_ex.c ****   */
  54:Drivers/STM32L4xx_HAL_Driver/Src/stm32l4xx_hal_opamp_ex.c **** 
  55:Drivers/STM32L4xx_HAL_Driver/Src/stm32l4xx_hal_opamp_ex.c **** #ifdef HAL_OPAMP_MODULE_ENABLED
  56:Drivers/STM32L4xx_HAL_Driver/Src/stm32l4xx_hal_opamp_ex.c **** 
  57:Drivers/STM32L4xx_HAL_Driver/Src/stm32l4xx_hal_opamp_ex.c **** /* Private typedef -----------------------------------------------------------*/
  58:Drivers/STM32L4xx_HAL_Driver/Src/stm32l4xx_hal_opamp_ex.c **** /* Private define ------------------------------------------------------------*/
  59:Drivers/STM32L4xx_HAL_Driver/Src/stm32l4xx_hal_opamp_ex.c **** /* Private macro -------------------------------------------------------------*/
  60:Drivers/STM32L4xx_HAL_Driver/Src/stm32l4xx_hal_opamp_ex.c **** /* Private variables ---------------------------------------------------------*/
  61:Drivers/STM32L4xx_HAL_Driver/Src/stm32l4xx_hal_opamp_ex.c **** /* Private function prototypes -----------------------------------------------*/
  62:Drivers/STM32L4xx_HAL_Driver/Src/stm32l4xx_hal_opamp_ex.c **** /* Exported functions --------------------------------------------------------*/
  63:Drivers/STM32L4xx_HAL_Driver/Src/stm32l4xx_hal_opamp_ex.c **** 
  64:Drivers/STM32L4xx_HAL_Driver/Src/stm32l4xx_hal_opamp_ex.c **** /** @defgroup OPAMP_Exported_Functions OPAMP Exported Functions
  65:Drivers/STM32L4xx_HAL_Driver/Src/stm32l4xx_hal_opamp_ex.c ****   * @{
  66:Drivers/STM32L4xx_HAL_Driver/Src/stm32l4xx_hal_opamp_ex.c ****   */
  67:Drivers/STM32L4xx_HAL_Driver/Src/stm32l4xx_hal_opamp_ex.c **** 
  68:Drivers/STM32L4xx_HAL_Driver/Src/stm32l4xx_hal_opamp_ex.c **** #if defined (STM32L471xx) || defined (STM32L475xx) || defined (STM32L476xx) || defined (STM32L485xx
  69:Drivers/STM32L4xx_HAL_Driver/Src/stm32l4xx_hal_opamp_ex.c ****     defined (STM32L496xx) || defined (STM32L4A6xx) || \
  70:Drivers/STM32L4xx_HAL_Driver/Src/stm32l4xx_hal_opamp_ex.c ****     defined (STM32L4R5xx) || defined (STM32L4R7xx) || defined (STM32L4R9xx) || defined (STM32L4S5xx
  71:Drivers/STM32L4xx_HAL_Driver/Src/stm32l4xx_hal_opamp_ex.c **** 
  72:Drivers/STM32L4xx_HAL_Driver/Src/stm32l4xx_hal_opamp_ex.c **** /** @addtogroup OPAMPEx_Exported_Functions_Group1
  73:Drivers/STM32L4xx_HAL_Driver/Src/stm32l4xx_hal_opamp_ex.c ****   * @brief    Extended operation functions
  74:Drivers/STM32L4xx_HAL_Driver/Src/stm32l4xx_hal_opamp_ex.c ****   *
  75:Drivers/STM32L4xx_HAL_Driver/Src/stm32l4xx_hal_opamp_ex.c **** @verbatim
  76:Drivers/STM32L4xx_HAL_Driver/Src/stm32l4xx_hal_opamp_ex.c ****  ===============================================================================
  77:Drivers/STM32L4xx_HAL_Driver/Src/stm32l4xx_hal_opamp_ex.c ****               ##### Extended IO operation functions #####
  78:Drivers/STM32L4xx_HAL_Driver/Src/stm32l4xx_hal_opamp_ex.c ****  ===============================================================================
  79:Drivers/STM32L4xx_HAL_Driver/Src/stm32l4xx_hal_opamp_ex.c ****   [..]
  80:Drivers/STM32L4xx_HAL_Driver/Src/stm32l4xx_hal_opamp_ex.c ****       (+) OPAMP Self calibration. 
  81:Drivers/STM32L4xx_HAL_Driver/Src/stm32l4xx_hal_opamp_ex.c **** 
  82:Drivers/STM32L4xx_HAL_Driver/Src/stm32l4xx_hal_opamp_ex.c **** @endverbatim
  83:Drivers/STM32L4xx_HAL_Driver/Src/stm32l4xx_hal_opamp_ex.c ****   * @{
  84:Drivers/STM32L4xx_HAL_Driver/Src/stm32l4xx_hal_opamp_ex.c ****   */
  85:Drivers/STM32L4xx_HAL_Driver/Src/stm32l4xx_hal_opamp_ex.c **** 
  86:Drivers/STM32L4xx_HAL_Driver/Src/stm32l4xx_hal_opamp_ex.c **** /*  2 OPAMPS available */
ARM GAS  /tmp/ccdHqyqk.s 			page 3


  87:Drivers/STM32L4xx_HAL_Driver/Src/stm32l4xx_hal_opamp_ex.c **** /*  2 OPAMPS can be calibrated in parallel */
  88:Drivers/STM32L4xx_HAL_Driver/Src/stm32l4xx_hal_opamp_ex.c **** /*  Not available on STM32L43x/STM32L44x where only one OPAMP available */
  89:Drivers/STM32L4xx_HAL_Driver/Src/stm32l4xx_hal_opamp_ex.c **** 
  90:Drivers/STM32L4xx_HAL_Driver/Src/stm32l4xx_hal_opamp_ex.c **** /**
  91:Drivers/STM32L4xx_HAL_Driver/Src/stm32l4xx_hal_opamp_ex.c ****   * @brief  Run the self calibration of the 2 OPAMPs in parallel.
  92:Drivers/STM32L4xx_HAL_Driver/Src/stm32l4xx_hal_opamp_ex.c ****   * @note   Trimming values (PMOS & NMOS) are updated and user trimming is 
  93:Drivers/STM32L4xx_HAL_Driver/Src/stm32l4xx_hal_opamp_ex.c ****   *         enabled is calibration is successful.
  94:Drivers/STM32L4xx_HAL_Driver/Src/stm32l4xx_hal_opamp_ex.c ****   * @note   Calibration is performed in the mode specified in OPAMP init
  95:Drivers/STM32L4xx_HAL_Driver/Src/stm32l4xx_hal_opamp_ex.c ****   *         structure (mode normal or low-power). To perform calibration for
  96:Drivers/STM32L4xx_HAL_Driver/Src/stm32l4xx_hal_opamp_ex.c ****   *         both modes, repeat this function twice after OPAMP init structure
  97:Drivers/STM32L4xx_HAL_Driver/Src/stm32l4xx_hal_opamp_ex.c ****   *         accordingly updated.
  98:Drivers/STM32L4xx_HAL_Driver/Src/stm32l4xx_hal_opamp_ex.c ****   * @note   Calibration runs about 10 ms (5 dichotomy steps, repeated for P  
  99:Drivers/STM32L4xx_HAL_Driver/Src/stm32l4xx_hal_opamp_ex.c ****   *         and N transistors: 10 steps with 1 ms for each step).
 100:Drivers/STM32L4xx_HAL_Driver/Src/stm32l4xx_hal_opamp_ex.c ****   * @param  hopamp1 handle
 101:Drivers/STM32L4xx_HAL_Driver/Src/stm32l4xx_hal_opamp_ex.c ****   * @param  hopamp2 handle
 102:Drivers/STM32L4xx_HAL_Driver/Src/stm32l4xx_hal_opamp_ex.c ****   * @retval HAL status
 103:Drivers/STM32L4xx_HAL_Driver/Src/stm32l4xx_hal_opamp_ex.c ****   */
 104:Drivers/STM32L4xx_HAL_Driver/Src/stm32l4xx_hal_opamp_ex.c **** 
 105:Drivers/STM32L4xx_HAL_Driver/Src/stm32l4xx_hal_opamp_ex.c **** HAL_StatusTypeDef HAL_OPAMPEx_SelfCalibrateAll(OPAMP_HandleTypeDef *hopamp1, OPAMP_HandleTypeDef *h
 106:Drivers/STM32L4xx_HAL_Driver/Src/stm32l4xx_hal_opamp_ex.c **** {
  30              		.loc 1 106 1 view -0
  31              		.cfi_startproc
  32              		@ args = 0, pretend = 0, frame = 16
  33              		@ frame_needed = 0, uses_anonymous_args = 0
 107:Drivers/STM32L4xx_HAL_Driver/Src/stm32l4xx_hal_opamp_ex.c ****   HAL_StatusTypeDef status = HAL_OK;
  34              		.loc 1 107 3 view .LVU1
 108:Drivers/STM32L4xx_HAL_Driver/Src/stm32l4xx_hal_opamp_ex.c **** 
 109:Drivers/STM32L4xx_HAL_Driver/Src/stm32l4xx_hal_opamp_ex.c ****   uint32_t trimmingvaluen1 = 0;
  35              		.loc 1 109 3 view .LVU2
 110:Drivers/STM32L4xx_HAL_Driver/Src/stm32l4xx_hal_opamp_ex.c ****   uint32_t trimmingvaluep1 = 0;
  36              		.loc 1 110 3 view .LVU3
 111:Drivers/STM32L4xx_HAL_Driver/Src/stm32l4xx_hal_opamp_ex.c ****   uint32_t trimmingvaluen2 = 0;
  37              		.loc 1 111 3 view .LVU4
 112:Drivers/STM32L4xx_HAL_Driver/Src/stm32l4xx_hal_opamp_ex.c ****   uint32_t trimmingvaluep2 = 0;
  38              		.loc 1 112 3 view .LVU5
 113:Drivers/STM32L4xx_HAL_Driver/Src/stm32l4xx_hal_opamp_ex.c **** 
 114:Drivers/STM32L4xx_HAL_Driver/Src/stm32l4xx_hal_opamp_ex.c **** /* Selection of register of trimming depending on power mode: OTR or LPOTR */
 115:Drivers/STM32L4xx_HAL_Driver/Src/stm32l4xx_hal_opamp_ex.c ****   __IO uint32_t* tmp_opamp1_reg_trimming;   
  39              		.loc 1 115 3 view .LVU6
 116:Drivers/STM32L4xx_HAL_Driver/Src/stm32l4xx_hal_opamp_ex.c ****   __IO uint32_t* tmp_opamp2_reg_trimming;
  40              		.loc 1 116 3 view .LVU7
 117:Drivers/STM32L4xx_HAL_Driver/Src/stm32l4xx_hal_opamp_ex.c **** 
 118:Drivers/STM32L4xx_HAL_Driver/Src/stm32l4xx_hal_opamp_ex.c ****   uint32_t delta;
  41              		.loc 1 118 3 view .LVU8
 119:Drivers/STM32L4xx_HAL_Driver/Src/stm32l4xx_hal_opamp_ex.c ****   uint32_t opampmode1;
  42              		.loc 1 119 3 view .LVU9
 120:Drivers/STM32L4xx_HAL_Driver/Src/stm32l4xx_hal_opamp_ex.c ****   uint32_t opampmode2;
  43              		.loc 1 120 3 view .LVU10
 121:Drivers/STM32L4xx_HAL_Driver/Src/stm32l4xx_hal_opamp_ex.c ****   
 122:Drivers/STM32L4xx_HAL_Driver/Src/stm32l4xx_hal_opamp_ex.c ****   if((hopamp1 == NULL) || (hopamp1->State == HAL_OPAMP_STATE_BUSYLOCKED) || \
  44              		.loc 1 122 3 view .LVU11
  45              		.loc 1 122 5 is_stmt 0 view .LVU12
  46 0000 0028     		cmp	r0, #0
  47 0002 00F06781 		beq	.L25
 106:Drivers/STM32L4xx_HAL_Driver/Src/stm32l4xx_hal_opamp_ex.c ****   HAL_StatusTypeDef status = HAL_OK;
  48              		.loc 1 106 1 discriminator 1 view .LVU13
  49 0006 2DE9F04F 		push	{r4, r5, r6, r7, r8, r9, r10, fp, lr}
ARM GAS  /tmp/ccdHqyqk.s 			page 4


  50              	.LCFI0:
  51              		.cfi_def_cfa_offset 36
  52              		.cfi_offset 4, -36
  53              		.cfi_offset 5, -32
  54              		.cfi_offset 6, -28
  55              		.cfi_offset 7, -24
  56              		.cfi_offset 8, -20
  57              		.cfi_offset 9, -16
  58              		.cfi_offset 10, -12
  59              		.cfi_offset 11, -8
  60              		.cfi_offset 14, -4
  61 000a 85B0     		sub	sp, sp, #20
  62              	.LCFI1:
  63              		.cfi_def_cfa_offset 56
  64 000c 0C46     		mov	r4, r1
  65 000e 0546     		mov	r5, r0
  66              		.loc 1 122 35 discriminator 1 view .LVU14
  67 0010 90F83230 		ldrb	r3, [r0, #50]	@ zero_extendqisi2
  68 0014 DBB2     		uxtb	r3, r3
  69              		.loc 1 122 24 discriminator 1 view .LVU15
  70 0016 052B     		cmp	r3, #5
  71 0018 00F05E81 		beq	.L26
  72              		.loc 1 122 74 discriminator 2 view .LVU16
  73 001c 0029     		cmp	r1, #0
  74 001e 00F05F81 		beq	.L27
 123:Drivers/STM32L4xx_HAL_Driver/Src/stm32l4xx_hal_opamp_ex.c ****      (hopamp2 == NULL) || (hopamp2->State == HAL_OPAMP_STATE_BUSYLOCKED)) 
  75              		.loc 1 123 35 view .LVU17
  76 0022 91F83230 		ldrb	r3, [r1, #50]	@ zero_extendqisi2
  77 0026 DBB2     		uxtb	r3, r3
  78              		.loc 1 123 24 view .LVU18
  79 0028 052B     		cmp	r3, #5
  80 002a 00F05B81 		beq	.L28
 124:Drivers/STM32L4xx_HAL_Driver/Src/stm32l4xx_hal_opamp_ex.c ****   {
 125:Drivers/STM32L4xx_HAL_Driver/Src/stm32l4xx_hal_opamp_ex.c ****     status = HAL_ERROR;
 126:Drivers/STM32L4xx_HAL_Driver/Src/stm32l4xx_hal_opamp_ex.c ****   }
 127:Drivers/STM32L4xx_HAL_Driver/Src/stm32l4xx_hal_opamp_ex.c ****   else
 128:Drivers/STM32L4xx_HAL_Driver/Src/stm32l4xx_hal_opamp_ex.c ****   {
 129:Drivers/STM32L4xx_HAL_Driver/Src/stm32l4xx_hal_opamp_ex.c ****     /* Check if OPAMP in calibration mode and calibration not yet enable */
 130:Drivers/STM32L4xx_HAL_Driver/Src/stm32l4xx_hal_opamp_ex.c ****     if((hopamp1->State ==  HAL_OPAMP_STATE_READY) && (hopamp2->State ==  HAL_OPAMP_STATE_READY))
  81              		.loc 1 130 5 is_stmt 1 view .LVU19
  82              		.loc 1 130 16 is_stmt 0 view .LVU20
  83 002e 90F83200 		ldrb	r0, [r0, #50]	@ zero_extendqisi2
  84              	.LVL1:
  85              		.loc 1 130 16 view .LVU21
  86 0032 C0B2     		uxtb	r0, r0
  87              		.loc 1 130 7 view .LVU22
  88 0034 0128     		cmp	r0, #1
  89 0036 01D0     		beq	.L36
 131:Drivers/STM32L4xx_HAL_Driver/Src/stm32l4xx_hal_opamp_ex.c ****     {
 132:Drivers/STM32L4xx_HAL_Driver/Src/stm32l4xx_hal_opamp_ex.c ****       /* Check the parameter */
 133:Drivers/STM32L4xx_HAL_Driver/Src/stm32l4xx_hal_opamp_ex.c ****       assert_param(IS_OPAMP_ALL_INSTANCE(hopamp1->Instance));
 134:Drivers/STM32L4xx_HAL_Driver/Src/stm32l4xx_hal_opamp_ex.c ****       assert_param(IS_OPAMP_ALL_INSTANCE(hopamp2->Instance));
 135:Drivers/STM32L4xx_HAL_Driver/Src/stm32l4xx_hal_opamp_ex.c ****       
 136:Drivers/STM32L4xx_HAL_Driver/Src/stm32l4xx_hal_opamp_ex.c ****       assert_param(IS_OPAMP_POWERMODE(hopamp1->Init.PowerMode));
 137:Drivers/STM32L4xx_HAL_Driver/Src/stm32l4xx_hal_opamp_ex.c ****       assert_param(IS_OPAMP_POWERMODE(hopamp2->Init.PowerMode));
 138:Drivers/STM32L4xx_HAL_Driver/Src/stm32l4xx_hal_opamp_ex.c **** 
 139:Drivers/STM32L4xx_HAL_Driver/Src/stm32l4xx_hal_opamp_ex.c ****       /* Save OPAMP mode as in                                       */
ARM GAS  /tmp/ccdHqyqk.s 			page 5


 140:Drivers/STM32L4xx_HAL_Driver/Src/stm32l4xx_hal_opamp_ex.c ****       /* STM32L471xx STM32L475xx STM32L476xx STM32L485xx STM32L486xx */
 141:Drivers/STM32L4xx_HAL_Driver/Src/stm32l4xx_hal_opamp_ex.c ****       /* the calibration is not working in PGA mode                  */
 142:Drivers/STM32L4xx_HAL_Driver/Src/stm32l4xx_hal_opamp_ex.c ****       opampmode1 = READ_BIT(hopamp1->Instance->CSR,OPAMP_CSR_OPAMODE);
 143:Drivers/STM32L4xx_HAL_Driver/Src/stm32l4xx_hal_opamp_ex.c ****       opampmode2 = READ_BIT(hopamp2->Instance->CSR,OPAMP_CSR_OPAMODE);
 144:Drivers/STM32L4xx_HAL_Driver/Src/stm32l4xx_hal_opamp_ex.c **** 
 145:Drivers/STM32L4xx_HAL_Driver/Src/stm32l4xx_hal_opamp_ex.c ****       /* Use of standalone mode */ 
 146:Drivers/STM32L4xx_HAL_Driver/Src/stm32l4xx_hal_opamp_ex.c ****       MODIFY_REG(hopamp1->Instance->CSR, OPAMP_CSR_OPAMODE, OPAMP_STANDALONE_MODE); 
 147:Drivers/STM32L4xx_HAL_Driver/Src/stm32l4xx_hal_opamp_ex.c ****       MODIFY_REG(hopamp2->Instance->CSR, OPAMP_CSR_OPAMODE, OPAMP_STANDALONE_MODE); 
 148:Drivers/STM32L4xx_HAL_Driver/Src/stm32l4xx_hal_opamp_ex.c ****       
 149:Drivers/STM32L4xx_HAL_Driver/Src/stm32l4xx_hal_opamp_ex.c ****       /*  user trimming values are used for offset calibration */
 150:Drivers/STM32L4xx_HAL_Driver/Src/stm32l4xx_hal_opamp_ex.c ****       SET_BIT(hopamp1->Instance->CSR, OPAMP_CSR_USERTRIM);
 151:Drivers/STM32L4xx_HAL_Driver/Src/stm32l4xx_hal_opamp_ex.c ****       SET_BIT(hopamp2->Instance->CSR, OPAMP_CSR_USERTRIM);
 152:Drivers/STM32L4xx_HAL_Driver/Src/stm32l4xx_hal_opamp_ex.c ****       
 153:Drivers/STM32L4xx_HAL_Driver/Src/stm32l4xx_hal_opamp_ex.c ****       /* Select trimming settings depending on power mode */
 154:Drivers/STM32L4xx_HAL_Driver/Src/stm32l4xx_hal_opamp_ex.c ****       if (hopamp1->Init.PowerMode == OPAMP_POWERMODE_NORMAL)
 155:Drivers/STM32L4xx_HAL_Driver/Src/stm32l4xx_hal_opamp_ex.c ****       {
 156:Drivers/STM32L4xx_HAL_Driver/Src/stm32l4xx_hal_opamp_ex.c ****         tmp_opamp1_reg_trimming = &OPAMP1->OTR;
 157:Drivers/STM32L4xx_HAL_Driver/Src/stm32l4xx_hal_opamp_ex.c ****       }
 158:Drivers/STM32L4xx_HAL_Driver/Src/stm32l4xx_hal_opamp_ex.c ****       else
 159:Drivers/STM32L4xx_HAL_Driver/Src/stm32l4xx_hal_opamp_ex.c ****       {
 160:Drivers/STM32L4xx_HAL_Driver/Src/stm32l4xx_hal_opamp_ex.c ****         tmp_opamp1_reg_trimming = &OPAMP1->LPOTR;
 161:Drivers/STM32L4xx_HAL_Driver/Src/stm32l4xx_hal_opamp_ex.c ****       }
 162:Drivers/STM32L4xx_HAL_Driver/Src/stm32l4xx_hal_opamp_ex.c ****       
 163:Drivers/STM32L4xx_HAL_Driver/Src/stm32l4xx_hal_opamp_ex.c ****       if (hopamp2->Init.PowerMode == OPAMP_POWERMODE_NORMAL)
 164:Drivers/STM32L4xx_HAL_Driver/Src/stm32l4xx_hal_opamp_ex.c ****       {
 165:Drivers/STM32L4xx_HAL_Driver/Src/stm32l4xx_hal_opamp_ex.c ****         tmp_opamp2_reg_trimming = &OPAMP2->OTR;
 166:Drivers/STM32L4xx_HAL_Driver/Src/stm32l4xx_hal_opamp_ex.c ****       }
 167:Drivers/STM32L4xx_HAL_Driver/Src/stm32l4xx_hal_opamp_ex.c ****       else
 168:Drivers/STM32L4xx_HAL_Driver/Src/stm32l4xx_hal_opamp_ex.c ****       {
 169:Drivers/STM32L4xx_HAL_Driver/Src/stm32l4xx_hal_opamp_ex.c ****         tmp_opamp2_reg_trimming = &OPAMP2->LPOTR;
 170:Drivers/STM32L4xx_HAL_Driver/Src/stm32l4xx_hal_opamp_ex.c ****       }
 171:Drivers/STM32L4xx_HAL_Driver/Src/stm32l4xx_hal_opamp_ex.c ****       
 172:Drivers/STM32L4xx_HAL_Driver/Src/stm32l4xx_hal_opamp_ex.c ****       /* Enable calibration */
 173:Drivers/STM32L4xx_HAL_Driver/Src/stm32l4xx_hal_opamp_ex.c ****       SET_BIT (hopamp1->Instance->CSR, OPAMP_CSR_CALON);
 174:Drivers/STM32L4xx_HAL_Driver/Src/stm32l4xx_hal_opamp_ex.c ****       SET_BIT (hopamp2->Instance->CSR, OPAMP_CSR_CALON);
 175:Drivers/STM32L4xx_HAL_Driver/Src/stm32l4xx_hal_opamp_ex.c ****   
 176:Drivers/STM32L4xx_HAL_Driver/Src/stm32l4xx_hal_opamp_ex.c ****       /* 1st calibration - N */
 177:Drivers/STM32L4xx_HAL_Driver/Src/stm32l4xx_hal_opamp_ex.c ****       CLEAR_BIT (hopamp1->Instance->CSR, OPAMP_CSR_CALSEL);
 178:Drivers/STM32L4xx_HAL_Driver/Src/stm32l4xx_hal_opamp_ex.c ****       CLEAR_BIT (hopamp2->Instance->CSR, OPAMP_CSR_CALSEL);
 179:Drivers/STM32L4xx_HAL_Driver/Src/stm32l4xx_hal_opamp_ex.c ****       
 180:Drivers/STM32L4xx_HAL_Driver/Src/stm32l4xx_hal_opamp_ex.c ****       /* Enable the selected opamp */
 181:Drivers/STM32L4xx_HAL_Driver/Src/stm32l4xx_hal_opamp_ex.c ****       SET_BIT (hopamp1->Instance->CSR, OPAMP_CSR_OPAMPxEN);
 182:Drivers/STM32L4xx_HAL_Driver/Src/stm32l4xx_hal_opamp_ex.c ****       SET_BIT (hopamp2->Instance->CSR, OPAMP_CSR_OPAMPxEN);
 183:Drivers/STM32L4xx_HAL_Driver/Src/stm32l4xx_hal_opamp_ex.c ****       
 184:Drivers/STM32L4xx_HAL_Driver/Src/stm32l4xx_hal_opamp_ex.c ****       /* Init trimming counter */    
 185:Drivers/STM32L4xx_HAL_Driver/Src/stm32l4xx_hal_opamp_ex.c ****       /* Medium value */
 186:Drivers/STM32L4xx_HAL_Driver/Src/stm32l4xx_hal_opamp_ex.c ****       trimmingvaluen1 = 16; 
 187:Drivers/STM32L4xx_HAL_Driver/Src/stm32l4xx_hal_opamp_ex.c ****       trimmingvaluen2 = 16; 
 188:Drivers/STM32L4xx_HAL_Driver/Src/stm32l4xx_hal_opamp_ex.c ****       delta = 8; 
 189:Drivers/STM32L4xx_HAL_Driver/Src/stm32l4xx_hal_opamp_ex.c **** 
 190:Drivers/STM32L4xx_HAL_Driver/Src/stm32l4xx_hal_opamp_ex.c ****       while (delta != 0)
 191:Drivers/STM32L4xx_HAL_Driver/Src/stm32l4xx_hal_opamp_ex.c ****       {
 192:Drivers/STM32L4xx_HAL_Driver/Src/stm32l4xx_hal_opamp_ex.c ****         /* Set candidate trimming */
 193:Drivers/STM32L4xx_HAL_Driver/Src/stm32l4xx_hal_opamp_ex.c ****         /* OPAMP_POWERMODE_NORMAL */
 194:Drivers/STM32L4xx_HAL_Driver/Src/stm32l4xx_hal_opamp_ex.c ****         MODIFY_REG(*tmp_opamp1_reg_trimming, OPAMP_OTR_TRIMOFFSETN, trimmingvaluen1);
 195:Drivers/STM32L4xx_HAL_Driver/Src/stm32l4xx_hal_opamp_ex.c ****         MODIFY_REG(*tmp_opamp2_reg_trimming, OPAMP_OTR_TRIMOFFSETN, trimmingvaluen2);
 196:Drivers/STM32L4xx_HAL_Driver/Src/stm32l4xx_hal_opamp_ex.c **** 
ARM GAS  /tmp/ccdHqyqk.s 			page 6


 197:Drivers/STM32L4xx_HAL_Driver/Src/stm32l4xx_hal_opamp_ex.c ****         /* OFFTRIMmax delay 1 ms as per datasheet (electrical characteristics */ 
 198:Drivers/STM32L4xx_HAL_Driver/Src/stm32l4xx_hal_opamp_ex.c ****         /* Offset trim time: during calibration, minimum time needed between */
 199:Drivers/STM32L4xx_HAL_Driver/Src/stm32l4xx_hal_opamp_ex.c ****         /* two steps to have 1 mV accuracy */
 200:Drivers/STM32L4xx_HAL_Driver/Src/stm32l4xx_hal_opamp_ex.c ****         HAL_Delay(OPAMP_TRIMMING_DELAY);
 201:Drivers/STM32L4xx_HAL_Driver/Src/stm32l4xx_hal_opamp_ex.c **** 
 202:Drivers/STM32L4xx_HAL_Driver/Src/stm32l4xx_hal_opamp_ex.c ****         if (READ_BIT(hopamp1->Instance->CSR, OPAMP_CSR_CALOUT) != RESET)
 203:Drivers/STM32L4xx_HAL_Driver/Src/stm32l4xx_hal_opamp_ex.c ****         { 
 204:Drivers/STM32L4xx_HAL_Driver/Src/stm32l4xx_hal_opamp_ex.c ****           /* OPAMP_CSR_CALOUT is HIGH try lower trimming */
 205:Drivers/STM32L4xx_HAL_Driver/Src/stm32l4xx_hal_opamp_ex.c ****           trimmingvaluen1 -= delta;
 206:Drivers/STM32L4xx_HAL_Driver/Src/stm32l4xx_hal_opamp_ex.c ****         }
 207:Drivers/STM32L4xx_HAL_Driver/Src/stm32l4xx_hal_opamp_ex.c ****         else
 208:Drivers/STM32L4xx_HAL_Driver/Src/stm32l4xx_hal_opamp_ex.c ****         {
 209:Drivers/STM32L4xx_HAL_Driver/Src/stm32l4xx_hal_opamp_ex.c ****           /* OPAMP_CSR_CALOUT is LOW try higher trimming */
 210:Drivers/STM32L4xx_HAL_Driver/Src/stm32l4xx_hal_opamp_ex.c ****           trimmingvaluen1 += delta;
 211:Drivers/STM32L4xx_HAL_Driver/Src/stm32l4xx_hal_opamp_ex.c ****         }
 212:Drivers/STM32L4xx_HAL_Driver/Src/stm32l4xx_hal_opamp_ex.c **** 
 213:Drivers/STM32L4xx_HAL_Driver/Src/stm32l4xx_hal_opamp_ex.c ****         if (READ_BIT(hopamp2->Instance->CSR, OPAMP_CSR_CALOUT) != RESET) 
 214:Drivers/STM32L4xx_HAL_Driver/Src/stm32l4xx_hal_opamp_ex.c ****         { 
 215:Drivers/STM32L4xx_HAL_Driver/Src/stm32l4xx_hal_opamp_ex.c ****           /* OPAMP_CSR_CALOUT is HIGH try lower trimming */
 216:Drivers/STM32L4xx_HAL_Driver/Src/stm32l4xx_hal_opamp_ex.c ****           trimmingvaluen2 -= delta;
 217:Drivers/STM32L4xx_HAL_Driver/Src/stm32l4xx_hal_opamp_ex.c ****         }
 218:Drivers/STM32L4xx_HAL_Driver/Src/stm32l4xx_hal_opamp_ex.c ****         else
 219:Drivers/STM32L4xx_HAL_Driver/Src/stm32l4xx_hal_opamp_ex.c ****         {
 220:Drivers/STM32L4xx_HAL_Driver/Src/stm32l4xx_hal_opamp_ex.c ****           /* OPAMP_CSR_CALOUT is LOW try higher trimming */
 221:Drivers/STM32L4xx_HAL_Driver/Src/stm32l4xx_hal_opamp_ex.c ****           trimmingvaluen2 += delta;
 222:Drivers/STM32L4xx_HAL_Driver/Src/stm32l4xx_hal_opamp_ex.c ****         }
 223:Drivers/STM32L4xx_HAL_Driver/Src/stm32l4xx_hal_opamp_ex.c ****         /* Divide range by 2 to continue dichotomy sweep */
 224:Drivers/STM32L4xx_HAL_Driver/Src/stm32l4xx_hal_opamp_ex.c ****         delta >>= 1;
 225:Drivers/STM32L4xx_HAL_Driver/Src/stm32l4xx_hal_opamp_ex.c ****       }
 226:Drivers/STM32L4xx_HAL_Driver/Src/stm32l4xx_hal_opamp_ex.c **** 
 227:Drivers/STM32L4xx_HAL_Driver/Src/stm32l4xx_hal_opamp_ex.c ****       /* Still need to check if right calibration is current value or one step below */
 228:Drivers/STM32L4xx_HAL_Driver/Src/stm32l4xx_hal_opamp_ex.c ****       /* Indeed the first value that causes the OUTCAL bit to change from 0 to 1  */
 229:Drivers/STM32L4xx_HAL_Driver/Src/stm32l4xx_hal_opamp_ex.c ****       /* Set candidate trimming */
 230:Drivers/STM32L4xx_HAL_Driver/Src/stm32l4xx_hal_opamp_ex.c ****       MODIFY_REG(*tmp_opamp1_reg_trimming, OPAMP_OTR_TRIMOFFSETN, trimmingvaluen1);
 231:Drivers/STM32L4xx_HAL_Driver/Src/stm32l4xx_hal_opamp_ex.c ****       MODIFY_REG(*tmp_opamp2_reg_trimming, OPAMP_OTR_TRIMOFFSETN, trimmingvaluen2);
 232:Drivers/STM32L4xx_HAL_Driver/Src/stm32l4xx_hal_opamp_ex.c ****       
 233:Drivers/STM32L4xx_HAL_Driver/Src/stm32l4xx_hal_opamp_ex.c ****       /* OFFTRIMmax delay 1 ms as per datasheet (electrical characteristics */ 
 234:Drivers/STM32L4xx_HAL_Driver/Src/stm32l4xx_hal_opamp_ex.c ****       /* Offset trim time: during calibration, minimum time needed between */
 235:Drivers/STM32L4xx_HAL_Driver/Src/stm32l4xx_hal_opamp_ex.c ****       /* two steps to have 1 mV accuracy */
 236:Drivers/STM32L4xx_HAL_Driver/Src/stm32l4xx_hal_opamp_ex.c ****       HAL_Delay(OPAMP_TRIMMING_DELAY);
 237:Drivers/STM32L4xx_HAL_Driver/Src/stm32l4xx_hal_opamp_ex.c ****       
 238:Drivers/STM32L4xx_HAL_Driver/Src/stm32l4xx_hal_opamp_ex.c ****       if ((READ_BIT(hopamp1->Instance->CSR, OPAMP_CSR_CALOUT)) == 0)
 239:Drivers/STM32L4xx_HAL_Driver/Src/stm32l4xx_hal_opamp_ex.c ****       {
 240:Drivers/STM32L4xx_HAL_Driver/Src/stm32l4xx_hal_opamp_ex.c ****         /* Trimming value is actually one value more */
 241:Drivers/STM32L4xx_HAL_Driver/Src/stm32l4xx_hal_opamp_ex.c ****         trimmingvaluen1++;
 242:Drivers/STM32L4xx_HAL_Driver/Src/stm32l4xx_hal_opamp_ex.c ****         MODIFY_REG(*tmp_opamp1_reg_trimming, OPAMP_OTR_TRIMOFFSETN, trimmingvaluen1);
 243:Drivers/STM32L4xx_HAL_Driver/Src/stm32l4xx_hal_opamp_ex.c ****       }
 244:Drivers/STM32L4xx_HAL_Driver/Src/stm32l4xx_hal_opamp_ex.c ****        
 245:Drivers/STM32L4xx_HAL_Driver/Src/stm32l4xx_hal_opamp_ex.c ****       if ((READ_BIT(hopamp2->Instance->CSR, OPAMP_CSR_CALOUT)) == 0)
 246:Drivers/STM32L4xx_HAL_Driver/Src/stm32l4xx_hal_opamp_ex.c ****       {
 247:Drivers/STM32L4xx_HAL_Driver/Src/stm32l4xx_hal_opamp_ex.c ****         /* Trimming value is actually one value more */
 248:Drivers/STM32L4xx_HAL_Driver/Src/stm32l4xx_hal_opamp_ex.c ****         trimmingvaluen2++;
 249:Drivers/STM32L4xx_HAL_Driver/Src/stm32l4xx_hal_opamp_ex.c ****         MODIFY_REG(*tmp_opamp2_reg_trimming, OPAMP_OTR_TRIMOFFSETN, trimmingvaluen2);
 250:Drivers/STM32L4xx_HAL_Driver/Src/stm32l4xx_hal_opamp_ex.c ****       }
 251:Drivers/STM32L4xx_HAL_Driver/Src/stm32l4xx_hal_opamp_ex.c ****       
 252:Drivers/STM32L4xx_HAL_Driver/Src/stm32l4xx_hal_opamp_ex.c ****       /* 2nd calibration - P */
 253:Drivers/STM32L4xx_HAL_Driver/Src/stm32l4xx_hal_opamp_ex.c ****       SET_BIT (hopamp1->Instance->CSR, OPAMP_CSR_CALSEL);
ARM GAS  /tmp/ccdHqyqk.s 			page 7


 254:Drivers/STM32L4xx_HAL_Driver/Src/stm32l4xx_hal_opamp_ex.c ****       SET_BIT (hopamp2->Instance->CSR, OPAMP_CSR_CALSEL);
 255:Drivers/STM32L4xx_HAL_Driver/Src/stm32l4xx_hal_opamp_ex.c ****              
 256:Drivers/STM32L4xx_HAL_Driver/Src/stm32l4xx_hal_opamp_ex.c ****       /* Init trimming counter */    
 257:Drivers/STM32L4xx_HAL_Driver/Src/stm32l4xx_hal_opamp_ex.c ****       /* Medium value */
 258:Drivers/STM32L4xx_HAL_Driver/Src/stm32l4xx_hal_opamp_ex.c ****       trimmingvaluep1 = 16; 
 259:Drivers/STM32L4xx_HAL_Driver/Src/stm32l4xx_hal_opamp_ex.c ****       trimmingvaluep2 = 16; 
 260:Drivers/STM32L4xx_HAL_Driver/Src/stm32l4xx_hal_opamp_ex.c ****       delta = 8; 
 261:Drivers/STM32L4xx_HAL_Driver/Src/stm32l4xx_hal_opamp_ex.c ****       
 262:Drivers/STM32L4xx_HAL_Driver/Src/stm32l4xx_hal_opamp_ex.c ****       while (delta != 0)
 263:Drivers/STM32L4xx_HAL_Driver/Src/stm32l4xx_hal_opamp_ex.c ****       {
 264:Drivers/STM32L4xx_HAL_Driver/Src/stm32l4xx_hal_opamp_ex.c ****         /* Set candidate trimming */
 265:Drivers/STM32L4xx_HAL_Driver/Src/stm32l4xx_hal_opamp_ex.c ****         /* OPAMP_POWERMODE_NORMAL */
 266:Drivers/STM32L4xx_HAL_Driver/Src/stm32l4xx_hal_opamp_ex.c ****         MODIFY_REG(*tmp_opamp1_reg_trimming, OPAMP_OTR_TRIMOFFSETP, (trimmingvaluep1<<OPAMP_INPUT_N
 267:Drivers/STM32L4xx_HAL_Driver/Src/stm32l4xx_hal_opamp_ex.c ****         MODIFY_REG(*tmp_opamp2_reg_trimming, OPAMP_OTR_TRIMOFFSETP, (trimmingvaluep2<<OPAMP_INPUT_N
 268:Drivers/STM32L4xx_HAL_Driver/Src/stm32l4xx_hal_opamp_ex.c **** 
 269:Drivers/STM32L4xx_HAL_Driver/Src/stm32l4xx_hal_opamp_ex.c ****         /* OFFTRIMmax delay 1 ms as per datasheet (electrical characteristics */ 
 270:Drivers/STM32L4xx_HAL_Driver/Src/stm32l4xx_hal_opamp_ex.c ****         /* Offset trim time: during calibration, minimum time needed between */
 271:Drivers/STM32L4xx_HAL_Driver/Src/stm32l4xx_hal_opamp_ex.c ****         /* two steps to have 1 mV accuracy */
 272:Drivers/STM32L4xx_HAL_Driver/Src/stm32l4xx_hal_opamp_ex.c ****         HAL_Delay(OPAMP_TRIMMING_DELAY);
 273:Drivers/STM32L4xx_HAL_Driver/Src/stm32l4xx_hal_opamp_ex.c **** 
 274:Drivers/STM32L4xx_HAL_Driver/Src/stm32l4xx_hal_opamp_ex.c ****         if (READ_BIT(hopamp1->Instance->CSR, OPAMP_CSR_CALOUT) != RESET) 
 275:Drivers/STM32L4xx_HAL_Driver/Src/stm32l4xx_hal_opamp_ex.c ****         { 
 276:Drivers/STM32L4xx_HAL_Driver/Src/stm32l4xx_hal_opamp_ex.c ****           /* OPAMP_CSR_CALOUT is HIGH try higher trimming */
 277:Drivers/STM32L4xx_HAL_Driver/Src/stm32l4xx_hal_opamp_ex.c ****           trimmingvaluep1 += delta;
 278:Drivers/STM32L4xx_HAL_Driver/Src/stm32l4xx_hal_opamp_ex.c ****         }
 279:Drivers/STM32L4xx_HAL_Driver/Src/stm32l4xx_hal_opamp_ex.c ****         else
 280:Drivers/STM32L4xx_HAL_Driver/Src/stm32l4xx_hal_opamp_ex.c ****         {
 281:Drivers/STM32L4xx_HAL_Driver/Src/stm32l4xx_hal_opamp_ex.c ****           /* OPAMP_CSR_CALOUT is HIGH try lower trimming */
 282:Drivers/STM32L4xx_HAL_Driver/Src/stm32l4xx_hal_opamp_ex.c ****           trimmingvaluep1 -= delta;
 283:Drivers/STM32L4xx_HAL_Driver/Src/stm32l4xx_hal_opamp_ex.c ****         }
 284:Drivers/STM32L4xx_HAL_Driver/Src/stm32l4xx_hal_opamp_ex.c **** 
 285:Drivers/STM32L4xx_HAL_Driver/Src/stm32l4xx_hal_opamp_ex.c ****         if (READ_BIT(hopamp2->Instance->CSR, OPAMP_CSR_CALOUT) != RESET) 
 286:Drivers/STM32L4xx_HAL_Driver/Src/stm32l4xx_hal_opamp_ex.c ****         { 
 287:Drivers/STM32L4xx_HAL_Driver/Src/stm32l4xx_hal_opamp_ex.c ****           /* OPAMP_CSR_CALOUT is HIGH try higher trimming */
 288:Drivers/STM32L4xx_HAL_Driver/Src/stm32l4xx_hal_opamp_ex.c ****           trimmingvaluep2 += delta;
 289:Drivers/STM32L4xx_HAL_Driver/Src/stm32l4xx_hal_opamp_ex.c ****         }
 290:Drivers/STM32L4xx_HAL_Driver/Src/stm32l4xx_hal_opamp_ex.c ****         else
 291:Drivers/STM32L4xx_HAL_Driver/Src/stm32l4xx_hal_opamp_ex.c ****         {
 292:Drivers/STM32L4xx_HAL_Driver/Src/stm32l4xx_hal_opamp_ex.c ****           /* OPAMP_CSR_CALOUT is LOW try lower trimming */
 293:Drivers/STM32L4xx_HAL_Driver/Src/stm32l4xx_hal_opamp_ex.c ****           trimmingvaluep2 -= delta;
 294:Drivers/STM32L4xx_HAL_Driver/Src/stm32l4xx_hal_opamp_ex.c ****         }
 295:Drivers/STM32L4xx_HAL_Driver/Src/stm32l4xx_hal_opamp_ex.c ****         /* Divide range by 2 to continue dichotomy sweep */
 296:Drivers/STM32L4xx_HAL_Driver/Src/stm32l4xx_hal_opamp_ex.c ****         delta >>= 1;
 297:Drivers/STM32L4xx_HAL_Driver/Src/stm32l4xx_hal_opamp_ex.c ****       }
 298:Drivers/STM32L4xx_HAL_Driver/Src/stm32l4xx_hal_opamp_ex.c ****       
 299:Drivers/STM32L4xx_HAL_Driver/Src/stm32l4xx_hal_opamp_ex.c ****       /* Still need to check if right calibration is current value or one step below */
 300:Drivers/STM32L4xx_HAL_Driver/Src/stm32l4xx_hal_opamp_ex.c ****       /* Indeed the first value that causes the OUTCAL bit to change from 1 to 0  */
 301:Drivers/STM32L4xx_HAL_Driver/Src/stm32l4xx_hal_opamp_ex.c ****       /* Set candidate trimming */
 302:Drivers/STM32L4xx_HAL_Driver/Src/stm32l4xx_hal_opamp_ex.c ****       MODIFY_REG(*tmp_opamp1_reg_trimming, OPAMP_OTR_TRIMOFFSETP, (trimmingvaluep1<<OPAMP_INPUT_NON
 303:Drivers/STM32L4xx_HAL_Driver/Src/stm32l4xx_hal_opamp_ex.c ****       MODIFY_REG(*tmp_opamp2_reg_trimming, OPAMP_OTR_TRIMOFFSETP, (trimmingvaluep2<<OPAMP_INPUT_NON
 304:Drivers/STM32L4xx_HAL_Driver/Src/stm32l4xx_hal_opamp_ex.c ****       
 305:Drivers/STM32L4xx_HAL_Driver/Src/stm32l4xx_hal_opamp_ex.c ****       /* OFFTRIMmax delay 1 ms as per datasheet (electrical characteristics */ 
 306:Drivers/STM32L4xx_HAL_Driver/Src/stm32l4xx_hal_opamp_ex.c ****       /* Offset trim time: during calibration, minimum time needed between */
 307:Drivers/STM32L4xx_HAL_Driver/Src/stm32l4xx_hal_opamp_ex.c ****       /* two steps to have 1 mV accuracy */
 308:Drivers/STM32L4xx_HAL_Driver/Src/stm32l4xx_hal_opamp_ex.c ****       HAL_Delay(OPAMP_TRIMMING_DELAY);
 309:Drivers/STM32L4xx_HAL_Driver/Src/stm32l4xx_hal_opamp_ex.c ****       
 310:Drivers/STM32L4xx_HAL_Driver/Src/stm32l4xx_hal_opamp_ex.c ****       if (READ_BIT(hopamp1->Instance->CSR, OPAMP_CSR_CALOUT) != RESET)
ARM GAS  /tmp/ccdHqyqk.s 			page 8


 311:Drivers/STM32L4xx_HAL_Driver/Src/stm32l4xx_hal_opamp_ex.c ****       {
 312:Drivers/STM32L4xx_HAL_Driver/Src/stm32l4xx_hal_opamp_ex.c ****         /* Trimming value is actually one value more */
 313:Drivers/STM32L4xx_HAL_Driver/Src/stm32l4xx_hal_opamp_ex.c ****         trimmingvaluep1++;
 314:Drivers/STM32L4xx_HAL_Driver/Src/stm32l4xx_hal_opamp_ex.c ****         MODIFY_REG(*tmp_opamp1_reg_trimming, OPAMP_OTR_TRIMOFFSETP, (trimmingvaluep1<<OPAMP_INPUT_N
 315:Drivers/STM32L4xx_HAL_Driver/Src/stm32l4xx_hal_opamp_ex.c ****       }
 316:Drivers/STM32L4xx_HAL_Driver/Src/stm32l4xx_hal_opamp_ex.c ****       
 317:Drivers/STM32L4xx_HAL_Driver/Src/stm32l4xx_hal_opamp_ex.c ****       if (READ_BIT(hopamp2->Instance->CSR, OPAMP_CSR_CALOUT) != RESET)
 318:Drivers/STM32L4xx_HAL_Driver/Src/stm32l4xx_hal_opamp_ex.c ****       {
 319:Drivers/STM32L4xx_HAL_Driver/Src/stm32l4xx_hal_opamp_ex.c ****         /* Trimming value is actually one value more */
 320:Drivers/STM32L4xx_HAL_Driver/Src/stm32l4xx_hal_opamp_ex.c ****         trimmingvaluep2++;
 321:Drivers/STM32L4xx_HAL_Driver/Src/stm32l4xx_hal_opamp_ex.c ****         MODIFY_REG(*tmp_opamp2_reg_trimming, OPAMP_OTR_TRIMOFFSETP, (trimmingvaluep2<<OPAMP_INPUT_N
 322:Drivers/STM32L4xx_HAL_Driver/Src/stm32l4xx_hal_opamp_ex.c ****       }
 323:Drivers/STM32L4xx_HAL_Driver/Src/stm32l4xx_hal_opamp_ex.c ****       
 324:Drivers/STM32L4xx_HAL_Driver/Src/stm32l4xx_hal_opamp_ex.c ****       /* Disable the OPAMPs */
 325:Drivers/STM32L4xx_HAL_Driver/Src/stm32l4xx_hal_opamp_ex.c ****       CLEAR_BIT (hopamp1->Instance->CSR, OPAMP_CSR_OPAMPxEN);
 326:Drivers/STM32L4xx_HAL_Driver/Src/stm32l4xx_hal_opamp_ex.c ****       CLEAR_BIT (hopamp2->Instance->CSR, OPAMP_CSR_OPAMPxEN);
 327:Drivers/STM32L4xx_HAL_Driver/Src/stm32l4xx_hal_opamp_ex.c ****             
 328:Drivers/STM32L4xx_HAL_Driver/Src/stm32l4xx_hal_opamp_ex.c ****       /* Disable calibration & set normal mode (operating mode) */
 329:Drivers/STM32L4xx_HAL_Driver/Src/stm32l4xx_hal_opamp_ex.c ****       CLEAR_BIT (hopamp1->Instance->CSR, OPAMP_CSR_CALON);
 330:Drivers/STM32L4xx_HAL_Driver/Src/stm32l4xx_hal_opamp_ex.c ****       CLEAR_BIT (hopamp2->Instance->CSR, OPAMP_CSR_CALON);
 331:Drivers/STM32L4xx_HAL_Driver/Src/stm32l4xx_hal_opamp_ex.c **** 
 332:Drivers/STM32L4xx_HAL_Driver/Src/stm32l4xx_hal_opamp_ex.c ****       /* Self calibration is successful */
 333:Drivers/STM32L4xx_HAL_Driver/Src/stm32l4xx_hal_opamp_ex.c ****       /* Store calibration (user trimming) results in init structure. */
 334:Drivers/STM32L4xx_HAL_Driver/Src/stm32l4xx_hal_opamp_ex.c ****       
 335:Drivers/STM32L4xx_HAL_Driver/Src/stm32l4xx_hal_opamp_ex.c ****       /* Set user trimming mode */  
 336:Drivers/STM32L4xx_HAL_Driver/Src/stm32l4xx_hal_opamp_ex.c ****       hopamp1->Init.UserTrimming = OPAMP_TRIMMING_USER;
 337:Drivers/STM32L4xx_HAL_Driver/Src/stm32l4xx_hal_opamp_ex.c ****       hopamp2->Init.UserTrimming = OPAMP_TRIMMING_USER;
 338:Drivers/STM32L4xx_HAL_Driver/Src/stm32l4xx_hal_opamp_ex.c **** 
 339:Drivers/STM32L4xx_HAL_Driver/Src/stm32l4xx_hal_opamp_ex.c ****       /* Affect calibration parameters depending on mode normal/low power */
 340:Drivers/STM32L4xx_HAL_Driver/Src/stm32l4xx_hal_opamp_ex.c ****       if (hopamp1->Init.PowerMode != OPAMP_POWERMODE_LOWPOWER)
 341:Drivers/STM32L4xx_HAL_Driver/Src/stm32l4xx_hal_opamp_ex.c ****       {
 342:Drivers/STM32L4xx_HAL_Driver/Src/stm32l4xx_hal_opamp_ex.c ****         /* Write calibration result N */
 343:Drivers/STM32L4xx_HAL_Driver/Src/stm32l4xx_hal_opamp_ex.c ****         hopamp1->Init.TrimmingValueN = trimmingvaluen1;
 344:Drivers/STM32L4xx_HAL_Driver/Src/stm32l4xx_hal_opamp_ex.c ****         /* Write calibration result P */
 345:Drivers/STM32L4xx_HAL_Driver/Src/stm32l4xx_hal_opamp_ex.c ****         hopamp1->Init.TrimmingValueP = trimmingvaluep1;
 346:Drivers/STM32L4xx_HAL_Driver/Src/stm32l4xx_hal_opamp_ex.c ****       }
 347:Drivers/STM32L4xx_HAL_Driver/Src/stm32l4xx_hal_opamp_ex.c ****       else
 348:Drivers/STM32L4xx_HAL_Driver/Src/stm32l4xx_hal_opamp_ex.c ****       {
 349:Drivers/STM32L4xx_HAL_Driver/Src/stm32l4xx_hal_opamp_ex.c ****         /* Write calibration result N */
 350:Drivers/STM32L4xx_HAL_Driver/Src/stm32l4xx_hal_opamp_ex.c ****         hopamp1->Init.TrimmingValueNLowPower = trimmingvaluen1;
 351:Drivers/STM32L4xx_HAL_Driver/Src/stm32l4xx_hal_opamp_ex.c ****         /* Write calibration result P */
 352:Drivers/STM32L4xx_HAL_Driver/Src/stm32l4xx_hal_opamp_ex.c ****         hopamp1->Init.TrimmingValuePLowPower = trimmingvaluep1;
 353:Drivers/STM32L4xx_HAL_Driver/Src/stm32l4xx_hal_opamp_ex.c ****       }
 354:Drivers/STM32L4xx_HAL_Driver/Src/stm32l4xx_hal_opamp_ex.c ****       
 355:Drivers/STM32L4xx_HAL_Driver/Src/stm32l4xx_hal_opamp_ex.c ****       if (hopamp2->Init.PowerMode != OPAMP_POWERMODE_LOWPOWER)
 356:Drivers/STM32L4xx_HAL_Driver/Src/stm32l4xx_hal_opamp_ex.c ****       {
 357:Drivers/STM32L4xx_HAL_Driver/Src/stm32l4xx_hal_opamp_ex.c ****         /* Write calibration result N */
 358:Drivers/STM32L4xx_HAL_Driver/Src/stm32l4xx_hal_opamp_ex.c ****         hopamp2->Init.TrimmingValueN = trimmingvaluen2;
 359:Drivers/STM32L4xx_HAL_Driver/Src/stm32l4xx_hal_opamp_ex.c ****         /* Write calibration result P */
 360:Drivers/STM32L4xx_HAL_Driver/Src/stm32l4xx_hal_opamp_ex.c ****         hopamp2->Init.TrimmingValueP = trimmingvaluep2;
 361:Drivers/STM32L4xx_HAL_Driver/Src/stm32l4xx_hal_opamp_ex.c ****       }
 362:Drivers/STM32L4xx_HAL_Driver/Src/stm32l4xx_hal_opamp_ex.c ****       else
 363:Drivers/STM32L4xx_HAL_Driver/Src/stm32l4xx_hal_opamp_ex.c ****       {
 364:Drivers/STM32L4xx_HAL_Driver/Src/stm32l4xx_hal_opamp_ex.c ****         /* Write calibration result N */
 365:Drivers/STM32L4xx_HAL_Driver/Src/stm32l4xx_hal_opamp_ex.c ****         hopamp2->Init.TrimmingValueNLowPower = trimmingvaluen2;
 366:Drivers/STM32L4xx_HAL_Driver/Src/stm32l4xx_hal_opamp_ex.c ****         /* Write calibration result P */
 367:Drivers/STM32L4xx_HAL_Driver/Src/stm32l4xx_hal_opamp_ex.c ****         hopamp2->Init.TrimmingValuePLowPower = trimmingvaluep2;
ARM GAS  /tmp/ccdHqyqk.s 			page 9


 368:Drivers/STM32L4xx_HAL_Driver/Src/stm32l4xx_hal_opamp_ex.c ****       }
 369:Drivers/STM32L4xx_HAL_Driver/Src/stm32l4xx_hal_opamp_ex.c **** 
 370:Drivers/STM32L4xx_HAL_Driver/Src/stm32l4xx_hal_opamp_ex.c ****       /* Update OPAMP state */
 371:Drivers/STM32L4xx_HAL_Driver/Src/stm32l4xx_hal_opamp_ex.c ****       hopamp1->State = HAL_OPAMP_STATE_READY;
 372:Drivers/STM32L4xx_HAL_Driver/Src/stm32l4xx_hal_opamp_ex.c ****       hopamp2->State = HAL_OPAMP_STATE_READY;
 373:Drivers/STM32L4xx_HAL_Driver/Src/stm32l4xx_hal_opamp_ex.c **** 
 374:Drivers/STM32L4xx_HAL_Driver/Src/stm32l4xx_hal_opamp_ex.c ****       /* Restore OPAMP mode after calibration */
 375:Drivers/STM32L4xx_HAL_Driver/Src/stm32l4xx_hal_opamp_ex.c ****       MODIFY_REG(hopamp1->Instance->CSR, OPAMP_CSR_OPAMODE, opampmode1);
 376:Drivers/STM32L4xx_HAL_Driver/Src/stm32l4xx_hal_opamp_ex.c ****       MODIFY_REG(hopamp2->Instance->CSR, OPAMP_CSR_OPAMODE, opampmode2);
 377:Drivers/STM32L4xx_HAL_Driver/Src/stm32l4xx_hal_opamp_ex.c ****     }
 378:Drivers/STM32L4xx_HAL_Driver/Src/stm32l4xx_hal_opamp_ex.c ****     else
 379:Drivers/STM32L4xx_HAL_Driver/Src/stm32l4xx_hal_opamp_ex.c ****     {
 380:Drivers/STM32L4xx_HAL_Driver/Src/stm32l4xx_hal_opamp_ex.c ****       /* At least one OPAMP can not be calibrated */ 
 381:Drivers/STM32L4xx_HAL_Driver/Src/stm32l4xx_hal_opamp_ex.c ****       status = HAL_ERROR;
  90              		.loc 1 381 14 view .LVU23
  91 0038 0120     		movs	r0, #1
  92 003a 4EE1     		b	.L2
  93              	.L36:
 130:Drivers/STM32L4xx_HAL_Driver/Src/stm32l4xx_hal_opamp_ex.c ****     {
  94              		.loc 1 130 62 discriminator 1 view .LVU24
  95 003c 91F83230 		ldrb	r3, [r1, #50]	@ zero_extendqisi2
  96 0040 DBB2     		uxtb	r3, r3
 130:Drivers/STM32L4xx_HAL_Driver/Src/stm32l4xx_hal_opamp_ex.c ****     {
  97              		.loc 1 130 51 discriminator 1 view .LVU25
  98 0042 012B     		cmp	r3, #1
  99 0044 40F04981 		bne	.L2
 133:Drivers/STM32L4xx_HAL_Driver/Src/stm32l4xx_hal_opamp_ex.c ****       assert_param(IS_OPAMP_ALL_INSTANCE(hopamp2->Instance));
 100              		.loc 1 133 7 is_stmt 1 view .LVU26
 134:Drivers/STM32L4xx_HAL_Driver/Src/stm32l4xx_hal_opamp_ex.c ****       
 101              		.loc 1 134 7 view .LVU27
 136:Drivers/STM32L4xx_HAL_Driver/Src/stm32l4xx_hal_opamp_ex.c ****       assert_param(IS_OPAMP_POWERMODE(hopamp2->Init.PowerMode));
 102              		.loc 1 136 7 view .LVU28
 137:Drivers/STM32L4xx_HAL_Driver/Src/stm32l4xx_hal_opamp_ex.c **** 
 103              		.loc 1 137 7 view .LVU29
 142:Drivers/STM32L4xx_HAL_Driver/Src/stm32l4xx_hal_opamp_ex.c ****       opampmode2 = READ_BIT(hopamp2->Instance->CSR,OPAMP_CSR_OPAMODE);
 104              		.loc 1 142 7 view .LVU30
 142:Drivers/STM32L4xx_HAL_Driver/Src/stm32l4xx_hal_opamp_ex.c ****       opampmode2 = READ_BIT(hopamp2->Instance->CSR,OPAMP_CSR_OPAMODE);
 105              		.loc 1 142 20 is_stmt 0 view .LVU31
 106 0048 2B68     		ldr	r3, [r5]
 107 004a 1A68     		ldr	r2, [r3]
 142:Drivers/STM32L4xx_HAL_Driver/Src/stm32l4xx_hal_opamp_ex.c ****       opampmode2 = READ_BIT(hopamp2->Instance->CSR,OPAMP_CSR_OPAMODE);
 108              		.loc 1 142 18 view .LVU32
 109 004c 02F00C02 		and	r2, r2, #12
 110 0050 0292     		str	r2, [sp, #8]
 111              	.LVL2:
 143:Drivers/STM32L4xx_HAL_Driver/Src/stm32l4xx_hal_opamp_ex.c **** 
 112              		.loc 1 143 7 is_stmt 1 view .LVU33
 143:Drivers/STM32L4xx_HAL_Driver/Src/stm32l4xx_hal_opamp_ex.c **** 
 113              		.loc 1 143 20 is_stmt 0 view .LVU34
 114 0052 0A68     		ldr	r2, [r1]
 115              	.LVL3:
 143:Drivers/STM32L4xx_HAL_Driver/Src/stm32l4xx_hal_opamp_ex.c **** 
 116              		.loc 1 143 20 view .LVU35
 117 0054 1268     		ldr	r2, [r2]
 143:Drivers/STM32L4xx_HAL_Driver/Src/stm32l4xx_hal_opamp_ex.c **** 
 118              		.loc 1 143 18 view .LVU36
 119 0056 02F00C02 		and	r2, r2, #12
ARM GAS  /tmp/ccdHqyqk.s 			page 10


 120 005a 0392     		str	r2, [sp, #12]
 121              	.LVL4:
 146:Drivers/STM32L4xx_HAL_Driver/Src/stm32l4xx_hal_opamp_ex.c ****       MODIFY_REG(hopamp2->Instance->CSR, OPAMP_CSR_OPAMODE, OPAMP_STANDALONE_MODE); 
 122              		.loc 1 146 7 is_stmt 1 view .LVU37
 123 005c 1A68     		ldr	r2, [r3]
 124              	.LVL5:
 146:Drivers/STM32L4xx_HAL_Driver/Src/stm32l4xx_hal_opamp_ex.c ****       MODIFY_REG(hopamp2->Instance->CSR, OPAMP_CSR_OPAMODE, OPAMP_STANDALONE_MODE); 
 125              		.loc 1 146 7 is_stmt 0 view .LVU38
 126 005e 22F00C02 		bic	r2, r2, #12
 127 0062 1A60     		str	r2, [r3]
 147:Drivers/STM32L4xx_HAL_Driver/Src/stm32l4xx_hal_opamp_ex.c ****       
 128              		.loc 1 147 7 is_stmt 1 view .LVU39
 129 0064 0A68     		ldr	r2, [r1]
 130 0066 1368     		ldr	r3, [r2]
 131 0068 23F00C03 		bic	r3, r3, #12
 132 006c 1360     		str	r3, [r2]
 150:Drivers/STM32L4xx_HAL_Driver/Src/stm32l4xx_hal_opamp_ex.c ****       SET_BIT(hopamp2->Instance->CSR, OPAMP_CSR_USERTRIM);
 133              		.loc 1 150 7 view .LVU40
 134 006e 2A68     		ldr	r2, [r5]
 135 0070 1368     		ldr	r3, [r2]
 136 0072 43F48043 		orr	r3, r3, #16384
 137 0076 1360     		str	r3, [r2]
 151:Drivers/STM32L4xx_HAL_Driver/Src/stm32l4xx_hal_opamp_ex.c ****       
 138              		.loc 1 151 7 view .LVU41
 139 0078 0A68     		ldr	r2, [r1]
 140 007a 1368     		ldr	r3, [r2]
 141 007c 43F48043 		orr	r3, r3, #16384
 142 0080 1360     		str	r3, [r2]
 154:Drivers/STM32L4xx_HAL_Driver/Src/stm32l4xx_hal_opamp_ex.c ****       {
 143              		.loc 1 154 7 view .LVU42
 154:Drivers/STM32L4xx_HAL_Driver/Src/stm32l4xx_hal_opamp_ex.c ****       {
 144              		.loc 1 154 24 is_stmt 0 view .LVU43
 145 0082 AB68     		ldr	r3, [r5, #8]
 154:Drivers/STM32L4xx_HAL_Driver/Src/stm32l4xx_hal_opamp_ex.c ****       {
 146              		.loc 1 154 10 view .LVU44
 147 0084 3BBB     		cbnz	r3, .L30
 156:Drivers/STM32L4xx_HAL_Driver/Src/stm32l4xx_hal_opamp_ex.c ****       }
 148              		.loc 1 156 33 view .LVU45
 149 0086 984F     		ldr	r7, .L39
 150              	.L3:
 151              	.LVL6:
 163:Drivers/STM32L4xx_HAL_Driver/Src/stm32l4xx_hal_opamp_ex.c ****       {
 152              		.loc 1 163 7 is_stmt 1 view .LVU46
 163:Drivers/STM32L4xx_HAL_Driver/Src/stm32l4xx_hal_opamp_ex.c ****       {
 153              		.loc 1 163 24 is_stmt 0 view .LVU47
 154 0088 A368     		ldr	r3, [r4, #8]
 163:Drivers/STM32L4xx_HAL_Driver/Src/stm32l4xx_hal_opamp_ex.c ****       {
 155              		.loc 1 163 10 view .LVU48
 156 008a 33BB     		cbnz	r3, .L31
 165:Drivers/STM32L4xx_HAL_Driver/Src/stm32l4xx_hal_opamp_ex.c ****       }
 157              		.loc 1 165 33 view .LVU49
 158 008c 974E     		ldr	r6, .L39+4
 159              	.L4:
 160              	.LVL7:
 173:Drivers/STM32L4xx_HAL_Driver/Src/stm32l4xx_hal_opamp_ex.c ****       SET_BIT (hopamp2->Instance->CSR, OPAMP_CSR_CALON);
 161              		.loc 1 173 7 is_stmt 1 view .LVU50
 162 008e 2A68     		ldr	r2, [r5]
ARM GAS  /tmp/ccdHqyqk.s 			page 11


 163 0090 1368     		ldr	r3, [r2]
 164 0092 43F48053 		orr	r3, r3, #4096
 165 0096 1360     		str	r3, [r2]
 174:Drivers/STM32L4xx_HAL_Driver/Src/stm32l4xx_hal_opamp_ex.c ****   
 166              		.loc 1 174 7 view .LVU51
 167 0098 2268     		ldr	r2, [r4]
 168 009a 1368     		ldr	r3, [r2]
 169 009c 43F48053 		orr	r3, r3, #4096
 170 00a0 1360     		str	r3, [r2]
 177:Drivers/STM32L4xx_HAL_Driver/Src/stm32l4xx_hal_opamp_ex.c ****       CLEAR_BIT (hopamp2->Instance->CSR, OPAMP_CSR_CALSEL);
 171              		.loc 1 177 7 view .LVU52
 172 00a2 2A68     		ldr	r2, [r5]
 173 00a4 1368     		ldr	r3, [r2]
 174 00a6 23F40053 		bic	r3, r3, #8192
 175 00aa 1360     		str	r3, [r2]
 178:Drivers/STM32L4xx_HAL_Driver/Src/stm32l4xx_hal_opamp_ex.c ****       
 176              		.loc 1 178 7 view .LVU53
 177 00ac 2268     		ldr	r2, [r4]
 178 00ae 1368     		ldr	r3, [r2]
 179 00b0 23F40053 		bic	r3, r3, #8192
 180 00b4 1360     		str	r3, [r2]
 181:Drivers/STM32L4xx_HAL_Driver/Src/stm32l4xx_hal_opamp_ex.c ****       SET_BIT (hopamp2->Instance->CSR, OPAMP_CSR_OPAMPxEN);
 181              		.loc 1 181 7 view .LVU54
 182 00b6 2A68     		ldr	r2, [r5]
 183 00b8 1368     		ldr	r3, [r2]
 184 00ba 43F00103 		orr	r3, r3, #1
 185 00be 1360     		str	r3, [r2]
 182:Drivers/STM32L4xx_HAL_Driver/Src/stm32l4xx_hal_opamp_ex.c ****       
 186              		.loc 1 182 7 view .LVU55
 187 00c0 2268     		ldr	r2, [r4]
 188 00c2 1368     		ldr	r3, [r2]
 189 00c4 43F00103 		orr	r3, r3, #1
 190 00c8 1360     		str	r3, [r2]
 186:Drivers/STM32L4xx_HAL_Driver/Src/stm32l4xx_hal_opamp_ex.c ****       trimmingvaluen2 = 16; 
 191              		.loc 1 186 7 view .LVU56
 192              	.LVL8:
 187:Drivers/STM32L4xx_HAL_Driver/Src/stm32l4xx_hal_opamp_ex.c ****       delta = 8; 
 193              		.loc 1 187 7 view .LVU57
 188:Drivers/STM32L4xx_HAL_Driver/Src/stm32l4xx_hal_opamp_ex.c **** 
 194              		.loc 1 188 7 view .LVU58
 190:Drivers/STM32L4xx_HAL_Driver/Src/stm32l4xx_hal_opamp_ex.c ****       {
 195              		.loc 1 190 7 view .LVU59
 188:Drivers/STM32L4xx_HAL_Driver/Src/stm32l4xx_hal_opamp_ex.c **** 
 196              		.loc 1 188 13 is_stmt 0 view .LVU60
 197 00ca 4FF00808 		mov	r8, #8
 187:Drivers/STM32L4xx_HAL_Driver/Src/stm32l4xx_hal_opamp_ex.c ****       delta = 8; 
 198              		.loc 1 187 23 view .LVU61
 199 00ce 4FF0100A 		mov	r10, #16
 186:Drivers/STM32L4xx_HAL_Driver/Src/stm32l4xx_hal_opamp_ex.c ****       trimmingvaluen2 = 16; 
 200              		.loc 1 186 23 view .LVU62
 201 00d2 D346     		mov	fp, r10
 190:Drivers/STM32L4xx_HAL_Driver/Src/stm32l4xx_hal_opamp_ex.c ****       {
 202              		.loc 1 190 13 view .LVU63
 203 00d4 08E0     		b	.L5
 204              	.LVL9:
 205              	.L30:
 160:Drivers/STM32L4xx_HAL_Driver/Src/stm32l4xx_hal_opamp_ex.c ****       }
ARM GAS  /tmp/ccdHqyqk.s 			page 12


 206              		.loc 1 160 33 view .LVU64
 207 00d6 864F     		ldr	r7, .L39+8
 208 00d8 D6E7     		b	.L3
 209              	.LVL10:
 210              	.L31:
 169:Drivers/STM32L4xx_HAL_Driver/Src/stm32l4xx_hal_opamp_ex.c ****       }
 211              		.loc 1 169 33 view .LVU65
 212 00da 864E     		ldr	r6, .L39+12
 213 00dc D7E7     		b	.L4
 214              	.LVL11:
 215              	.L6:
 210:Drivers/STM32L4xx_HAL_Driver/Src/stm32l4xx_hal_opamp_ex.c ****         }
 216              		.loc 1 210 11 is_stmt 1 view .LVU66
 210:Drivers/STM32L4xx_HAL_Driver/Src/stm32l4xx_hal_opamp_ex.c ****         }
 217              		.loc 1 210 27 is_stmt 0 view .LVU67
 218 00de C344     		add	fp, fp, r8
 219              	.LVL12:
 210:Drivers/STM32L4xx_HAL_Driver/Src/stm32l4xx_hal_opamp_ex.c ****         }
 220              		.loc 1 210 27 view .LVU68
 221 00e0 1BE0     		b	.L7
 222              	.L8:
 221:Drivers/STM32L4xx_HAL_Driver/Src/stm32l4xx_hal_opamp_ex.c ****         }
 223              		.loc 1 221 11 is_stmt 1 view .LVU69
 221:Drivers/STM32L4xx_HAL_Driver/Src/stm32l4xx_hal_opamp_ex.c ****         }
 224              		.loc 1 221 27 is_stmt 0 view .LVU70
 225 00e2 C244     		add	r10, r10, r8
 226              	.LVL13:
 227              	.L9:
 224:Drivers/STM32L4xx_HAL_Driver/Src/stm32l4xx_hal_opamp_ex.c ****       }
 228              		.loc 1 224 9 is_stmt 1 view .LVU71
 224:Drivers/STM32L4xx_HAL_Driver/Src/stm32l4xx_hal_opamp_ex.c ****       }
 229              		.loc 1 224 15 is_stmt 0 view .LVU72
 230 00e4 4FEA5808 		lsr	r8, r8, #1
 231              	.LVL14:
 232              	.L5:
 190:Drivers/STM32L4xx_HAL_Driver/Src/stm32l4xx_hal_opamp_ex.c ****       {
 233              		.loc 1 190 13 is_stmt 1 view .LVU73
 234 00e8 B8F1000F 		cmp	r8, #0
 235 00ec 1DD0     		beq	.L37
 194:Drivers/STM32L4xx_HAL_Driver/Src/stm32l4xx_hal_opamp_ex.c ****         MODIFY_REG(*tmp_opamp2_reg_trimming, OPAMP_OTR_TRIMOFFSETN, trimmingvaluen2);
 236              		.loc 1 194 9 view .LVU74
 237 00ee 3B68     		ldr	r3, [r7]
 238 00f0 23F01F03 		bic	r3, r3, #31
 239 00f4 43EA0B03 		orr	r3, r3, fp
 240 00f8 3B60     		str	r3, [r7]
 195:Drivers/STM32L4xx_HAL_Driver/Src/stm32l4xx_hal_opamp_ex.c **** 
 241              		.loc 1 195 9 view .LVU75
 242 00fa 3368     		ldr	r3, [r6]
 243 00fc 23F01F03 		bic	r3, r3, #31
 244 0100 43EA0A03 		orr	r3, r3, r10
 245 0104 3360     		str	r3, [r6]
 200:Drivers/STM32L4xx_HAL_Driver/Src/stm32l4xx_hal_opamp_ex.c **** 
 246              		.loc 1 200 9 view .LVU76
 247 0106 0120     		movs	r0, #1
 248 0108 FFF7FEFF 		bl	HAL_Delay
 249              	.LVL15:
 202:Drivers/STM32L4xx_HAL_Driver/Src/stm32l4xx_hal_opamp_ex.c ****         { 
ARM GAS  /tmp/ccdHqyqk.s 			page 13


 250              		.loc 1 202 9 view .LVU77
 202:Drivers/STM32L4xx_HAL_Driver/Src/stm32l4xx_hal_opamp_ex.c ****         { 
 251              		.loc 1 202 13 is_stmt 0 view .LVU78
 252 010c 2B68     		ldr	r3, [r5]
 253 010e 1B68     		ldr	r3, [r3]
 202:Drivers/STM32L4xx_HAL_Driver/Src/stm32l4xx_hal_opamp_ex.c ****         { 
 254              		.loc 1 202 12 view .LVU79
 255 0110 13F4004F 		tst	r3, #32768
 256 0114 E3D0     		beq	.L6
 205:Drivers/STM32L4xx_HAL_Driver/Src/stm32l4xx_hal_opamp_ex.c ****         }
 257              		.loc 1 205 11 is_stmt 1 view .LVU80
 205:Drivers/STM32L4xx_HAL_Driver/Src/stm32l4xx_hal_opamp_ex.c ****         }
 258              		.loc 1 205 27 is_stmt 0 view .LVU81
 259 0116 ABEB080B 		sub	fp, fp, r8
 260              	.LVL16:
 261              	.L7:
 213:Drivers/STM32L4xx_HAL_Driver/Src/stm32l4xx_hal_opamp_ex.c ****         { 
 262              		.loc 1 213 9 is_stmt 1 view .LVU82
 213:Drivers/STM32L4xx_HAL_Driver/Src/stm32l4xx_hal_opamp_ex.c ****         { 
 263              		.loc 1 213 13 is_stmt 0 view .LVU83
 264 011a 2368     		ldr	r3, [r4]
 265 011c 1B68     		ldr	r3, [r3]
 213:Drivers/STM32L4xx_HAL_Driver/Src/stm32l4xx_hal_opamp_ex.c ****         { 
 266              		.loc 1 213 12 view .LVU84
 267 011e 13F4004F 		tst	r3, #32768
 268 0122 DED0     		beq	.L8
 216:Drivers/STM32L4xx_HAL_Driver/Src/stm32l4xx_hal_opamp_ex.c ****         }
 269              		.loc 1 216 11 is_stmt 1 view .LVU85
 216:Drivers/STM32L4xx_HAL_Driver/Src/stm32l4xx_hal_opamp_ex.c ****         }
 270              		.loc 1 216 27 is_stmt 0 view .LVU86
 271 0124 AAEB080A 		sub	r10, r10, r8
 272              	.LVL17:
 216:Drivers/STM32L4xx_HAL_Driver/Src/stm32l4xx_hal_opamp_ex.c ****         }
 273              		.loc 1 216 27 view .LVU87
 274 0128 DCE7     		b	.L9
 275              	.L37:
 230:Drivers/STM32L4xx_HAL_Driver/Src/stm32l4xx_hal_opamp_ex.c ****       MODIFY_REG(*tmp_opamp2_reg_trimming, OPAMP_OTR_TRIMOFFSETN, trimmingvaluen2);
 276              		.loc 1 230 7 is_stmt 1 view .LVU88
 277 012a 3B68     		ldr	r3, [r7]
 278 012c 23F01F03 		bic	r3, r3, #31
 279 0130 43EA0B03 		orr	r3, r3, fp
 280 0134 3B60     		str	r3, [r7]
 231:Drivers/STM32L4xx_HAL_Driver/Src/stm32l4xx_hal_opamp_ex.c ****       
 281              		.loc 1 231 7 view .LVU89
 282 0136 3368     		ldr	r3, [r6]
 283 0138 23F01F03 		bic	r3, r3, #31
 284 013c 43EA0A03 		orr	r3, r3, r10
 285 0140 3360     		str	r3, [r6]
 236:Drivers/STM32L4xx_HAL_Driver/Src/stm32l4xx_hal_opamp_ex.c ****       
 286              		.loc 1 236 7 view .LVU90
 287 0142 0120     		movs	r0, #1
 288 0144 FFF7FEFF 		bl	HAL_Delay
 289              	.LVL18:
 238:Drivers/STM32L4xx_HAL_Driver/Src/stm32l4xx_hal_opamp_ex.c ****       {
 290              		.loc 1 238 7 view .LVU91
 238:Drivers/STM32L4xx_HAL_Driver/Src/stm32l4xx_hal_opamp_ex.c ****       {
 291              		.loc 1 238 12 is_stmt 0 view .LVU92
ARM GAS  /tmp/ccdHqyqk.s 			page 14


 292 0148 2B68     		ldr	r3, [r5]
 293 014a 1B68     		ldr	r3, [r3]
 238:Drivers/STM32L4xx_HAL_Driver/Src/stm32l4xx_hal_opamp_ex.c ****       {
 294              		.loc 1 238 10 view .LVU93
 295 014c 13F4004F 		tst	r3, #32768
 296 0150 07D1     		bne	.L11
 241:Drivers/STM32L4xx_HAL_Driver/Src/stm32l4xx_hal_opamp_ex.c ****         MODIFY_REG(*tmp_opamp1_reg_trimming, OPAMP_OTR_TRIMOFFSETN, trimmingvaluen1);
 297              		.loc 1 241 9 is_stmt 1 view .LVU94
 241:Drivers/STM32L4xx_HAL_Driver/Src/stm32l4xx_hal_opamp_ex.c ****         MODIFY_REG(*tmp_opamp1_reg_trimming, OPAMP_OTR_TRIMOFFSETN, trimmingvaluen1);
 298              		.loc 1 241 24 is_stmt 0 view .LVU95
 299 0152 0BF1010B 		add	fp, fp, #1
 300              	.LVL19:
 242:Drivers/STM32L4xx_HAL_Driver/Src/stm32l4xx_hal_opamp_ex.c ****       }
 301              		.loc 1 242 9 is_stmt 1 view .LVU96
 302 0156 3B68     		ldr	r3, [r7]
 303 0158 23F01F03 		bic	r3, r3, #31
 304 015c 43EA0B03 		orr	r3, r3, fp
 305 0160 3B60     		str	r3, [r7]
 306              	.L11:
 245:Drivers/STM32L4xx_HAL_Driver/Src/stm32l4xx_hal_opamp_ex.c ****       {
 307              		.loc 1 245 7 view .LVU97
 245:Drivers/STM32L4xx_HAL_Driver/Src/stm32l4xx_hal_opamp_ex.c ****       {
 308              		.loc 1 245 12 is_stmt 0 view .LVU98
 309 0162 2368     		ldr	r3, [r4]
 310 0164 1B68     		ldr	r3, [r3]
 245:Drivers/STM32L4xx_HAL_Driver/Src/stm32l4xx_hal_opamp_ex.c ****       {
 311              		.loc 1 245 10 view .LVU99
 312 0166 13F4004F 		tst	r3, #32768
 313 016a 07D1     		bne	.L12
 248:Drivers/STM32L4xx_HAL_Driver/Src/stm32l4xx_hal_opamp_ex.c ****         MODIFY_REG(*tmp_opamp2_reg_trimming, OPAMP_OTR_TRIMOFFSETN, trimmingvaluen2);
 314              		.loc 1 248 9 is_stmt 1 view .LVU100
 248:Drivers/STM32L4xx_HAL_Driver/Src/stm32l4xx_hal_opamp_ex.c ****         MODIFY_REG(*tmp_opamp2_reg_trimming, OPAMP_OTR_TRIMOFFSETN, trimmingvaluen2);
 315              		.loc 1 248 24 is_stmt 0 view .LVU101
 316 016c 0AF1010A 		add	r10, r10, #1
 317              	.LVL20:
 249:Drivers/STM32L4xx_HAL_Driver/Src/stm32l4xx_hal_opamp_ex.c ****       }
 318              		.loc 1 249 9 is_stmt 1 view .LVU102
 319 0170 3368     		ldr	r3, [r6]
 320 0172 23F01F03 		bic	r3, r3, #31
 321 0176 43EA0A03 		orr	r3, r3, r10
 322 017a 3360     		str	r3, [r6]
 323              	.L12:
 253:Drivers/STM32L4xx_HAL_Driver/Src/stm32l4xx_hal_opamp_ex.c ****       SET_BIT (hopamp2->Instance->CSR, OPAMP_CSR_CALSEL);
 324              		.loc 1 253 7 view .LVU103
 325 017c 2A68     		ldr	r2, [r5]
 326 017e 1368     		ldr	r3, [r2]
 327 0180 43F40053 		orr	r3, r3, #8192
 328 0184 1360     		str	r3, [r2]
 254:Drivers/STM32L4xx_HAL_Driver/Src/stm32l4xx_hal_opamp_ex.c ****              
 329              		.loc 1 254 7 view .LVU104
 330 0186 2268     		ldr	r2, [r4]
 331 0188 1368     		ldr	r3, [r2]
 332 018a 43F40053 		orr	r3, r3, #8192
 333 018e 1360     		str	r3, [r2]
 258:Drivers/STM32L4xx_HAL_Driver/Src/stm32l4xx_hal_opamp_ex.c ****       trimmingvaluep2 = 16; 
 334              		.loc 1 258 7 view .LVU105
 335              	.LVL21:
ARM GAS  /tmp/ccdHqyqk.s 			page 15


 259:Drivers/STM32L4xx_HAL_Driver/Src/stm32l4xx_hal_opamp_ex.c ****       delta = 8; 
 336              		.loc 1 259 7 view .LVU106
 260:Drivers/STM32L4xx_HAL_Driver/Src/stm32l4xx_hal_opamp_ex.c ****       
 337              		.loc 1 260 7 view .LVU107
 262:Drivers/STM32L4xx_HAL_Driver/Src/stm32l4xx_hal_opamp_ex.c ****       {
 338              		.loc 1 262 7 view .LVU108
 260:Drivers/STM32L4xx_HAL_Driver/Src/stm32l4xx_hal_opamp_ex.c ****       
 339              		.loc 1 260 13 is_stmt 0 view .LVU109
 340 0190 4FF00808 		mov	r8, #8
 259:Drivers/STM32L4xx_HAL_Driver/Src/stm32l4xx_hal_opamp_ex.c ****       delta = 8; 
 341              		.loc 1 259 23 view .LVU110
 342 0194 4FF01009 		mov	r9, #16
 258:Drivers/STM32L4xx_HAL_Driver/Src/stm32l4xx_hal_opamp_ex.c ****       trimmingvaluep2 = 16; 
 343              		.loc 1 258 23 view .LVU111
 344 0198 CDF80490 		str	r9, [sp, #4]
 262:Drivers/STM32L4xx_HAL_Driver/Src/stm32l4xx_hal_opamp_ex.c ****       {
 345              		.loc 1 262 13 view .LVU112
 346 019c 08E0     		b	.L13
 347              	.LVL22:
 348              	.L14:
 282:Drivers/STM32L4xx_HAL_Driver/Src/stm32l4xx_hal_opamp_ex.c ****         }
 349              		.loc 1 282 11 is_stmt 1 view .LVU113
 282:Drivers/STM32L4xx_HAL_Driver/Src/stm32l4xx_hal_opamp_ex.c ****         }
 350              		.loc 1 282 27 is_stmt 0 view .LVU114
 351 019e 019B     		ldr	r3, [sp, #4]
 352 01a0 A3EB0803 		sub	r3, r3, r8
 353 01a4 0193     		str	r3, [sp, #4]
 354              	.LVL23:
 282:Drivers/STM32L4xx_HAL_Driver/Src/stm32l4xx_hal_opamp_ex.c ****         }
 355              		.loc 1 282 27 view .LVU115
 356 01a6 1EE0     		b	.L15
 357              	.LVL24:
 358              	.L16:
 293:Drivers/STM32L4xx_HAL_Driver/Src/stm32l4xx_hal_opamp_ex.c ****         }
 359              		.loc 1 293 11 is_stmt 1 view .LVU116
 293:Drivers/STM32L4xx_HAL_Driver/Src/stm32l4xx_hal_opamp_ex.c ****         }
 360              		.loc 1 293 27 is_stmt 0 view .LVU117
 361 01a8 A9EB0809 		sub	r9, r9, r8
 362              	.LVL25:
 363              	.L17:
 296:Drivers/STM32L4xx_HAL_Driver/Src/stm32l4xx_hal_opamp_ex.c ****       }
 364              		.loc 1 296 9 is_stmt 1 view .LVU118
 296:Drivers/STM32L4xx_HAL_Driver/Src/stm32l4xx_hal_opamp_ex.c ****       }
 365              		.loc 1 296 15 is_stmt 0 view .LVU119
 366 01ac 4FEA5808 		lsr	r8, r8, #1
 367              	.LVL26:
 368              	.L13:
 262:Drivers/STM32L4xx_HAL_Driver/Src/stm32l4xx_hal_opamp_ex.c ****       {
 369              		.loc 1 262 13 is_stmt 1 view .LVU120
 370 01b0 B8F1000F 		cmp	r8, #0
 371 01b4 1ED0     		beq	.L38
 266:Drivers/STM32L4xx_HAL_Driver/Src/stm32l4xx_hal_opamp_ex.c ****         MODIFY_REG(*tmp_opamp2_reg_trimming, OPAMP_OTR_TRIMOFFSETP, (trimmingvaluep2<<OPAMP_INPUT_N
 372              		.loc 1 266 9 view .LVU121
 373 01b6 3B68     		ldr	r3, [r7]
 374 01b8 23F4F853 		bic	r3, r3, #7936
 375 01bc 019A     		ldr	r2, [sp, #4]
 376 01be 43EA0223 		orr	r3, r3, r2, lsl #8
ARM GAS  /tmp/ccdHqyqk.s 			page 16


 377 01c2 3B60     		str	r3, [r7]
 267:Drivers/STM32L4xx_HAL_Driver/Src/stm32l4xx_hal_opamp_ex.c **** 
 378              		.loc 1 267 9 view .LVU122
 379 01c4 3368     		ldr	r3, [r6]
 380 01c6 23F4F853 		bic	r3, r3, #7936
 381 01ca 43EA0923 		orr	r3, r3, r9, lsl #8
 382 01ce 3360     		str	r3, [r6]
 272:Drivers/STM32L4xx_HAL_Driver/Src/stm32l4xx_hal_opamp_ex.c **** 
 383              		.loc 1 272 9 view .LVU123
 384 01d0 0120     		movs	r0, #1
 385 01d2 FFF7FEFF 		bl	HAL_Delay
 386              	.LVL27:
 274:Drivers/STM32L4xx_HAL_Driver/Src/stm32l4xx_hal_opamp_ex.c ****         { 
 387              		.loc 1 274 9 view .LVU124
 274:Drivers/STM32L4xx_HAL_Driver/Src/stm32l4xx_hal_opamp_ex.c ****         { 
 388              		.loc 1 274 13 is_stmt 0 view .LVU125
 389 01d6 2B68     		ldr	r3, [r5]
 390 01d8 1B68     		ldr	r3, [r3]
 274:Drivers/STM32L4xx_HAL_Driver/Src/stm32l4xx_hal_opamp_ex.c ****         { 
 391              		.loc 1 274 12 view .LVU126
 392 01da 13F4004F 		tst	r3, #32768
 393 01de DED0     		beq	.L14
 277:Drivers/STM32L4xx_HAL_Driver/Src/stm32l4xx_hal_opamp_ex.c ****         }
 394              		.loc 1 277 11 is_stmt 1 view .LVU127
 277:Drivers/STM32L4xx_HAL_Driver/Src/stm32l4xx_hal_opamp_ex.c ****         }
 395              		.loc 1 277 27 is_stmt 0 view .LVU128
 396 01e0 019A     		ldr	r2, [sp, #4]
 397 01e2 4244     		add	r2, r2, r8
 398 01e4 0192     		str	r2, [sp, #4]
 399              	.LVL28:
 400              	.L15:
 285:Drivers/STM32L4xx_HAL_Driver/Src/stm32l4xx_hal_opamp_ex.c ****         { 
 401              		.loc 1 285 9 is_stmt 1 view .LVU129
 285:Drivers/STM32L4xx_HAL_Driver/Src/stm32l4xx_hal_opamp_ex.c ****         { 
 402              		.loc 1 285 13 is_stmt 0 view .LVU130
 403 01e6 2368     		ldr	r3, [r4]
 404 01e8 1B68     		ldr	r3, [r3]
 285:Drivers/STM32L4xx_HAL_Driver/Src/stm32l4xx_hal_opamp_ex.c ****         { 
 405              		.loc 1 285 12 view .LVU131
 406 01ea 13F4004F 		tst	r3, #32768
 407 01ee DBD0     		beq	.L16
 288:Drivers/STM32L4xx_HAL_Driver/Src/stm32l4xx_hal_opamp_ex.c ****         }
 408              		.loc 1 288 11 is_stmt 1 view .LVU132
 288:Drivers/STM32L4xx_HAL_Driver/Src/stm32l4xx_hal_opamp_ex.c ****         }
 409              		.loc 1 288 27 is_stmt 0 view .LVU133
 410 01f0 C144     		add	r9, r9, r8
 411              	.LVL29:
 288:Drivers/STM32L4xx_HAL_Driver/Src/stm32l4xx_hal_opamp_ex.c ****         }
 412              		.loc 1 288 27 view .LVU134
 413 01f2 DBE7     		b	.L17
 414              	.L38:
 302:Drivers/STM32L4xx_HAL_Driver/Src/stm32l4xx_hal_opamp_ex.c ****       MODIFY_REG(*tmp_opamp2_reg_trimming, OPAMP_OTR_TRIMOFFSETP, (trimmingvaluep2<<OPAMP_INPUT_NON
 415              		.loc 1 302 7 is_stmt 1 view .LVU135
 416 01f4 3B68     		ldr	r3, [r7]
 417 01f6 23F4F853 		bic	r3, r3, #7936
 418 01fa 019A     		ldr	r2, [sp, #4]
 419 01fc 43EA0223 		orr	r3, r3, r2, lsl #8
ARM GAS  /tmp/ccdHqyqk.s 			page 17


 420 0200 3B60     		str	r3, [r7]
 303:Drivers/STM32L4xx_HAL_Driver/Src/stm32l4xx_hal_opamp_ex.c ****       
 421              		.loc 1 303 7 view .LVU136
 422 0202 3368     		ldr	r3, [r6]
 423 0204 23F4F853 		bic	r3, r3, #7936
 424 0208 43EA0923 		orr	r3, r3, r9, lsl #8
 425 020c 3360     		str	r3, [r6]
 308:Drivers/STM32L4xx_HAL_Driver/Src/stm32l4xx_hal_opamp_ex.c ****       
 426              		.loc 1 308 7 view .LVU137
 427 020e 0120     		movs	r0, #1
 428 0210 FFF7FEFF 		bl	HAL_Delay
 429              	.LVL30:
 310:Drivers/STM32L4xx_HAL_Driver/Src/stm32l4xx_hal_opamp_ex.c ****       {
 430              		.loc 1 310 7 view .LVU138
 310:Drivers/STM32L4xx_HAL_Driver/Src/stm32l4xx_hal_opamp_ex.c ****       {
 431              		.loc 1 310 11 is_stmt 0 view .LVU139
 432 0214 2B68     		ldr	r3, [r5]
 433 0216 1B68     		ldr	r3, [r3]
 310:Drivers/STM32L4xx_HAL_Driver/Src/stm32l4xx_hal_opamp_ex.c ****       {
 434              		.loc 1 310 10 view .LVU140
 435 0218 13F4004F 		tst	r3, #32768
 436 021c 08D0     		beq	.L19
 313:Drivers/STM32L4xx_HAL_Driver/Src/stm32l4xx_hal_opamp_ex.c ****         MODIFY_REG(*tmp_opamp1_reg_trimming, OPAMP_OTR_TRIMOFFSETP, (trimmingvaluep1<<OPAMP_INPUT_N
 437              		.loc 1 313 9 is_stmt 1 view .LVU141
 313:Drivers/STM32L4xx_HAL_Driver/Src/stm32l4xx_hal_opamp_ex.c ****         MODIFY_REG(*tmp_opamp1_reg_trimming, OPAMP_OTR_TRIMOFFSETP, (trimmingvaluep1<<OPAMP_INPUT_N
 438              		.loc 1 313 24 is_stmt 0 view .LVU142
 439 021e 019A     		ldr	r2, [sp, #4]
 440 0220 0132     		adds	r2, r2, #1
 441 0222 0192     		str	r2, [sp, #4]
 442              	.LVL31:
 314:Drivers/STM32L4xx_HAL_Driver/Src/stm32l4xx_hal_opamp_ex.c ****       }
 443              		.loc 1 314 9 is_stmt 1 view .LVU143
 444 0224 3B68     		ldr	r3, [r7]
 445 0226 23F4F853 		bic	r3, r3, #7936
 446 022a 43EA0223 		orr	r3, r3, r2, lsl #8
 447 022e 3B60     		str	r3, [r7]
 448              	.LVL32:
 449              	.L19:
 317:Drivers/STM32L4xx_HAL_Driver/Src/stm32l4xx_hal_opamp_ex.c ****       {
 450              		.loc 1 317 7 view .LVU144
 317:Drivers/STM32L4xx_HAL_Driver/Src/stm32l4xx_hal_opamp_ex.c ****       {
 451              		.loc 1 317 11 is_stmt 0 view .LVU145
 452 0230 2368     		ldr	r3, [r4]
 453 0232 1B68     		ldr	r3, [r3]
 317:Drivers/STM32L4xx_HAL_Driver/Src/stm32l4xx_hal_opamp_ex.c ****       {
 454              		.loc 1 317 10 view .LVU146
 455 0234 13F4004F 		tst	r3, #32768
 456 0238 07D0     		beq	.L20
 320:Drivers/STM32L4xx_HAL_Driver/Src/stm32l4xx_hal_opamp_ex.c ****         MODIFY_REG(*tmp_opamp2_reg_trimming, OPAMP_OTR_TRIMOFFSETP, (trimmingvaluep2<<OPAMP_INPUT_N
 457              		.loc 1 320 9 is_stmt 1 view .LVU147
 320:Drivers/STM32L4xx_HAL_Driver/Src/stm32l4xx_hal_opamp_ex.c ****         MODIFY_REG(*tmp_opamp2_reg_trimming, OPAMP_OTR_TRIMOFFSETP, (trimmingvaluep2<<OPAMP_INPUT_N
 458              		.loc 1 320 24 is_stmt 0 view .LVU148
 459 023a 09F10109 		add	r9, r9, #1
 460              	.LVL33:
 321:Drivers/STM32L4xx_HAL_Driver/Src/stm32l4xx_hal_opamp_ex.c ****       }
 461              		.loc 1 321 9 is_stmt 1 view .LVU149
 462 023e 3368     		ldr	r3, [r6]
ARM GAS  /tmp/ccdHqyqk.s 			page 18


 463 0240 23F4F853 		bic	r3, r3, #7936
 464 0244 43EA0923 		orr	r3, r3, r9, lsl #8
 465 0248 3360     		str	r3, [r6]
 466              	.L20:
 325:Drivers/STM32L4xx_HAL_Driver/Src/stm32l4xx_hal_opamp_ex.c ****       CLEAR_BIT (hopamp2->Instance->CSR, OPAMP_CSR_OPAMPxEN);
 467              		.loc 1 325 7 view .LVU150
 468 024a 2A68     		ldr	r2, [r5]
 469 024c 1368     		ldr	r3, [r2]
 470 024e 23F00103 		bic	r3, r3, #1
 471 0252 1360     		str	r3, [r2]
 326:Drivers/STM32L4xx_HAL_Driver/Src/stm32l4xx_hal_opamp_ex.c ****             
 472              		.loc 1 326 7 view .LVU151
 473 0254 2268     		ldr	r2, [r4]
 474 0256 1368     		ldr	r3, [r2]
 475 0258 23F00103 		bic	r3, r3, #1
 476 025c 1360     		str	r3, [r2]
 329:Drivers/STM32L4xx_HAL_Driver/Src/stm32l4xx_hal_opamp_ex.c ****       CLEAR_BIT (hopamp2->Instance->CSR, OPAMP_CSR_CALON);
 477              		.loc 1 329 7 view .LVU152
 478 025e 2A68     		ldr	r2, [r5]
 479 0260 1368     		ldr	r3, [r2]
 480 0262 23F48053 		bic	r3, r3, #4096
 481 0266 1360     		str	r3, [r2]
 330:Drivers/STM32L4xx_HAL_Driver/Src/stm32l4xx_hal_opamp_ex.c **** 
 482              		.loc 1 330 7 view .LVU153
 483 0268 2268     		ldr	r2, [r4]
 484 026a 1368     		ldr	r3, [r2]
 485 026c 23F48053 		bic	r3, r3, #4096
 486 0270 1360     		str	r3, [r2]
 336:Drivers/STM32L4xx_HAL_Driver/Src/stm32l4xx_hal_opamp_ex.c ****       hopamp2->Init.UserTrimming = OPAMP_TRIMMING_USER;
 487              		.loc 1 336 7 view .LVU154
 336:Drivers/STM32L4xx_HAL_Driver/Src/stm32l4xx_hal_opamp_ex.c ****       hopamp2->Init.UserTrimming = OPAMP_TRIMMING_USER;
 488              		.loc 1 336 34 is_stmt 0 view .LVU155
 489 0272 4FF48043 		mov	r3, #16384
 490 0276 EB61     		str	r3, [r5, #28]
 337:Drivers/STM32L4xx_HAL_Driver/Src/stm32l4xx_hal_opamp_ex.c **** 
 491              		.loc 1 337 7 is_stmt 1 view .LVU156
 337:Drivers/STM32L4xx_HAL_Driver/Src/stm32l4xx_hal_opamp_ex.c **** 
 492              		.loc 1 337 34 is_stmt 0 view .LVU157
 493 0278 E361     		str	r3, [r4, #28]
 340:Drivers/STM32L4xx_HAL_Driver/Src/stm32l4xx_hal_opamp_ex.c ****       {
 494              		.loc 1 340 7 is_stmt 1 view .LVU158
 340:Drivers/STM32L4xx_HAL_Driver/Src/stm32l4xx_hal_opamp_ex.c ****       {
 495              		.loc 1 340 24 is_stmt 0 view .LVU159
 496 027a AB68     		ldr	r3, [r5, #8]
 340:Drivers/STM32L4xx_HAL_Driver/Src/stm32l4xx_hal_opamp_ex.c ****       {
 497              		.loc 1 340 10 view .LVU160
 498 027c 022B     		cmp	r3, #2
 499 027e 1FD0     		beq	.L21
 343:Drivers/STM32L4xx_HAL_Driver/Src/stm32l4xx_hal_opamp_ex.c ****         /* Write calibration result P */
 500              		.loc 1 343 9 is_stmt 1 view .LVU161
 343:Drivers/STM32L4xx_HAL_Driver/Src/stm32l4xx_hal_opamp_ex.c ****         /* Write calibration result P */
 501              		.loc 1 343 38 is_stmt 0 view .LVU162
 502 0280 C5F824B0 		str	fp, [r5, #36]
 345:Drivers/STM32L4xx_HAL_Driver/Src/stm32l4xx_hal_opamp_ex.c ****       }
 503              		.loc 1 345 9 is_stmt 1 view .LVU163
 345:Drivers/STM32L4xx_HAL_Driver/Src/stm32l4xx_hal_opamp_ex.c ****       }
 504              		.loc 1 345 38 is_stmt 0 view .LVU164
ARM GAS  /tmp/ccdHqyqk.s 			page 19


 505 0284 019B     		ldr	r3, [sp, #4]
 506 0286 2B62     		str	r3, [r5, #32]
 507              	.L22:
 355:Drivers/STM32L4xx_HAL_Driver/Src/stm32l4xx_hal_opamp_ex.c ****       {
 508              		.loc 1 355 7 is_stmt 1 view .LVU165
 355:Drivers/STM32L4xx_HAL_Driver/Src/stm32l4xx_hal_opamp_ex.c ****       {
 509              		.loc 1 355 24 is_stmt 0 view .LVU166
 510 0288 A368     		ldr	r3, [r4, #8]
 355:Drivers/STM32L4xx_HAL_Driver/Src/stm32l4xx_hal_opamp_ex.c ****       {
 511              		.loc 1 355 10 view .LVU167
 512 028a 022B     		cmp	r3, #2
 513 028c 1DD0     		beq	.L23
 358:Drivers/STM32L4xx_HAL_Driver/Src/stm32l4xx_hal_opamp_ex.c ****         /* Write calibration result P */
 514              		.loc 1 358 9 is_stmt 1 view .LVU168
 358:Drivers/STM32L4xx_HAL_Driver/Src/stm32l4xx_hal_opamp_ex.c ****         /* Write calibration result P */
 515              		.loc 1 358 38 is_stmt 0 view .LVU169
 516 028e C4F824A0 		str	r10, [r4, #36]
 360:Drivers/STM32L4xx_HAL_Driver/Src/stm32l4xx_hal_opamp_ex.c ****       }
 517              		.loc 1 360 9 is_stmt 1 view .LVU170
 360:Drivers/STM32L4xx_HAL_Driver/Src/stm32l4xx_hal_opamp_ex.c ****       }
 518              		.loc 1 360 38 is_stmt 0 view .LVU171
 519 0292 C4F82090 		str	r9, [r4, #32]
 520              	.L24:
 371:Drivers/STM32L4xx_HAL_Driver/Src/stm32l4xx_hal_opamp_ex.c ****       hopamp2->State = HAL_OPAMP_STATE_READY;
 521              		.loc 1 371 7 is_stmt 1 view .LVU172
 371:Drivers/STM32L4xx_HAL_Driver/Src/stm32l4xx_hal_opamp_ex.c ****       hopamp2->State = HAL_OPAMP_STATE_READY;
 522              		.loc 1 371 22 is_stmt 0 view .LVU173
 523 0296 0123     		movs	r3, #1
 524 0298 85F83230 		strb	r3, [r5, #50]
 372:Drivers/STM32L4xx_HAL_Driver/Src/stm32l4xx_hal_opamp_ex.c **** 
 525              		.loc 1 372 7 is_stmt 1 view .LVU174
 372:Drivers/STM32L4xx_HAL_Driver/Src/stm32l4xx_hal_opamp_ex.c **** 
 526              		.loc 1 372 22 is_stmt 0 view .LVU175
 527 029c 84F83230 		strb	r3, [r4, #50]
 375:Drivers/STM32L4xx_HAL_Driver/Src/stm32l4xx_hal_opamp_ex.c ****       MODIFY_REG(hopamp2->Instance->CSR, OPAMP_CSR_OPAMODE, opampmode2);
 528              		.loc 1 375 7 is_stmt 1 view .LVU176
 529 02a0 2A68     		ldr	r2, [r5]
 530 02a2 1368     		ldr	r3, [r2]
 531 02a4 23F00C03 		bic	r3, r3, #12
 532 02a8 0299     		ldr	r1, [sp, #8]
 533 02aa 0B43     		orrs	r3, r3, r1
 534 02ac 1360     		str	r3, [r2]
 376:Drivers/STM32L4xx_HAL_Driver/Src/stm32l4xx_hal_opamp_ex.c ****     }
 535              		.loc 1 376 7 view .LVU177
 536 02ae 2268     		ldr	r2, [r4]
 537 02b0 1368     		ldr	r3, [r2]
 538 02b2 23F00C03 		bic	r3, r3, #12
 539 02b6 0399     		ldr	r1, [sp, #12]
 540 02b8 0B43     		orrs	r3, r3, r1
 541 02ba 1360     		str	r3, [r2]
 107:Drivers/STM32L4xx_HAL_Driver/Src/stm32l4xx_hal_opamp_ex.c **** 
 542              		.loc 1 107 21 is_stmt 0 view .LVU178
 543 02bc 0020     		movs	r0, #0
 376:Drivers/STM32L4xx_HAL_Driver/Src/stm32l4xx_hal_opamp_ex.c ****     }
 544              		.loc 1 376 7 view .LVU179
 545 02be 0CE0     		b	.L2
 546              	.L21:
ARM GAS  /tmp/ccdHqyqk.s 			page 20


 350:Drivers/STM32L4xx_HAL_Driver/Src/stm32l4xx_hal_opamp_ex.c ****         /* Write calibration result P */
 547              		.loc 1 350 9 is_stmt 1 view .LVU180
 350:Drivers/STM32L4xx_HAL_Driver/Src/stm32l4xx_hal_opamp_ex.c ****         /* Write calibration result P */
 548              		.loc 1 350 46 is_stmt 0 view .LVU181
 549 02c0 C5F82CB0 		str	fp, [r5, #44]
 352:Drivers/STM32L4xx_HAL_Driver/Src/stm32l4xx_hal_opamp_ex.c ****       }
 550              		.loc 1 352 9 is_stmt 1 view .LVU182
 352:Drivers/STM32L4xx_HAL_Driver/Src/stm32l4xx_hal_opamp_ex.c ****       }
 551              		.loc 1 352 46 is_stmt 0 view .LVU183
 552 02c4 019B     		ldr	r3, [sp, #4]
 553 02c6 AB62     		str	r3, [r5, #40]
 554 02c8 DEE7     		b	.L22
 555              	.L23:
 365:Drivers/STM32L4xx_HAL_Driver/Src/stm32l4xx_hal_opamp_ex.c ****         /* Write calibration result P */
 556              		.loc 1 365 9 is_stmt 1 view .LVU184
 365:Drivers/STM32L4xx_HAL_Driver/Src/stm32l4xx_hal_opamp_ex.c ****         /* Write calibration result P */
 557              		.loc 1 365 46 is_stmt 0 view .LVU185
 558 02ca C4F82CA0 		str	r10, [r4, #44]
 367:Drivers/STM32L4xx_HAL_Driver/Src/stm32l4xx_hal_opamp_ex.c ****       }
 559              		.loc 1 367 9 is_stmt 1 view .LVU186
 367:Drivers/STM32L4xx_HAL_Driver/Src/stm32l4xx_hal_opamp_ex.c ****       }
 560              		.loc 1 367 46 is_stmt 0 view .LVU187
 561 02ce C4F82890 		str	r9, [r4, #40]
 562 02d2 E0E7     		b	.L24
 563              	.LVL34:
 564              	.L25:
 565              	.LCFI2:
 566              		.cfi_def_cfa_offset 0
 567              		.cfi_restore 4
 568              		.cfi_restore 5
 569              		.cfi_restore 6
 570              		.cfi_restore 7
 571              		.cfi_restore 8
 572              		.cfi_restore 9
 573              		.cfi_restore 10
 574              		.cfi_restore 11
 575              		.cfi_restore 14
 125:Drivers/STM32L4xx_HAL_Driver/Src/stm32l4xx_hal_opamp_ex.c ****   }
 576              		.loc 1 125 12 view .LVU188
 577 02d4 0120     		movs	r0, #1
 578              	.LVL35:
 382:Drivers/STM32L4xx_HAL_Driver/Src/stm32l4xx_hal_opamp_ex.c ****     }   
 383:Drivers/STM32L4xx_HAL_Driver/Src/stm32l4xx_hal_opamp_ex.c ****   }
 384:Drivers/STM32L4xx_HAL_Driver/Src/stm32l4xx_hal_opamp_ex.c ****   return status;
 579              		.loc 1 384 3 is_stmt 1 view .LVU189
 385:Drivers/STM32L4xx_HAL_Driver/Src/stm32l4xx_hal_opamp_ex.c **** }
 580              		.loc 1 385 1 is_stmt 0 view .LVU190
 581 02d6 7047     		bx	lr
 582              	.LVL36:
 583              	.L26:
 584              	.LCFI3:
 585              		.cfi_def_cfa_offset 56
 586              		.cfi_offset 4, -36
 587              		.cfi_offset 5, -32
 588              		.cfi_offset 6, -28
 589              		.cfi_offset 7, -24
 590              		.cfi_offset 8, -20
ARM GAS  /tmp/ccdHqyqk.s 			page 21


 591              		.cfi_offset 9, -16
 592              		.cfi_offset 10, -12
 593              		.cfi_offset 11, -8
 594              		.cfi_offset 14, -4
 125:Drivers/STM32L4xx_HAL_Driver/Src/stm32l4xx_hal_opamp_ex.c ****   }
 595              		.loc 1 125 12 view .LVU191
 596 02d8 0120     		movs	r0, #1
 597              	.LVL37:
 598              	.L2:
 384:Drivers/STM32L4xx_HAL_Driver/Src/stm32l4xx_hal_opamp_ex.c **** }
 599              		.loc 1 384 3 is_stmt 1 view .LVU192
 600              		.loc 1 385 1 is_stmt 0 view .LVU193
 601 02da 05B0     		add	sp, sp, #20
 602              	.LCFI4:
 603              		.cfi_remember_state
 604              		.cfi_def_cfa_offset 36
 605              		@ sp needed
 606 02dc BDE8F08F 		pop	{r4, r5, r6, r7, r8, r9, r10, fp, pc}
 607              	.LVL38:
 608              	.L27:
 609              	.LCFI5:
 610              		.cfi_restore_state
 125:Drivers/STM32L4xx_HAL_Driver/Src/stm32l4xx_hal_opamp_ex.c ****   }
 611              		.loc 1 125 12 view .LVU194
 612 02e0 0120     		movs	r0, #1
 613              	.LVL39:
 125:Drivers/STM32L4xx_HAL_Driver/Src/stm32l4xx_hal_opamp_ex.c ****   }
 614              		.loc 1 125 12 view .LVU195
 615 02e2 FAE7     		b	.L2
 616              	.LVL40:
 617              	.L28:
 125:Drivers/STM32L4xx_HAL_Driver/Src/stm32l4xx_hal_opamp_ex.c ****   }
 618              		.loc 1 125 12 view .LVU196
 619 02e4 0120     		movs	r0, #1
 620              	.LVL41:
 125:Drivers/STM32L4xx_HAL_Driver/Src/stm32l4xx_hal_opamp_ex.c ****   }
 621              		.loc 1 125 12 view .LVU197
 622 02e6 F8E7     		b	.L2
 623              	.L40:
 624              		.align	2
 625              	.L39:
 626 02e8 04780040 		.word	1073772548
 627 02ec 14780040 		.word	1073772564
 628 02f0 08780040 		.word	1073772552
 629 02f4 18780040 		.word	1073772568
 630              		.cfi_endproc
 631              	.LFE309:
 633              		.section	.text.HAL_OPAMPEx_Unlock,"ax",%progbits
 634              		.align	1
 635              		.global	HAL_OPAMPEx_Unlock
 636              		.syntax unified
 637              		.thumb
 638              		.thumb_func
 639              		.fpu fpv4-sp-d16
 641              	HAL_OPAMPEx_Unlock:
 642              	.LVL42:
 643              	.LFB310:
ARM GAS  /tmp/ccdHqyqk.s 			page 22


 386:Drivers/STM32L4xx_HAL_Driver/Src/stm32l4xx_hal_opamp_ex.c **** 
 387:Drivers/STM32L4xx_HAL_Driver/Src/stm32l4xx_hal_opamp_ex.c **** /**
 388:Drivers/STM32L4xx_HAL_Driver/Src/stm32l4xx_hal_opamp_ex.c ****   * @}
 389:Drivers/STM32L4xx_HAL_Driver/Src/stm32l4xx_hal_opamp_ex.c ****   */
 390:Drivers/STM32L4xx_HAL_Driver/Src/stm32l4xx_hal_opamp_ex.c **** 
 391:Drivers/STM32L4xx_HAL_Driver/Src/stm32l4xx_hal_opamp_ex.c **** #endif
 392:Drivers/STM32L4xx_HAL_Driver/Src/stm32l4xx_hal_opamp_ex.c **** 
 393:Drivers/STM32L4xx_HAL_Driver/Src/stm32l4xx_hal_opamp_ex.c **** /** @defgroup OPAMPEx_Exported_Functions_Group2 Peripheral Control functions 
 394:Drivers/STM32L4xx_HAL_Driver/Src/stm32l4xx_hal_opamp_ex.c ****  *  @brief   Peripheral Control functions 
 395:Drivers/STM32L4xx_HAL_Driver/Src/stm32l4xx_hal_opamp_ex.c ****  *
 396:Drivers/STM32L4xx_HAL_Driver/Src/stm32l4xx_hal_opamp_ex.c **** @verbatim   
 397:Drivers/STM32L4xx_HAL_Driver/Src/stm32l4xx_hal_opamp_ex.c ****  ===============================================================================
 398:Drivers/STM32L4xx_HAL_Driver/Src/stm32l4xx_hal_opamp_ex.c ****              ##### Peripheral Control functions #####
 399:Drivers/STM32L4xx_HAL_Driver/Src/stm32l4xx_hal_opamp_ex.c ****  ===============================================================================
 400:Drivers/STM32L4xx_HAL_Driver/Src/stm32l4xx_hal_opamp_ex.c ****     [..]
 401:Drivers/STM32L4xx_HAL_Driver/Src/stm32l4xx_hal_opamp_ex.c ****       (+) OPAMP unlock. 
 402:Drivers/STM32L4xx_HAL_Driver/Src/stm32l4xx_hal_opamp_ex.c **** 
 403:Drivers/STM32L4xx_HAL_Driver/Src/stm32l4xx_hal_opamp_ex.c **** @endverbatim
 404:Drivers/STM32L4xx_HAL_Driver/Src/stm32l4xx_hal_opamp_ex.c ****   * @{
 405:Drivers/STM32L4xx_HAL_Driver/Src/stm32l4xx_hal_opamp_ex.c ****   */
 406:Drivers/STM32L4xx_HAL_Driver/Src/stm32l4xx_hal_opamp_ex.c **** 
 407:Drivers/STM32L4xx_HAL_Driver/Src/stm32l4xx_hal_opamp_ex.c **** /**
 408:Drivers/STM32L4xx_HAL_Driver/Src/stm32l4xx_hal_opamp_ex.c ****   * @brief  Unlock the selected OPAMP configuration.
 409:Drivers/STM32L4xx_HAL_Driver/Src/stm32l4xx_hal_opamp_ex.c ****   * @note   This function must be called only when OPAMP is in state "locked".
 410:Drivers/STM32L4xx_HAL_Driver/Src/stm32l4xx_hal_opamp_ex.c ****   * @param  hopamp: OPAMP handle
 411:Drivers/STM32L4xx_HAL_Driver/Src/stm32l4xx_hal_opamp_ex.c ****   * @retval HAL status
 412:Drivers/STM32L4xx_HAL_Driver/Src/stm32l4xx_hal_opamp_ex.c ****   */
 413:Drivers/STM32L4xx_HAL_Driver/Src/stm32l4xx_hal_opamp_ex.c **** HAL_StatusTypeDef HAL_OPAMPEx_Unlock(OPAMP_HandleTypeDef* hopamp)
 414:Drivers/STM32L4xx_HAL_Driver/Src/stm32l4xx_hal_opamp_ex.c **** {
 644              		.loc 1 414 1 is_stmt 1 view -0
 645              		.cfi_startproc
 646              		@ args = 0, pretend = 0, frame = 0
 647              		@ frame_needed = 0, uses_anonymous_args = 0
 648              		@ link register save eliminated.
 415:Drivers/STM32L4xx_HAL_Driver/Src/stm32l4xx_hal_opamp_ex.c ****   HAL_StatusTypeDef status = HAL_OK;
 649              		.loc 1 415 3 view .LVU199
 416:Drivers/STM32L4xx_HAL_Driver/Src/stm32l4xx_hal_opamp_ex.c **** 
 417:Drivers/STM32L4xx_HAL_Driver/Src/stm32l4xx_hal_opamp_ex.c ****   /* Check the OPAMP handle allocation */
 418:Drivers/STM32L4xx_HAL_Driver/Src/stm32l4xx_hal_opamp_ex.c ****   /* Check if OPAMP locked */
 419:Drivers/STM32L4xx_HAL_Driver/Src/stm32l4xx_hal_opamp_ex.c ****   if((hopamp == NULL) || (hopamp->State == HAL_OPAMP_STATE_RESET)
 650              		.loc 1 419 3 view .LVU200
 651              		.loc 1 419 5 is_stmt 0 view .LVU201
 652 0000 0346     		mov	r3, r0
 653 0002 B0B1     		cbz	r0, .L43
 654              		.loc 1 419 33 discriminator 1 view .LVU202
 655 0004 90F83220 		ldrb	r2, [r0, #50]	@ zero_extendqisi2
 656              		.loc 1 419 23 discriminator 1 view .LVU203
 657 0008 AAB1     		cbz	r2, .L44
 420:Drivers/STM32L4xx_HAL_Driver/Src/stm32l4xx_hal_opamp_ex.c ****                       || (hopamp->State == HAL_OPAMP_STATE_READY)
 658              		.loc 1 420 33 view .LVU204
 659 000a 90F83200 		ldrb	r0, [r0, #50]	@ zero_extendqisi2
 660              	.LVL43:
 661              		.loc 1 420 33 view .LVU205
 662 000e C0B2     		uxtb	r0, r0
 663              		.loc 1 420 23 view .LVU206
 664 0010 0128     		cmp	r0, #1
 665 0012 15D0     		beq	.L42
ARM GAS  /tmp/ccdHqyqk.s 			page 23


 421:Drivers/STM32L4xx_HAL_Driver/Src/stm32l4xx_hal_opamp_ex.c ****                       || (hopamp->State == HAL_OPAMP_STATE_CALIBBUSY)
 666              		.loc 1 421 33 view .LVU207
 667 0014 93F83220 		ldrb	r2, [r3, #50]	@ zero_extendqisi2
 668 0018 D2B2     		uxtb	r2, r2
 669              		.loc 1 421 23 view .LVU208
 670 001a 022A     		cmp	r2, #2
 671 001c 0DD0     		beq	.L45
 422:Drivers/STM32L4xx_HAL_Driver/Src/stm32l4xx_hal_opamp_ex.c ****                       || (hopamp->State == HAL_OPAMP_STATE_BUSY))
 672              		.loc 1 422 33 view .LVU209
 673 001e 93F83220 		ldrb	r2, [r3, #50]	@ zero_extendqisi2
 674 0022 D2B2     		uxtb	r2, r2
 675              		.loc 1 422 23 view .LVU210
 676 0024 042A     		cmp	r2, #4
 677 0026 0AD0     		beq	.L46
 423:Drivers/STM32L4xx_HAL_Driver/Src/stm32l4xx_hal_opamp_ex.c ****   
 424:Drivers/STM32L4xx_HAL_Driver/Src/stm32l4xx_hal_opamp_ex.c ****   {
 425:Drivers/STM32L4xx_HAL_Driver/Src/stm32l4xx_hal_opamp_ex.c ****     status = HAL_ERROR;
 426:Drivers/STM32L4xx_HAL_Driver/Src/stm32l4xx_hal_opamp_ex.c ****   }
 427:Drivers/STM32L4xx_HAL_Driver/Src/stm32l4xx_hal_opamp_ex.c ****   else
 428:Drivers/STM32L4xx_HAL_Driver/Src/stm32l4xx_hal_opamp_ex.c ****   {
 429:Drivers/STM32L4xx_HAL_Driver/Src/stm32l4xx_hal_opamp_ex.c ****     /* Check the parameter */
 430:Drivers/STM32L4xx_HAL_Driver/Src/stm32l4xx_hal_opamp_ex.c ****     assert_param(IS_OPAMP_ALL_INSTANCE(hopamp->Instance));
 678              		.loc 1 430 5 is_stmt 1 view .LVU211
 431:Drivers/STM32L4xx_HAL_Driver/Src/stm32l4xx_hal_opamp_ex.c ****   
 432:Drivers/STM32L4xx_HAL_Driver/Src/stm32l4xx_hal_opamp_ex.c ****    /* OPAMP state changed to locked */
 433:Drivers/STM32L4xx_HAL_Driver/Src/stm32l4xx_hal_opamp_ex.c ****     hopamp->State = HAL_OPAMP_STATE_BUSY;
 679              		.loc 1 433 5 view .LVU212
 680              		.loc 1 433 19 is_stmt 0 view .LVU213
 681 0028 0422     		movs	r2, #4
 682 002a 83F83220 		strb	r2, [r3, #50]
 415:Drivers/STM32L4xx_HAL_Driver/Src/stm32l4xx_hal_opamp_ex.c **** 
 683              		.loc 1 415 21 view .LVU214
 684 002e 0020     		movs	r0, #0
 685 0030 7047     		bx	lr
 686              	.LVL44:
 687              	.L43:
 425:Drivers/STM32L4xx_HAL_Driver/Src/stm32l4xx_hal_opamp_ex.c ****   }
 688              		.loc 1 425 12 view .LVU215
 689 0032 0120     		movs	r0, #1
 690              	.LVL45:
 425:Drivers/STM32L4xx_HAL_Driver/Src/stm32l4xx_hal_opamp_ex.c ****   }
 691              		.loc 1 425 12 view .LVU216
 692 0034 7047     		bx	lr
 693              	.LVL46:
 694              	.L44:
 425:Drivers/STM32L4xx_HAL_Driver/Src/stm32l4xx_hal_opamp_ex.c ****   }
 695              		.loc 1 425 12 view .LVU217
 696 0036 0120     		movs	r0, #1
 697              	.LVL47:
 425:Drivers/STM32L4xx_HAL_Driver/Src/stm32l4xx_hal_opamp_ex.c ****   }
 698              		.loc 1 425 12 view .LVU218
 699 0038 7047     		bx	lr
 700              	.L45:
 701 003a 0120     		movs	r0, #1
 702 003c 7047     		bx	lr
 703              	.L46:
 704 003e 0120     		movs	r0, #1
ARM GAS  /tmp/ccdHqyqk.s 			page 24


 705              	.L42:
 706              	.LVL48:
 434:Drivers/STM32L4xx_HAL_Driver/Src/stm32l4xx_hal_opamp_ex.c ****   }
 435:Drivers/STM32L4xx_HAL_Driver/Src/stm32l4xx_hal_opamp_ex.c ****   return status; 
 707              		.loc 1 435 3 is_stmt 1 view .LVU219
 436:Drivers/STM32L4xx_HAL_Driver/Src/stm32l4xx_hal_opamp_ex.c **** }
 708              		.loc 1 436 1 is_stmt 0 view .LVU220
 709 0040 7047     		bx	lr
 710              		.cfi_endproc
 711              	.LFE310:
 713              		.text
 714              	.Letext0:
 715              		.file 2 "/usr/arm-none-eabi/include/machine/_default_types.h"
 716              		.file 3 "/usr/arm-none-eabi/include/sys/_stdint.h"
 717              		.file 4 "Drivers/CMSIS/Include/core_cm4.h"
 718              		.file 5 "Drivers/CMSIS/Device/ST/STM32L4xx/Include/system_stm32l4xx.h"
 719              		.file 6 "Drivers/CMSIS/Device/ST/STM32L4xx/Include/stm32l476xx.h"
 720              		.file 7 "/usr/arm-none-eabi/include/sys/lock.h"
 721              		.file 8 "/usr/arm-none-eabi/include/sys/_types.h"
 722              		.file 9 "/usr/lib/gcc/arm-none-eabi/9.2.0/include/stddef.h"
 723              		.file 10 "/usr/arm-none-eabi/include/sys/reent.h"
 724              		.file 11 "Drivers/CMSIS/Device/ST/STM32L4xx/Include/stm32l4xx.h"
 725              		.file 12 "Drivers/STM32L4xx_HAL_Driver/Inc/stm32l4xx_hal_def.h"
 726              		.file 13 "Drivers/STM32L4xx_HAL_Driver/Inc/stm32l4xx_hal_opamp.h"
 727              		.file 14 "Drivers/STM32L4xx_HAL_Driver/Inc/stm32l4xx_hal.h"
ARM GAS  /tmp/ccdHqyqk.s 			page 25

