ARM GAS  /tmp/ccaIxFiO.s 			page 1


   1              		.cpu cortex-m4
   2              		.eabi_attribute 27, 1
   3              		.eabi_attribute 28, 1
   4              		.eabi_attribute 20, 1
   5              		.eabi_attribute 21, 1
   6              		.eabi_attribute 23, 3
   7              		.eabi_attribute 24, 1
   8              		.eabi_attribute 25, 1
   9              		.eabi_attribute 26, 1
  10              		.eabi_attribute 30, 1
  11              		.eabi_attribute 34, 1
  12              		.eabi_attribute 18, 4
  13              		.file	"stm32l4xx_hal_dma.c"
  14              		.text
  15              	.Ltext0:
  16              		.cfi_sections	.debug_frame
  17              		.section	.text.DMA_SetConfig,"ax",%progbits
  18              		.align	1
  19              		.arch armv7e-m
  20              		.syntax unified
  21              		.thumb
  22              		.thumb_func
  23              		.fpu fpv4-sp-d16
  25              	DMA_SetConfig:
  26              	.LVL0:
  27              	.LFB321:
  28              		.file 1 "Drivers/STM32L4xx_HAL_Driver/Src/stm32l4xx_hal_dma.c"
   1:Drivers/STM32L4xx_HAL_Driver/Src/stm32l4xx_hal_dma.c **** /**
   2:Drivers/STM32L4xx_HAL_Driver/Src/stm32l4xx_hal_dma.c ****   ******************************************************************************
   3:Drivers/STM32L4xx_HAL_Driver/Src/stm32l4xx_hal_dma.c ****   * @file    stm32l4xx_hal_dma.c
   4:Drivers/STM32L4xx_HAL_Driver/Src/stm32l4xx_hal_dma.c ****   * @author  MCD Application Team
   5:Drivers/STM32L4xx_HAL_Driver/Src/stm32l4xx_hal_dma.c ****   * @brief   DMA HAL module driver.
   6:Drivers/STM32L4xx_HAL_Driver/Src/stm32l4xx_hal_dma.c ****   *         This file provides firmware functions to manage the following
   7:Drivers/STM32L4xx_HAL_Driver/Src/stm32l4xx_hal_dma.c ****   *         functionalities of the Direct Memory Access (DMA) peripheral:
   8:Drivers/STM32L4xx_HAL_Driver/Src/stm32l4xx_hal_dma.c ****   *           + Initialization and de-initialization functions
   9:Drivers/STM32L4xx_HAL_Driver/Src/stm32l4xx_hal_dma.c ****   *           + IO operation functions
  10:Drivers/STM32L4xx_HAL_Driver/Src/stm32l4xx_hal_dma.c ****   *           + Peripheral State and errors functions
  11:Drivers/STM32L4xx_HAL_Driver/Src/stm32l4xx_hal_dma.c ****   @verbatim
  12:Drivers/STM32L4xx_HAL_Driver/Src/stm32l4xx_hal_dma.c ****   ==============================================================================
  13:Drivers/STM32L4xx_HAL_Driver/Src/stm32l4xx_hal_dma.c ****                         ##### How to use this driver #####
  14:Drivers/STM32L4xx_HAL_Driver/Src/stm32l4xx_hal_dma.c ****   ==============================================================================
  15:Drivers/STM32L4xx_HAL_Driver/Src/stm32l4xx_hal_dma.c ****   [..]
  16:Drivers/STM32L4xx_HAL_Driver/Src/stm32l4xx_hal_dma.c ****    (#) Enable and configure the peripheral to be connected to the DMA Channel
  17:Drivers/STM32L4xx_HAL_Driver/Src/stm32l4xx_hal_dma.c ****        (except for internal SRAM / FLASH memories: no initialization is
  18:Drivers/STM32L4xx_HAL_Driver/Src/stm32l4xx_hal_dma.c ****        necessary). Please refer to the Reference manual for connection between peripherals
  19:Drivers/STM32L4xx_HAL_Driver/Src/stm32l4xx_hal_dma.c ****        and DMA requests.
  20:Drivers/STM32L4xx_HAL_Driver/Src/stm32l4xx_hal_dma.c **** 
  21:Drivers/STM32L4xx_HAL_Driver/Src/stm32l4xx_hal_dma.c ****    (#) For a given Channel, program the required configuration through the following parameters:
  22:Drivers/STM32L4xx_HAL_Driver/Src/stm32l4xx_hal_dma.c ****        Channel request, Transfer Direction, Source and Destination data formats,
  23:Drivers/STM32L4xx_HAL_Driver/Src/stm32l4xx_hal_dma.c ****        Circular or Normal mode, Channel Priority level, Source and Destination Increment mode
  24:Drivers/STM32L4xx_HAL_Driver/Src/stm32l4xx_hal_dma.c ****        using HAL_DMA_Init() function.
  25:Drivers/STM32L4xx_HAL_Driver/Src/stm32l4xx_hal_dma.c **** 
  26:Drivers/STM32L4xx_HAL_Driver/Src/stm32l4xx_hal_dma.c ****        Prior to HAL_DMA_Init the peripheral clock shall be enabled for both DMA & DMAMUX
  27:Drivers/STM32L4xx_HAL_Driver/Src/stm32l4xx_hal_dma.c ****        thanks to:
  28:Drivers/STM32L4xx_HAL_Driver/Src/stm32l4xx_hal_dma.c ****       (##) DMA1 or DMA2: __HAL_RCC_DMA1_CLK_ENABLE() or  __HAL_RCC_DMA2_CLK_ENABLE() ;
  29:Drivers/STM32L4xx_HAL_Driver/Src/stm32l4xx_hal_dma.c ****       (##) DMAMUX1:      __HAL_RCC_DMAMUX1_CLK_ENABLE();
  30:Drivers/STM32L4xx_HAL_Driver/Src/stm32l4xx_hal_dma.c **** 
ARM GAS  /tmp/ccaIxFiO.s 			page 2


  31:Drivers/STM32L4xx_HAL_Driver/Src/stm32l4xx_hal_dma.c ****    (#) Use HAL_DMA_GetState() function to return the DMA state and HAL_DMA_GetError() in case of er
  32:Drivers/STM32L4xx_HAL_Driver/Src/stm32l4xx_hal_dma.c ****        detection.
  33:Drivers/STM32L4xx_HAL_Driver/Src/stm32l4xx_hal_dma.c **** 
  34:Drivers/STM32L4xx_HAL_Driver/Src/stm32l4xx_hal_dma.c ****    (#) Use HAL_DMA_Abort() function to abort the current transfer
  35:Drivers/STM32L4xx_HAL_Driver/Src/stm32l4xx_hal_dma.c **** 
  36:Drivers/STM32L4xx_HAL_Driver/Src/stm32l4xx_hal_dma.c ****      -@-   In Memory-to-Memory transfer mode, Circular mode is not allowed.
  37:Drivers/STM32L4xx_HAL_Driver/Src/stm32l4xx_hal_dma.c **** 
  38:Drivers/STM32L4xx_HAL_Driver/Src/stm32l4xx_hal_dma.c ****      *** Polling mode IO operation ***
  39:Drivers/STM32L4xx_HAL_Driver/Src/stm32l4xx_hal_dma.c ****      =================================
  40:Drivers/STM32L4xx_HAL_Driver/Src/stm32l4xx_hal_dma.c ****     [..]
  41:Drivers/STM32L4xx_HAL_Driver/Src/stm32l4xx_hal_dma.c ****           (+) Use HAL_DMA_Start() to start DMA transfer after the configuration of Source
  42:Drivers/STM32L4xx_HAL_Driver/Src/stm32l4xx_hal_dma.c ****               address and destination address and the Length of data to be transferred
  43:Drivers/STM32L4xx_HAL_Driver/Src/stm32l4xx_hal_dma.c ****           (+) Use HAL_DMA_PollForTransfer() to poll for the end of current transfer, in this
  44:Drivers/STM32L4xx_HAL_Driver/Src/stm32l4xx_hal_dma.c ****               case a fixed Timeout can be configured by User depending from his application.
  45:Drivers/STM32L4xx_HAL_Driver/Src/stm32l4xx_hal_dma.c **** 
  46:Drivers/STM32L4xx_HAL_Driver/Src/stm32l4xx_hal_dma.c ****      *** Interrupt mode IO operation ***
  47:Drivers/STM32L4xx_HAL_Driver/Src/stm32l4xx_hal_dma.c ****      ===================================
  48:Drivers/STM32L4xx_HAL_Driver/Src/stm32l4xx_hal_dma.c ****     [..]
  49:Drivers/STM32L4xx_HAL_Driver/Src/stm32l4xx_hal_dma.c ****           (+) Configure the DMA interrupt priority using HAL_NVIC_SetPriority()
  50:Drivers/STM32L4xx_HAL_Driver/Src/stm32l4xx_hal_dma.c ****           (+) Enable the DMA IRQ handler using HAL_NVIC_EnableIRQ()
  51:Drivers/STM32L4xx_HAL_Driver/Src/stm32l4xx_hal_dma.c ****           (+) Use HAL_DMA_Start_IT() to start DMA transfer after the configuration of
  52:Drivers/STM32L4xx_HAL_Driver/Src/stm32l4xx_hal_dma.c ****               Source address and destination address and the Length of data to be transferred.
  53:Drivers/STM32L4xx_HAL_Driver/Src/stm32l4xx_hal_dma.c ****               In this case the DMA interrupt is configured
  54:Drivers/STM32L4xx_HAL_Driver/Src/stm32l4xx_hal_dma.c ****           (+) Use HAL_DMA_IRQHandler() called under DMA_IRQHandler() Interrupt subroutine
  55:Drivers/STM32L4xx_HAL_Driver/Src/stm32l4xx_hal_dma.c ****           (+) At the end of data transfer HAL_DMA_IRQHandler() function is executed and user can
  56:Drivers/STM32L4xx_HAL_Driver/Src/stm32l4xx_hal_dma.c ****               add his own function to register callbacks with HAL_DMA_RegisterCallback().
  57:Drivers/STM32L4xx_HAL_Driver/Src/stm32l4xx_hal_dma.c **** 
  58:Drivers/STM32L4xx_HAL_Driver/Src/stm32l4xx_hal_dma.c ****      *** DMA HAL driver macros list ***
  59:Drivers/STM32L4xx_HAL_Driver/Src/stm32l4xx_hal_dma.c ****      =============================================
  60:Drivers/STM32L4xx_HAL_Driver/Src/stm32l4xx_hal_dma.c ****       [..]
  61:Drivers/STM32L4xx_HAL_Driver/Src/stm32l4xx_hal_dma.c ****        Below the list of macros in DMA HAL driver.
  62:Drivers/STM32L4xx_HAL_Driver/Src/stm32l4xx_hal_dma.c **** 
  63:Drivers/STM32L4xx_HAL_Driver/Src/stm32l4xx_hal_dma.c ****        (+) __HAL_DMA_ENABLE: Enable the specified DMA Channel.
  64:Drivers/STM32L4xx_HAL_Driver/Src/stm32l4xx_hal_dma.c ****        (+) __HAL_DMA_DISABLE: Disable the specified DMA Channel.
  65:Drivers/STM32L4xx_HAL_Driver/Src/stm32l4xx_hal_dma.c ****        (+) __HAL_DMA_GET_FLAG: Get the DMA Channel pending flags.
  66:Drivers/STM32L4xx_HAL_Driver/Src/stm32l4xx_hal_dma.c ****        (+) __HAL_DMA_CLEAR_FLAG: Clear the DMA Channel pending flags.
  67:Drivers/STM32L4xx_HAL_Driver/Src/stm32l4xx_hal_dma.c ****        (+) __HAL_DMA_ENABLE_IT: Enable the specified DMA Channel interrupts.
  68:Drivers/STM32L4xx_HAL_Driver/Src/stm32l4xx_hal_dma.c ****        (+) __HAL_DMA_DISABLE_IT: Disable the specified DMA Channel interrupts.
  69:Drivers/STM32L4xx_HAL_Driver/Src/stm32l4xx_hal_dma.c ****        (+) __HAL_DMA_GET_IT_SOURCE: Check whether the specified DMA Channel interrupt has occurred 
  70:Drivers/STM32L4xx_HAL_Driver/Src/stm32l4xx_hal_dma.c **** 
  71:Drivers/STM32L4xx_HAL_Driver/Src/stm32l4xx_hal_dma.c ****      [..]
  72:Drivers/STM32L4xx_HAL_Driver/Src/stm32l4xx_hal_dma.c ****       (@) You can refer to the DMA HAL driver header file for more useful macros
  73:Drivers/STM32L4xx_HAL_Driver/Src/stm32l4xx_hal_dma.c **** 
  74:Drivers/STM32L4xx_HAL_Driver/Src/stm32l4xx_hal_dma.c ****   @endverbatim
  75:Drivers/STM32L4xx_HAL_Driver/Src/stm32l4xx_hal_dma.c ****   ******************************************************************************
  76:Drivers/STM32L4xx_HAL_Driver/Src/stm32l4xx_hal_dma.c ****   * @attention
  77:Drivers/STM32L4xx_HAL_Driver/Src/stm32l4xx_hal_dma.c ****   *
  78:Drivers/STM32L4xx_HAL_Driver/Src/stm32l4xx_hal_dma.c ****   * <h2><center>&copy; COPYRIGHT(c) 2017 STMicroelectronics</center></h2>
  79:Drivers/STM32L4xx_HAL_Driver/Src/stm32l4xx_hal_dma.c ****   *
  80:Drivers/STM32L4xx_HAL_Driver/Src/stm32l4xx_hal_dma.c ****   * Redistribution and use in source and binary forms, with or without modification,
  81:Drivers/STM32L4xx_HAL_Driver/Src/stm32l4xx_hal_dma.c ****   * are permitted provided that the following conditions are met:
  82:Drivers/STM32L4xx_HAL_Driver/Src/stm32l4xx_hal_dma.c ****   *   1. Redistributions of source code must retain the above copyright notice,
  83:Drivers/STM32L4xx_HAL_Driver/Src/stm32l4xx_hal_dma.c ****   *      this list of conditions and the following disclaimer.
  84:Drivers/STM32L4xx_HAL_Driver/Src/stm32l4xx_hal_dma.c ****   *   2. Redistributions in binary form must reproduce the above copyright notice,
  85:Drivers/STM32L4xx_HAL_Driver/Src/stm32l4xx_hal_dma.c ****   *      this list of conditions and the following disclaimer in the documentation
  86:Drivers/STM32L4xx_HAL_Driver/Src/stm32l4xx_hal_dma.c ****   *      and/or other materials provided with the distribution.
  87:Drivers/STM32L4xx_HAL_Driver/Src/stm32l4xx_hal_dma.c ****   *   3. Neither the name of STMicroelectronics nor the names of its contributors
ARM GAS  /tmp/ccaIxFiO.s 			page 3


  88:Drivers/STM32L4xx_HAL_Driver/Src/stm32l4xx_hal_dma.c ****   *      may be used to endorse or promote products derived from this software
  89:Drivers/STM32L4xx_HAL_Driver/Src/stm32l4xx_hal_dma.c ****   *      without specific prior written permission.
  90:Drivers/STM32L4xx_HAL_Driver/Src/stm32l4xx_hal_dma.c ****   *
  91:Drivers/STM32L4xx_HAL_Driver/Src/stm32l4xx_hal_dma.c ****   * THIS SOFTWARE IS PROVIDED BY THE COPYRIGHT HOLDERS AND CONTRIBUTORS "AS IS"
  92:Drivers/STM32L4xx_HAL_Driver/Src/stm32l4xx_hal_dma.c ****   * AND ANY EXPRESS OR IMPLIED WARRANTIES, INCLUDING, BUT NOT LIMITED TO, THE
  93:Drivers/STM32L4xx_HAL_Driver/Src/stm32l4xx_hal_dma.c ****   * IMPLIED WARRANTIES OF MERCHANTABILITY AND FITNESS FOR A PARTICULAR PURPOSE ARE
  94:Drivers/STM32L4xx_HAL_Driver/Src/stm32l4xx_hal_dma.c ****   * DISCLAIMED. IN NO EVENT SHALL THE COPYRIGHT HOLDER OR CONTRIBUTORS BE LIABLE
  95:Drivers/STM32L4xx_HAL_Driver/Src/stm32l4xx_hal_dma.c ****   * FOR ANY DIRECT, INDIRECT, INCIDENTAL, SPECIAL, EXEMPLARY, OR CONSEQUENTIAL
  96:Drivers/STM32L4xx_HAL_Driver/Src/stm32l4xx_hal_dma.c ****   * DAMAGES (INCLUDING, BUT NOT LIMITED TO, PROCUREMENT OF SUBSTITUTE GOODS OR
  97:Drivers/STM32L4xx_HAL_Driver/Src/stm32l4xx_hal_dma.c ****   * SERVICES; LOSS OF USE, DATA, OR PROFITS; OR BUSINESS INTERRUPTION) HOWEVER
  98:Drivers/STM32L4xx_HAL_Driver/Src/stm32l4xx_hal_dma.c ****   * CAUSED AND ON ANY THEORY OF LIABILITY, WHETHER IN CONTRACT, STRICT LIABILITY,
  99:Drivers/STM32L4xx_HAL_Driver/Src/stm32l4xx_hal_dma.c ****   * OR TORT (INCLUDING NEGLIGENCE OR OTHERWISE) ARISING IN ANY WAY OUT OF THE USE
 100:Drivers/STM32L4xx_HAL_Driver/Src/stm32l4xx_hal_dma.c ****   * OF THIS SOFTWARE, EVEN IF ADVISED OF THE POSSIBILITY OF SUCH DAMAGE.
 101:Drivers/STM32L4xx_HAL_Driver/Src/stm32l4xx_hal_dma.c ****   *
 102:Drivers/STM32L4xx_HAL_Driver/Src/stm32l4xx_hal_dma.c ****   ******************************************************************************
 103:Drivers/STM32L4xx_HAL_Driver/Src/stm32l4xx_hal_dma.c ****   */
 104:Drivers/STM32L4xx_HAL_Driver/Src/stm32l4xx_hal_dma.c **** 
 105:Drivers/STM32L4xx_HAL_Driver/Src/stm32l4xx_hal_dma.c **** /* Includes ------------------------------------------------------------------*/
 106:Drivers/STM32L4xx_HAL_Driver/Src/stm32l4xx_hal_dma.c **** #include "stm32l4xx_hal.h"
 107:Drivers/STM32L4xx_HAL_Driver/Src/stm32l4xx_hal_dma.c **** 
 108:Drivers/STM32L4xx_HAL_Driver/Src/stm32l4xx_hal_dma.c **** /** @addtogroup STM32L4xx_HAL_Driver
 109:Drivers/STM32L4xx_HAL_Driver/Src/stm32l4xx_hal_dma.c ****   * @{
 110:Drivers/STM32L4xx_HAL_Driver/Src/stm32l4xx_hal_dma.c ****   */
 111:Drivers/STM32L4xx_HAL_Driver/Src/stm32l4xx_hal_dma.c **** 
 112:Drivers/STM32L4xx_HAL_Driver/Src/stm32l4xx_hal_dma.c **** /** @defgroup DMA DMA
 113:Drivers/STM32L4xx_HAL_Driver/Src/stm32l4xx_hal_dma.c ****   * @brief DMA HAL module driver
 114:Drivers/STM32L4xx_HAL_Driver/Src/stm32l4xx_hal_dma.c ****   * @{
 115:Drivers/STM32L4xx_HAL_Driver/Src/stm32l4xx_hal_dma.c ****   */
 116:Drivers/STM32L4xx_HAL_Driver/Src/stm32l4xx_hal_dma.c **** 
 117:Drivers/STM32L4xx_HAL_Driver/Src/stm32l4xx_hal_dma.c **** #ifdef HAL_DMA_MODULE_ENABLED
 118:Drivers/STM32L4xx_HAL_Driver/Src/stm32l4xx_hal_dma.c **** 
 119:Drivers/STM32L4xx_HAL_Driver/Src/stm32l4xx_hal_dma.c **** /* Private typedef -----------------------------------------------------------*/
 120:Drivers/STM32L4xx_HAL_Driver/Src/stm32l4xx_hal_dma.c **** /* Private define ------------------------------------------------------------*/
 121:Drivers/STM32L4xx_HAL_Driver/Src/stm32l4xx_hal_dma.c **** /* Private macro -------------------------------------------------------------*/
 122:Drivers/STM32L4xx_HAL_Driver/Src/stm32l4xx_hal_dma.c **** /* Private variables ---------------------------------------------------------*/
 123:Drivers/STM32L4xx_HAL_Driver/Src/stm32l4xx_hal_dma.c **** /* Private function prototypes -----------------------------------------------*/
 124:Drivers/STM32L4xx_HAL_Driver/Src/stm32l4xx_hal_dma.c **** /** @defgroup DMA_Private_Functions DMA Private Functions
 125:Drivers/STM32L4xx_HAL_Driver/Src/stm32l4xx_hal_dma.c ****   * @{
 126:Drivers/STM32L4xx_HAL_Driver/Src/stm32l4xx_hal_dma.c ****   */
 127:Drivers/STM32L4xx_HAL_Driver/Src/stm32l4xx_hal_dma.c **** static void DMA_SetConfig(DMA_HandleTypeDef *hdma, uint32_t SrcAddress, uint32_t DstAddress, uint32
 128:Drivers/STM32L4xx_HAL_Driver/Src/stm32l4xx_hal_dma.c **** #if defined(DMAMUX1)
 129:Drivers/STM32L4xx_HAL_Driver/Src/stm32l4xx_hal_dma.c **** static void DMA_CalcDMAMUXChannelBaseAndMask(DMA_HandleTypeDef *hdma);
 130:Drivers/STM32L4xx_HAL_Driver/Src/stm32l4xx_hal_dma.c **** static void DMA_CalcDMAMUXRequestGenBaseAndMask(DMA_HandleTypeDef *hdma);
 131:Drivers/STM32L4xx_HAL_Driver/Src/stm32l4xx_hal_dma.c **** #endif /* DMAMUX1 */
 132:Drivers/STM32L4xx_HAL_Driver/Src/stm32l4xx_hal_dma.c **** 
 133:Drivers/STM32L4xx_HAL_Driver/Src/stm32l4xx_hal_dma.c **** /**
 134:Drivers/STM32L4xx_HAL_Driver/Src/stm32l4xx_hal_dma.c ****   * @}
 135:Drivers/STM32L4xx_HAL_Driver/Src/stm32l4xx_hal_dma.c ****   */
 136:Drivers/STM32L4xx_HAL_Driver/Src/stm32l4xx_hal_dma.c **** 
 137:Drivers/STM32L4xx_HAL_Driver/Src/stm32l4xx_hal_dma.c **** /* Exported functions ---------------------------------------------------------*/
 138:Drivers/STM32L4xx_HAL_Driver/Src/stm32l4xx_hal_dma.c **** 
 139:Drivers/STM32L4xx_HAL_Driver/Src/stm32l4xx_hal_dma.c **** /** @defgroup DMA_Exported_Functions DMA Exported Functions
 140:Drivers/STM32L4xx_HAL_Driver/Src/stm32l4xx_hal_dma.c ****   * @{
 141:Drivers/STM32L4xx_HAL_Driver/Src/stm32l4xx_hal_dma.c ****   */
 142:Drivers/STM32L4xx_HAL_Driver/Src/stm32l4xx_hal_dma.c **** 
 143:Drivers/STM32L4xx_HAL_Driver/Src/stm32l4xx_hal_dma.c **** /** @defgroup DMA_Exported_Functions_Group1 Initialization and de-initialization functions
 144:Drivers/STM32L4xx_HAL_Driver/Src/stm32l4xx_hal_dma.c ****  *  @brief   Initialization and de-initialization functions
ARM GAS  /tmp/ccaIxFiO.s 			page 4


 145:Drivers/STM32L4xx_HAL_Driver/Src/stm32l4xx_hal_dma.c ****  *
 146:Drivers/STM32L4xx_HAL_Driver/Src/stm32l4xx_hal_dma.c **** @verbatim
 147:Drivers/STM32L4xx_HAL_Driver/Src/stm32l4xx_hal_dma.c ****  ===============================================================================
 148:Drivers/STM32L4xx_HAL_Driver/Src/stm32l4xx_hal_dma.c ****              ##### Initialization and de-initialization functions  #####
 149:Drivers/STM32L4xx_HAL_Driver/Src/stm32l4xx_hal_dma.c ****  ===============================================================================
 150:Drivers/STM32L4xx_HAL_Driver/Src/stm32l4xx_hal_dma.c ****     [..]
 151:Drivers/STM32L4xx_HAL_Driver/Src/stm32l4xx_hal_dma.c ****     This section provides functions allowing to initialize the DMA Channel source
 152:Drivers/STM32L4xx_HAL_Driver/Src/stm32l4xx_hal_dma.c ****     and destination addresses, incrementation and data sizes, transfer direction,
 153:Drivers/STM32L4xx_HAL_Driver/Src/stm32l4xx_hal_dma.c ****     circular/normal mode selection, memory-to-memory mode selection and Channel priority value.
 154:Drivers/STM32L4xx_HAL_Driver/Src/stm32l4xx_hal_dma.c ****     [..]
 155:Drivers/STM32L4xx_HAL_Driver/Src/stm32l4xx_hal_dma.c ****     The HAL_DMA_Init() function follows the DMA configuration procedures as described in
 156:Drivers/STM32L4xx_HAL_Driver/Src/stm32l4xx_hal_dma.c ****     reference manual.
 157:Drivers/STM32L4xx_HAL_Driver/Src/stm32l4xx_hal_dma.c **** 
 158:Drivers/STM32L4xx_HAL_Driver/Src/stm32l4xx_hal_dma.c **** @endverbatim
 159:Drivers/STM32L4xx_HAL_Driver/Src/stm32l4xx_hal_dma.c ****   * @{
 160:Drivers/STM32L4xx_HAL_Driver/Src/stm32l4xx_hal_dma.c ****   */
 161:Drivers/STM32L4xx_HAL_Driver/Src/stm32l4xx_hal_dma.c **** 
 162:Drivers/STM32L4xx_HAL_Driver/Src/stm32l4xx_hal_dma.c **** /**
 163:Drivers/STM32L4xx_HAL_Driver/Src/stm32l4xx_hal_dma.c ****   * @brief  Initialize the DMA according to the specified
 164:Drivers/STM32L4xx_HAL_Driver/Src/stm32l4xx_hal_dma.c ****   *         parameters in the DMA_InitTypeDef and initialize the associated handle.
 165:Drivers/STM32L4xx_HAL_Driver/Src/stm32l4xx_hal_dma.c ****   * @param  hdma Pointer to a DMA_HandleTypeDef structure that contains
 166:Drivers/STM32L4xx_HAL_Driver/Src/stm32l4xx_hal_dma.c ****   *               the configuration information for the specified DMA Channel.
 167:Drivers/STM32L4xx_HAL_Driver/Src/stm32l4xx_hal_dma.c ****   * @retval HAL status
 168:Drivers/STM32L4xx_HAL_Driver/Src/stm32l4xx_hal_dma.c ****   */
 169:Drivers/STM32L4xx_HAL_Driver/Src/stm32l4xx_hal_dma.c **** HAL_StatusTypeDef HAL_DMA_Init(DMA_HandleTypeDef *hdma)
 170:Drivers/STM32L4xx_HAL_Driver/Src/stm32l4xx_hal_dma.c **** {
 171:Drivers/STM32L4xx_HAL_Driver/Src/stm32l4xx_hal_dma.c ****   uint32_t tmp;
 172:Drivers/STM32L4xx_HAL_Driver/Src/stm32l4xx_hal_dma.c **** 
 173:Drivers/STM32L4xx_HAL_Driver/Src/stm32l4xx_hal_dma.c ****   /* Check the DMA handle allocation */
 174:Drivers/STM32L4xx_HAL_Driver/Src/stm32l4xx_hal_dma.c ****   if(hdma == NULL)
 175:Drivers/STM32L4xx_HAL_Driver/Src/stm32l4xx_hal_dma.c ****   {
 176:Drivers/STM32L4xx_HAL_Driver/Src/stm32l4xx_hal_dma.c ****     return HAL_ERROR;
 177:Drivers/STM32L4xx_HAL_Driver/Src/stm32l4xx_hal_dma.c ****   }
 178:Drivers/STM32L4xx_HAL_Driver/Src/stm32l4xx_hal_dma.c **** 
 179:Drivers/STM32L4xx_HAL_Driver/Src/stm32l4xx_hal_dma.c ****   /* Check the parameters */
 180:Drivers/STM32L4xx_HAL_Driver/Src/stm32l4xx_hal_dma.c ****   assert_param(IS_DMA_ALL_INSTANCE(hdma->Instance));
 181:Drivers/STM32L4xx_HAL_Driver/Src/stm32l4xx_hal_dma.c ****   assert_param(IS_DMA_DIRECTION(hdma->Init.Direction));
 182:Drivers/STM32L4xx_HAL_Driver/Src/stm32l4xx_hal_dma.c ****   assert_param(IS_DMA_PERIPHERAL_INC_STATE(hdma->Init.PeriphInc));
 183:Drivers/STM32L4xx_HAL_Driver/Src/stm32l4xx_hal_dma.c ****   assert_param(IS_DMA_MEMORY_INC_STATE(hdma->Init.MemInc));
 184:Drivers/STM32L4xx_HAL_Driver/Src/stm32l4xx_hal_dma.c ****   assert_param(IS_DMA_PERIPHERAL_DATA_SIZE(hdma->Init.PeriphDataAlignment));
 185:Drivers/STM32L4xx_HAL_Driver/Src/stm32l4xx_hal_dma.c ****   assert_param(IS_DMA_MEMORY_DATA_SIZE(hdma->Init.MemDataAlignment));
 186:Drivers/STM32L4xx_HAL_Driver/Src/stm32l4xx_hal_dma.c ****   assert_param(IS_DMA_MODE(hdma->Init.Mode));
 187:Drivers/STM32L4xx_HAL_Driver/Src/stm32l4xx_hal_dma.c ****   assert_param(IS_DMA_PRIORITY(hdma->Init.Priority));
 188:Drivers/STM32L4xx_HAL_Driver/Src/stm32l4xx_hal_dma.c **** 
 189:Drivers/STM32L4xx_HAL_Driver/Src/stm32l4xx_hal_dma.c ****   assert_param(IS_DMA_ALL_REQUEST(hdma->Init.Request));
 190:Drivers/STM32L4xx_HAL_Driver/Src/stm32l4xx_hal_dma.c **** 
 191:Drivers/STM32L4xx_HAL_Driver/Src/stm32l4xx_hal_dma.c ****   /* Compute the channel index */
 192:Drivers/STM32L4xx_HAL_Driver/Src/stm32l4xx_hal_dma.c ****   if ((uint32_t)(hdma->Instance) < (uint32_t)(DMA2_Channel1))
 193:Drivers/STM32L4xx_HAL_Driver/Src/stm32l4xx_hal_dma.c ****   {
 194:Drivers/STM32L4xx_HAL_Driver/Src/stm32l4xx_hal_dma.c ****     /* DMA1 */
 195:Drivers/STM32L4xx_HAL_Driver/Src/stm32l4xx_hal_dma.c ****     hdma->ChannelIndex = (((uint32_t)hdma->Instance - (uint32_t)DMA1_Channel1) / ((uint32_t)DMA1_Ch
 196:Drivers/STM32L4xx_HAL_Driver/Src/stm32l4xx_hal_dma.c ****     hdma->DmaBaseAddress = DMA1;
 197:Drivers/STM32L4xx_HAL_Driver/Src/stm32l4xx_hal_dma.c ****   }
 198:Drivers/STM32L4xx_HAL_Driver/Src/stm32l4xx_hal_dma.c ****   else
 199:Drivers/STM32L4xx_HAL_Driver/Src/stm32l4xx_hal_dma.c ****   {
 200:Drivers/STM32L4xx_HAL_Driver/Src/stm32l4xx_hal_dma.c ****     /* DMA2 */
 201:Drivers/STM32L4xx_HAL_Driver/Src/stm32l4xx_hal_dma.c ****     hdma->ChannelIndex = (((uint32_t)hdma->Instance - (uint32_t)DMA2_Channel1) / ((uint32_t)DMA2_Ch
ARM GAS  /tmp/ccaIxFiO.s 			page 5


 202:Drivers/STM32L4xx_HAL_Driver/Src/stm32l4xx_hal_dma.c ****     hdma->DmaBaseAddress = DMA2;
 203:Drivers/STM32L4xx_HAL_Driver/Src/stm32l4xx_hal_dma.c ****   }
 204:Drivers/STM32L4xx_HAL_Driver/Src/stm32l4xx_hal_dma.c **** 
 205:Drivers/STM32L4xx_HAL_Driver/Src/stm32l4xx_hal_dma.c ****   /* Change DMA peripheral state */
 206:Drivers/STM32L4xx_HAL_Driver/Src/stm32l4xx_hal_dma.c ****   hdma->State = HAL_DMA_STATE_BUSY;
 207:Drivers/STM32L4xx_HAL_Driver/Src/stm32l4xx_hal_dma.c **** 
 208:Drivers/STM32L4xx_HAL_Driver/Src/stm32l4xx_hal_dma.c ****   /* Get the CR register value */
 209:Drivers/STM32L4xx_HAL_Driver/Src/stm32l4xx_hal_dma.c ****   tmp = hdma->Instance->CCR;
 210:Drivers/STM32L4xx_HAL_Driver/Src/stm32l4xx_hal_dma.c **** 
 211:Drivers/STM32L4xx_HAL_Driver/Src/stm32l4xx_hal_dma.c ****   /* Clear PL, MSIZE, PSIZE, MINC, PINC, CIRC, DIR and MEM2MEM bits */
 212:Drivers/STM32L4xx_HAL_Driver/Src/stm32l4xx_hal_dma.c ****   tmp &= ((uint32_t)~(DMA_CCR_PL    | DMA_CCR_MSIZE  | DMA_CCR_PSIZE  |
 213:Drivers/STM32L4xx_HAL_Driver/Src/stm32l4xx_hal_dma.c ****                       DMA_CCR_MINC  | DMA_CCR_PINC   | DMA_CCR_CIRC   |
 214:Drivers/STM32L4xx_HAL_Driver/Src/stm32l4xx_hal_dma.c ****                       DMA_CCR_DIR   | DMA_CCR_MEM2MEM));
 215:Drivers/STM32L4xx_HAL_Driver/Src/stm32l4xx_hal_dma.c **** 
 216:Drivers/STM32L4xx_HAL_Driver/Src/stm32l4xx_hal_dma.c ****   /* Prepare the DMA Channel configuration */
 217:Drivers/STM32L4xx_HAL_Driver/Src/stm32l4xx_hal_dma.c ****   tmp |=  hdma->Init.Direction        |
 218:Drivers/STM32L4xx_HAL_Driver/Src/stm32l4xx_hal_dma.c ****           hdma->Init.PeriphInc           | hdma->Init.MemInc           |
 219:Drivers/STM32L4xx_HAL_Driver/Src/stm32l4xx_hal_dma.c ****           hdma->Init.PeriphDataAlignment | hdma->Init.MemDataAlignment |
 220:Drivers/STM32L4xx_HAL_Driver/Src/stm32l4xx_hal_dma.c ****           hdma->Init.Mode                | hdma->Init.Priority;
 221:Drivers/STM32L4xx_HAL_Driver/Src/stm32l4xx_hal_dma.c **** 
 222:Drivers/STM32L4xx_HAL_Driver/Src/stm32l4xx_hal_dma.c ****   /* Write to DMA Channel CR register */
 223:Drivers/STM32L4xx_HAL_Driver/Src/stm32l4xx_hal_dma.c ****   hdma->Instance->CCR = tmp;
 224:Drivers/STM32L4xx_HAL_Driver/Src/stm32l4xx_hal_dma.c **** 
 225:Drivers/STM32L4xx_HAL_Driver/Src/stm32l4xx_hal_dma.c **** 
 226:Drivers/STM32L4xx_HAL_Driver/Src/stm32l4xx_hal_dma.c **** #if defined(DMAMUX1)
 227:Drivers/STM32L4xx_HAL_Driver/Src/stm32l4xx_hal_dma.c ****   /* Initialize parameters for DMAMUX channel :
 228:Drivers/STM32L4xx_HAL_Driver/Src/stm32l4xx_hal_dma.c ****      DMAmuxChannel, DMAmuxChannelStatus and DMAmuxChannelStatusMask
 229:Drivers/STM32L4xx_HAL_Driver/Src/stm32l4xx_hal_dma.c ****   */
 230:Drivers/STM32L4xx_HAL_Driver/Src/stm32l4xx_hal_dma.c ****   DMA_CalcDMAMUXChannelBaseAndMask(hdma);
 231:Drivers/STM32L4xx_HAL_Driver/Src/stm32l4xx_hal_dma.c **** 
 232:Drivers/STM32L4xx_HAL_Driver/Src/stm32l4xx_hal_dma.c ****   if(hdma->Init.Direction == DMA_MEMORY_TO_MEMORY)
 233:Drivers/STM32L4xx_HAL_Driver/Src/stm32l4xx_hal_dma.c ****   {
 234:Drivers/STM32L4xx_HAL_Driver/Src/stm32l4xx_hal_dma.c ****     /* if memory to memory force the request to 0*/
 235:Drivers/STM32L4xx_HAL_Driver/Src/stm32l4xx_hal_dma.c ****     hdma->Init.Request = DMA_REQUEST_MEM2MEM;
 236:Drivers/STM32L4xx_HAL_Driver/Src/stm32l4xx_hal_dma.c ****   }
 237:Drivers/STM32L4xx_HAL_Driver/Src/stm32l4xx_hal_dma.c **** 
 238:Drivers/STM32L4xx_HAL_Driver/Src/stm32l4xx_hal_dma.c ****   /* Set peripheral request  to DMAMUX channel */
 239:Drivers/STM32L4xx_HAL_Driver/Src/stm32l4xx_hal_dma.c ****   hdma->DMAmuxChannel->CCR = (hdma->Init.Request & DMAMUX_CxCR_DMAREQ_ID);
 240:Drivers/STM32L4xx_HAL_Driver/Src/stm32l4xx_hal_dma.c **** 
 241:Drivers/STM32L4xx_HAL_Driver/Src/stm32l4xx_hal_dma.c ****   /* Clear the DMAMUX synchro overrun flag */
 242:Drivers/STM32L4xx_HAL_Driver/Src/stm32l4xx_hal_dma.c ****   hdma->DMAmuxChannelStatus->CFR = hdma->DMAmuxChannelStatusMask;
 243:Drivers/STM32L4xx_HAL_Driver/Src/stm32l4xx_hal_dma.c **** 
 244:Drivers/STM32L4xx_HAL_Driver/Src/stm32l4xx_hal_dma.c ****   if(((hdma->Init.Request > 0UL) && (hdma->Init.Request <= DMA_REQUEST_GENERATOR3)))
 245:Drivers/STM32L4xx_HAL_Driver/Src/stm32l4xx_hal_dma.c ****   {
 246:Drivers/STM32L4xx_HAL_Driver/Src/stm32l4xx_hal_dma.c ****     /* Initialize parameters for DMAMUX request generator :
 247:Drivers/STM32L4xx_HAL_Driver/Src/stm32l4xx_hal_dma.c ****        DMAmuxRequestGen, DMAmuxRequestGenStatus and DMAmuxRequestGenStatusMask
 248:Drivers/STM32L4xx_HAL_Driver/Src/stm32l4xx_hal_dma.c ****     */
 249:Drivers/STM32L4xx_HAL_Driver/Src/stm32l4xx_hal_dma.c ****     DMA_CalcDMAMUXRequestGenBaseAndMask(hdma);
 250:Drivers/STM32L4xx_HAL_Driver/Src/stm32l4xx_hal_dma.c **** 
 251:Drivers/STM32L4xx_HAL_Driver/Src/stm32l4xx_hal_dma.c ****     /* Reset the DMAMUX request generator register*/
 252:Drivers/STM32L4xx_HAL_Driver/Src/stm32l4xx_hal_dma.c ****     hdma->DMAmuxRequestGen->RGCR = 0U;
 253:Drivers/STM32L4xx_HAL_Driver/Src/stm32l4xx_hal_dma.c **** 
 254:Drivers/STM32L4xx_HAL_Driver/Src/stm32l4xx_hal_dma.c ****     /* Clear the DMAMUX request generator overrun flag */
 255:Drivers/STM32L4xx_HAL_Driver/Src/stm32l4xx_hal_dma.c ****     hdma->DMAmuxRequestGenStatus->RGCFR = hdma->DMAmuxRequestGenStatusMask;
 256:Drivers/STM32L4xx_HAL_Driver/Src/stm32l4xx_hal_dma.c ****   }
 257:Drivers/STM32L4xx_HAL_Driver/Src/stm32l4xx_hal_dma.c ****   else
 258:Drivers/STM32L4xx_HAL_Driver/Src/stm32l4xx_hal_dma.c ****   {
ARM GAS  /tmp/ccaIxFiO.s 			page 6


 259:Drivers/STM32L4xx_HAL_Driver/Src/stm32l4xx_hal_dma.c ****     hdma->DMAmuxRequestGen = 0U;
 260:Drivers/STM32L4xx_HAL_Driver/Src/stm32l4xx_hal_dma.c ****     hdma->DMAmuxRequestGenStatus = 0U;
 261:Drivers/STM32L4xx_HAL_Driver/Src/stm32l4xx_hal_dma.c ****     hdma->DMAmuxRequestGenStatusMask = 0U;
 262:Drivers/STM32L4xx_HAL_Driver/Src/stm32l4xx_hal_dma.c ****   }
 263:Drivers/STM32L4xx_HAL_Driver/Src/stm32l4xx_hal_dma.c **** #endif /* DMAMUX1 */
 264:Drivers/STM32L4xx_HAL_Driver/Src/stm32l4xx_hal_dma.c **** 
 265:Drivers/STM32L4xx_HAL_Driver/Src/stm32l4xx_hal_dma.c **** #if !defined (DMAMUX1)
 266:Drivers/STM32L4xx_HAL_Driver/Src/stm32l4xx_hal_dma.c **** 
 267:Drivers/STM32L4xx_HAL_Driver/Src/stm32l4xx_hal_dma.c ****   /* Set request selection */
 268:Drivers/STM32L4xx_HAL_Driver/Src/stm32l4xx_hal_dma.c ****   if(hdma->Init.Direction != DMA_MEMORY_TO_MEMORY)
 269:Drivers/STM32L4xx_HAL_Driver/Src/stm32l4xx_hal_dma.c ****   {
 270:Drivers/STM32L4xx_HAL_Driver/Src/stm32l4xx_hal_dma.c ****     /* Write to DMA channel selection register */
 271:Drivers/STM32L4xx_HAL_Driver/Src/stm32l4xx_hal_dma.c ****     if (DMA1 == hdma->DmaBaseAddress)
 272:Drivers/STM32L4xx_HAL_Driver/Src/stm32l4xx_hal_dma.c ****     {
 273:Drivers/STM32L4xx_HAL_Driver/Src/stm32l4xx_hal_dma.c ****       /* Reset request selection for DMA1 Channelx */
 274:Drivers/STM32L4xx_HAL_Driver/Src/stm32l4xx_hal_dma.c ****       DMA1_CSELR->CSELR &= ~(DMA_CSELR_C1S << (hdma->ChannelIndex & 0x1cU));
 275:Drivers/STM32L4xx_HAL_Driver/Src/stm32l4xx_hal_dma.c **** 
 276:Drivers/STM32L4xx_HAL_Driver/Src/stm32l4xx_hal_dma.c ****       /* Configure request selection for DMA1 Channelx */
 277:Drivers/STM32L4xx_HAL_Driver/Src/stm32l4xx_hal_dma.c ****       DMA1_CSELR->CSELR |= (uint32_t) (hdma->Init.Request << (hdma->ChannelIndex & 0x1cU));
 278:Drivers/STM32L4xx_HAL_Driver/Src/stm32l4xx_hal_dma.c ****     }
 279:Drivers/STM32L4xx_HAL_Driver/Src/stm32l4xx_hal_dma.c ****     else /* DMA2 */
 280:Drivers/STM32L4xx_HAL_Driver/Src/stm32l4xx_hal_dma.c ****     {
 281:Drivers/STM32L4xx_HAL_Driver/Src/stm32l4xx_hal_dma.c ****       /* Reset request selection for DMA2 Channelx */
 282:Drivers/STM32L4xx_HAL_Driver/Src/stm32l4xx_hal_dma.c ****       DMA2_CSELR->CSELR &= ~(DMA_CSELR_C1S << (hdma->ChannelIndex & 0x1cU));
 283:Drivers/STM32L4xx_HAL_Driver/Src/stm32l4xx_hal_dma.c **** 
 284:Drivers/STM32L4xx_HAL_Driver/Src/stm32l4xx_hal_dma.c ****       /* Configure request selection for DMA2 Channelx */
 285:Drivers/STM32L4xx_HAL_Driver/Src/stm32l4xx_hal_dma.c ****       DMA2_CSELR->CSELR |= (uint32_t) (hdma->Init.Request << (hdma->ChannelIndex & 0x1cU));
 286:Drivers/STM32L4xx_HAL_Driver/Src/stm32l4xx_hal_dma.c ****     }
 287:Drivers/STM32L4xx_HAL_Driver/Src/stm32l4xx_hal_dma.c ****   }
 288:Drivers/STM32L4xx_HAL_Driver/Src/stm32l4xx_hal_dma.c **** 
 289:Drivers/STM32L4xx_HAL_Driver/Src/stm32l4xx_hal_dma.c **** #endif /* STM32L431xx || STM32L432xx || STM32L433xx || STM32L442xx || STM32L443xx */
 290:Drivers/STM32L4xx_HAL_Driver/Src/stm32l4xx_hal_dma.c ****        /* STM32L471xx || STM32L475xx || STM32L476xx || STM32L442xx || STM32L486xx */
 291:Drivers/STM32L4xx_HAL_Driver/Src/stm32l4xx_hal_dma.c ****        /* STM32L496xx || STM32L4A6xx                                              */
 292:Drivers/STM32L4xx_HAL_Driver/Src/stm32l4xx_hal_dma.c **** 
 293:Drivers/STM32L4xx_HAL_Driver/Src/stm32l4xx_hal_dma.c ****   /* Initialise the error code */
 294:Drivers/STM32L4xx_HAL_Driver/Src/stm32l4xx_hal_dma.c ****   hdma->ErrorCode = HAL_DMA_ERROR_NONE;
 295:Drivers/STM32L4xx_HAL_Driver/Src/stm32l4xx_hal_dma.c **** 
 296:Drivers/STM32L4xx_HAL_Driver/Src/stm32l4xx_hal_dma.c ****   /* Initialize the DMA state*/
 297:Drivers/STM32L4xx_HAL_Driver/Src/stm32l4xx_hal_dma.c ****   hdma->State  = HAL_DMA_STATE_READY;
 298:Drivers/STM32L4xx_HAL_Driver/Src/stm32l4xx_hal_dma.c **** 
 299:Drivers/STM32L4xx_HAL_Driver/Src/stm32l4xx_hal_dma.c ****   /* Allocate lock resource and initialize it */
 300:Drivers/STM32L4xx_HAL_Driver/Src/stm32l4xx_hal_dma.c ****   hdma->Lock = HAL_UNLOCKED;
 301:Drivers/STM32L4xx_HAL_Driver/Src/stm32l4xx_hal_dma.c **** 
 302:Drivers/STM32L4xx_HAL_Driver/Src/stm32l4xx_hal_dma.c ****   return HAL_OK;
 303:Drivers/STM32L4xx_HAL_Driver/Src/stm32l4xx_hal_dma.c **** }
 304:Drivers/STM32L4xx_HAL_Driver/Src/stm32l4xx_hal_dma.c **** 
 305:Drivers/STM32L4xx_HAL_Driver/Src/stm32l4xx_hal_dma.c **** /**
 306:Drivers/STM32L4xx_HAL_Driver/Src/stm32l4xx_hal_dma.c ****   * @brief  DeInitialize the DMA peripheral.
 307:Drivers/STM32L4xx_HAL_Driver/Src/stm32l4xx_hal_dma.c ****   * @param  hdma pointer to a DMA_HandleTypeDef structure that contains
 308:Drivers/STM32L4xx_HAL_Driver/Src/stm32l4xx_hal_dma.c ****   *               the configuration information for the specified DMA Channel.
 309:Drivers/STM32L4xx_HAL_Driver/Src/stm32l4xx_hal_dma.c ****   * @retval HAL status
 310:Drivers/STM32L4xx_HAL_Driver/Src/stm32l4xx_hal_dma.c ****   */
 311:Drivers/STM32L4xx_HAL_Driver/Src/stm32l4xx_hal_dma.c **** HAL_StatusTypeDef HAL_DMA_DeInit(DMA_HandleTypeDef *hdma)
 312:Drivers/STM32L4xx_HAL_Driver/Src/stm32l4xx_hal_dma.c **** {
 313:Drivers/STM32L4xx_HAL_Driver/Src/stm32l4xx_hal_dma.c **** 
 314:Drivers/STM32L4xx_HAL_Driver/Src/stm32l4xx_hal_dma.c ****   /* Check the DMA handle allocation */
 315:Drivers/STM32L4xx_HAL_Driver/Src/stm32l4xx_hal_dma.c ****   if (NULL == hdma )
ARM GAS  /tmp/ccaIxFiO.s 			page 7


 316:Drivers/STM32L4xx_HAL_Driver/Src/stm32l4xx_hal_dma.c ****   {
 317:Drivers/STM32L4xx_HAL_Driver/Src/stm32l4xx_hal_dma.c ****     return HAL_ERROR;
 318:Drivers/STM32L4xx_HAL_Driver/Src/stm32l4xx_hal_dma.c ****   }
 319:Drivers/STM32L4xx_HAL_Driver/Src/stm32l4xx_hal_dma.c **** 
 320:Drivers/STM32L4xx_HAL_Driver/Src/stm32l4xx_hal_dma.c ****   /* Check the parameters */
 321:Drivers/STM32L4xx_HAL_Driver/Src/stm32l4xx_hal_dma.c ****   assert_param(IS_DMA_ALL_INSTANCE(hdma->Instance));
 322:Drivers/STM32L4xx_HAL_Driver/Src/stm32l4xx_hal_dma.c **** 
 323:Drivers/STM32L4xx_HAL_Driver/Src/stm32l4xx_hal_dma.c ****   /* Disable the selected DMA Channelx */
 324:Drivers/STM32L4xx_HAL_Driver/Src/stm32l4xx_hal_dma.c ****   __HAL_DMA_DISABLE(hdma);
 325:Drivers/STM32L4xx_HAL_Driver/Src/stm32l4xx_hal_dma.c **** 
 326:Drivers/STM32L4xx_HAL_Driver/Src/stm32l4xx_hal_dma.c ****   /* Compute the channel index */
 327:Drivers/STM32L4xx_HAL_Driver/Src/stm32l4xx_hal_dma.c ****   if ((uint32_t)(hdma->Instance) < (uint32_t)(DMA2_Channel1))
 328:Drivers/STM32L4xx_HAL_Driver/Src/stm32l4xx_hal_dma.c ****   {
 329:Drivers/STM32L4xx_HAL_Driver/Src/stm32l4xx_hal_dma.c ****     /* DMA1 */
 330:Drivers/STM32L4xx_HAL_Driver/Src/stm32l4xx_hal_dma.c ****     hdma->ChannelIndex = (((uint32_t)hdma->Instance - (uint32_t)DMA1_Channel1) / ((uint32_t)DMA1_Ch
 331:Drivers/STM32L4xx_HAL_Driver/Src/stm32l4xx_hal_dma.c ****     hdma->DmaBaseAddress = DMA1;
 332:Drivers/STM32L4xx_HAL_Driver/Src/stm32l4xx_hal_dma.c ****   }
 333:Drivers/STM32L4xx_HAL_Driver/Src/stm32l4xx_hal_dma.c ****   else
 334:Drivers/STM32L4xx_HAL_Driver/Src/stm32l4xx_hal_dma.c ****   {
 335:Drivers/STM32L4xx_HAL_Driver/Src/stm32l4xx_hal_dma.c ****     /* DMA2 */
 336:Drivers/STM32L4xx_HAL_Driver/Src/stm32l4xx_hal_dma.c ****     hdma->ChannelIndex = (((uint32_t)hdma->Instance - (uint32_t)DMA2_Channel1) / ((uint32_t)DMA2_Ch
 337:Drivers/STM32L4xx_HAL_Driver/Src/stm32l4xx_hal_dma.c ****     hdma->DmaBaseAddress = DMA2;
 338:Drivers/STM32L4xx_HAL_Driver/Src/stm32l4xx_hal_dma.c ****   }
 339:Drivers/STM32L4xx_HAL_Driver/Src/stm32l4xx_hal_dma.c **** 
 340:Drivers/STM32L4xx_HAL_Driver/Src/stm32l4xx_hal_dma.c ****   /* Reset DMA Channel control register */
 341:Drivers/STM32L4xx_HAL_Driver/Src/stm32l4xx_hal_dma.c ****   hdma->Instance->CCR  = 0;
 342:Drivers/STM32L4xx_HAL_Driver/Src/stm32l4xx_hal_dma.c **** 
 343:Drivers/STM32L4xx_HAL_Driver/Src/stm32l4xx_hal_dma.c ****   /* Clear all flags */
 344:Drivers/STM32L4xx_HAL_Driver/Src/stm32l4xx_hal_dma.c ****   hdma->DmaBaseAddress->IFCR = (DMA_ISR_GIF1 << (hdma->ChannelIndex & 0x1cU));
 345:Drivers/STM32L4xx_HAL_Driver/Src/stm32l4xx_hal_dma.c **** 
 346:Drivers/STM32L4xx_HAL_Driver/Src/stm32l4xx_hal_dma.c **** #if !defined (DMAMUX1)
 347:Drivers/STM32L4xx_HAL_Driver/Src/stm32l4xx_hal_dma.c **** 
 348:Drivers/STM32L4xx_HAL_Driver/Src/stm32l4xx_hal_dma.c ****   /* Reset DMA channel selection register */
 349:Drivers/STM32L4xx_HAL_Driver/Src/stm32l4xx_hal_dma.c ****   if (DMA1 == hdma->DmaBaseAddress)
 350:Drivers/STM32L4xx_HAL_Driver/Src/stm32l4xx_hal_dma.c ****   {
 351:Drivers/STM32L4xx_HAL_Driver/Src/stm32l4xx_hal_dma.c ****     /* DMA1 */
 352:Drivers/STM32L4xx_HAL_Driver/Src/stm32l4xx_hal_dma.c ****     DMA1_CSELR->CSELR &= ~(DMA_CSELR_C1S << (hdma->ChannelIndex & 0x1cU));
 353:Drivers/STM32L4xx_HAL_Driver/Src/stm32l4xx_hal_dma.c ****   }
 354:Drivers/STM32L4xx_HAL_Driver/Src/stm32l4xx_hal_dma.c ****   else
 355:Drivers/STM32L4xx_HAL_Driver/Src/stm32l4xx_hal_dma.c ****   {
 356:Drivers/STM32L4xx_HAL_Driver/Src/stm32l4xx_hal_dma.c ****     /* DMA2 */
 357:Drivers/STM32L4xx_HAL_Driver/Src/stm32l4xx_hal_dma.c ****     DMA2_CSELR->CSELR &= ~(DMA_CSELR_C1S << (hdma->ChannelIndex & 0x1cU));
 358:Drivers/STM32L4xx_HAL_Driver/Src/stm32l4xx_hal_dma.c ****   }
 359:Drivers/STM32L4xx_HAL_Driver/Src/stm32l4xx_hal_dma.c **** #endif /* STM32L431xx || STM32L432xx || STM32L433xx || STM32L442xx || STM32L443xx */
 360:Drivers/STM32L4xx_HAL_Driver/Src/stm32l4xx_hal_dma.c ****        /* STM32L471xx || STM32L475xx || STM32L476xx || STM32L442xx || STM32L486xx */
 361:Drivers/STM32L4xx_HAL_Driver/Src/stm32l4xx_hal_dma.c ****        /* STM32L496xx || STM32L4A6xx                                              */
 362:Drivers/STM32L4xx_HAL_Driver/Src/stm32l4xx_hal_dma.c **** 
 363:Drivers/STM32L4xx_HAL_Driver/Src/stm32l4xx_hal_dma.c **** #if defined(DMAMUX1)
 364:Drivers/STM32L4xx_HAL_Driver/Src/stm32l4xx_hal_dma.c **** 
 365:Drivers/STM32L4xx_HAL_Driver/Src/stm32l4xx_hal_dma.c ****   /* Initialize parameters for DMAMUX channel :
 366:Drivers/STM32L4xx_HAL_Driver/Src/stm32l4xx_hal_dma.c ****      DMAmuxChannel, DMAmuxChannelStatus and DMAmuxChannelStatusMask */
 367:Drivers/STM32L4xx_HAL_Driver/Src/stm32l4xx_hal_dma.c **** 
 368:Drivers/STM32L4xx_HAL_Driver/Src/stm32l4xx_hal_dma.c ****   DMA_CalcDMAMUXChannelBaseAndMask(hdma);
 369:Drivers/STM32L4xx_HAL_Driver/Src/stm32l4xx_hal_dma.c **** 
 370:Drivers/STM32L4xx_HAL_Driver/Src/stm32l4xx_hal_dma.c ****   /* Reset the DMAMUX channel that corresponds to the DMA channel */
 371:Drivers/STM32L4xx_HAL_Driver/Src/stm32l4xx_hal_dma.c ****   hdma->DMAmuxChannel->CCR = 0;
 372:Drivers/STM32L4xx_HAL_Driver/Src/stm32l4xx_hal_dma.c **** 
ARM GAS  /tmp/ccaIxFiO.s 			page 8


 373:Drivers/STM32L4xx_HAL_Driver/Src/stm32l4xx_hal_dma.c ****   /* Clear the DMAMUX synchro overrun flag */
 374:Drivers/STM32L4xx_HAL_Driver/Src/stm32l4xx_hal_dma.c ****   hdma->DMAmuxChannelStatus->CFR = hdma->DMAmuxChannelStatusMask;
 375:Drivers/STM32L4xx_HAL_Driver/Src/stm32l4xx_hal_dma.c **** 
 376:Drivers/STM32L4xx_HAL_Driver/Src/stm32l4xx_hal_dma.c ****   /* Reset Request generator parameters if any */
 377:Drivers/STM32L4xx_HAL_Driver/Src/stm32l4xx_hal_dma.c ****   if(((hdma->Init.Request >  0UL) && (hdma->Init.Request <= DMA_REQUEST_GENERATOR3)))
 378:Drivers/STM32L4xx_HAL_Driver/Src/stm32l4xx_hal_dma.c ****   {
 379:Drivers/STM32L4xx_HAL_Driver/Src/stm32l4xx_hal_dma.c ****     /* Initialize parameters for DMAMUX request generator :
 380:Drivers/STM32L4xx_HAL_Driver/Src/stm32l4xx_hal_dma.c ****        DMAmuxRequestGen, DMAmuxRequestGenStatus and DMAmuxRequestGenStatusMask
 381:Drivers/STM32L4xx_HAL_Driver/Src/stm32l4xx_hal_dma.c ****     */
 382:Drivers/STM32L4xx_HAL_Driver/Src/stm32l4xx_hal_dma.c ****     DMA_CalcDMAMUXRequestGenBaseAndMask(hdma);
 383:Drivers/STM32L4xx_HAL_Driver/Src/stm32l4xx_hal_dma.c **** 
 384:Drivers/STM32L4xx_HAL_Driver/Src/stm32l4xx_hal_dma.c ****     /* Reset the DMAMUX request generator register*/
 385:Drivers/STM32L4xx_HAL_Driver/Src/stm32l4xx_hal_dma.c ****     hdma->DMAmuxRequestGen->RGCR = 0U;
 386:Drivers/STM32L4xx_HAL_Driver/Src/stm32l4xx_hal_dma.c **** 
 387:Drivers/STM32L4xx_HAL_Driver/Src/stm32l4xx_hal_dma.c ****     /* Clear the DMAMUX request generator overrun flag */
 388:Drivers/STM32L4xx_HAL_Driver/Src/stm32l4xx_hal_dma.c ****     hdma->DMAmuxRequestGenStatus->RGCFR = hdma->DMAmuxRequestGenStatusMask;
 389:Drivers/STM32L4xx_HAL_Driver/Src/stm32l4xx_hal_dma.c ****   }
 390:Drivers/STM32L4xx_HAL_Driver/Src/stm32l4xx_hal_dma.c ****   
 391:Drivers/STM32L4xx_HAL_Driver/Src/stm32l4xx_hal_dma.c ****   hdma->DMAmuxRequestGen = 0U;
 392:Drivers/STM32L4xx_HAL_Driver/Src/stm32l4xx_hal_dma.c ****   hdma->DMAmuxRequestGenStatus = 0U;
 393:Drivers/STM32L4xx_HAL_Driver/Src/stm32l4xx_hal_dma.c ****   hdma->DMAmuxRequestGenStatusMask = 0U;
 394:Drivers/STM32L4xx_HAL_Driver/Src/stm32l4xx_hal_dma.c **** 
 395:Drivers/STM32L4xx_HAL_Driver/Src/stm32l4xx_hal_dma.c **** #endif /* DMAMUX1 */
 396:Drivers/STM32L4xx_HAL_Driver/Src/stm32l4xx_hal_dma.c **** 
 397:Drivers/STM32L4xx_HAL_Driver/Src/stm32l4xx_hal_dma.c ****   /* Clean callbacks */
 398:Drivers/STM32L4xx_HAL_Driver/Src/stm32l4xx_hal_dma.c ****   hdma->XferCpltCallback = NULL;
 399:Drivers/STM32L4xx_HAL_Driver/Src/stm32l4xx_hal_dma.c ****   hdma->XferHalfCpltCallback = NULL;
 400:Drivers/STM32L4xx_HAL_Driver/Src/stm32l4xx_hal_dma.c ****   hdma->XferErrorCallback = NULL;
 401:Drivers/STM32L4xx_HAL_Driver/Src/stm32l4xx_hal_dma.c ****   hdma->XferAbortCallback = NULL;
 402:Drivers/STM32L4xx_HAL_Driver/Src/stm32l4xx_hal_dma.c **** 
 403:Drivers/STM32L4xx_HAL_Driver/Src/stm32l4xx_hal_dma.c ****   /* Initialise the error code */
 404:Drivers/STM32L4xx_HAL_Driver/Src/stm32l4xx_hal_dma.c ****   hdma->ErrorCode = HAL_DMA_ERROR_NONE;
 405:Drivers/STM32L4xx_HAL_Driver/Src/stm32l4xx_hal_dma.c **** 
 406:Drivers/STM32L4xx_HAL_Driver/Src/stm32l4xx_hal_dma.c ****   /* Initialize the DMA state */
 407:Drivers/STM32L4xx_HAL_Driver/Src/stm32l4xx_hal_dma.c ****   hdma->State = HAL_DMA_STATE_RESET;
 408:Drivers/STM32L4xx_HAL_Driver/Src/stm32l4xx_hal_dma.c **** 
 409:Drivers/STM32L4xx_HAL_Driver/Src/stm32l4xx_hal_dma.c ****   /* Release Lock */
 410:Drivers/STM32L4xx_HAL_Driver/Src/stm32l4xx_hal_dma.c ****   __HAL_UNLOCK(hdma);
 411:Drivers/STM32L4xx_HAL_Driver/Src/stm32l4xx_hal_dma.c **** 
 412:Drivers/STM32L4xx_HAL_Driver/Src/stm32l4xx_hal_dma.c ****   return HAL_OK;
 413:Drivers/STM32L4xx_HAL_Driver/Src/stm32l4xx_hal_dma.c **** }
 414:Drivers/STM32L4xx_HAL_Driver/Src/stm32l4xx_hal_dma.c **** 
 415:Drivers/STM32L4xx_HAL_Driver/Src/stm32l4xx_hal_dma.c **** /**
 416:Drivers/STM32L4xx_HAL_Driver/Src/stm32l4xx_hal_dma.c ****   * @}
 417:Drivers/STM32L4xx_HAL_Driver/Src/stm32l4xx_hal_dma.c ****   */
 418:Drivers/STM32L4xx_HAL_Driver/Src/stm32l4xx_hal_dma.c **** 
 419:Drivers/STM32L4xx_HAL_Driver/Src/stm32l4xx_hal_dma.c **** /** @defgroup DMA_Exported_Functions_Group2 Input and Output operation functions
 420:Drivers/STM32L4xx_HAL_Driver/Src/stm32l4xx_hal_dma.c ****  *  @brief   Input and Output operation functions
 421:Drivers/STM32L4xx_HAL_Driver/Src/stm32l4xx_hal_dma.c ****  *
 422:Drivers/STM32L4xx_HAL_Driver/Src/stm32l4xx_hal_dma.c **** @verbatim
 423:Drivers/STM32L4xx_HAL_Driver/Src/stm32l4xx_hal_dma.c ****  ===============================================================================
 424:Drivers/STM32L4xx_HAL_Driver/Src/stm32l4xx_hal_dma.c ****                       #####  IO operation functions  #####
 425:Drivers/STM32L4xx_HAL_Driver/Src/stm32l4xx_hal_dma.c ****  ===============================================================================
 426:Drivers/STM32L4xx_HAL_Driver/Src/stm32l4xx_hal_dma.c ****     [..]  This section provides functions allowing to:
 427:Drivers/STM32L4xx_HAL_Driver/Src/stm32l4xx_hal_dma.c ****       (+) Configure the source, destination address and data length and Start DMA transfer
 428:Drivers/STM32L4xx_HAL_Driver/Src/stm32l4xx_hal_dma.c ****       (+) Configure the source, destination address and data length and
 429:Drivers/STM32L4xx_HAL_Driver/Src/stm32l4xx_hal_dma.c ****           Start DMA transfer with interrupt
ARM GAS  /tmp/ccaIxFiO.s 			page 9


 430:Drivers/STM32L4xx_HAL_Driver/Src/stm32l4xx_hal_dma.c ****       (+) Abort DMA transfer
 431:Drivers/STM32L4xx_HAL_Driver/Src/stm32l4xx_hal_dma.c ****       (+) Poll for transfer complete
 432:Drivers/STM32L4xx_HAL_Driver/Src/stm32l4xx_hal_dma.c ****       (+) Handle DMA interrupt request
 433:Drivers/STM32L4xx_HAL_Driver/Src/stm32l4xx_hal_dma.c **** 
 434:Drivers/STM32L4xx_HAL_Driver/Src/stm32l4xx_hal_dma.c **** @endverbatim
 435:Drivers/STM32L4xx_HAL_Driver/Src/stm32l4xx_hal_dma.c ****   * @{
 436:Drivers/STM32L4xx_HAL_Driver/Src/stm32l4xx_hal_dma.c ****   */
 437:Drivers/STM32L4xx_HAL_Driver/Src/stm32l4xx_hal_dma.c **** 
 438:Drivers/STM32L4xx_HAL_Driver/Src/stm32l4xx_hal_dma.c **** /**
 439:Drivers/STM32L4xx_HAL_Driver/Src/stm32l4xx_hal_dma.c ****   * @brief  Start the DMA Transfer.
 440:Drivers/STM32L4xx_HAL_Driver/Src/stm32l4xx_hal_dma.c ****   * @param  hdma pointer to a DMA_HandleTypeDef structure that contains
 441:Drivers/STM32L4xx_HAL_Driver/Src/stm32l4xx_hal_dma.c ****   *               the configuration information for the specified DMA Channel.
 442:Drivers/STM32L4xx_HAL_Driver/Src/stm32l4xx_hal_dma.c ****   * @param  SrcAddress The source memory Buffer address
 443:Drivers/STM32L4xx_HAL_Driver/Src/stm32l4xx_hal_dma.c ****   * @param  DstAddress The destination memory Buffer address
 444:Drivers/STM32L4xx_HAL_Driver/Src/stm32l4xx_hal_dma.c ****   * @param  DataLength The length of data to be transferred from source to destination
 445:Drivers/STM32L4xx_HAL_Driver/Src/stm32l4xx_hal_dma.c ****   * @retval HAL status
 446:Drivers/STM32L4xx_HAL_Driver/Src/stm32l4xx_hal_dma.c ****   */
 447:Drivers/STM32L4xx_HAL_Driver/Src/stm32l4xx_hal_dma.c **** HAL_StatusTypeDef HAL_DMA_Start(DMA_HandleTypeDef *hdma, uint32_t SrcAddress, uint32_t DstAddress, 
 448:Drivers/STM32L4xx_HAL_Driver/Src/stm32l4xx_hal_dma.c **** {
 449:Drivers/STM32L4xx_HAL_Driver/Src/stm32l4xx_hal_dma.c ****   HAL_StatusTypeDef status = HAL_OK;
 450:Drivers/STM32L4xx_HAL_Driver/Src/stm32l4xx_hal_dma.c **** 
 451:Drivers/STM32L4xx_HAL_Driver/Src/stm32l4xx_hal_dma.c ****   /* Check the parameters */
 452:Drivers/STM32L4xx_HAL_Driver/Src/stm32l4xx_hal_dma.c ****   assert_param(IS_DMA_BUFFER_SIZE(DataLength));
 453:Drivers/STM32L4xx_HAL_Driver/Src/stm32l4xx_hal_dma.c **** 
 454:Drivers/STM32L4xx_HAL_Driver/Src/stm32l4xx_hal_dma.c ****   /* Process locked */
 455:Drivers/STM32L4xx_HAL_Driver/Src/stm32l4xx_hal_dma.c ****   __HAL_LOCK(hdma);
 456:Drivers/STM32L4xx_HAL_Driver/Src/stm32l4xx_hal_dma.c **** 
 457:Drivers/STM32L4xx_HAL_Driver/Src/stm32l4xx_hal_dma.c ****   if(HAL_DMA_STATE_READY == hdma->State)
 458:Drivers/STM32L4xx_HAL_Driver/Src/stm32l4xx_hal_dma.c ****   {
 459:Drivers/STM32L4xx_HAL_Driver/Src/stm32l4xx_hal_dma.c ****     /* Change DMA peripheral state */
 460:Drivers/STM32L4xx_HAL_Driver/Src/stm32l4xx_hal_dma.c ****     hdma->State = HAL_DMA_STATE_BUSY;
 461:Drivers/STM32L4xx_HAL_Driver/Src/stm32l4xx_hal_dma.c ****     hdma->ErrorCode = HAL_DMA_ERROR_NONE;
 462:Drivers/STM32L4xx_HAL_Driver/Src/stm32l4xx_hal_dma.c **** 
 463:Drivers/STM32L4xx_HAL_Driver/Src/stm32l4xx_hal_dma.c ****     /* Disable the peripheral */
 464:Drivers/STM32L4xx_HAL_Driver/Src/stm32l4xx_hal_dma.c ****     __HAL_DMA_DISABLE(hdma);
 465:Drivers/STM32L4xx_HAL_Driver/Src/stm32l4xx_hal_dma.c **** 
 466:Drivers/STM32L4xx_HAL_Driver/Src/stm32l4xx_hal_dma.c ****     /* Configure the source, destination address and the data length & clear flags*/
 467:Drivers/STM32L4xx_HAL_Driver/Src/stm32l4xx_hal_dma.c ****     DMA_SetConfig(hdma, SrcAddress, DstAddress, DataLength);
 468:Drivers/STM32L4xx_HAL_Driver/Src/stm32l4xx_hal_dma.c **** 
 469:Drivers/STM32L4xx_HAL_Driver/Src/stm32l4xx_hal_dma.c ****     /* Enable the Peripheral */
 470:Drivers/STM32L4xx_HAL_Driver/Src/stm32l4xx_hal_dma.c ****     __HAL_DMA_ENABLE(hdma);
 471:Drivers/STM32L4xx_HAL_Driver/Src/stm32l4xx_hal_dma.c ****   }
 472:Drivers/STM32L4xx_HAL_Driver/Src/stm32l4xx_hal_dma.c ****   else
 473:Drivers/STM32L4xx_HAL_Driver/Src/stm32l4xx_hal_dma.c ****   {
 474:Drivers/STM32L4xx_HAL_Driver/Src/stm32l4xx_hal_dma.c ****     /* Process Unlocked */
 475:Drivers/STM32L4xx_HAL_Driver/Src/stm32l4xx_hal_dma.c ****     __HAL_UNLOCK(hdma);
 476:Drivers/STM32L4xx_HAL_Driver/Src/stm32l4xx_hal_dma.c ****     status = HAL_BUSY;
 477:Drivers/STM32L4xx_HAL_Driver/Src/stm32l4xx_hal_dma.c ****   }
 478:Drivers/STM32L4xx_HAL_Driver/Src/stm32l4xx_hal_dma.c ****   return status;
 479:Drivers/STM32L4xx_HAL_Driver/Src/stm32l4xx_hal_dma.c **** }
 480:Drivers/STM32L4xx_HAL_Driver/Src/stm32l4xx_hal_dma.c **** 
 481:Drivers/STM32L4xx_HAL_Driver/Src/stm32l4xx_hal_dma.c **** /**
 482:Drivers/STM32L4xx_HAL_Driver/Src/stm32l4xx_hal_dma.c ****   * @brief  Start the DMA Transfer with interrupt enabled.
 483:Drivers/STM32L4xx_HAL_Driver/Src/stm32l4xx_hal_dma.c ****   * @param  hdma pointer to a DMA_HandleTypeDef structure that contains
 484:Drivers/STM32L4xx_HAL_Driver/Src/stm32l4xx_hal_dma.c ****   *               the configuration information for the specified DMA Channel.
 485:Drivers/STM32L4xx_HAL_Driver/Src/stm32l4xx_hal_dma.c ****   * @param  SrcAddress The source memory Buffer address
 486:Drivers/STM32L4xx_HAL_Driver/Src/stm32l4xx_hal_dma.c ****   * @param  DstAddress The destination memory Buffer address
ARM GAS  /tmp/ccaIxFiO.s 			page 10


 487:Drivers/STM32L4xx_HAL_Driver/Src/stm32l4xx_hal_dma.c ****   * @param  DataLength The length of data to be transferred from source to destination
 488:Drivers/STM32L4xx_HAL_Driver/Src/stm32l4xx_hal_dma.c ****   * @retval HAL status
 489:Drivers/STM32L4xx_HAL_Driver/Src/stm32l4xx_hal_dma.c ****   */
 490:Drivers/STM32L4xx_HAL_Driver/Src/stm32l4xx_hal_dma.c **** HAL_StatusTypeDef HAL_DMA_Start_IT(DMA_HandleTypeDef *hdma, uint32_t SrcAddress, uint32_t DstAddres
 491:Drivers/STM32L4xx_HAL_Driver/Src/stm32l4xx_hal_dma.c **** {
 492:Drivers/STM32L4xx_HAL_Driver/Src/stm32l4xx_hal_dma.c ****   HAL_StatusTypeDef status = HAL_OK;
 493:Drivers/STM32L4xx_HAL_Driver/Src/stm32l4xx_hal_dma.c **** 
 494:Drivers/STM32L4xx_HAL_Driver/Src/stm32l4xx_hal_dma.c ****   /* Check the parameters */
 495:Drivers/STM32L4xx_HAL_Driver/Src/stm32l4xx_hal_dma.c ****   assert_param(IS_DMA_BUFFER_SIZE(DataLength));
 496:Drivers/STM32L4xx_HAL_Driver/Src/stm32l4xx_hal_dma.c **** 
 497:Drivers/STM32L4xx_HAL_Driver/Src/stm32l4xx_hal_dma.c ****   /* Process locked */
 498:Drivers/STM32L4xx_HAL_Driver/Src/stm32l4xx_hal_dma.c ****   __HAL_LOCK(hdma);
 499:Drivers/STM32L4xx_HAL_Driver/Src/stm32l4xx_hal_dma.c **** 
 500:Drivers/STM32L4xx_HAL_Driver/Src/stm32l4xx_hal_dma.c ****   if(HAL_DMA_STATE_READY == hdma->State)
 501:Drivers/STM32L4xx_HAL_Driver/Src/stm32l4xx_hal_dma.c ****   {
 502:Drivers/STM32L4xx_HAL_Driver/Src/stm32l4xx_hal_dma.c ****     /* Change DMA peripheral state */
 503:Drivers/STM32L4xx_HAL_Driver/Src/stm32l4xx_hal_dma.c ****     hdma->State = HAL_DMA_STATE_BUSY;
 504:Drivers/STM32L4xx_HAL_Driver/Src/stm32l4xx_hal_dma.c ****     hdma->ErrorCode = HAL_DMA_ERROR_NONE;
 505:Drivers/STM32L4xx_HAL_Driver/Src/stm32l4xx_hal_dma.c **** 
 506:Drivers/STM32L4xx_HAL_Driver/Src/stm32l4xx_hal_dma.c ****     /* Disable the peripheral */
 507:Drivers/STM32L4xx_HAL_Driver/Src/stm32l4xx_hal_dma.c ****     __HAL_DMA_DISABLE(hdma);
 508:Drivers/STM32L4xx_HAL_Driver/Src/stm32l4xx_hal_dma.c **** 
 509:Drivers/STM32L4xx_HAL_Driver/Src/stm32l4xx_hal_dma.c ****     /* Configure the source, destination address and the data length & clear flags*/
 510:Drivers/STM32L4xx_HAL_Driver/Src/stm32l4xx_hal_dma.c ****     DMA_SetConfig(hdma, SrcAddress, DstAddress, DataLength);
 511:Drivers/STM32L4xx_HAL_Driver/Src/stm32l4xx_hal_dma.c **** 
 512:Drivers/STM32L4xx_HAL_Driver/Src/stm32l4xx_hal_dma.c ****     /* Enable the transfer complete interrupt */
 513:Drivers/STM32L4xx_HAL_Driver/Src/stm32l4xx_hal_dma.c ****     /* Enable the transfer Error interrupt */
 514:Drivers/STM32L4xx_HAL_Driver/Src/stm32l4xx_hal_dma.c ****     if(NULL != hdma->XferHalfCpltCallback )
 515:Drivers/STM32L4xx_HAL_Driver/Src/stm32l4xx_hal_dma.c ****     {
 516:Drivers/STM32L4xx_HAL_Driver/Src/stm32l4xx_hal_dma.c ****       /* Enable the Half transfer complete interrupt as well */
 517:Drivers/STM32L4xx_HAL_Driver/Src/stm32l4xx_hal_dma.c ****       __HAL_DMA_ENABLE_IT(hdma, (DMA_IT_TC | DMA_IT_HT | DMA_IT_TE));
 518:Drivers/STM32L4xx_HAL_Driver/Src/stm32l4xx_hal_dma.c ****     }
 519:Drivers/STM32L4xx_HAL_Driver/Src/stm32l4xx_hal_dma.c ****     else
 520:Drivers/STM32L4xx_HAL_Driver/Src/stm32l4xx_hal_dma.c ****     {
 521:Drivers/STM32L4xx_HAL_Driver/Src/stm32l4xx_hal_dma.c ****       __HAL_DMA_DISABLE_IT(hdma, DMA_IT_HT);
 522:Drivers/STM32L4xx_HAL_Driver/Src/stm32l4xx_hal_dma.c ****       __HAL_DMA_ENABLE_IT(hdma, (DMA_IT_TC | DMA_IT_TE));
 523:Drivers/STM32L4xx_HAL_Driver/Src/stm32l4xx_hal_dma.c ****     }
 524:Drivers/STM32L4xx_HAL_Driver/Src/stm32l4xx_hal_dma.c **** 
 525:Drivers/STM32L4xx_HAL_Driver/Src/stm32l4xx_hal_dma.c **** #ifdef DMAMUX1
 526:Drivers/STM32L4xx_HAL_Driver/Src/stm32l4xx_hal_dma.c **** 
 527:Drivers/STM32L4xx_HAL_Driver/Src/stm32l4xx_hal_dma.c ****     /* Check if DMAMUX Synchronization is enabled*/
 528:Drivers/STM32L4xx_HAL_Driver/Src/stm32l4xx_hal_dma.c ****     if((hdma->DMAmuxChannel->CCR & DMAMUX_CxCR_SE) != 0U)
 529:Drivers/STM32L4xx_HAL_Driver/Src/stm32l4xx_hal_dma.c ****     {
 530:Drivers/STM32L4xx_HAL_Driver/Src/stm32l4xx_hal_dma.c ****       /* Enable DMAMUX sync overrun IT*/
 531:Drivers/STM32L4xx_HAL_Driver/Src/stm32l4xx_hal_dma.c ****       hdma->DMAmuxChannel->CCR |= DMAMUX_CxCR_SOIE;
 532:Drivers/STM32L4xx_HAL_Driver/Src/stm32l4xx_hal_dma.c ****     }
 533:Drivers/STM32L4xx_HAL_Driver/Src/stm32l4xx_hal_dma.c **** 
 534:Drivers/STM32L4xx_HAL_Driver/Src/stm32l4xx_hal_dma.c ****     if(hdma->DMAmuxRequestGen != 0U)
 535:Drivers/STM32L4xx_HAL_Driver/Src/stm32l4xx_hal_dma.c ****     {
 536:Drivers/STM32L4xx_HAL_Driver/Src/stm32l4xx_hal_dma.c ****       /* if using DMAMUX request generator, enable the DMAMUX request generator overrun IT*/
 537:Drivers/STM32L4xx_HAL_Driver/Src/stm32l4xx_hal_dma.c ****       /* enable the request gen overrun IT*/
 538:Drivers/STM32L4xx_HAL_Driver/Src/stm32l4xx_hal_dma.c ****       hdma->DMAmuxRequestGen->RGCR |= DMAMUX_RGxCR_OIE;
 539:Drivers/STM32L4xx_HAL_Driver/Src/stm32l4xx_hal_dma.c ****     }
 540:Drivers/STM32L4xx_HAL_Driver/Src/stm32l4xx_hal_dma.c **** 
 541:Drivers/STM32L4xx_HAL_Driver/Src/stm32l4xx_hal_dma.c **** #endif /* DMAMUX1 */
 542:Drivers/STM32L4xx_HAL_Driver/Src/stm32l4xx_hal_dma.c **** 
 543:Drivers/STM32L4xx_HAL_Driver/Src/stm32l4xx_hal_dma.c ****     /* Enable the Peripheral */
ARM GAS  /tmp/ccaIxFiO.s 			page 11


 544:Drivers/STM32L4xx_HAL_Driver/Src/stm32l4xx_hal_dma.c ****     __HAL_DMA_ENABLE(hdma);
 545:Drivers/STM32L4xx_HAL_Driver/Src/stm32l4xx_hal_dma.c ****   }
 546:Drivers/STM32L4xx_HAL_Driver/Src/stm32l4xx_hal_dma.c ****   else
 547:Drivers/STM32L4xx_HAL_Driver/Src/stm32l4xx_hal_dma.c ****   {
 548:Drivers/STM32L4xx_HAL_Driver/Src/stm32l4xx_hal_dma.c ****     /* Process Unlocked */
 549:Drivers/STM32L4xx_HAL_Driver/Src/stm32l4xx_hal_dma.c ****     __HAL_UNLOCK(hdma);
 550:Drivers/STM32L4xx_HAL_Driver/Src/stm32l4xx_hal_dma.c **** 
 551:Drivers/STM32L4xx_HAL_Driver/Src/stm32l4xx_hal_dma.c ****     /* Remain BUSY */
 552:Drivers/STM32L4xx_HAL_Driver/Src/stm32l4xx_hal_dma.c ****     status = HAL_BUSY;
 553:Drivers/STM32L4xx_HAL_Driver/Src/stm32l4xx_hal_dma.c ****   }
 554:Drivers/STM32L4xx_HAL_Driver/Src/stm32l4xx_hal_dma.c ****   return status;
 555:Drivers/STM32L4xx_HAL_Driver/Src/stm32l4xx_hal_dma.c **** }
 556:Drivers/STM32L4xx_HAL_Driver/Src/stm32l4xx_hal_dma.c **** 
 557:Drivers/STM32L4xx_HAL_Driver/Src/stm32l4xx_hal_dma.c **** /**
 558:Drivers/STM32L4xx_HAL_Driver/Src/stm32l4xx_hal_dma.c ****   * @brief  Abort the DMA Transfer.
 559:Drivers/STM32L4xx_HAL_Driver/Src/stm32l4xx_hal_dma.c ****   * @param  hdma pointer to a DMA_HandleTypeDef structure that contains
 560:Drivers/STM32L4xx_HAL_Driver/Src/stm32l4xx_hal_dma.c ****   *               the configuration information for the specified DMA Channel.
 561:Drivers/STM32L4xx_HAL_Driver/Src/stm32l4xx_hal_dma.c ****     * @retval HAL status
 562:Drivers/STM32L4xx_HAL_Driver/Src/stm32l4xx_hal_dma.c ****   */
 563:Drivers/STM32L4xx_HAL_Driver/Src/stm32l4xx_hal_dma.c **** HAL_StatusTypeDef HAL_DMA_Abort(DMA_HandleTypeDef *hdma)
 564:Drivers/STM32L4xx_HAL_Driver/Src/stm32l4xx_hal_dma.c **** {
 565:Drivers/STM32L4xx_HAL_Driver/Src/stm32l4xx_hal_dma.c ****   HAL_StatusTypeDef status = HAL_OK;
 566:Drivers/STM32L4xx_HAL_Driver/Src/stm32l4xx_hal_dma.c **** 
 567:Drivers/STM32L4xx_HAL_Driver/Src/stm32l4xx_hal_dma.c ****   /* Check the DMA peripheral handle */
 568:Drivers/STM32L4xx_HAL_Driver/Src/stm32l4xx_hal_dma.c ****   if(NULL == hdma)
 569:Drivers/STM32L4xx_HAL_Driver/Src/stm32l4xx_hal_dma.c ****   {
 570:Drivers/STM32L4xx_HAL_Driver/Src/stm32l4xx_hal_dma.c ****     return HAL_ERROR;
 571:Drivers/STM32L4xx_HAL_Driver/Src/stm32l4xx_hal_dma.c ****   }
 572:Drivers/STM32L4xx_HAL_Driver/Src/stm32l4xx_hal_dma.c **** 
 573:Drivers/STM32L4xx_HAL_Driver/Src/stm32l4xx_hal_dma.c ****   /* Disable DMA IT */
 574:Drivers/STM32L4xx_HAL_Driver/Src/stm32l4xx_hal_dma.c ****   __HAL_DMA_DISABLE_IT(hdma, (DMA_IT_TC | DMA_IT_HT | DMA_IT_TE));
 575:Drivers/STM32L4xx_HAL_Driver/Src/stm32l4xx_hal_dma.c **** 
 576:Drivers/STM32L4xx_HAL_Driver/Src/stm32l4xx_hal_dma.c **** #if defined(DMAMUX1)
 577:Drivers/STM32L4xx_HAL_Driver/Src/stm32l4xx_hal_dma.c ****   /* disable the DMAMUX sync overrun IT*/
 578:Drivers/STM32L4xx_HAL_Driver/Src/stm32l4xx_hal_dma.c ****   hdma->DMAmuxChannel->CCR &= ~DMAMUX_CxCR_SOIE;
 579:Drivers/STM32L4xx_HAL_Driver/Src/stm32l4xx_hal_dma.c **** #endif /* DMAMUX1 */
 580:Drivers/STM32L4xx_HAL_Driver/Src/stm32l4xx_hal_dma.c **** 
 581:Drivers/STM32L4xx_HAL_Driver/Src/stm32l4xx_hal_dma.c ****   /* Disable the channel */
 582:Drivers/STM32L4xx_HAL_Driver/Src/stm32l4xx_hal_dma.c ****   __HAL_DMA_DISABLE(hdma);
 583:Drivers/STM32L4xx_HAL_Driver/Src/stm32l4xx_hal_dma.c **** 
 584:Drivers/STM32L4xx_HAL_Driver/Src/stm32l4xx_hal_dma.c ****   /* Clear all flags */
 585:Drivers/STM32L4xx_HAL_Driver/Src/stm32l4xx_hal_dma.c ****   hdma->DmaBaseAddress->IFCR = (DMA_ISR_GIF1 << (hdma->ChannelIndex & 0x1cU));
 586:Drivers/STM32L4xx_HAL_Driver/Src/stm32l4xx_hal_dma.c **** 
 587:Drivers/STM32L4xx_HAL_Driver/Src/stm32l4xx_hal_dma.c **** #if defined(DMAMUX1)
 588:Drivers/STM32L4xx_HAL_Driver/Src/stm32l4xx_hal_dma.c ****   /* Clear the DMAMUX synchro overrun flag */
 589:Drivers/STM32L4xx_HAL_Driver/Src/stm32l4xx_hal_dma.c ****   hdma->DMAmuxChannelStatus->CFR = hdma->DMAmuxChannelStatusMask;
 590:Drivers/STM32L4xx_HAL_Driver/Src/stm32l4xx_hal_dma.c **** 
 591:Drivers/STM32L4xx_HAL_Driver/Src/stm32l4xx_hal_dma.c ****   if(hdma->DMAmuxRequestGen != 0U)
 592:Drivers/STM32L4xx_HAL_Driver/Src/stm32l4xx_hal_dma.c ****   {
 593:Drivers/STM32L4xx_HAL_Driver/Src/stm32l4xx_hal_dma.c ****     /* if using DMAMUX request generator, disable the DMAMUX request generator overrun IT*/
 594:Drivers/STM32L4xx_HAL_Driver/Src/stm32l4xx_hal_dma.c ****     /* disable the request gen overrun IT*/
 595:Drivers/STM32L4xx_HAL_Driver/Src/stm32l4xx_hal_dma.c ****     hdma->DMAmuxRequestGen->RGCR &= ~DMAMUX_RGxCR_OIE;
 596:Drivers/STM32L4xx_HAL_Driver/Src/stm32l4xx_hal_dma.c **** 
 597:Drivers/STM32L4xx_HAL_Driver/Src/stm32l4xx_hal_dma.c ****     /* Clear the DMAMUX request generator overrun flag */
 598:Drivers/STM32L4xx_HAL_Driver/Src/stm32l4xx_hal_dma.c ****     hdma->DMAmuxRequestGenStatus->RGCFR = hdma->DMAmuxRequestGenStatusMask;
 599:Drivers/STM32L4xx_HAL_Driver/Src/stm32l4xx_hal_dma.c ****   }
 600:Drivers/STM32L4xx_HAL_Driver/Src/stm32l4xx_hal_dma.c **** 
ARM GAS  /tmp/ccaIxFiO.s 			page 12


 601:Drivers/STM32L4xx_HAL_Driver/Src/stm32l4xx_hal_dma.c **** #endif /* DMAMUX1 */
 602:Drivers/STM32L4xx_HAL_Driver/Src/stm32l4xx_hal_dma.c **** 
 603:Drivers/STM32L4xx_HAL_Driver/Src/stm32l4xx_hal_dma.c ****   /* Change the DMA state */
 604:Drivers/STM32L4xx_HAL_Driver/Src/stm32l4xx_hal_dma.c ****   hdma->State = HAL_DMA_STATE_READY;
 605:Drivers/STM32L4xx_HAL_Driver/Src/stm32l4xx_hal_dma.c **** 
 606:Drivers/STM32L4xx_HAL_Driver/Src/stm32l4xx_hal_dma.c ****   /* Process Unlocked */
 607:Drivers/STM32L4xx_HAL_Driver/Src/stm32l4xx_hal_dma.c ****   __HAL_UNLOCK(hdma);
 608:Drivers/STM32L4xx_HAL_Driver/Src/stm32l4xx_hal_dma.c **** 
 609:Drivers/STM32L4xx_HAL_Driver/Src/stm32l4xx_hal_dma.c ****   return status;
 610:Drivers/STM32L4xx_HAL_Driver/Src/stm32l4xx_hal_dma.c **** }
 611:Drivers/STM32L4xx_HAL_Driver/Src/stm32l4xx_hal_dma.c **** 
 612:Drivers/STM32L4xx_HAL_Driver/Src/stm32l4xx_hal_dma.c **** /**
 613:Drivers/STM32L4xx_HAL_Driver/Src/stm32l4xx_hal_dma.c ****   * @brief  Aborts the DMA Transfer in Interrupt mode.
 614:Drivers/STM32L4xx_HAL_Driver/Src/stm32l4xx_hal_dma.c ****   * @param  hdma pointer to a DMA_HandleTypeDef structure that contains
 615:Drivers/STM32L4xx_HAL_Driver/Src/stm32l4xx_hal_dma.c ****   *                 the configuration information for the specified DMA Channel.
 616:Drivers/STM32L4xx_HAL_Driver/Src/stm32l4xx_hal_dma.c ****   * @retval HAL status
 617:Drivers/STM32L4xx_HAL_Driver/Src/stm32l4xx_hal_dma.c ****   */
 618:Drivers/STM32L4xx_HAL_Driver/Src/stm32l4xx_hal_dma.c **** HAL_StatusTypeDef HAL_DMA_Abort_IT(DMA_HandleTypeDef *hdma)
 619:Drivers/STM32L4xx_HAL_Driver/Src/stm32l4xx_hal_dma.c **** {
 620:Drivers/STM32L4xx_HAL_Driver/Src/stm32l4xx_hal_dma.c ****   HAL_StatusTypeDef status = HAL_OK;
 621:Drivers/STM32L4xx_HAL_Driver/Src/stm32l4xx_hal_dma.c **** 
 622:Drivers/STM32L4xx_HAL_Driver/Src/stm32l4xx_hal_dma.c ****   if(HAL_DMA_STATE_BUSY != hdma->State)
 623:Drivers/STM32L4xx_HAL_Driver/Src/stm32l4xx_hal_dma.c ****   {
 624:Drivers/STM32L4xx_HAL_Driver/Src/stm32l4xx_hal_dma.c ****     /* no transfer ongoing */
 625:Drivers/STM32L4xx_HAL_Driver/Src/stm32l4xx_hal_dma.c ****     hdma->ErrorCode = HAL_DMA_ERROR_NO_XFER;
 626:Drivers/STM32L4xx_HAL_Driver/Src/stm32l4xx_hal_dma.c **** 
 627:Drivers/STM32L4xx_HAL_Driver/Src/stm32l4xx_hal_dma.c ****     status = HAL_ERROR;
 628:Drivers/STM32L4xx_HAL_Driver/Src/stm32l4xx_hal_dma.c ****   }
 629:Drivers/STM32L4xx_HAL_Driver/Src/stm32l4xx_hal_dma.c ****   else
 630:Drivers/STM32L4xx_HAL_Driver/Src/stm32l4xx_hal_dma.c ****   {
 631:Drivers/STM32L4xx_HAL_Driver/Src/stm32l4xx_hal_dma.c ****     /* Disable DMA IT */
 632:Drivers/STM32L4xx_HAL_Driver/Src/stm32l4xx_hal_dma.c ****     __HAL_DMA_DISABLE_IT(hdma, (DMA_IT_TC | DMA_IT_HT | DMA_IT_TE));
 633:Drivers/STM32L4xx_HAL_Driver/Src/stm32l4xx_hal_dma.c **** 
 634:Drivers/STM32L4xx_HAL_Driver/Src/stm32l4xx_hal_dma.c ****     /* Disable the channel */
 635:Drivers/STM32L4xx_HAL_Driver/Src/stm32l4xx_hal_dma.c ****     __HAL_DMA_DISABLE(hdma);
 636:Drivers/STM32L4xx_HAL_Driver/Src/stm32l4xx_hal_dma.c **** 
 637:Drivers/STM32L4xx_HAL_Driver/Src/stm32l4xx_hal_dma.c **** #if defined(DMAMUX1)
 638:Drivers/STM32L4xx_HAL_Driver/Src/stm32l4xx_hal_dma.c ****     /* disable the DMAMUX sync overrun IT*/
 639:Drivers/STM32L4xx_HAL_Driver/Src/stm32l4xx_hal_dma.c ****     hdma->DMAmuxChannel->CCR &= ~DMAMUX_CxCR_SOIE;
 640:Drivers/STM32L4xx_HAL_Driver/Src/stm32l4xx_hal_dma.c **** 
 641:Drivers/STM32L4xx_HAL_Driver/Src/stm32l4xx_hal_dma.c ****     /* Clear all flags */
 642:Drivers/STM32L4xx_HAL_Driver/Src/stm32l4xx_hal_dma.c ****     hdma->DmaBaseAddress->IFCR = (DMA_ISR_GIF1 << (hdma->ChannelIndex & 0x1cU));
 643:Drivers/STM32L4xx_HAL_Driver/Src/stm32l4xx_hal_dma.c **** 
 644:Drivers/STM32L4xx_HAL_Driver/Src/stm32l4xx_hal_dma.c ****     /* Clear the DMAMUX synchro overrun flag */
 645:Drivers/STM32L4xx_HAL_Driver/Src/stm32l4xx_hal_dma.c ****     hdma->DMAmuxChannelStatus->CFR = hdma->DMAmuxChannelStatusMask;
 646:Drivers/STM32L4xx_HAL_Driver/Src/stm32l4xx_hal_dma.c **** 
 647:Drivers/STM32L4xx_HAL_Driver/Src/stm32l4xx_hal_dma.c ****     if(hdma->DMAmuxRequestGen != 0U)
 648:Drivers/STM32L4xx_HAL_Driver/Src/stm32l4xx_hal_dma.c ****     {
 649:Drivers/STM32L4xx_HAL_Driver/Src/stm32l4xx_hal_dma.c ****       /* if using DMAMUX request generator, disable the DMAMUX request generator overrun IT*/
 650:Drivers/STM32L4xx_HAL_Driver/Src/stm32l4xx_hal_dma.c ****       /* disable the request gen overrun IT*/
 651:Drivers/STM32L4xx_HAL_Driver/Src/stm32l4xx_hal_dma.c ****       hdma->DMAmuxRequestGen->RGCR &= ~DMAMUX_RGxCR_OIE;
 652:Drivers/STM32L4xx_HAL_Driver/Src/stm32l4xx_hal_dma.c **** 
 653:Drivers/STM32L4xx_HAL_Driver/Src/stm32l4xx_hal_dma.c ****       /* Clear the DMAMUX request generator overrun flag */
 654:Drivers/STM32L4xx_HAL_Driver/Src/stm32l4xx_hal_dma.c ****       hdma->DMAmuxRequestGenStatus->RGCFR = hdma->DMAmuxRequestGenStatusMask;
 655:Drivers/STM32L4xx_HAL_Driver/Src/stm32l4xx_hal_dma.c ****     }
 656:Drivers/STM32L4xx_HAL_Driver/Src/stm32l4xx_hal_dma.c **** 
 657:Drivers/STM32L4xx_HAL_Driver/Src/stm32l4xx_hal_dma.c **** #else
ARM GAS  /tmp/ccaIxFiO.s 			page 13


 658:Drivers/STM32L4xx_HAL_Driver/Src/stm32l4xx_hal_dma.c ****     /* Clear all flags */
 659:Drivers/STM32L4xx_HAL_Driver/Src/stm32l4xx_hal_dma.c ****     hdma->DmaBaseAddress->IFCR = (DMA_ISR_GIF1 << (hdma->ChannelIndex & 0x1cU));
 660:Drivers/STM32L4xx_HAL_Driver/Src/stm32l4xx_hal_dma.c **** #endif /* DMAMUX1 */
 661:Drivers/STM32L4xx_HAL_Driver/Src/stm32l4xx_hal_dma.c **** 
 662:Drivers/STM32L4xx_HAL_Driver/Src/stm32l4xx_hal_dma.c ****     /* Change the DMA state */
 663:Drivers/STM32L4xx_HAL_Driver/Src/stm32l4xx_hal_dma.c ****     hdma->State = HAL_DMA_STATE_READY;
 664:Drivers/STM32L4xx_HAL_Driver/Src/stm32l4xx_hal_dma.c **** 
 665:Drivers/STM32L4xx_HAL_Driver/Src/stm32l4xx_hal_dma.c ****     /* Process Unlocked */
 666:Drivers/STM32L4xx_HAL_Driver/Src/stm32l4xx_hal_dma.c ****     __HAL_UNLOCK(hdma);
 667:Drivers/STM32L4xx_HAL_Driver/Src/stm32l4xx_hal_dma.c **** 
 668:Drivers/STM32L4xx_HAL_Driver/Src/stm32l4xx_hal_dma.c ****     /* Call User Abort callback */
 669:Drivers/STM32L4xx_HAL_Driver/Src/stm32l4xx_hal_dma.c ****     if(hdma->XferAbortCallback != NULL)
 670:Drivers/STM32L4xx_HAL_Driver/Src/stm32l4xx_hal_dma.c ****     {
 671:Drivers/STM32L4xx_HAL_Driver/Src/stm32l4xx_hal_dma.c ****       hdma->XferAbortCallback(hdma);
 672:Drivers/STM32L4xx_HAL_Driver/Src/stm32l4xx_hal_dma.c ****     }
 673:Drivers/STM32L4xx_HAL_Driver/Src/stm32l4xx_hal_dma.c ****   }
 674:Drivers/STM32L4xx_HAL_Driver/Src/stm32l4xx_hal_dma.c ****   return status;
 675:Drivers/STM32L4xx_HAL_Driver/Src/stm32l4xx_hal_dma.c **** }
 676:Drivers/STM32L4xx_HAL_Driver/Src/stm32l4xx_hal_dma.c **** 
 677:Drivers/STM32L4xx_HAL_Driver/Src/stm32l4xx_hal_dma.c **** /**
 678:Drivers/STM32L4xx_HAL_Driver/Src/stm32l4xx_hal_dma.c ****   * @brief  Polling for transfer complete.
 679:Drivers/STM32L4xx_HAL_Driver/Src/stm32l4xx_hal_dma.c ****   * @param  hdma pointer to a DMA_HandleTypeDef structure that contains
 680:Drivers/STM32L4xx_HAL_Driver/Src/stm32l4xx_hal_dma.c ****   *                  the configuration information for the specified DMA Channel.
 681:Drivers/STM32L4xx_HAL_Driver/Src/stm32l4xx_hal_dma.c ****   * @param  CompleteLevel Specifies the DMA level complete.
 682:Drivers/STM32L4xx_HAL_Driver/Src/stm32l4xx_hal_dma.c ****   * @param  Timeout       Timeout duration.
 683:Drivers/STM32L4xx_HAL_Driver/Src/stm32l4xx_hal_dma.c ****   * @retval HAL status
 684:Drivers/STM32L4xx_HAL_Driver/Src/stm32l4xx_hal_dma.c ****   */
 685:Drivers/STM32L4xx_HAL_Driver/Src/stm32l4xx_hal_dma.c **** HAL_StatusTypeDef HAL_DMA_PollForTransfer(DMA_HandleTypeDef *hdma, HAL_DMA_LevelCompleteTypeDef Com
 686:Drivers/STM32L4xx_HAL_Driver/Src/stm32l4xx_hal_dma.c **** {
 687:Drivers/STM32L4xx_HAL_Driver/Src/stm32l4xx_hal_dma.c ****   uint32_t temp;
 688:Drivers/STM32L4xx_HAL_Driver/Src/stm32l4xx_hal_dma.c ****   uint32_t tickstart;
 689:Drivers/STM32L4xx_HAL_Driver/Src/stm32l4xx_hal_dma.c **** 
 690:Drivers/STM32L4xx_HAL_Driver/Src/stm32l4xx_hal_dma.c ****   if(HAL_DMA_STATE_BUSY != hdma->State)
 691:Drivers/STM32L4xx_HAL_Driver/Src/stm32l4xx_hal_dma.c ****   {
 692:Drivers/STM32L4xx_HAL_Driver/Src/stm32l4xx_hal_dma.c ****     /* no transfer ongoing */
 693:Drivers/STM32L4xx_HAL_Driver/Src/stm32l4xx_hal_dma.c ****     hdma->ErrorCode = HAL_DMA_ERROR_NO_XFER;
 694:Drivers/STM32L4xx_HAL_Driver/Src/stm32l4xx_hal_dma.c ****     __HAL_UNLOCK(hdma);
 695:Drivers/STM32L4xx_HAL_Driver/Src/stm32l4xx_hal_dma.c ****     return HAL_ERROR;
 696:Drivers/STM32L4xx_HAL_Driver/Src/stm32l4xx_hal_dma.c ****   }
 697:Drivers/STM32L4xx_HAL_Driver/Src/stm32l4xx_hal_dma.c **** 
 698:Drivers/STM32L4xx_HAL_Driver/Src/stm32l4xx_hal_dma.c ****   /* Polling mode not supported in circular mode */
 699:Drivers/STM32L4xx_HAL_Driver/Src/stm32l4xx_hal_dma.c ****   if (0U != (hdma->Instance->CCR & DMA_CCR_CIRC))
 700:Drivers/STM32L4xx_HAL_Driver/Src/stm32l4xx_hal_dma.c ****   {
 701:Drivers/STM32L4xx_HAL_Driver/Src/stm32l4xx_hal_dma.c ****     hdma->ErrorCode = HAL_DMA_ERROR_NOT_SUPPORTED;
 702:Drivers/STM32L4xx_HAL_Driver/Src/stm32l4xx_hal_dma.c ****     return HAL_ERROR;
 703:Drivers/STM32L4xx_HAL_Driver/Src/stm32l4xx_hal_dma.c ****   }
 704:Drivers/STM32L4xx_HAL_Driver/Src/stm32l4xx_hal_dma.c **** 
 705:Drivers/STM32L4xx_HAL_Driver/Src/stm32l4xx_hal_dma.c ****   /* Get the level transfer complete flag */
 706:Drivers/STM32L4xx_HAL_Driver/Src/stm32l4xx_hal_dma.c ****   if (HAL_DMA_FULL_TRANSFER == CompleteLevel)
 707:Drivers/STM32L4xx_HAL_Driver/Src/stm32l4xx_hal_dma.c ****   {
 708:Drivers/STM32L4xx_HAL_Driver/Src/stm32l4xx_hal_dma.c ****     /* Transfer Complete flag */
 709:Drivers/STM32L4xx_HAL_Driver/Src/stm32l4xx_hal_dma.c ****     temp = DMA_FLAG_TC1 << (hdma->ChannelIndex & 0x1cU);
 710:Drivers/STM32L4xx_HAL_Driver/Src/stm32l4xx_hal_dma.c ****   }
 711:Drivers/STM32L4xx_HAL_Driver/Src/stm32l4xx_hal_dma.c ****   else
 712:Drivers/STM32L4xx_HAL_Driver/Src/stm32l4xx_hal_dma.c ****   {
 713:Drivers/STM32L4xx_HAL_Driver/Src/stm32l4xx_hal_dma.c ****     /* Half Transfer Complete flag */
 714:Drivers/STM32L4xx_HAL_Driver/Src/stm32l4xx_hal_dma.c ****     temp = DMA_FLAG_HT1 << (hdma->ChannelIndex & 0x1cU);
ARM GAS  /tmp/ccaIxFiO.s 			page 14


 715:Drivers/STM32L4xx_HAL_Driver/Src/stm32l4xx_hal_dma.c ****   }
 716:Drivers/STM32L4xx_HAL_Driver/Src/stm32l4xx_hal_dma.c **** 
 717:Drivers/STM32L4xx_HAL_Driver/Src/stm32l4xx_hal_dma.c ****   /* Get tick */
 718:Drivers/STM32L4xx_HAL_Driver/Src/stm32l4xx_hal_dma.c ****   tickstart = HAL_GetTick();
 719:Drivers/STM32L4xx_HAL_Driver/Src/stm32l4xx_hal_dma.c **** 
 720:Drivers/STM32L4xx_HAL_Driver/Src/stm32l4xx_hal_dma.c ****   while(0U == (hdma->DmaBaseAddress->ISR & temp))
 721:Drivers/STM32L4xx_HAL_Driver/Src/stm32l4xx_hal_dma.c ****   {
 722:Drivers/STM32L4xx_HAL_Driver/Src/stm32l4xx_hal_dma.c ****     if((0U != (hdma->DmaBaseAddress->ISR & (DMA_FLAG_TE1 << (hdma->ChannelIndex& 0x1cU)))))
 723:Drivers/STM32L4xx_HAL_Driver/Src/stm32l4xx_hal_dma.c ****     {
 724:Drivers/STM32L4xx_HAL_Driver/Src/stm32l4xx_hal_dma.c ****       /* When a DMA transfer error occurs */
 725:Drivers/STM32L4xx_HAL_Driver/Src/stm32l4xx_hal_dma.c ****       /* A hardware clear of its EN bits is performed */
 726:Drivers/STM32L4xx_HAL_Driver/Src/stm32l4xx_hal_dma.c ****       /* Clear all flags */
 727:Drivers/STM32L4xx_HAL_Driver/Src/stm32l4xx_hal_dma.c ****       hdma->DmaBaseAddress->IFCR = (DMA_ISR_GIF1 << (hdma->ChannelIndex & 0x1cU));
 728:Drivers/STM32L4xx_HAL_Driver/Src/stm32l4xx_hal_dma.c **** 
 729:Drivers/STM32L4xx_HAL_Driver/Src/stm32l4xx_hal_dma.c ****       /* Update error code */
 730:Drivers/STM32L4xx_HAL_Driver/Src/stm32l4xx_hal_dma.c ****       hdma->ErrorCode = HAL_DMA_ERROR_TE;
 731:Drivers/STM32L4xx_HAL_Driver/Src/stm32l4xx_hal_dma.c **** 
 732:Drivers/STM32L4xx_HAL_Driver/Src/stm32l4xx_hal_dma.c ****       /* Change the DMA state */
 733:Drivers/STM32L4xx_HAL_Driver/Src/stm32l4xx_hal_dma.c ****       hdma->State= HAL_DMA_STATE_READY;
 734:Drivers/STM32L4xx_HAL_Driver/Src/stm32l4xx_hal_dma.c **** 
 735:Drivers/STM32L4xx_HAL_Driver/Src/stm32l4xx_hal_dma.c ****       /* Process Unlocked */
 736:Drivers/STM32L4xx_HAL_Driver/Src/stm32l4xx_hal_dma.c ****       __HAL_UNLOCK(hdma);
 737:Drivers/STM32L4xx_HAL_Driver/Src/stm32l4xx_hal_dma.c **** 
 738:Drivers/STM32L4xx_HAL_Driver/Src/stm32l4xx_hal_dma.c ****       return HAL_ERROR;
 739:Drivers/STM32L4xx_HAL_Driver/Src/stm32l4xx_hal_dma.c ****     }
 740:Drivers/STM32L4xx_HAL_Driver/Src/stm32l4xx_hal_dma.c ****     /* Check for the Timeout */
 741:Drivers/STM32L4xx_HAL_Driver/Src/stm32l4xx_hal_dma.c ****     if(Timeout != HAL_MAX_DELAY)
 742:Drivers/STM32L4xx_HAL_Driver/Src/stm32l4xx_hal_dma.c ****     {
 743:Drivers/STM32L4xx_HAL_Driver/Src/stm32l4xx_hal_dma.c ****       if(((HAL_GetTick() - tickstart) > Timeout) ||  (Timeout == 0U))
 744:Drivers/STM32L4xx_HAL_Driver/Src/stm32l4xx_hal_dma.c ****       {
 745:Drivers/STM32L4xx_HAL_Driver/Src/stm32l4xx_hal_dma.c ****         /* Update error code */
 746:Drivers/STM32L4xx_HAL_Driver/Src/stm32l4xx_hal_dma.c ****         hdma->ErrorCode = HAL_DMA_ERROR_TIMEOUT;
 747:Drivers/STM32L4xx_HAL_Driver/Src/stm32l4xx_hal_dma.c **** 
 748:Drivers/STM32L4xx_HAL_Driver/Src/stm32l4xx_hal_dma.c ****         /* Change the DMA state */
 749:Drivers/STM32L4xx_HAL_Driver/Src/stm32l4xx_hal_dma.c ****         hdma->State = HAL_DMA_STATE_READY;
 750:Drivers/STM32L4xx_HAL_Driver/Src/stm32l4xx_hal_dma.c **** 
 751:Drivers/STM32L4xx_HAL_Driver/Src/stm32l4xx_hal_dma.c ****         /* Process Unlocked */
 752:Drivers/STM32L4xx_HAL_Driver/Src/stm32l4xx_hal_dma.c ****         __HAL_UNLOCK(hdma);
 753:Drivers/STM32L4xx_HAL_Driver/Src/stm32l4xx_hal_dma.c **** 
 754:Drivers/STM32L4xx_HAL_Driver/Src/stm32l4xx_hal_dma.c ****         return HAL_ERROR;
 755:Drivers/STM32L4xx_HAL_Driver/Src/stm32l4xx_hal_dma.c ****       }
 756:Drivers/STM32L4xx_HAL_Driver/Src/stm32l4xx_hal_dma.c ****     }
 757:Drivers/STM32L4xx_HAL_Driver/Src/stm32l4xx_hal_dma.c ****   }
 758:Drivers/STM32L4xx_HAL_Driver/Src/stm32l4xx_hal_dma.c **** 
 759:Drivers/STM32L4xx_HAL_Driver/Src/stm32l4xx_hal_dma.c **** #if defined(DMAMUX1)
 760:Drivers/STM32L4xx_HAL_Driver/Src/stm32l4xx_hal_dma.c ****   /*Check for DMAMUX Request generator (if used) overrun status */
 761:Drivers/STM32L4xx_HAL_Driver/Src/stm32l4xx_hal_dma.c ****   if(hdma->DMAmuxRequestGen != 0U)
 762:Drivers/STM32L4xx_HAL_Driver/Src/stm32l4xx_hal_dma.c ****   {
 763:Drivers/STM32L4xx_HAL_Driver/Src/stm32l4xx_hal_dma.c ****     /* if using DMAMUX request generator Check for DMAMUX request generator overrun */
 764:Drivers/STM32L4xx_HAL_Driver/Src/stm32l4xx_hal_dma.c ****     if((hdma->DMAmuxRequestGenStatus->RGSR & hdma->DMAmuxRequestGenStatusMask) != 0U)
 765:Drivers/STM32L4xx_HAL_Driver/Src/stm32l4xx_hal_dma.c ****     {
 766:Drivers/STM32L4xx_HAL_Driver/Src/stm32l4xx_hal_dma.c ****       /* Disable the request gen overrun interrupt */
 767:Drivers/STM32L4xx_HAL_Driver/Src/stm32l4xx_hal_dma.c ****       hdma->DMAmuxRequestGen->RGCR |= DMAMUX_RGxCR_OIE;
 768:Drivers/STM32L4xx_HAL_Driver/Src/stm32l4xx_hal_dma.c **** 
 769:Drivers/STM32L4xx_HAL_Driver/Src/stm32l4xx_hal_dma.c ****       /* Clear the DMAMUX request generator overrun flag */
 770:Drivers/STM32L4xx_HAL_Driver/Src/stm32l4xx_hal_dma.c ****       hdma->DMAmuxRequestGenStatus->RGCFR = hdma->DMAmuxRequestGenStatusMask;
 771:Drivers/STM32L4xx_HAL_Driver/Src/stm32l4xx_hal_dma.c **** 
ARM GAS  /tmp/ccaIxFiO.s 			page 15


 772:Drivers/STM32L4xx_HAL_Driver/Src/stm32l4xx_hal_dma.c ****       /* Update error code */
 773:Drivers/STM32L4xx_HAL_Driver/Src/stm32l4xx_hal_dma.c ****       hdma->ErrorCode |= HAL_DMA_ERROR_REQGEN;
 774:Drivers/STM32L4xx_HAL_Driver/Src/stm32l4xx_hal_dma.c ****     }
 775:Drivers/STM32L4xx_HAL_Driver/Src/stm32l4xx_hal_dma.c ****   }
 776:Drivers/STM32L4xx_HAL_Driver/Src/stm32l4xx_hal_dma.c **** 
 777:Drivers/STM32L4xx_HAL_Driver/Src/stm32l4xx_hal_dma.c ****   /* Check for DMAMUX Synchronization overrun */
 778:Drivers/STM32L4xx_HAL_Driver/Src/stm32l4xx_hal_dma.c ****   if((hdma->DMAmuxChannelStatus->CSR & hdma->DMAmuxChannelStatusMask) != 0U)
 779:Drivers/STM32L4xx_HAL_Driver/Src/stm32l4xx_hal_dma.c ****   {
 780:Drivers/STM32L4xx_HAL_Driver/Src/stm32l4xx_hal_dma.c ****     /* Clear the DMAMUX synchro overrun flag */
 781:Drivers/STM32L4xx_HAL_Driver/Src/stm32l4xx_hal_dma.c ****     hdma->DMAmuxChannelStatus->CFR = hdma->DMAmuxChannelStatusMask;
 782:Drivers/STM32L4xx_HAL_Driver/Src/stm32l4xx_hal_dma.c **** 
 783:Drivers/STM32L4xx_HAL_Driver/Src/stm32l4xx_hal_dma.c ****     /* Update error code */
 784:Drivers/STM32L4xx_HAL_Driver/Src/stm32l4xx_hal_dma.c ****     hdma->ErrorCode |= HAL_DMA_ERROR_SYNC;
 785:Drivers/STM32L4xx_HAL_Driver/Src/stm32l4xx_hal_dma.c ****   }
 786:Drivers/STM32L4xx_HAL_Driver/Src/stm32l4xx_hal_dma.c **** #endif /* DMAMUX1 */
 787:Drivers/STM32L4xx_HAL_Driver/Src/stm32l4xx_hal_dma.c **** 
 788:Drivers/STM32L4xx_HAL_Driver/Src/stm32l4xx_hal_dma.c ****   if(HAL_DMA_FULL_TRANSFER == CompleteLevel)
 789:Drivers/STM32L4xx_HAL_Driver/Src/stm32l4xx_hal_dma.c ****   {
 790:Drivers/STM32L4xx_HAL_Driver/Src/stm32l4xx_hal_dma.c ****     /* Clear the transfer complete flag */
 791:Drivers/STM32L4xx_HAL_Driver/Src/stm32l4xx_hal_dma.c ****     hdma->DmaBaseAddress->IFCR = (DMA_FLAG_TC1 << (hdma->ChannelIndex& 0x1cU));
 792:Drivers/STM32L4xx_HAL_Driver/Src/stm32l4xx_hal_dma.c **** 
 793:Drivers/STM32L4xx_HAL_Driver/Src/stm32l4xx_hal_dma.c ****     /* The selected Channelx EN bit is cleared (DMA is disabled and
 794:Drivers/STM32L4xx_HAL_Driver/Src/stm32l4xx_hal_dma.c ****     all transfers are complete) */
 795:Drivers/STM32L4xx_HAL_Driver/Src/stm32l4xx_hal_dma.c ****     hdma->State = HAL_DMA_STATE_READY;
 796:Drivers/STM32L4xx_HAL_Driver/Src/stm32l4xx_hal_dma.c ****   }
 797:Drivers/STM32L4xx_HAL_Driver/Src/stm32l4xx_hal_dma.c ****   else
 798:Drivers/STM32L4xx_HAL_Driver/Src/stm32l4xx_hal_dma.c ****   {
 799:Drivers/STM32L4xx_HAL_Driver/Src/stm32l4xx_hal_dma.c ****     /* Clear the half transfer complete flag */
 800:Drivers/STM32L4xx_HAL_Driver/Src/stm32l4xx_hal_dma.c ****     hdma->DmaBaseAddress->IFCR = (DMA_FLAG_HT1 << (hdma->ChannelIndex & 0x1cU));
 801:Drivers/STM32L4xx_HAL_Driver/Src/stm32l4xx_hal_dma.c ****   }
 802:Drivers/STM32L4xx_HAL_Driver/Src/stm32l4xx_hal_dma.c **** 
 803:Drivers/STM32L4xx_HAL_Driver/Src/stm32l4xx_hal_dma.c ****   /* Process unlocked */
 804:Drivers/STM32L4xx_HAL_Driver/Src/stm32l4xx_hal_dma.c ****   __HAL_UNLOCK(hdma);
 805:Drivers/STM32L4xx_HAL_Driver/Src/stm32l4xx_hal_dma.c **** 
 806:Drivers/STM32L4xx_HAL_Driver/Src/stm32l4xx_hal_dma.c ****   return HAL_OK;
 807:Drivers/STM32L4xx_HAL_Driver/Src/stm32l4xx_hal_dma.c **** }
 808:Drivers/STM32L4xx_HAL_Driver/Src/stm32l4xx_hal_dma.c **** 
 809:Drivers/STM32L4xx_HAL_Driver/Src/stm32l4xx_hal_dma.c **** /**
 810:Drivers/STM32L4xx_HAL_Driver/Src/stm32l4xx_hal_dma.c ****   * @brief  Handle DMA interrupt request.
 811:Drivers/STM32L4xx_HAL_Driver/Src/stm32l4xx_hal_dma.c ****   * @param  hdma pointer to a DMA_HandleTypeDef structure that contains
 812:Drivers/STM32L4xx_HAL_Driver/Src/stm32l4xx_hal_dma.c ****   *               the configuration information for the specified DMA Channel.
 813:Drivers/STM32L4xx_HAL_Driver/Src/stm32l4xx_hal_dma.c ****   * @retval None
 814:Drivers/STM32L4xx_HAL_Driver/Src/stm32l4xx_hal_dma.c ****   */
 815:Drivers/STM32L4xx_HAL_Driver/Src/stm32l4xx_hal_dma.c **** void HAL_DMA_IRQHandler(DMA_HandleTypeDef *hdma)
 816:Drivers/STM32L4xx_HAL_Driver/Src/stm32l4xx_hal_dma.c **** {
 817:Drivers/STM32L4xx_HAL_Driver/Src/stm32l4xx_hal_dma.c ****   uint32_t flag_it = hdma->DmaBaseAddress->ISR;
 818:Drivers/STM32L4xx_HAL_Driver/Src/stm32l4xx_hal_dma.c ****   uint32_t source_it = hdma->Instance->CCR;
 819:Drivers/STM32L4xx_HAL_Driver/Src/stm32l4xx_hal_dma.c **** 
 820:Drivers/STM32L4xx_HAL_Driver/Src/stm32l4xx_hal_dma.c ****   /* Half Transfer Complete Interrupt management ******************************/
 821:Drivers/STM32L4xx_HAL_Driver/Src/stm32l4xx_hal_dma.c ****   if ((0U != (flag_it & (DMA_FLAG_HT1 << (hdma->ChannelIndex & 0x1cU)))) && (0U != (source_it & DMA
 822:Drivers/STM32L4xx_HAL_Driver/Src/stm32l4xx_hal_dma.c ****   {
 823:Drivers/STM32L4xx_HAL_Driver/Src/stm32l4xx_hal_dma.c ****       /* Disable the half transfer interrupt if the DMA mode is not CIRCULAR */
 824:Drivers/STM32L4xx_HAL_Driver/Src/stm32l4xx_hal_dma.c ****       if((hdma->Instance->CCR & DMA_CCR_CIRC) == 0U)
 825:Drivers/STM32L4xx_HAL_Driver/Src/stm32l4xx_hal_dma.c ****       {
 826:Drivers/STM32L4xx_HAL_Driver/Src/stm32l4xx_hal_dma.c ****         /* Disable the half transfer interrupt */
 827:Drivers/STM32L4xx_HAL_Driver/Src/stm32l4xx_hal_dma.c ****         __HAL_DMA_DISABLE_IT(hdma, DMA_IT_HT);
 828:Drivers/STM32L4xx_HAL_Driver/Src/stm32l4xx_hal_dma.c ****       }
ARM GAS  /tmp/ccaIxFiO.s 			page 16


 829:Drivers/STM32L4xx_HAL_Driver/Src/stm32l4xx_hal_dma.c ****       /* Clear the half transfer complete flag */
 830:Drivers/STM32L4xx_HAL_Driver/Src/stm32l4xx_hal_dma.c ****       hdma->DmaBaseAddress->IFCR = DMA_ISR_HTIF1 << (hdma->ChannelIndex & 0x1cU);
 831:Drivers/STM32L4xx_HAL_Driver/Src/stm32l4xx_hal_dma.c **** 
 832:Drivers/STM32L4xx_HAL_Driver/Src/stm32l4xx_hal_dma.c ****       /* DMA peripheral state is not updated in Half Transfer */
 833:Drivers/STM32L4xx_HAL_Driver/Src/stm32l4xx_hal_dma.c ****       /* but in Transfer Complete case */
 834:Drivers/STM32L4xx_HAL_Driver/Src/stm32l4xx_hal_dma.c **** 
 835:Drivers/STM32L4xx_HAL_Driver/Src/stm32l4xx_hal_dma.c ****      if(hdma->XferHalfCpltCallback != NULL)
 836:Drivers/STM32L4xx_HAL_Driver/Src/stm32l4xx_hal_dma.c ****       {
 837:Drivers/STM32L4xx_HAL_Driver/Src/stm32l4xx_hal_dma.c ****         /* Half transfer callback */
 838:Drivers/STM32L4xx_HAL_Driver/Src/stm32l4xx_hal_dma.c ****         hdma->XferHalfCpltCallback(hdma);
 839:Drivers/STM32L4xx_HAL_Driver/Src/stm32l4xx_hal_dma.c ****       }
 840:Drivers/STM32L4xx_HAL_Driver/Src/stm32l4xx_hal_dma.c ****   }
 841:Drivers/STM32L4xx_HAL_Driver/Src/stm32l4xx_hal_dma.c **** 
 842:Drivers/STM32L4xx_HAL_Driver/Src/stm32l4xx_hal_dma.c ****   /* Transfer Complete Interrupt management ***********************************/
 843:Drivers/STM32L4xx_HAL_Driver/Src/stm32l4xx_hal_dma.c ****   else if ((0U != (flag_it & (DMA_FLAG_TC1 << (hdma->ChannelIndex & 0x1cU)))) && (0U != (source_it 
 844:Drivers/STM32L4xx_HAL_Driver/Src/stm32l4xx_hal_dma.c ****   {
 845:Drivers/STM32L4xx_HAL_Driver/Src/stm32l4xx_hal_dma.c ****     if((hdma->Instance->CCR & DMA_CCR_CIRC) == 0U)
 846:Drivers/STM32L4xx_HAL_Driver/Src/stm32l4xx_hal_dma.c ****     {
 847:Drivers/STM32L4xx_HAL_Driver/Src/stm32l4xx_hal_dma.c ****       /* Disable the transfer complete and error interrupt */
 848:Drivers/STM32L4xx_HAL_Driver/Src/stm32l4xx_hal_dma.c ****       __HAL_DMA_DISABLE_IT(hdma, DMA_IT_TE | DMA_IT_TC);
 849:Drivers/STM32L4xx_HAL_Driver/Src/stm32l4xx_hal_dma.c **** 
 850:Drivers/STM32L4xx_HAL_Driver/Src/stm32l4xx_hal_dma.c ****       /* Change the DMA state */
 851:Drivers/STM32L4xx_HAL_Driver/Src/stm32l4xx_hal_dma.c ****       hdma->State = HAL_DMA_STATE_READY;
 852:Drivers/STM32L4xx_HAL_Driver/Src/stm32l4xx_hal_dma.c ****     }
 853:Drivers/STM32L4xx_HAL_Driver/Src/stm32l4xx_hal_dma.c ****     /* Clear the transfer complete flag */
 854:Drivers/STM32L4xx_HAL_Driver/Src/stm32l4xx_hal_dma.c ****     hdma->DmaBaseAddress->IFCR = (DMA_ISR_TCIF1 << (hdma->ChannelIndex & 0x1cU));
 855:Drivers/STM32L4xx_HAL_Driver/Src/stm32l4xx_hal_dma.c **** 
 856:Drivers/STM32L4xx_HAL_Driver/Src/stm32l4xx_hal_dma.c ****     /* Process Unlocked */
 857:Drivers/STM32L4xx_HAL_Driver/Src/stm32l4xx_hal_dma.c ****     __HAL_UNLOCK(hdma);
 858:Drivers/STM32L4xx_HAL_Driver/Src/stm32l4xx_hal_dma.c **** 
 859:Drivers/STM32L4xx_HAL_Driver/Src/stm32l4xx_hal_dma.c ****     if(hdma->XferCpltCallback != NULL)
 860:Drivers/STM32L4xx_HAL_Driver/Src/stm32l4xx_hal_dma.c ****     {
 861:Drivers/STM32L4xx_HAL_Driver/Src/stm32l4xx_hal_dma.c ****       /* Transfer complete callback */
 862:Drivers/STM32L4xx_HAL_Driver/Src/stm32l4xx_hal_dma.c ****       hdma->XferCpltCallback(hdma);
 863:Drivers/STM32L4xx_HAL_Driver/Src/stm32l4xx_hal_dma.c ****     }
 864:Drivers/STM32L4xx_HAL_Driver/Src/stm32l4xx_hal_dma.c ****   }
 865:Drivers/STM32L4xx_HAL_Driver/Src/stm32l4xx_hal_dma.c **** 
 866:Drivers/STM32L4xx_HAL_Driver/Src/stm32l4xx_hal_dma.c ****   /* Transfer Error Interrupt management **************************************/
 867:Drivers/STM32L4xx_HAL_Driver/Src/stm32l4xx_hal_dma.c ****   else if ((0U != (flag_it & (DMA_FLAG_TE1 << (hdma->ChannelIndex & 0x1cU)))) && (0U != (source_it 
 868:Drivers/STM32L4xx_HAL_Driver/Src/stm32l4xx_hal_dma.c ****   {
 869:Drivers/STM32L4xx_HAL_Driver/Src/stm32l4xx_hal_dma.c ****     /* When a DMA transfer error occurs */
 870:Drivers/STM32L4xx_HAL_Driver/Src/stm32l4xx_hal_dma.c ****     /* A hardware clear of its EN bits is performed */
 871:Drivers/STM32L4xx_HAL_Driver/Src/stm32l4xx_hal_dma.c ****     /* Disable ALL DMA IT */
 872:Drivers/STM32L4xx_HAL_Driver/Src/stm32l4xx_hal_dma.c ****     __HAL_DMA_DISABLE_IT(hdma, (DMA_IT_TC | DMA_IT_HT | DMA_IT_TE));
 873:Drivers/STM32L4xx_HAL_Driver/Src/stm32l4xx_hal_dma.c **** 
 874:Drivers/STM32L4xx_HAL_Driver/Src/stm32l4xx_hal_dma.c ****     /* Clear all flags */
 875:Drivers/STM32L4xx_HAL_Driver/Src/stm32l4xx_hal_dma.c ****     hdma->DmaBaseAddress->IFCR = (DMA_ISR_GIF1 << (hdma->ChannelIndex & 0x1cU));
 876:Drivers/STM32L4xx_HAL_Driver/Src/stm32l4xx_hal_dma.c **** 
 877:Drivers/STM32L4xx_HAL_Driver/Src/stm32l4xx_hal_dma.c ****     /* Update error code */
 878:Drivers/STM32L4xx_HAL_Driver/Src/stm32l4xx_hal_dma.c ****     hdma->ErrorCode = HAL_DMA_ERROR_TE;
 879:Drivers/STM32L4xx_HAL_Driver/Src/stm32l4xx_hal_dma.c **** 
 880:Drivers/STM32L4xx_HAL_Driver/Src/stm32l4xx_hal_dma.c ****     /* Change the DMA state */
 881:Drivers/STM32L4xx_HAL_Driver/Src/stm32l4xx_hal_dma.c ****     hdma->State = HAL_DMA_STATE_READY;
 882:Drivers/STM32L4xx_HAL_Driver/Src/stm32l4xx_hal_dma.c **** 
 883:Drivers/STM32L4xx_HAL_Driver/Src/stm32l4xx_hal_dma.c ****     /* Process Unlocked */
 884:Drivers/STM32L4xx_HAL_Driver/Src/stm32l4xx_hal_dma.c ****     __HAL_UNLOCK(hdma);
 885:Drivers/STM32L4xx_HAL_Driver/Src/stm32l4xx_hal_dma.c **** 
ARM GAS  /tmp/ccaIxFiO.s 			page 17


 886:Drivers/STM32L4xx_HAL_Driver/Src/stm32l4xx_hal_dma.c ****     if (hdma->XferErrorCallback != NULL)
 887:Drivers/STM32L4xx_HAL_Driver/Src/stm32l4xx_hal_dma.c ****     {
 888:Drivers/STM32L4xx_HAL_Driver/Src/stm32l4xx_hal_dma.c ****       /* Transfer error callback */
 889:Drivers/STM32L4xx_HAL_Driver/Src/stm32l4xx_hal_dma.c ****       hdma->XferErrorCallback(hdma);
 890:Drivers/STM32L4xx_HAL_Driver/Src/stm32l4xx_hal_dma.c ****     }
 891:Drivers/STM32L4xx_HAL_Driver/Src/stm32l4xx_hal_dma.c ****   }
 892:Drivers/STM32L4xx_HAL_Driver/Src/stm32l4xx_hal_dma.c ****   else
 893:Drivers/STM32L4xx_HAL_Driver/Src/stm32l4xx_hal_dma.c ****   {
 894:Drivers/STM32L4xx_HAL_Driver/Src/stm32l4xx_hal_dma.c ****     /* Nothing To Do */
 895:Drivers/STM32L4xx_HAL_Driver/Src/stm32l4xx_hal_dma.c ****   }
 896:Drivers/STM32L4xx_HAL_Driver/Src/stm32l4xx_hal_dma.c ****   return;
 897:Drivers/STM32L4xx_HAL_Driver/Src/stm32l4xx_hal_dma.c **** }
 898:Drivers/STM32L4xx_HAL_Driver/Src/stm32l4xx_hal_dma.c **** 
 899:Drivers/STM32L4xx_HAL_Driver/Src/stm32l4xx_hal_dma.c **** /**
 900:Drivers/STM32L4xx_HAL_Driver/Src/stm32l4xx_hal_dma.c ****   * @brief  Register callbacks
 901:Drivers/STM32L4xx_HAL_Driver/Src/stm32l4xx_hal_dma.c ****   * @param  hdma                 pointer to a DMA_HandleTypeDef structure that contains
 902:Drivers/STM32L4xx_HAL_Driver/Src/stm32l4xx_hal_dma.c ****   *                               the configuration information for the specified DMA Channel.
 903:Drivers/STM32L4xx_HAL_Driver/Src/stm32l4xx_hal_dma.c ****   * @param  CallbackID           User Callback identifer
 904:Drivers/STM32L4xx_HAL_Driver/Src/stm32l4xx_hal_dma.c ****   *                               a HAL_DMA_CallbackIDTypeDef ENUM as parameter.
 905:Drivers/STM32L4xx_HAL_Driver/Src/stm32l4xx_hal_dma.c ****   * @param  pCallback            pointer to private callbacsk function which has pointer to
 906:Drivers/STM32L4xx_HAL_Driver/Src/stm32l4xx_hal_dma.c ****   *                               a DMA_HandleTypeDef structure as parameter.
 907:Drivers/STM32L4xx_HAL_Driver/Src/stm32l4xx_hal_dma.c ****   * @retval HAL status
 908:Drivers/STM32L4xx_HAL_Driver/Src/stm32l4xx_hal_dma.c ****   */
 909:Drivers/STM32L4xx_HAL_Driver/Src/stm32l4xx_hal_dma.c **** HAL_StatusTypeDef HAL_DMA_RegisterCallback(DMA_HandleTypeDef *hdma, HAL_DMA_CallbackIDTypeDef Callb
 910:Drivers/STM32L4xx_HAL_Driver/Src/stm32l4xx_hal_dma.c **** {
 911:Drivers/STM32L4xx_HAL_Driver/Src/stm32l4xx_hal_dma.c ****   HAL_StatusTypeDef status = HAL_OK;
 912:Drivers/STM32L4xx_HAL_Driver/Src/stm32l4xx_hal_dma.c **** 
 913:Drivers/STM32L4xx_HAL_Driver/Src/stm32l4xx_hal_dma.c ****   /* Process locked */
 914:Drivers/STM32L4xx_HAL_Driver/Src/stm32l4xx_hal_dma.c ****   __HAL_LOCK(hdma);
 915:Drivers/STM32L4xx_HAL_Driver/Src/stm32l4xx_hal_dma.c **** 
 916:Drivers/STM32L4xx_HAL_Driver/Src/stm32l4xx_hal_dma.c ****   if(HAL_DMA_STATE_READY == hdma->State)
 917:Drivers/STM32L4xx_HAL_Driver/Src/stm32l4xx_hal_dma.c ****   {
 918:Drivers/STM32L4xx_HAL_Driver/Src/stm32l4xx_hal_dma.c ****     switch (CallbackID)
 919:Drivers/STM32L4xx_HAL_Driver/Src/stm32l4xx_hal_dma.c ****     {
 920:Drivers/STM32L4xx_HAL_Driver/Src/stm32l4xx_hal_dma.c ****      case  HAL_DMA_XFER_CPLT_CB_ID:
 921:Drivers/STM32L4xx_HAL_Driver/Src/stm32l4xx_hal_dma.c ****            hdma->XferCpltCallback = pCallback;
 922:Drivers/STM32L4xx_HAL_Driver/Src/stm32l4xx_hal_dma.c ****            break;
 923:Drivers/STM32L4xx_HAL_Driver/Src/stm32l4xx_hal_dma.c **** 
 924:Drivers/STM32L4xx_HAL_Driver/Src/stm32l4xx_hal_dma.c ****      case  HAL_DMA_XFER_HALFCPLT_CB_ID:
 925:Drivers/STM32L4xx_HAL_Driver/Src/stm32l4xx_hal_dma.c ****            hdma->XferHalfCpltCallback = pCallback;
 926:Drivers/STM32L4xx_HAL_Driver/Src/stm32l4xx_hal_dma.c ****            break;
 927:Drivers/STM32L4xx_HAL_Driver/Src/stm32l4xx_hal_dma.c **** 
 928:Drivers/STM32L4xx_HAL_Driver/Src/stm32l4xx_hal_dma.c ****      case  HAL_DMA_XFER_ERROR_CB_ID:
 929:Drivers/STM32L4xx_HAL_Driver/Src/stm32l4xx_hal_dma.c ****            hdma->XferErrorCallback = pCallback;
 930:Drivers/STM32L4xx_HAL_Driver/Src/stm32l4xx_hal_dma.c ****            break;
 931:Drivers/STM32L4xx_HAL_Driver/Src/stm32l4xx_hal_dma.c **** 
 932:Drivers/STM32L4xx_HAL_Driver/Src/stm32l4xx_hal_dma.c ****      case  HAL_DMA_XFER_ABORT_CB_ID:
 933:Drivers/STM32L4xx_HAL_Driver/Src/stm32l4xx_hal_dma.c ****            hdma->XferAbortCallback = pCallback;
 934:Drivers/STM32L4xx_HAL_Driver/Src/stm32l4xx_hal_dma.c ****            break;
 935:Drivers/STM32L4xx_HAL_Driver/Src/stm32l4xx_hal_dma.c **** 
 936:Drivers/STM32L4xx_HAL_Driver/Src/stm32l4xx_hal_dma.c ****      default:
 937:Drivers/STM32L4xx_HAL_Driver/Src/stm32l4xx_hal_dma.c ****            status = HAL_ERROR;
 938:Drivers/STM32L4xx_HAL_Driver/Src/stm32l4xx_hal_dma.c ****            break;
 939:Drivers/STM32L4xx_HAL_Driver/Src/stm32l4xx_hal_dma.c ****     }
 940:Drivers/STM32L4xx_HAL_Driver/Src/stm32l4xx_hal_dma.c ****   }
 941:Drivers/STM32L4xx_HAL_Driver/Src/stm32l4xx_hal_dma.c ****   else
 942:Drivers/STM32L4xx_HAL_Driver/Src/stm32l4xx_hal_dma.c ****   {
ARM GAS  /tmp/ccaIxFiO.s 			page 18


 943:Drivers/STM32L4xx_HAL_Driver/Src/stm32l4xx_hal_dma.c ****     status = HAL_ERROR;
 944:Drivers/STM32L4xx_HAL_Driver/Src/stm32l4xx_hal_dma.c ****   }
 945:Drivers/STM32L4xx_HAL_Driver/Src/stm32l4xx_hal_dma.c **** 
 946:Drivers/STM32L4xx_HAL_Driver/Src/stm32l4xx_hal_dma.c ****   /* Release Lock */
 947:Drivers/STM32L4xx_HAL_Driver/Src/stm32l4xx_hal_dma.c ****   __HAL_UNLOCK(hdma);
 948:Drivers/STM32L4xx_HAL_Driver/Src/stm32l4xx_hal_dma.c **** 
 949:Drivers/STM32L4xx_HAL_Driver/Src/stm32l4xx_hal_dma.c ****   return status;
 950:Drivers/STM32L4xx_HAL_Driver/Src/stm32l4xx_hal_dma.c **** }
 951:Drivers/STM32L4xx_HAL_Driver/Src/stm32l4xx_hal_dma.c **** 
 952:Drivers/STM32L4xx_HAL_Driver/Src/stm32l4xx_hal_dma.c **** /**
 953:Drivers/STM32L4xx_HAL_Driver/Src/stm32l4xx_hal_dma.c ****   * @brief  UnRegister callbacks
 954:Drivers/STM32L4xx_HAL_Driver/Src/stm32l4xx_hal_dma.c ****   * @param  hdma                 pointer to a DMA_HandleTypeDef structure that contains
 955:Drivers/STM32L4xx_HAL_Driver/Src/stm32l4xx_hal_dma.c ****   *                               the configuration information for the specified DMA Channel.
 956:Drivers/STM32L4xx_HAL_Driver/Src/stm32l4xx_hal_dma.c ****   * @param  CallbackID           User Callback identifer
 957:Drivers/STM32L4xx_HAL_Driver/Src/stm32l4xx_hal_dma.c ****   *                               a HAL_DMA_CallbackIDTypeDef ENUM as parameter.
 958:Drivers/STM32L4xx_HAL_Driver/Src/stm32l4xx_hal_dma.c ****   * @retval HAL status
 959:Drivers/STM32L4xx_HAL_Driver/Src/stm32l4xx_hal_dma.c ****   */
 960:Drivers/STM32L4xx_HAL_Driver/Src/stm32l4xx_hal_dma.c **** HAL_StatusTypeDef HAL_DMA_UnRegisterCallback(DMA_HandleTypeDef *hdma, HAL_DMA_CallbackIDTypeDef Cal
 961:Drivers/STM32L4xx_HAL_Driver/Src/stm32l4xx_hal_dma.c **** {
 962:Drivers/STM32L4xx_HAL_Driver/Src/stm32l4xx_hal_dma.c ****   HAL_StatusTypeDef status = HAL_OK;
 963:Drivers/STM32L4xx_HAL_Driver/Src/stm32l4xx_hal_dma.c **** 
 964:Drivers/STM32L4xx_HAL_Driver/Src/stm32l4xx_hal_dma.c ****     /* Process locked */
 965:Drivers/STM32L4xx_HAL_Driver/Src/stm32l4xx_hal_dma.c ****   __HAL_LOCK(hdma);
 966:Drivers/STM32L4xx_HAL_Driver/Src/stm32l4xx_hal_dma.c **** 
 967:Drivers/STM32L4xx_HAL_Driver/Src/stm32l4xx_hal_dma.c ****   if(HAL_DMA_STATE_READY == hdma->State)
 968:Drivers/STM32L4xx_HAL_Driver/Src/stm32l4xx_hal_dma.c ****   {
 969:Drivers/STM32L4xx_HAL_Driver/Src/stm32l4xx_hal_dma.c ****     switch (CallbackID)
 970:Drivers/STM32L4xx_HAL_Driver/Src/stm32l4xx_hal_dma.c ****     {
 971:Drivers/STM32L4xx_HAL_Driver/Src/stm32l4xx_hal_dma.c ****      case  HAL_DMA_XFER_CPLT_CB_ID:
 972:Drivers/STM32L4xx_HAL_Driver/Src/stm32l4xx_hal_dma.c ****            hdma->XferCpltCallback = NULL;
 973:Drivers/STM32L4xx_HAL_Driver/Src/stm32l4xx_hal_dma.c ****            break;
 974:Drivers/STM32L4xx_HAL_Driver/Src/stm32l4xx_hal_dma.c **** 
 975:Drivers/STM32L4xx_HAL_Driver/Src/stm32l4xx_hal_dma.c ****      case  HAL_DMA_XFER_HALFCPLT_CB_ID:
 976:Drivers/STM32L4xx_HAL_Driver/Src/stm32l4xx_hal_dma.c ****            hdma->XferHalfCpltCallback = NULL;
 977:Drivers/STM32L4xx_HAL_Driver/Src/stm32l4xx_hal_dma.c ****            break;
 978:Drivers/STM32L4xx_HAL_Driver/Src/stm32l4xx_hal_dma.c **** 
 979:Drivers/STM32L4xx_HAL_Driver/Src/stm32l4xx_hal_dma.c ****      case  HAL_DMA_XFER_ERROR_CB_ID:
 980:Drivers/STM32L4xx_HAL_Driver/Src/stm32l4xx_hal_dma.c ****            hdma->XferErrorCallback = NULL;
 981:Drivers/STM32L4xx_HAL_Driver/Src/stm32l4xx_hal_dma.c ****            break;
 982:Drivers/STM32L4xx_HAL_Driver/Src/stm32l4xx_hal_dma.c **** 
 983:Drivers/STM32L4xx_HAL_Driver/Src/stm32l4xx_hal_dma.c ****      case  HAL_DMA_XFER_ABORT_CB_ID:
 984:Drivers/STM32L4xx_HAL_Driver/Src/stm32l4xx_hal_dma.c ****            hdma->XferAbortCallback = NULL;
 985:Drivers/STM32L4xx_HAL_Driver/Src/stm32l4xx_hal_dma.c ****            break;
 986:Drivers/STM32L4xx_HAL_Driver/Src/stm32l4xx_hal_dma.c **** 
 987:Drivers/STM32L4xx_HAL_Driver/Src/stm32l4xx_hal_dma.c ****     case   HAL_DMA_XFER_ALL_CB_ID:
 988:Drivers/STM32L4xx_HAL_Driver/Src/stm32l4xx_hal_dma.c ****            hdma->XferCpltCallback = NULL;
 989:Drivers/STM32L4xx_HAL_Driver/Src/stm32l4xx_hal_dma.c ****            hdma->XferHalfCpltCallback = NULL;
 990:Drivers/STM32L4xx_HAL_Driver/Src/stm32l4xx_hal_dma.c ****            hdma->XferErrorCallback = NULL;
 991:Drivers/STM32L4xx_HAL_Driver/Src/stm32l4xx_hal_dma.c ****            hdma->XferAbortCallback = NULL;
 992:Drivers/STM32L4xx_HAL_Driver/Src/stm32l4xx_hal_dma.c ****            break;
 993:Drivers/STM32L4xx_HAL_Driver/Src/stm32l4xx_hal_dma.c **** 
 994:Drivers/STM32L4xx_HAL_Driver/Src/stm32l4xx_hal_dma.c ****     default:
 995:Drivers/STM32L4xx_HAL_Driver/Src/stm32l4xx_hal_dma.c ****            status = HAL_ERROR;
 996:Drivers/STM32L4xx_HAL_Driver/Src/stm32l4xx_hal_dma.c ****            break;
 997:Drivers/STM32L4xx_HAL_Driver/Src/stm32l4xx_hal_dma.c ****     }
 998:Drivers/STM32L4xx_HAL_Driver/Src/stm32l4xx_hal_dma.c ****   }
 999:Drivers/STM32L4xx_HAL_Driver/Src/stm32l4xx_hal_dma.c ****   else
ARM GAS  /tmp/ccaIxFiO.s 			page 19


1000:Drivers/STM32L4xx_HAL_Driver/Src/stm32l4xx_hal_dma.c ****   {
1001:Drivers/STM32L4xx_HAL_Driver/Src/stm32l4xx_hal_dma.c ****     status = HAL_ERROR;
1002:Drivers/STM32L4xx_HAL_Driver/Src/stm32l4xx_hal_dma.c ****   }
1003:Drivers/STM32L4xx_HAL_Driver/Src/stm32l4xx_hal_dma.c **** 
1004:Drivers/STM32L4xx_HAL_Driver/Src/stm32l4xx_hal_dma.c ****   /* Release Lock */
1005:Drivers/STM32L4xx_HAL_Driver/Src/stm32l4xx_hal_dma.c ****   __HAL_UNLOCK(hdma);
1006:Drivers/STM32L4xx_HAL_Driver/Src/stm32l4xx_hal_dma.c **** 
1007:Drivers/STM32L4xx_HAL_Driver/Src/stm32l4xx_hal_dma.c ****   return status;
1008:Drivers/STM32L4xx_HAL_Driver/Src/stm32l4xx_hal_dma.c **** }
1009:Drivers/STM32L4xx_HAL_Driver/Src/stm32l4xx_hal_dma.c **** 
1010:Drivers/STM32L4xx_HAL_Driver/Src/stm32l4xx_hal_dma.c **** /**
1011:Drivers/STM32L4xx_HAL_Driver/Src/stm32l4xx_hal_dma.c ****   * @}
1012:Drivers/STM32L4xx_HAL_Driver/Src/stm32l4xx_hal_dma.c ****   */
1013:Drivers/STM32L4xx_HAL_Driver/Src/stm32l4xx_hal_dma.c **** 
1014:Drivers/STM32L4xx_HAL_Driver/Src/stm32l4xx_hal_dma.c **** 
1015:Drivers/STM32L4xx_HAL_Driver/Src/stm32l4xx_hal_dma.c **** 
1016:Drivers/STM32L4xx_HAL_Driver/Src/stm32l4xx_hal_dma.c **** /** @defgroup DMA_Exported_Functions_Group3 Peripheral State and Errors functions
1017:Drivers/STM32L4xx_HAL_Driver/Src/stm32l4xx_hal_dma.c ****  *  @brief    Peripheral State and Errors functions
1018:Drivers/STM32L4xx_HAL_Driver/Src/stm32l4xx_hal_dma.c ****  *
1019:Drivers/STM32L4xx_HAL_Driver/Src/stm32l4xx_hal_dma.c **** @verbatim
1020:Drivers/STM32L4xx_HAL_Driver/Src/stm32l4xx_hal_dma.c ****  ===============================================================================
1021:Drivers/STM32L4xx_HAL_Driver/Src/stm32l4xx_hal_dma.c ****             ##### Peripheral State and Errors functions #####
1022:Drivers/STM32L4xx_HAL_Driver/Src/stm32l4xx_hal_dma.c ****  ===============================================================================
1023:Drivers/STM32L4xx_HAL_Driver/Src/stm32l4xx_hal_dma.c ****     [..]
1024:Drivers/STM32L4xx_HAL_Driver/Src/stm32l4xx_hal_dma.c ****     This subsection provides functions allowing to
1025:Drivers/STM32L4xx_HAL_Driver/Src/stm32l4xx_hal_dma.c ****       (+) Check the DMA state
1026:Drivers/STM32L4xx_HAL_Driver/Src/stm32l4xx_hal_dma.c ****       (+) Get error code
1027:Drivers/STM32L4xx_HAL_Driver/Src/stm32l4xx_hal_dma.c **** 
1028:Drivers/STM32L4xx_HAL_Driver/Src/stm32l4xx_hal_dma.c **** @endverbatim
1029:Drivers/STM32L4xx_HAL_Driver/Src/stm32l4xx_hal_dma.c ****   * @{
1030:Drivers/STM32L4xx_HAL_Driver/Src/stm32l4xx_hal_dma.c ****   */
1031:Drivers/STM32L4xx_HAL_Driver/Src/stm32l4xx_hal_dma.c **** 
1032:Drivers/STM32L4xx_HAL_Driver/Src/stm32l4xx_hal_dma.c **** /**
1033:Drivers/STM32L4xx_HAL_Driver/Src/stm32l4xx_hal_dma.c ****   * @brief  Return the DMA hande state.
1034:Drivers/STM32L4xx_HAL_Driver/Src/stm32l4xx_hal_dma.c ****   * @param  hdma pointer to a DMA_HandleTypeDef structure that contains
1035:Drivers/STM32L4xx_HAL_Driver/Src/stm32l4xx_hal_dma.c ****   *               the configuration information for the specified DMA Channel.
1036:Drivers/STM32L4xx_HAL_Driver/Src/stm32l4xx_hal_dma.c ****   * @retval HAL state
1037:Drivers/STM32L4xx_HAL_Driver/Src/stm32l4xx_hal_dma.c ****   */
1038:Drivers/STM32L4xx_HAL_Driver/Src/stm32l4xx_hal_dma.c **** HAL_DMA_StateTypeDef HAL_DMA_GetState(DMA_HandleTypeDef *hdma)
1039:Drivers/STM32L4xx_HAL_Driver/Src/stm32l4xx_hal_dma.c **** {
1040:Drivers/STM32L4xx_HAL_Driver/Src/stm32l4xx_hal_dma.c ****   /* Return DMA handle state */
1041:Drivers/STM32L4xx_HAL_Driver/Src/stm32l4xx_hal_dma.c ****   return hdma->State;
1042:Drivers/STM32L4xx_HAL_Driver/Src/stm32l4xx_hal_dma.c **** }
1043:Drivers/STM32L4xx_HAL_Driver/Src/stm32l4xx_hal_dma.c **** 
1044:Drivers/STM32L4xx_HAL_Driver/Src/stm32l4xx_hal_dma.c **** /**
1045:Drivers/STM32L4xx_HAL_Driver/Src/stm32l4xx_hal_dma.c ****   * @brief  Return the DMA error code.
1046:Drivers/STM32L4xx_HAL_Driver/Src/stm32l4xx_hal_dma.c ****   * @param  hdma : pointer to a DMA_HandleTypeDef structure that contains
1047:Drivers/STM32L4xx_HAL_Driver/Src/stm32l4xx_hal_dma.c ****   *              the configuration information for the specified DMA Channel.
1048:Drivers/STM32L4xx_HAL_Driver/Src/stm32l4xx_hal_dma.c ****   * @retval DMA Error Code
1049:Drivers/STM32L4xx_HAL_Driver/Src/stm32l4xx_hal_dma.c ****   */
1050:Drivers/STM32L4xx_HAL_Driver/Src/stm32l4xx_hal_dma.c **** uint32_t HAL_DMA_GetError(DMA_HandleTypeDef *hdma)
1051:Drivers/STM32L4xx_HAL_Driver/Src/stm32l4xx_hal_dma.c **** {
1052:Drivers/STM32L4xx_HAL_Driver/Src/stm32l4xx_hal_dma.c ****   return hdma->ErrorCode;
1053:Drivers/STM32L4xx_HAL_Driver/Src/stm32l4xx_hal_dma.c **** }
1054:Drivers/STM32L4xx_HAL_Driver/Src/stm32l4xx_hal_dma.c **** 
1055:Drivers/STM32L4xx_HAL_Driver/Src/stm32l4xx_hal_dma.c **** /**
1056:Drivers/STM32L4xx_HAL_Driver/Src/stm32l4xx_hal_dma.c ****   * @}
ARM GAS  /tmp/ccaIxFiO.s 			page 20


1057:Drivers/STM32L4xx_HAL_Driver/Src/stm32l4xx_hal_dma.c ****   */
1058:Drivers/STM32L4xx_HAL_Driver/Src/stm32l4xx_hal_dma.c **** 
1059:Drivers/STM32L4xx_HAL_Driver/Src/stm32l4xx_hal_dma.c **** /**
1060:Drivers/STM32L4xx_HAL_Driver/Src/stm32l4xx_hal_dma.c ****   * @}
1061:Drivers/STM32L4xx_HAL_Driver/Src/stm32l4xx_hal_dma.c ****   */
1062:Drivers/STM32L4xx_HAL_Driver/Src/stm32l4xx_hal_dma.c **** 
1063:Drivers/STM32L4xx_HAL_Driver/Src/stm32l4xx_hal_dma.c **** /** @addtogroup DMA_Private_Functions
1064:Drivers/STM32L4xx_HAL_Driver/Src/stm32l4xx_hal_dma.c ****   * @{
1065:Drivers/STM32L4xx_HAL_Driver/Src/stm32l4xx_hal_dma.c ****   */
1066:Drivers/STM32L4xx_HAL_Driver/Src/stm32l4xx_hal_dma.c **** 
1067:Drivers/STM32L4xx_HAL_Driver/Src/stm32l4xx_hal_dma.c **** /**
1068:Drivers/STM32L4xx_HAL_Driver/Src/stm32l4xx_hal_dma.c ****   * @brief  Sets the DMA Transfer parameter.
1069:Drivers/STM32L4xx_HAL_Driver/Src/stm32l4xx_hal_dma.c ****   * @param  hdma       pointer to a DMA_HandleTypeDef structure that contains
1070:Drivers/STM32L4xx_HAL_Driver/Src/stm32l4xx_hal_dma.c ****   *                     the configuration information for the specified DMA Channel.
1071:Drivers/STM32L4xx_HAL_Driver/Src/stm32l4xx_hal_dma.c ****   * @param  SrcAddress The source memory Buffer address
1072:Drivers/STM32L4xx_HAL_Driver/Src/stm32l4xx_hal_dma.c ****   * @param  DstAddress The destination memory Buffer address
1073:Drivers/STM32L4xx_HAL_Driver/Src/stm32l4xx_hal_dma.c ****   * @param  DataLength The length of data to be transferred from source to destination
1074:Drivers/STM32L4xx_HAL_Driver/Src/stm32l4xx_hal_dma.c ****   * @retval HAL status
1075:Drivers/STM32L4xx_HAL_Driver/Src/stm32l4xx_hal_dma.c ****   */
1076:Drivers/STM32L4xx_HAL_Driver/Src/stm32l4xx_hal_dma.c **** static void DMA_SetConfig(DMA_HandleTypeDef *hdma, uint32_t SrcAddress, uint32_t DstAddress, uint32
1077:Drivers/STM32L4xx_HAL_Driver/Src/stm32l4xx_hal_dma.c **** {
  29              		.loc 1 1077 1 view -0
  30              		.cfi_startproc
  31              		@ args = 0, pretend = 0, frame = 0
  32              		@ frame_needed = 0, uses_anonymous_args = 0
  33              		@ link register save eliminated.
  34              		.loc 1 1077 1 is_stmt 0 view .LVU1
  35 0000 70B4     		push	{r4, r5, r6}
  36              	.LCFI0:
  37              		.cfi_def_cfa_offset 12
  38              		.cfi_offset 4, -12
  39              		.cfi_offset 5, -8
  40              		.cfi_offset 6, -4
1078:Drivers/STM32L4xx_HAL_Driver/Src/stm32l4xx_hal_dma.c **** #if defined(DMAMUX1)
1079:Drivers/STM32L4xx_HAL_Driver/Src/stm32l4xx_hal_dma.c ****   /* Clear the DMAMUX synchro overrun flag */
1080:Drivers/STM32L4xx_HAL_Driver/Src/stm32l4xx_hal_dma.c ****   hdma->DMAmuxChannelStatus->CFR = hdma->DMAmuxChannelStatusMask;
1081:Drivers/STM32L4xx_HAL_Driver/Src/stm32l4xx_hal_dma.c **** 
1082:Drivers/STM32L4xx_HAL_Driver/Src/stm32l4xx_hal_dma.c ****   if(hdma->DMAmuxRequestGen != 0U)
1083:Drivers/STM32L4xx_HAL_Driver/Src/stm32l4xx_hal_dma.c ****   {
1084:Drivers/STM32L4xx_HAL_Driver/Src/stm32l4xx_hal_dma.c ****     /* Clear the DMAMUX request generator overrun flag */
1085:Drivers/STM32L4xx_HAL_Driver/Src/stm32l4xx_hal_dma.c ****     hdma->DMAmuxRequestGenStatus->RGCFR = hdma->DMAmuxRequestGenStatusMask;
1086:Drivers/STM32L4xx_HAL_Driver/Src/stm32l4xx_hal_dma.c ****   }
1087:Drivers/STM32L4xx_HAL_Driver/Src/stm32l4xx_hal_dma.c **** #endif
1088:Drivers/STM32L4xx_HAL_Driver/Src/stm32l4xx_hal_dma.c **** 
1089:Drivers/STM32L4xx_HAL_Driver/Src/stm32l4xx_hal_dma.c ****   /* Clear all flags */
1090:Drivers/STM32L4xx_HAL_Driver/Src/stm32l4xx_hal_dma.c ****   hdma->DmaBaseAddress->IFCR = (DMA_ISR_GIF1 << (hdma->ChannelIndex & 0x1cU));
  41              		.loc 1 1090 3 is_stmt 1 view .LVU2
  42              		.loc 1 1090 54 is_stmt 0 view .LVU3
  43 0002 446C     		ldr	r4, [r0, #68]
  44              		.loc 1 1090 69 view .LVU4
  45 0004 04F01C05 		and	r5, r4, #28
  46              		.loc 1 1090 7 view .LVU5
  47 0008 066C     		ldr	r6, [r0, #64]
  48              		.loc 1 1090 46 view .LVU6
  49 000a 0124     		movs	r4, #1
  50 000c AC40     		lsls	r4, r4, r5
  51              		.loc 1 1090 30 view .LVU7
ARM GAS  /tmp/ccaIxFiO.s 			page 21


  52 000e 7460     		str	r4, [r6, #4]
1091:Drivers/STM32L4xx_HAL_Driver/Src/stm32l4xx_hal_dma.c **** 
1092:Drivers/STM32L4xx_HAL_Driver/Src/stm32l4xx_hal_dma.c ****   /* Configure DMA Channel data length */
1093:Drivers/STM32L4xx_HAL_Driver/Src/stm32l4xx_hal_dma.c ****   hdma->Instance->CNDTR = DataLength;
  53              		.loc 1 1093 3 is_stmt 1 view .LVU8
  54              		.loc 1 1093 7 is_stmt 0 view .LVU9
  55 0010 0468     		ldr	r4, [r0]
  56              		.loc 1 1093 25 view .LVU10
  57 0012 6360     		str	r3, [r4, #4]
1094:Drivers/STM32L4xx_HAL_Driver/Src/stm32l4xx_hal_dma.c **** 
1095:Drivers/STM32L4xx_HAL_Driver/Src/stm32l4xx_hal_dma.c ****   /* Memory to Peripheral */
1096:Drivers/STM32L4xx_HAL_Driver/Src/stm32l4xx_hal_dma.c ****   if((hdma->Init.Direction) == DMA_MEMORY_TO_PERIPH)
  58              		.loc 1 1096 3 is_stmt 1 view .LVU11
  59              		.loc 1 1096 17 is_stmt 0 view .LVU12
  60 0014 8368     		ldr	r3, [r0, #8]
  61              	.LVL1:
  62              		.loc 1 1096 5 view .LVU13
  63 0016 102B     		cmp	r3, #16
  64 0018 05D0     		beq	.L5
1097:Drivers/STM32L4xx_HAL_Driver/Src/stm32l4xx_hal_dma.c ****   {
1098:Drivers/STM32L4xx_HAL_Driver/Src/stm32l4xx_hal_dma.c ****     /* Configure DMA Channel destination address */
1099:Drivers/STM32L4xx_HAL_Driver/Src/stm32l4xx_hal_dma.c ****     hdma->Instance->CPAR = DstAddress;
1100:Drivers/STM32L4xx_HAL_Driver/Src/stm32l4xx_hal_dma.c **** 
1101:Drivers/STM32L4xx_HAL_Driver/Src/stm32l4xx_hal_dma.c ****     /* Configure DMA Channel source address */
1102:Drivers/STM32L4xx_HAL_Driver/Src/stm32l4xx_hal_dma.c ****     hdma->Instance->CMAR = SrcAddress;
1103:Drivers/STM32L4xx_HAL_Driver/Src/stm32l4xx_hal_dma.c ****   }
1104:Drivers/STM32L4xx_HAL_Driver/Src/stm32l4xx_hal_dma.c ****   /* Peripheral to Memory */
1105:Drivers/STM32L4xx_HAL_Driver/Src/stm32l4xx_hal_dma.c ****   else
1106:Drivers/STM32L4xx_HAL_Driver/Src/stm32l4xx_hal_dma.c ****   {
1107:Drivers/STM32L4xx_HAL_Driver/Src/stm32l4xx_hal_dma.c ****     /* Configure DMA Channel source address */
1108:Drivers/STM32L4xx_HAL_Driver/Src/stm32l4xx_hal_dma.c ****     hdma->Instance->CPAR = SrcAddress;
  65              		.loc 1 1108 5 is_stmt 1 view .LVU14
  66              		.loc 1 1108 9 is_stmt 0 view .LVU15
  67 001a 0368     		ldr	r3, [r0]
  68              		.loc 1 1108 26 view .LVU16
  69 001c 9960     		str	r1, [r3, #8]
  70              	.LVL2:
1109:Drivers/STM32L4xx_HAL_Driver/Src/stm32l4xx_hal_dma.c **** 
1110:Drivers/STM32L4xx_HAL_Driver/Src/stm32l4xx_hal_dma.c ****     /* Configure DMA Channel destination address */
1111:Drivers/STM32L4xx_HAL_Driver/Src/stm32l4xx_hal_dma.c ****     hdma->Instance->CMAR = DstAddress;
  71              		.loc 1 1111 5 is_stmt 1 view .LVU17
  72              		.loc 1 1111 9 is_stmt 0 view .LVU18
  73 001e 0368     		ldr	r3, [r0]
  74              		.loc 1 1111 26 view .LVU19
  75 0020 DA60     		str	r2, [r3, #12]
  76              	.L1:
1112:Drivers/STM32L4xx_HAL_Driver/Src/stm32l4xx_hal_dma.c ****   }
1113:Drivers/STM32L4xx_HAL_Driver/Src/stm32l4xx_hal_dma.c **** }
  77              		.loc 1 1113 1 view .LVU20
  78 0022 70BC     		pop	{r4, r5, r6}
  79              	.LCFI1:
  80              		.cfi_remember_state
  81              		.cfi_restore 6
  82              		.cfi_restore 5
  83              		.cfi_restore 4
  84              		.cfi_def_cfa_offset 0
  85 0024 7047     		bx	lr
ARM GAS  /tmp/ccaIxFiO.s 			page 22


  86              	.LVL3:
  87              	.L5:
  88              	.LCFI2:
  89              		.cfi_restore_state
1099:Drivers/STM32L4xx_HAL_Driver/Src/stm32l4xx_hal_dma.c **** 
  90              		.loc 1 1099 5 is_stmt 1 view .LVU21
1099:Drivers/STM32L4xx_HAL_Driver/Src/stm32l4xx_hal_dma.c **** 
  91              		.loc 1 1099 9 is_stmt 0 view .LVU22
  92 0026 0368     		ldr	r3, [r0]
1099:Drivers/STM32L4xx_HAL_Driver/Src/stm32l4xx_hal_dma.c **** 
  93              		.loc 1 1099 26 view .LVU23
  94 0028 9A60     		str	r2, [r3, #8]
  95              	.LVL4:
1102:Drivers/STM32L4xx_HAL_Driver/Src/stm32l4xx_hal_dma.c ****   }
  96              		.loc 1 1102 5 is_stmt 1 view .LVU24
1102:Drivers/STM32L4xx_HAL_Driver/Src/stm32l4xx_hal_dma.c ****   }
  97              		.loc 1 1102 9 is_stmt 0 view .LVU25
  98 002a 0368     		ldr	r3, [r0]
1102:Drivers/STM32L4xx_HAL_Driver/Src/stm32l4xx_hal_dma.c ****   }
  99              		.loc 1 1102 26 view .LVU26
 100 002c D960     		str	r1, [r3, #12]
 101 002e F8E7     		b	.L1
 102              		.cfi_endproc
 103              	.LFE321:
 105              		.section	.text.HAL_DMA_Init,"ax",%progbits
 106              		.align	1
 107              		.global	HAL_DMA_Init
 108              		.syntax unified
 109              		.thumb
 110              		.thumb_func
 111              		.fpu fpv4-sp-d16
 113              	HAL_DMA_Init:
 114              	.LVL5:
 115              	.LFB309:
 170:Drivers/STM32L4xx_HAL_Driver/Src/stm32l4xx_hal_dma.c ****   uint32_t tmp;
 116              		.loc 1 170 1 is_stmt 1 view -0
 117              		.cfi_startproc
 118              		@ args = 0, pretend = 0, frame = 0
 119              		@ frame_needed = 0, uses_anonymous_args = 0
 120              		@ link register save eliminated.
 171:Drivers/STM32L4xx_HAL_Driver/Src/stm32l4xx_hal_dma.c **** 
 121              		.loc 1 171 3 view .LVU28
 174:Drivers/STM32L4xx_HAL_Driver/Src/stm32l4xx_hal_dma.c ****   {
 122              		.loc 1 174 3 view .LVU29
 174:Drivers/STM32L4xx_HAL_Driver/Src/stm32l4xx_hal_dma.c ****   {
 123              		.loc 1 174 5 is_stmt 0 view .LVU30
 124 0000 0028     		cmp	r0, #0
 125 0002 68D0     		beq	.L12
 170:Drivers/STM32L4xx_HAL_Driver/Src/stm32l4xx_hal_dma.c ****   uint32_t tmp;
 126              		.loc 1 170 1 view .LVU31
 127 0004 10B4     		push	{r4}
 128              	.LCFI3:
 129              		.cfi_def_cfa_offset 4
 130              		.cfi_offset 4, -4
 131 0006 0346     		mov	r3, r0
 180:Drivers/STM32L4xx_HAL_Driver/Src/stm32l4xx_hal_dma.c ****   assert_param(IS_DMA_DIRECTION(hdma->Init.Direction));
 132              		.loc 1 180 3 is_stmt 1 view .LVU32
ARM GAS  /tmp/ccaIxFiO.s 			page 23


 181:Drivers/STM32L4xx_HAL_Driver/Src/stm32l4xx_hal_dma.c ****   assert_param(IS_DMA_PERIPHERAL_INC_STATE(hdma->Init.PeriphInc));
 133              		.loc 1 181 3 view .LVU33
 182:Drivers/STM32L4xx_HAL_Driver/Src/stm32l4xx_hal_dma.c ****   assert_param(IS_DMA_MEMORY_INC_STATE(hdma->Init.MemInc));
 134              		.loc 1 182 3 view .LVU34
 183:Drivers/STM32L4xx_HAL_Driver/Src/stm32l4xx_hal_dma.c ****   assert_param(IS_DMA_PERIPHERAL_DATA_SIZE(hdma->Init.PeriphDataAlignment));
 135              		.loc 1 183 3 view .LVU35
 184:Drivers/STM32L4xx_HAL_Driver/Src/stm32l4xx_hal_dma.c ****   assert_param(IS_DMA_MEMORY_DATA_SIZE(hdma->Init.MemDataAlignment));
 136              		.loc 1 184 3 view .LVU36
 185:Drivers/STM32L4xx_HAL_Driver/Src/stm32l4xx_hal_dma.c ****   assert_param(IS_DMA_MODE(hdma->Init.Mode));
 137              		.loc 1 185 3 view .LVU37
 186:Drivers/STM32L4xx_HAL_Driver/Src/stm32l4xx_hal_dma.c ****   assert_param(IS_DMA_PRIORITY(hdma->Init.Priority));
 138              		.loc 1 186 3 view .LVU38
 187:Drivers/STM32L4xx_HAL_Driver/Src/stm32l4xx_hal_dma.c **** 
 139              		.loc 1 187 3 view .LVU39
 189:Drivers/STM32L4xx_HAL_Driver/Src/stm32l4xx_hal_dma.c **** 
 140              		.loc 1 189 3 view .LVU40
 192:Drivers/STM32L4xx_HAL_Driver/Src/stm32l4xx_hal_dma.c ****   {
 141              		.loc 1 192 3 view .LVU41
 192:Drivers/STM32L4xx_HAL_Driver/Src/stm32l4xx_hal_dma.c ****   {
 142              		.loc 1 192 22 is_stmt 0 view .LVU42
 143 0008 0068     		ldr	r0, [r0]
 144              	.LVL6:
 192:Drivers/STM32L4xx_HAL_Driver/Src/stm32l4xx_hal_dma.c ****   {
 145              		.loc 1 192 6 view .LVU43
 146 000a 344A     		ldr	r2, .L18
 147 000c 9042     		cmp	r0, r2
 148 000e 44D8     		bhi	.L8
 195:Drivers/STM32L4xx_HAL_Driver/Src/stm32l4xx_hal_dma.c ****     hdma->DmaBaseAddress = DMA1;
 149              		.loc 1 195 5 is_stmt 1 view .LVU44
 195:Drivers/STM32L4xx_HAL_Driver/Src/stm32l4xx_hal_dma.c ****     hdma->DmaBaseAddress = DMA1;
 150              		.loc 1 195 53 is_stmt 0 view .LVU45
 151 0010 334A     		ldr	r2, .L18+4
 152 0012 0244     		add	r2, r2, r0
 195:Drivers/STM32L4xx_HAL_Driver/Src/stm32l4xx_hal_dma.c ****     hdma->DmaBaseAddress = DMA1;
 153              		.loc 1 195 80 view .LVU46
 154 0014 3349     		ldr	r1, .L18+8
 155 0016 A1FB0212 		umull	r1, r2, r1, r2
 156 001a 1209     		lsrs	r2, r2, #4
 195:Drivers/STM32L4xx_HAL_Driver/Src/stm32l4xx_hal_dma.c ****     hdma->DmaBaseAddress = DMA1;
 157              		.loc 1 195 135 view .LVU47
 158 001c 9200     		lsls	r2, r2, #2
 195:Drivers/STM32L4xx_HAL_Driver/Src/stm32l4xx_hal_dma.c ****     hdma->DmaBaseAddress = DMA1;
 159              		.loc 1 195 24 view .LVU48
 160 001e 5A64     		str	r2, [r3, #68]
 196:Drivers/STM32L4xx_HAL_Driver/Src/stm32l4xx_hal_dma.c ****   }
 161              		.loc 1 196 5 is_stmt 1 view .LVU49
 196:Drivers/STM32L4xx_HAL_Driver/Src/stm32l4xx_hal_dma.c ****   }
 162              		.loc 1 196 26 is_stmt 0 view .LVU50
 163 0020 314A     		ldr	r2, .L18+12
 164 0022 1A64     		str	r2, [r3, #64]
 165              	.L9:
 206:Drivers/STM32L4xx_HAL_Driver/Src/stm32l4xx_hal_dma.c **** 
 166              		.loc 1 206 3 is_stmt 1 view .LVU51
 206:Drivers/STM32L4xx_HAL_Driver/Src/stm32l4xx_hal_dma.c **** 
 167              		.loc 1 206 15 is_stmt 0 view .LVU52
 168 0024 0222     		movs	r2, #2
 169 0026 83F82520 		strb	r2, [r3, #37]
ARM GAS  /tmp/ccaIxFiO.s 			page 24


 209:Drivers/STM32L4xx_HAL_Driver/Src/stm32l4xx_hal_dma.c **** 
 170              		.loc 1 209 3 is_stmt 1 view .LVU53
 209:Drivers/STM32L4xx_HAL_Driver/Src/stm32l4xx_hal_dma.c **** 
 171              		.loc 1 209 7 is_stmt 0 view .LVU54
 172 002a 0168     		ldr	r1, [r0]
 173              	.LVL7:
 212:Drivers/STM32L4xx_HAL_Driver/Src/stm32l4xx_hal_dma.c ****                       DMA_CCR_MINC  | DMA_CCR_PINC   | DMA_CCR_CIRC   |
 174              		.loc 1 212 3 is_stmt 1 view .LVU55
 212:Drivers/STM32L4xx_HAL_Driver/Src/stm32l4xx_hal_dma.c ****                       DMA_CCR_MINC  | DMA_CCR_PINC   | DMA_CCR_CIRC   |
 175              		.loc 1 212 7 is_stmt 0 view .LVU56
 176 002c 21F4FF41 		bic	r1, r1, #32640
 177              	.LVL8:
 212:Drivers/STM32L4xx_HAL_Driver/Src/stm32l4xx_hal_dma.c ****                       DMA_CCR_MINC  | DMA_CCR_PINC   | DMA_CCR_CIRC   |
 178              		.loc 1 212 7 view .LVU57
 179 0030 21F07001 		bic	r1, r1, #112
 180              	.LVL9:
 217:Drivers/STM32L4xx_HAL_Driver/Src/stm32l4xx_hal_dma.c ****           hdma->Init.PeriphInc           | hdma->Init.MemInc           |
 181              		.loc 1 217 3 is_stmt 1 view .LVU58
 217:Drivers/STM32L4xx_HAL_Driver/Src/stm32l4xx_hal_dma.c ****           hdma->Init.PeriphInc           | hdma->Init.MemInc           |
 182              		.loc 1 217 21 is_stmt 0 view .LVU59
 183 0034 9A68     		ldr	r2, [r3, #8]
 218:Drivers/STM32L4xx_HAL_Driver/Src/stm32l4xx_hal_dma.c ****           hdma->Init.PeriphDataAlignment | hdma->Init.MemDataAlignment |
 184              		.loc 1 218 21 view .LVU60
 185 0036 DC68     		ldr	r4, [r3, #12]
 217:Drivers/STM32L4xx_HAL_Driver/Src/stm32l4xx_hal_dma.c ****           hdma->Init.PeriphInc           | hdma->Init.MemInc           |
 186              		.loc 1 217 39 view .LVU61
 187 0038 2243     		orrs	r2, r2, r4
 218:Drivers/STM32L4xx_HAL_Driver/Src/stm32l4xx_hal_dma.c ****           hdma->Init.PeriphDataAlignment | hdma->Init.MemDataAlignment |
 188              		.loc 1 218 54 view .LVU62
 189 003a 1C69     		ldr	r4, [r3, #16]
 218:Drivers/STM32L4xx_HAL_Driver/Src/stm32l4xx_hal_dma.c ****           hdma->Init.PeriphDataAlignment | hdma->Init.MemDataAlignment |
 190              		.loc 1 218 42 view .LVU63
 191 003c 2243     		orrs	r2, r2, r4
 219:Drivers/STM32L4xx_HAL_Driver/Src/stm32l4xx_hal_dma.c ****           hdma->Init.Mode                | hdma->Init.Priority;
 192              		.loc 1 219 21 view .LVU64
 193 003e 5C69     		ldr	r4, [r3, #20]
 218:Drivers/STM32L4xx_HAL_Driver/Src/stm32l4xx_hal_dma.c ****           hdma->Init.PeriphDataAlignment | hdma->Init.MemDataAlignment |
 194              		.loc 1 218 72 view .LVU65
 195 0040 2243     		orrs	r2, r2, r4
 219:Drivers/STM32L4xx_HAL_Driver/Src/stm32l4xx_hal_dma.c ****           hdma->Init.Mode                | hdma->Init.Priority;
 196              		.loc 1 219 54 view .LVU66
 197 0042 9C69     		ldr	r4, [r3, #24]
 219:Drivers/STM32L4xx_HAL_Driver/Src/stm32l4xx_hal_dma.c ****           hdma->Init.Mode                | hdma->Init.Priority;
 198              		.loc 1 219 42 view .LVU67
 199 0044 2243     		orrs	r2, r2, r4
 220:Drivers/STM32L4xx_HAL_Driver/Src/stm32l4xx_hal_dma.c **** 
 200              		.loc 1 220 21 view .LVU68
 201 0046 DC69     		ldr	r4, [r3, #28]
 219:Drivers/STM32L4xx_HAL_Driver/Src/stm32l4xx_hal_dma.c ****           hdma->Init.Mode                | hdma->Init.Priority;
 202              		.loc 1 219 72 view .LVU69
 203 0048 2243     		orrs	r2, r2, r4
 220:Drivers/STM32L4xx_HAL_Driver/Src/stm32l4xx_hal_dma.c **** 
 204              		.loc 1 220 54 view .LVU70
 205 004a 1C6A     		ldr	r4, [r3, #32]
 220:Drivers/STM32L4xx_HAL_Driver/Src/stm32l4xx_hal_dma.c **** 
 206              		.loc 1 220 42 view .LVU71
 207 004c 2243     		orrs	r2, r2, r4
ARM GAS  /tmp/ccaIxFiO.s 			page 25


 217:Drivers/STM32L4xx_HAL_Driver/Src/stm32l4xx_hal_dma.c ****           hdma->Init.PeriphInc           | hdma->Init.MemInc           |
 208              		.loc 1 217 7 view .LVU72
 209 004e 0A43     		orrs	r2, r2, r1
 210              	.LVL10:
 223:Drivers/STM32L4xx_HAL_Driver/Src/stm32l4xx_hal_dma.c **** 
 211              		.loc 1 223 3 is_stmt 1 view .LVU73
 223:Drivers/STM32L4xx_HAL_Driver/Src/stm32l4xx_hal_dma.c **** 
 212              		.loc 1 223 23 is_stmt 0 view .LVU74
 213 0050 0260     		str	r2, [r0]
 268:Drivers/STM32L4xx_HAL_Driver/Src/stm32l4xx_hal_dma.c ****   {
 214              		.loc 1 268 3 is_stmt 1 view .LVU75
 268:Drivers/STM32L4xx_HAL_Driver/Src/stm32l4xx_hal_dma.c ****   {
 215              		.loc 1 268 16 is_stmt 0 view .LVU76
 216 0052 9A68     		ldr	r2, [r3, #8]
 217              	.LVL11:
 268:Drivers/STM32L4xx_HAL_Driver/Src/stm32l4xx_hal_dma.c ****   {
 218              		.loc 1 268 5 view .LVU77
 219 0054 B2F5804F 		cmp	r2, #16384
 220 0058 15D0     		beq	.L10
 271:Drivers/STM32L4xx_HAL_Driver/Src/stm32l4xx_hal_dma.c ****     {
 221              		.loc 1 271 5 is_stmt 1 view .LVU78
 271:Drivers/STM32L4xx_HAL_Driver/Src/stm32l4xx_hal_dma.c ****     {
 222              		.loc 1 271 21 is_stmt 0 view .LVU79
 223 005a 196C     		ldr	r1, [r3, #64]
 271:Drivers/STM32L4xx_HAL_Driver/Src/stm32l4xx_hal_dma.c ****     {
 224              		.loc 1 271 8 view .LVU80
 225 005c 224A     		ldr	r2, .L18+12
 226 005e 9142     		cmp	r1, r2
 227 0060 26D0     		beq	.L17
 282:Drivers/STM32L4xx_HAL_Driver/Src/stm32l4xx_hal_dma.c **** 
 228              		.loc 1 282 7 is_stmt 1 view .LVU81
 282:Drivers/STM32L4xx_HAL_Driver/Src/stm32l4xx_hal_dma.c **** 
 229              		.loc 1 282 25 is_stmt 0 view .LVU82
 230 0062 224A     		ldr	r2, .L18+16
 231 0064 1168     		ldr	r1, [r2]
 282:Drivers/STM32L4xx_HAL_Driver/Src/stm32l4xx_hal_dma.c **** 
 232              		.loc 1 282 52 view .LVU83
 233 0066 586C     		ldr	r0, [r3, #68]
 234              	.LVL12:
 282:Drivers/STM32L4xx_HAL_Driver/Src/stm32l4xx_hal_dma.c **** 
 235              		.loc 1 282 67 view .LVU84
 236 0068 00F01C04 		and	r4, r0, #28
 282:Drivers/STM32L4xx_HAL_Driver/Src/stm32l4xx_hal_dma.c **** 
 237              		.loc 1 282 44 view .LVU85
 238 006c 0F20     		movs	r0, #15
 239 006e A040     		lsls	r0, r0, r4
 282:Drivers/STM32L4xx_HAL_Driver/Src/stm32l4xx_hal_dma.c **** 
 240              		.loc 1 282 25 view .LVU86
 241 0070 21EA0001 		bic	r1, r1, r0
 242 0074 1160     		str	r1, [r2]
 285:Drivers/STM32L4xx_HAL_Driver/Src/stm32l4xx_hal_dma.c ****     }
 243              		.loc 1 285 7 is_stmt 1 view .LVU87
 285:Drivers/STM32L4xx_HAL_Driver/Src/stm32l4xx_hal_dma.c ****     }
 244              		.loc 1 285 25 is_stmt 0 view .LVU88
 245 0076 1168     		ldr	r1, [r2]
 285:Drivers/STM32L4xx_HAL_Driver/Src/stm32l4xx_hal_dma.c ****     }
 246              		.loc 1 285 50 view .LVU89
ARM GAS  /tmp/ccaIxFiO.s 			page 26


 247 0078 5868     		ldr	r0, [r3, #4]
 285:Drivers/STM32L4xx_HAL_Driver/Src/stm32l4xx_hal_dma.c ****     }
 248              		.loc 1 285 67 view .LVU90
 249 007a 5C6C     		ldr	r4, [r3, #68]
 285:Drivers/STM32L4xx_HAL_Driver/Src/stm32l4xx_hal_dma.c ****     }
 250              		.loc 1 285 82 view .LVU91
 251 007c 04F01C04 		and	r4, r4, #28
 285:Drivers/STM32L4xx_HAL_Driver/Src/stm32l4xx_hal_dma.c ****     }
 252              		.loc 1 285 59 view .LVU92
 253 0080 A040     		lsls	r0, r0, r4
 285:Drivers/STM32L4xx_HAL_Driver/Src/stm32l4xx_hal_dma.c ****     }
 254              		.loc 1 285 25 view .LVU93
 255 0082 0143     		orrs	r1, r1, r0
 256 0084 1160     		str	r1, [r2]
 257              	.L10:
 294:Drivers/STM32L4xx_HAL_Driver/Src/stm32l4xx_hal_dma.c **** 
 258              		.loc 1 294 3 is_stmt 1 view .LVU94
 294:Drivers/STM32L4xx_HAL_Driver/Src/stm32l4xx_hal_dma.c **** 
 259              		.loc 1 294 19 is_stmt 0 view .LVU95
 260 0086 0020     		movs	r0, #0
 261 0088 D863     		str	r0, [r3, #60]
 297:Drivers/STM32L4xx_HAL_Driver/Src/stm32l4xx_hal_dma.c **** 
 262              		.loc 1 297 3 is_stmt 1 view .LVU96
 297:Drivers/STM32L4xx_HAL_Driver/Src/stm32l4xx_hal_dma.c **** 
 263              		.loc 1 297 16 is_stmt 0 view .LVU97
 264 008a 0122     		movs	r2, #1
 265 008c 83F82520 		strb	r2, [r3, #37]
 300:Drivers/STM32L4xx_HAL_Driver/Src/stm32l4xx_hal_dma.c **** 
 266              		.loc 1 300 3 is_stmt 1 view .LVU98
 300:Drivers/STM32L4xx_HAL_Driver/Src/stm32l4xx_hal_dma.c **** 
 267              		.loc 1 300 14 is_stmt 0 view .LVU99
 268 0090 83F82400 		strb	r0, [r3, #36]
 302:Drivers/STM32L4xx_HAL_Driver/Src/stm32l4xx_hal_dma.c **** }
 269              		.loc 1 302 3 is_stmt 1 view .LVU100
 303:Drivers/STM32L4xx_HAL_Driver/Src/stm32l4xx_hal_dma.c **** 
 270              		.loc 1 303 1 is_stmt 0 view .LVU101
 271 0094 5DF8044B 		ldr	r4, [sp], #4
 272              	.LCFI4:
 273              		.cfi_remember_state
 274              		.cfi_restore 4
 275              		.cfi_def_cfa_offset 0
 276 0098 7047     		bx	lr
 277              	.L8:
 278              	.LCFI5:
 279              		.cfi_restore_state
 201:Drivers/STM32L4xx_HAL_Driver/Src/stm32l4xx_hal_dma.c ****     hdma->DmaBaseAddress = DMA2;
 280              		.loc 1 201 5 is_stmt 1 view .LVU102
 201:Drivers/STM32L4xx_HAL_Driver/Src/stm32l4xx_hal_dma.c ****     hdma->DmaBaseAddress = DMA2;
 281              		.loc 1 201 53 is_stmt 0 view .LVU103
 282 009a 154A     		ldr	r2, .L18+20
 283 009c 0244     		add	r2, r2, r0
 201:Drivers/STM32L4xx_HAL_Driver/Src/stm32l4xx_hal_dma.c ****     hdma->DmaBaseAddress = DMA2;
 284              		.loc 1 201 80 view .LVU104
 285 009e 1149     		ldr	r1, .L18+8
 286 00a0 A1FB0212 		umull	r1, r2, r1, r2
 287 00a4 1209     		lsrs	r2, r2, #4
 201:Drivers/STM32L4xx_HAL_Driver/Src/stm32l4xx_hal_dma.c ****     hdma->DmaBaseAddress = DMA2;
ARM GAS  /tmp/ccaIxFiO.s 			page 27


 288              		.loc 1 201 135 view .LVU105
 289 00a6 9200     		lsls	r2, r2, #2
 201:Drivers/STM32L4xx_HAL_Driver/Src/stm32l4xx_hal_dma.c ****     hdma->DmaBaseAddress = DMA2;
 290              		.loc 1 201 24 view .LVU106
 291 00a8 5A64     		str	r2, [r3, #68]
 202:Drivers/STM32L4xx_HAL_Driver/Src/stm32l4xx_hal_dma.c ****   }
 292              		.loc 1 202 5 is_stmt 1 view .LVU107
 202:Drivers/STM32L4xx_HAL_Driver/Src/stm32l4xx_hal_dma.c ****   }
 293              		.loc 1 202 26 is_stmt 0 view .LVU108
 294 00aa 124A     		ldr	r2, .L18+24
 295 00ac 1A64     		str	r2, [r3, #64]
 296 00ae B9E7     		b	.L9
 297              	.LVL13:
 298              	.L17:
 274:Drivers/STM32L4xx_HAL_Driver/Src/stm32l4xx_hal_dma.c **** 
 299              		.loc 1 274 7 is_stmt 1 view .LVU109
 274:Drivers/STM32L4xx_HAL_Driver/Src/stm32l4xx_hal_dma.c **** 
 300              		.loc 1 274 25 is_stmt 0 view .LVU110
 301 00b0 A832     		adds	r2, r2, #168
 302 00b2 1168     		ldr	r1, [r2]
 274:Drivers/STM32L4xx_HAL_Driver/Src/stm32l4xx_hal_dma.c **** 
 303              		.loc 1 274 52 view .LVU111
 304 00b4 586C     		ldr	r0, [r3, #68]
 305              	.LVL14:
 274:Drivers/STM32L4xx_HAL_Driver/Src/stm32l4xx_hal_dma.c **** 
 306              		.loc 1 274 67 view .LVU112
 307 00b6 00F01C04 		and	r4, r0, #28
 274:Drivers/STM32L4xx_HAL_Driver/Src/stm32l4xx_hal_dma.c **** 
 308              		.loc 1 274 44 view .LVU113
 309 00ba 0F20     		movs	r0, #15
 310 00bc A040     		lsls	r0, r0, r4
 274:Drivers/STM32L4xx_HAL_Driver/Src/stm32l4xx_hal_dma.c **** 
 311              		.loc 1 274 25 view .LVU114
 312 00be 21EA0001 		bic	r1, r1, r0
 313 00c2 1160     		str	r1, [r2]
 277:Drivers/STM32L4xx_HAL_Driver/Src/stm32l4xx_hal_dma.c ****     }
 314              		.loc 1 277 7 is_stmt 1 view .LVU115
 277:Drivers/STM32L4xx_HAL_Driver/Src/stm32l4xx_hal_dma.c ****     }
 315              		.loc 1 277 25 is_stmt 0 view .LVU116
 316 00c4 1168     		ldr	r1, [r2]
 277:Drivers/STM32L4xx_HAL_Driver/Src/stm32l4xx_hal_dma.c ****     }
 317              		.loc 1 277 50 view .LVU117
 318 00c6 5868     		ldr	r0, [r3, #4]
 277:Drivers/STM32L4xx_HAL_Driver/Src/stm32l4xx_hal_dma.c ****     }
 319              		.loc 1 277 67 view .LVU118
 320 00c8 5C6C     		ldr	r4, [r3, #68]
 277:Drivers/STM32L4xx_HAL_Driver/Src/stm32l4xx_hal_dma.c ****     }
 321              		.loc 1 277 82 view .LVU119
 322 00ca 04F01C04 		and	r4, r4, #28
 277:Drivers/STM32L4xx_HAL_Driver/Src/stm32l4xx_hal_dma.c ****     }
 323              		.loc 1 277 59 view .LVU120
 324 00ce A040     		lsls	r0, r0, r4
 277:Drivers/STM32L4xx_HAL_Driver/Src/stm32l4xx_hal_dma.c ****     }
 325              		.loc 1 277 25 view .LVU121
 326 00d0 0143     		orrs	r1, r1, r0
 327 00d2 1160     		str	r1, [r2]
 328 00d4 D7E7     		b	.L10
ARM GAS  /tmp/ccaIxFiO.s 			page 28


 329              	.LVL15:
 330              	.L12:
 331              	.LCFI6:
 332              		.cfi_def_cfa_offset 0
 333              		.cfi_restore 4
 176:Drivers/STM32L4xx_HAL_Driver/Src/stm32l4xx_hal_dma.c ****   }
 334              		.loc 1 176 12 view .LVU122
 335 00d6 0120     		movs	r0, #1
 336              	.LVL16:
 303:Drivers/STM32L4xx_HAL_Driver/Src/stm32l4xx_hal_dma.c **** 
 337              		.loc 1 303 1 view .LVU123
 338 00d8 7047     		bx	lr
 339              	.L19:
 340 00da 00BF     		.align	2
 341              	.L18:
 342 00dc 07040240 		.word	1073873927
 343 00e0 F8FFFDBF 		.word	-1073872904
 344 00e4 CDCCCCCC 		.word	-858993459
 345 00e8 00000240 		.word	1073872896
 346 00ec A8040240 		.word	1073874088
 347 00f0 F8FBFDBF 		.word	-1073873928
 348 00f4 00040240 		.word	1073873920
 349              		.cfi_endproc
 350              	.LFE309:
 352              		.section	.text.HAL_DMA_DeInit,"ax",%progbits
 353              		.align	1
 354              		.global	HAL_DMA_DeInit
 355              		.syntax unified
 356              		.thumb
 357              		.thumb_func
 358              		.fpu fpv4-sp-d16
 360              	HAL_DMA_DeInit:
 361              	.LVL17:
 362              	.LFB310:
 312:Drivers/STM32L4xx_HAL_Driver/Src/stm32l4xx_hal_dma.c **** 
 363              		.loc 1 312 1 is_stmt 1 view -0
 364              		.cfi_startproc
 365              		@ args = 0, pretend = 0, frame = 0
 366              		@ frame_needed = 0, uses_anonymous_args = 0
 367              		@ link register save eliminated.
 315:Drivers/STM32L4xx_HAL_Driver/Src/stm32l4xx_hal_dma.c ****   {
 368              		.loc 1 315 3 view .LVU125
 315:Drivers/STM32L4xx_HAL_Driver/Src/stm32l4xx_hal_dma.c ****   {
 369              		.loc 1 315 6 is_stmt 0 view .LVU126
 370 0000 0028     		cmp	r0, #0
 371 0002 4ED0     		beq	.L26
 312:Drivers/STM32L4xx_HAL_Driver/Src/stm32l4xx_hal_dma.c **** 
 372              		.loc 1 312 1 view .LVU127
 373 0004 10B4     		push	{r4}
 374              	.LCFI7:
 375              		.cfi_def_cfa_offset 4
 376              		.cfi_offset 4, -4
 377 0006 0346     		mov	r3, r0
 321:Drivers/STM32L4xx_HAL_Driver/Src/stm32l4xx_hal_dma.c **** 
 378              		.loc 1 321 3 is_stmt 1 view .LVU128
 324:Drivers/STM32L4xx_HAL_Driver/Src/stm32l4xx_hal_dma.c **** 
 379              		.loc 1 324 3 view .LVU129
ARM GAS  /tmp/ccaIxFiO.s 			page 29


 380 0008 0168     		ldr	r1, [r0]
 381 000a 0A68     		ldr	r2, [r1]
 382 000c 22F00102 		bic	r2, r2, #1
 383 0010 0A60     		str	r2, [r1]
 327:Drivers/STM32L4xx_HAL_Driver/Src/stm32l4xx_hal_dma.c ****   {
 384              		.loc 1 327 3 view .LVU130
 327:Drivers/STM32L4xx_HAL_Driver/Src/stm32l4xx_hal_dma.c ****   {
 385              		.loc 1 327 22 is_stmt 0 view .LVU131
 386 0012 0168     		ldr	r1, [r0]
 327:Drivers/STM32L4xx_HAL_Driver/Src/stm32l4xx_hal_dma.c ****   {
 387              		.loc 1 327 6 view .LVU132
 388 0014 244A     		ldr	r2, .L32
 389 0016 9142     		cmp	r1, r2
 390 0018 2DD8     		bhi	.L22
 330:Drivers/STM32L4xx_HAL_Driver/Src/stm32l4xx_hal_dma.c ****     hdma->DmaBaseAddress = DMA1;
 391              		.loc 1 330 5 is_stmt 1 view .LVU133
 330:Drivers/STM32L4xx_HAL_Driver/Src/stm32l4xx_hal_dma.c ****     hdma->DmaBaseAddress = DMA1;
 392              		.loc 1 330 53 is_stmt 0 view .LVU134
 393 001a 244A     		ldr	r2, .L32+4
 394 001c 0A44     		add	r2, r2, r1
 330:Drivers/STM32L4xx_HAL_Driver/Src/stm32l4xx_hal_dma.c ****     hdma->DmaBaseAddress = DMA1;
 395              		.loc 1 330 80 view .LVU135
 396 001e 2448     		ldr	r0, .L32+8
 397              	.LVL18:
 330:Drivers/STM32L4xx_HAL_Driver/Src/stm32l4xx_hal_dma.c ****     hdma->DmaBaseAddress = DMA1;
 398              		.loc 1 330 80 view .LVU136
 399 0020 A0FB0202 		umull	r0, r2, r0, r2
 400 0024 1209     		lsrs	r2, r2, #4
 330:Drivers/STM32L4xx_HAL_Driver/Src/stm32l4xx_hal_dma.c ****     hdma->DmaBaseAddress = DMA1;
 401              		.loc 1 330 135 view .LVU137
 402 0026 9200     		lsls	r2, r2, #2
 330:Drivers/STM32L4xx_HAL_Driver/Src/stm32l4xx_hal_dma.c ****     hdma->DmaBaseAddress = DMA1;
 403              		.loc 1 330 24 view .LVU138
 404 0028 5A64     		str	r2, [r3, #68]
 331:Drivers/STM32L4xx_HAL_Driver/Src/stm32l4xx_hal_dma.c ****   }
 405              		.loc 1 331 5 is_stmt 1 view .LVU139
 331:Drivers/STM32L4xx_HAL_Driver/Src/stm32l4xx_hal_dma.c ****   }
 406              		.loc 1 331 26 is_stmt 0 view .LVU140
 407 002a 224A     		ldr	r2, .L32+12
 408 002c 1A64     		str	r2, [r3, #64]
 409              	.L23:
 341:Drivers/STM32L4xx_HAL_Driver/Src/stm32l4xx_hal_dma.c **** 
 410              		.loc 1 341 3 is_stmt 1 view .LVU141
 341:Drivers/STM32L4xx_HAL_Driver/Src/stm32l4xx_hal_dma.c **** 
 411              		.loc 1 341 24 is_stmt 0 view .LVU142
 412 002e 0022     		movs	r2, #0
 413 0030 0A60     		str	r2, [r1]
 344:Drivers/STM32L4xx_HAL_Driver/Src/stm32l4xx_hal_dma.c **** 
 414              		.loc 1 344 3 is_stmt 1 view .LVU143
 344:Drivers/STM32L4xx_HAL_Driver/Src/stm32l4xx_hal_dma.c **** 
 415              		.loc 1 344 54 is_stmt 0 view .LVU144
 416 0032 5A6C     		ldr	r2, [r3, #68]
 344:Drivers/STM32L4xx_HAL_Driver/Src/stm32l4xx_hal_dma.c **** 
 417              		.loc 1 344 69 view .LVU145
 418 0034 02F01C01 		and	r1, r2, #28
 344:Drivers/STM32L4xx_HAL_Driver/Src/stm32l4xx_hal_dma.c **** 
 419              		.loc 1 344 7 view .LVU146
ARM GAS  /tmp/ccaIxFiO.s 			page 30


 420 0038 186C     		ldr	r0, [r3, #64]
 344:Drivers/STM32L4xx_HAL_Driver/Src/stm32l4xx_hal_dma.c **** 
 421              		.loc 1 344 46 view .LVU147
 422 003a 0122     		movs	r2, #1
 423 003c 8A40     		lsls	r2, r2, r1
 344:Drivers/STM32L4xx_HAL_Driver/Src/stm32l4xx_hal_dma.c **** 
 424              		.loc 1 344 30 view .LVU148
 425 003e 4260     		str	r2, [r0, #4]
 349:Drivers/STM32L4xx_HAL_Driver/Src/stm32l4xx_hal_dma.c ****   {
 426              		.loc 1 349 3 is_stmt 1 view .LVU149
 349:Drivers/STM32L4xx_HAL_Driver/Src/stm32l4xx_hal_dma.c ****   {
 427              		.loc 1 349 19 is_stmt 0 view .LVU150
 428 0040 196C     		ldr	r1, [r3, #64]
 349:Drivers/STM32L4xx_HAL_Driver/Src/stm32l4xx_hal_dma.c ****   {
 429              		.loc 1 349 6 view .LVU151
 430 0042 1C4A     		ldr	r2, .L32+12
 431 0044 9142     		cmp	r1, r2
 432 0046 21D0     		beq	.L31
 357:Drivers/STM32L4xx_HAL_Driver/Src/stm32l4xx_hal_dma.c ****   }
 433              		.loc 1 357 5 is_stmt 1 view .LVU152
 357:Drivers/STM32L4xx_HAL_Driver/Src/stm32l4xx_hal_dma.c ****   }
 434              		.loc 1 357 23 is_stmt 0 view .LVU153
 435 0048 1B4C     		ldr	r4, .L32+16
 436 004a 2268     		ldr	r2, [r4]
 357:Drivers/STM32L4xx_HAL_Driver/Src/stm32l4xx_hal_dma.c ****   }
 437              		.loc 1 357 50 view .LVU154
 438 004c 596C     		ldr	r1, [r3, #68]
 357:Drivers/STM32L4xx_HAL_Driver/Src/stm32l4xx_hal_dma.c ****   }
 439              		.loc 1 357 65 view .LVU155
 440 004e 01F01C00 		and	r0, r1, #28
 357:Drivers/STM32L4xx_HAL_Driver/Src/stm32l4xx_hal_dma.c ****   }
 441              		.loc 1 357 42 view .LVU156
 442 0052 0F21     		movs	r1, #15
 443 0054 8140     		lsls	r1, r1, r0
 357:Drivers/STM32L4xx_HAL_Driver/Src/stm32l4xx_hal_dma.c ****   }
 444              		.loc 1 357 23 view .LVU157
 445 0056 22EA0102 		bic	r2, r2, r1
 446 005a 2260     		str	r2, [r4]
 447              	.L25:
 398:Drivers/STM32L4xx_HAL_Driver/Src/stm32l4xx_hal_dma.c ****   hdma->XferHalfCpltCallback = NULL;
 448              		.loc 1 398 3 is_stmt 1 view .LVU158
 398:Drivers/STM32L4xx_HAL_Driver/Src/stm32l4xx_hal_dma.c ****   hdma->XferHalfCpltCallback = NULL;
 449              		.loc 1 398 26 is_stmt 0 view .LVU159
 450 005c 0020     		movs	r0, #0
 451 005e D862     		str	r0, [r3, #44]
 399:Drivers/STM32L4xx_HAL_Driver/Src/stm32l4xx_hal_dma.c ****   hdma->XferErrorCallback = NULL;
 452              		.loc 1 399 3 is_stmt 1 view .LVU160
 399:Drivers/STM32L4xx_HAL_Driver/Src/stm32l4xx_hal_dma.c ****   hdma->XferErrorCallback = NULL;
 453              		.loc 1 399 30 is_stmt 0 view .LVU161
 454 0060 1863     		str	r0, [r3, #48]
 400:Drivers/STM32L4xx_HAL_Driver/Src/stm32l4xx_hal_dma.c ****   hdma->XferAbortCallback = NULL;
 455              		.loc 1 400 3 is_stmt 1 view .LVU162
 400:Drivers/STM32L4xx_HAL_Driver/Src/stm32l4xx_hal_dma.c ****   hdma->XferAbortCallback = NULL;
 456              		.loc 1 400 27 is_stmt 0 view .LVU163
 457 0062 5863     		str	r0, [r3, #52]
 401:Drivers/STM32L4xx_HAL_Driver/Src/stm32l4xx_hal_dma.c **** 
 458              		.loc 1 401 3 is_stmt 1 view .LVU164
ARM GAS  /tmp/ccaIxFiO.s 			page 31


 401:Drivers/STM32L4xx_HAL_Driver/Src/stm32l4xx_hal_dma.c **** 
 459              		.loc 1 401 27 is_stmt 0 view .LVU165
 460 0064 9863     		str	r0, [r3, #56]
 404:Drivers/STM32L4xx_HAL_Driver/Src/stm32l4xx_hal_dma.c **** 
 461              		.loc 1 404 3 is_stmt 1 view .LVU166
 404:Drivers/STM32L4xx_HAL_Driver/Src/stm32l4xx_hal_dma.c **** 
 462              		.loc 1 404 19 is_stmt 0 view .LVU167
 463 0066 D863     		str	r0, [r3, #60]
 407:Drivers/STM32L4xx_HAL_Driver/Src/stm32l4xx_hal_dma.c **** 
 464              		.loc 1 407 3 is_stmt 1 view .LVU168
 407:Drivers/STM32L4xx_HAL_Driver/Src/stm32l4xx_hal_dma.c **** 
 465              		.loc 1 407 15 is_stmt 0 view .LVU169
 466 0068 83F82500 		strb	r0, [r3, #37]
 410:Drivers/STM32L4xx_HAL_Driver/Src/stm32l4xx_hal_dma.c **** 
 467              		.loc 1 410 3 is_stmt 1 view .LVU170
 410:Drivers/STM32L4xx_HAL_Driver/Src/stm32l4xx_hal_dma.c **** 
 468              		.loc 1 410 3 view .LVU171
 469 006c 83F82400 		strb	r0, [r3, #36]
 410:Drivers/STM32L4xx_HAL_Driver/Src/stm32l4xx_hal_dma.c **** 
 470              		.loc 1 410 3 view .LVU172
 412:Drivers/STM32L4xx_HAL_Driver/Src/stm32l4xx_hal_dma.c **** }
 471              		.loc 1 412 3 view .LVU173
 413:Drivers/STM32L4xx_HAL_Driver/Src/stm32l4xx_hal_dma.c **** 
 472              		.loc 1 413 1 is_stmt 0 view .LVU174
 473 0070 5DF8044B 		ldr	r4, [sp], #4
 474              	.LCFI8:
 475              		.cfi_remember_state
 476              		.cfi_restore 4
 477              		.cfi_def_cfa_offset 0
 478 0074 7047     		bx	lr
 479              	.LVL19:
 480              	.L22:
 481              	.LCFI9:
 482              		.cfi_restore_state
 336:Drivers/STM32L4xx_HAL_Driver/Src/stm32l4xx_hal_dma.c ****     hdma->DmaBaseAddress = DMA2;
 483              		.loc 1 336 5 is_stmt 1 view .LVU175
 336:Drivers/STM32L4xx_HAL_Driver/Src/stm32l4xx_hal_dma.c ****     hdma->DmaBaseAddress = DMA2;
 484              		.loc 1 336 53 is_stmt 0 view .LVU176
 485 0076 114A     		ldr	r2, .L32+20
 486 0078 0A44     		add	r2, r2, r1
 336:Drivers/STM32L4xx_HAL_Driver/Src/stm32l4xx_hal_dma.c ****     hdma->DmaBaseAddress = DMA2;
 487              		.loc 1 336 80 view .LVU177
 488 007a 0D48     		ldr	r0, .L32+8
 489              	.LVL20:
 336:Drivers/STM32L4xx_HAL_Driver/Src/stm32l4xx_hal_dma.c ****     hdma->DmaBaseAddress = DMA2;
 490              		.loc 1 336 80 view .LVU178
 491 007c A0FB0202 		umull	r0, r2, r0, r2
 492 0080 1209     		lsrs	r2, r2, #4
 336:Drivers/STM32L4xx_HAL_Driver/Src/stm32l4xx_hal_dma.c ****     hdma->DmaBaseAddress = DMA2;
 493              		.loc 1 336 135 view .LVU179
 494 0082 9200     		lsls	r2, r2, #2
 336:Drivers/STM32L4xx_HAL_Driver/Src/stm32l4xx_hal_dma.c ****     hdma->DmaBaseAddress = DMA2;
 495              		.loc 1 336 24 view .LVU180
 496 0084 5A64     		str	r2, [r3, #68]
 337:Drivers/STM32L4xx_HAL_Driver/Src/stm32l4xx_hal_dma.c ****   }
 497              		.loc 1 337 5 is_stmt 1 view .LVU181
 337:Drivers/STM32L4xx_HAL_Driver/Src/stm32l4xx_hal_dma.c ****   }
ARM GAS  /tmp/ccaIxFiO.s 			page 32


 498              		.loc 1 337 26 is_stmt 0 view .LVU182
 499 0086 0E4A     		ldr	r2, .L32+24
 500 0088 1A64     		str	r2, [r3, #64]
 501 008a D0E7     		b	.L23
 502              	.L31:
 352:Drivers/STM32L4xx_HAL_Driver/Src/stm32l4xx_hal_dma.c ****   }
 503              		.loc 1 352 5 is_stmt 1 view .LVU183
 352:Drivers/STM32L4xx_HAL_Driver/Src/stm32l4xx_hal_dma.c ****   }
 504              		.loc 1 352 23 is_stmt 0 view .LVU184
 505 008c 0D4C     		ldr	r4, .L32+28
 506 008e 2268     		ldr	r2, [r4]
 352:Drivers/STM32L4xx_HAL_Driver/Src/stm32l4xx_hal_dma.c ****   }
 507              		.loc 1 352 50 view .LVU185
 508 0090 596C     		ldr	r1, [r3, #68]
 352:Drivers/STM32L4xx_HAL_Driver/Src/stm32l4xx_hal_dma.c ****   }
 509              		.loc 1 352 65 view .LVU186
 510 0092 01F01C00 		and	r0, r1, #28
 352:Drivers/STM32L4xx_HAL_Driver/Src/stm32l4xx_hal_dma.c ****   }
 511              		.loc 1 352 42 view .LVU187
 512 0096 0F21     		movs	r1, #15
 513 0098 8140     		lsls	r1, r1, r0
 352:Drivers/STM32L4xx_HAL_Driver/Src/stm32l4xx_hal_dma.c ****   }
 514              		.loc 1 352 23 view .LVU188
 515 009a 22EA0102 		bic	r2, r2, r1
 516 009e 2260     		str	r2, [r4]
 517 00a0 DCE7     		b	.L25
 518              	.LVL21:
 519              	.L26:
 520              	.LCFI10:
 521              		.cfi_def_cfa_offset 0
 522              		.cfi_restore 4
 317:Drivers/STM32L4xx_HAL_Driver/Src/stm32l4xx_hal_dma.c ****   }
 523              		.loc 1 317 12 view .LVU189
 524 00a2 0120     		movs	r0, #1
 525              	.LVL22:
 413:Drivers/STM32L4xx_HAL_Driver/Src/stm32l4xx_hal_dma.c **** 
 526              		.loc 1 413 1 view .LVU190
 527 00a4 7047     		bx	lr
 528              	.L33:
 529 00a6 00BF     		.align	2
 530              	.L32:
 531 00a8 07040240 		.word	1073873927
 532 00ac F8FFFDBF 		.word	-1073872904
 533 00b0 CDCCCCCC 		.word	-858993459
 534 00b4 00000240 		.word	1073872896
 535 00b8 A8040240 		.word	1073874088
 536 00bc F8FBFDBF 		.word	-1073873928
 537 00c0 00040240 		.word	1073873920
 538 00c4 A8000240 		.word	1073873064
 539              		.cfi_endproc
 540              	.LFE310:
 542              		.section	.text.HAL_DMA_Start,"ax",%progbits
 543              		.align	1
 544              		.global	HAL_DMA_Start
 545              		.syntax unified
 546              		.thumb
 547              		.thumb_func
ARM GAS  /tmp/ccaIxFiO.s 			page 33


 548              		.fpu fpv4-sp-d16
 550              	HAL_DMA_Start:
 551              	.LVL23:
 552              	.LFB311:
 448:Drivers/STM32L4xx_HAL_Driver/Src/stm32l4xx_hal_dma.c ****   HAL_StatusTypeDef status = HAL_OK;
 553              		.loc 1 448 1 is_stmt 1 view -0
 554              		.cfi_startproc
 555              		@ args = 0, pretend = 0, frame = 0
 556              		@ frame_needed = 0, uses_anonymous_args = 0
 448:Drivers/STM32L4xx_HAL_Driver/Src/stm32l4xx_hal_dma.c ****   HAL_StatusTypeDef status = HAL_OK;
 557              		.loc 1 448 1 is_stmt 0 view .LVU192
 558 0000 70B5     		push	{r4, r5, r6, lr}
 559              	.LCFI11:
 560              		.cfi_def_cfa_offset 16
 561              		.cfi_offset 4, -16
 562              		.cfi_offset 5, -12
 563              		.cfi_offset 6, -8
 564              		.cfi_offset 14, -4
 565 0002 0446     		mov	r4, r0
 449:Drivers/STM32L4xx_HAL_Driver/Src/stm32l4xx_hal_dma.c **** 
 566              		.loc 1 449 3 is_stmt 1 view .LVU193
 567              	.LVL24:
 452:Drivers/STM32L4xx_HAL_Driver/Src/stm32l4xx_hal_dma.c **** 
 568              		.loc 1 452 3 view .LVU194
 455:Drivers/STM32L4xx_HAL_Driver/Src/stm32l4xx_hal_dma.c **** 
 569              		.loc 1 455 3 view .LVU195
 455:Drivers/STM32L4xx_HAL_Driver/Src/stm32l4xx_hal_dma.c **** 
 570              		.loc 1 455 3 view .LVU196
 571 0004 90F82400 		ldrb	r0, [r0, #36]	@ zero_extendqisi2
 572              	.LVL25:
 455:Drivers/STM32L4xx_HAL_Driver/Src/stm32l4xx_hal_dma.c **** 
 573              		.loc 1 455 3 is_stmt 0 view .LVU197
 574 0008 0128     		cmp	r0, #1
 575 000a 20D0     		beq	.L37
 455:Drivers/STM32L4xx_HAL_Driver/Src/stm32l4xx_hal_dma.c **** 
 576              		.loc 1 455 3 is_stmt 1 discriminator 2 view .LVU198
 577 000c 0120     		movs	r0, #1
 578 000e 84F82400 		strb	r0, [r4, #36]
 455:Drivers/STM32L4xx_HAL_Driver/Src/stm32l4xx_hal_dma.c **** 
 579              		.loc 1 455 3 discriminator 2 view .LVU199
 457:Drivers/STM32L4xx_HAL_Driver/Src/stm32l4xx_hal_dma.c ****   {
 580              		.loc 1 457 3 discriminator 2 view .LVU200
 457:Drivers/STM32L4xx_HAL_Driver/Src/stm32l4xx_hal_dma.c ****   {
 581              		.loc 1 457 33 is_stmt 0 discriminator 2 view .LVU201
 582 0012 94F82500 		ldrb	r0, [r4, #37]	@ zero_extendqisi2
 583 0016 C0B2     		uxtb	r0, r0
 457:Drivers/STM32L4xx_HAL_Driver/Src/stm32l4xx_hal_dma.c ****   {
 584              		.loc 1 457 5 discriminator 2 view .LVU202
 585 0018 0128     		cmp	r0, #1
 586 001a 04D0     		beq	.L39
 475:Drivers/STM32L4xx_HAL_Driver/Src/stm32l4xx_hal_dma.c ****     status = HAL_BUSY;
 587              		.loc 1 475 5 is_stmt 1 view .LVU203
 475:Drivers/STM32L4xx_HAL_Driver/Src/stm32l4xx_hal_dma.c ****     status = HAL_BUSY;
 588              		.loc 1 475 5 view .LVU204
 589 001c 0023     		movs	r3, #0
 590              	.LVL26:
 475:Drivers/STM32L4xx_HAL_Driver/Src/stm32l4xx_hal_dma.c ****     status = HAL_BUSY;
ARM GAS  /tmp/ccaIxFiO.s 			page 34


 591              		.loc 1 475 5 is_stmt 0 view .LVU205
 592 001e 84F82430 		strb	r3, [r4, #36]
 475:Drivers/STM32L4xx_HAL_Driver/Src/stm32l4xx_hal_dma.c ****     status = HAL_BUSY;
 593              		.loc 1 475 5 is_stmt 1 view .LVU206
 476:Drivers/STM32L4xx_HAL_Driver/Src/stm32l4xx_hal_dma.c ****   }
 594              		.loc 1 476 5 view .LVU207
 595              	.LVL27:
 476:Drivers/STM32L4xx_HAL_Driver/Src/stm32l4xx_hal_dma.c ****   }
 596              		.loc 1 476 12 is_stmt 0 view .LVU208
 597 0022 0220     		movs	r0, #2
 598              	.LVL28:
 599              	.L35:
 479:Drivers/STM32L4xx_HAL_Driver/Src/stm32l4xx_hal_dma.c **** 
 600              		.loc 1 479 1 view .LVU209
 601 0024 70BD     		pop	{r4, r5, r6, pc}
 602              	.LVL29:
 603              	.L39:
 460:Drivers/STM32L4xx_HAL_Driver/Src/stm32l4xx_hal_dma.c ****     hdma->ErrorCode = HAL_DMA_ERROR_NONE;
 604              		.loc 1 460 5 is_stmt 1 view .LVU210
 460:Drivers/STM32L4xx_HAL_Driver/Src/stm32l4xx_hal_dma.c ****     hdma->ErrorCode = HAL_DMA_ERROR_NONE;
 605              		.loc 1 460 17 is_stmt 0 view .LVU211
 606 0026 0220     		movs	r0, #2
 607 0028 84F82500 		strb	r0, [r4, #37]
 461:Drivers/STM32L4xx_HAL_Driver/Src/stm32l4xx_hal_dma.c **** 
 608              		.loc 1 461 5 is_stmt 1 view .LVU212
 461:Drivers/STM32L4xx_HAL_Driver/Src/stm32l4xx_hal_dma.c **** 
 609              		.loc 1 461 21 is_stmt 0 view .LVU213
 610 002c 0025     		movs	r5, #0
 611 002e E563     		str	r5, [r4, #60]
 464:Drivers/STM32L4xx_HAL_Driver/Src/stm32l4xx_hal_dma.c **** 
 612              		.loc 1 464 5 is_stmt 1 view .LVU214
 613 0030 2668     		ldr	r6, [r4]
 614 0032 3068     		ldr	r0, [r6]
 615 0034 20F00100 		bic	r0, r0, #1
 616 0038 3060     		str	r0, [r6]
 467:Drivers/STM32L4xx_HAL_Driver/Src/stm32l4xx_hal_dma.c **** 
 617              		.loc 1 467 5 view .LVU215
 618 003a 2046     		mov	r0, r4
 619 003c FFF7FEFF 		bl	DMA_SetConfig
 620              	.LVL30:
 470:Drivers/STM32L4xx_HAL_Driver/Src/stm32l4xx_hal_dma.c ****   }
 621              		.loc 1 470 5 view .LVU216
 622 0040 2268     		ldr	r2, [r4]
 623 0042 1368     		ldr	r3, [r2]
 624 0044 43F00103 		orr	r3, r3, #1
 625 0048 1360     		str	r3, [r2]
 449:Drivers/STM32L4xx_HAL_Driver/Src/stm32l4xx_hal_dma.c **** 
 626              		.loc 1 449 21 is_stmt 0 view .LVU217
 627 004a 2846     		mov	r0, r5
 628 004c EAE7     		b	.L35
 629              	.LVL31:
 630              	.L37:
 455:Drivers/STM32L4xx_HAL_Driver/Src/stm32l4xx_hal_dma.c **** 
 631              		.loc 1 455 3 view .LVU218
 632 004e 0220     		movs	r0, #2
 633 0050 E8E7     		b	.L35
 634              		.cfi_endproc
ARM GAS  /tmp/ccaIxFiO.s 			page 35


 635              	.LFE311:
 637              		.section	.text.HAL_DMA_Start_IT,"ax",%progbits
 638              		.align	1
 639              		.global	HAL_DMA_Start_IT
 640              		.syntax unified
 641              		.thumb
 642              		.thumb_func
 643              		.fpu fpv4-sp-d16
 645              	HAL_DMA_Start_IT:
 646              	.LVL32:
 647              	.LFB312:
 491:Drivers/STM32L4xx_HAL_Driver/Src/stm32l4xx_hal_dma.c ****   HAL_StatusTypeDef status = HAL_OK;
 648              		.loc 1 491 1 is_stmt 1 view -0
 649              		.cfi_startproc
 650              		@ args = 0, pretend = 0, frame = 0
 651              		@ frame_needed = 0, uses_anonymous_args = 0
 491:Drivers/STM32L4xx_HAL_Driver/Src/stm32l4xx_hal_dma.c ****   HAL_StatusTypeDef status = HAL_OK;
 652              		.loc 1 491 1 is_stmt 0 view .LVU220
 653 0000 38B5     		push	{r3, r4, r5, lr}
 654              	.LCFI12:
 655              		.cfi_def_cfa_offset 16
 656              		.cfi_offset 3, -16
 657              		.cfi_offset 4, -12
 658              		.cfi_offset 5, -8
 659              		.cfi_offset 14, -4
 660 0002 0446     		mov	r4, r0
 492:Drivers/STM32L4xx_HAL_Driver/Src/stm32l4xx_hal_dma.c **** 
 661              		.loc 1 492 3 is_stmt 1 view .LVU221
 662              	.LVL33:
 495:Drivers/STM32L4xx_HAL_Driver/Src/stm32l4xx_hal_dma.c **** 
 663              		.loc 1 495 3 view .LVU222
 498:Drivers/STM32L4xx_HAL_Driver/Src/stm32l4xx_hal_dma.c **** 
 664              		.loc 1 498 3 view .LVU223
 498:Drivers/STM32L4xx_HAL_Driver/Src/stm32l4xx_hal_dma.c **** 
 665              		.loc 1 498 3 view .LVU224
 666 0004 90F82400 		ldrb	r0, [r0, #36]	@ zero_extendqisi2
 667              	.LVL34:
 498:Drivers/STM32L4xx_HAL_Driver/Src/stm32l4xx_hal_dma.c **** 
 668              		.loc 1 498 3 is_stmt 0 view .LVU225
 669 0008 0128     		cmp	r0, #1
 670 000a 32D0     		beq	.L45
 498:Drivers/STM32L4xx_HAL_Driver/Src/stm32l4xx_hal_dma.c **** 
 671              		.loc 1 498 3 is_stmt 1 discriminator 2 view .LVU226
 672 000c 0120     		movs	r0, #1
 673 000e 84F82400 		strb	r0, [r4, #36]
 498:Drivers/STM32L4xx_HAL_Driver/Src/stm32l4xx_hal_dma.c **** 
 674              		.loc 1 498 3 discriminator 2 view .LVU227
 500:Drivers/STM32L4xx_HAL_Driver/Src/stm32l4xx_hal_dma.c ****   {
 675              		.loc 1 500 3 discriminator 2 view .LVU228
 500:Drivers/STM32L4xx_HAL_Driver/Src/stm32l4xx_hal_dma.c ****   {
 676              		.loc 1 500 33 is_stmt 0 discriminator 2 view .LVU229
 677 0012 94F82500 		ldrb	r0, [r4, #37]	@ zero_extendqisi2
 678 0016 C0B2     		uxtb	r0, r0
 500:Drivers/STM32L4xx_HAL_Driver/Src/stm32l4xx_hal_dma.c ****   {
 679              		.loc 1 500 5 discriminator 2 view .LVU230
 680 0018 0128     		cmp	r0, #1
 681 001a 04D0     		beq	.L47
ARM GAS  /tmp/ccaIxFiO.s 			page 36


 549:Drivers/STM32L4xx_HAL_Driver/Src/stm32l4xx_hal_dma.c **** 
 682              		.loc 1 549 5 is_stmt 1 view .LVU231
 549:Drivers/STM32L4xx_HAL_Driver/Src/stm32l4xx_hal_dma.c **** 
 683              		.loc 1 549 5 view .LVU232
 684 001c 0023     		movs	r3, #0
 685              	.LVL35:
 549:Drivers/STM32L4xx_HAL_Driver/Src/stm32l4xx_hal_dma.c **** 
 686              		.loc 1 549 5 is_stmt 0 view .LVU233
 687 001e 84F82430 		strb	r3, [r4, #36]
 549:Drivers/STM32L4xx_HAL_Driver/Src/stm32l4xx_hal_dma.c **** 
 688              		.loc 1 549 5 is_stmt 1 view .LVU234
 552:Drivers/STM32L4xx_HAL_Driver/Src/stm32l4xx_hal_dma.c ****   }
 689              		.loc 1 552 5 view .LVU235
 690              	.LVL36:
 552:Drivers/STM32L4xx_HAL_Driver/Src/stm32l4xx_hal_dma.c ****   }
 691              		.loc 1 552 12 is_stmt 0 view .LVU236
 692 0022 0220     		movs	r0, #2
 693              	.LVL37:
 694              	.L41:
 555:Drivers/STM32L4xx_HAL_Driver/Src/stm32l4xx_hal_dma.c **** 
 695              		.loc 1 555 1 view .LVU237
 696 0024 38BD     		pop	{r3, r4, r5, pc}
 697              	.LVL38:
 698              	.L47:
 503:Drivers/STM32L4xx_HAL_Driver/Src/stm32l4xx_hal_dma.c ****     hdma->ErrorCode = HAL_DMA_ERROR_NONE;
 699              		.loc 1 503 5 is_stmt 1 view .LVU238
 503:Drivers/STM32L4xx_HAL_Driver/Src/stm32l4xx_hal_dma.c ****     hdma->ErrorCode = HAL_DMA_ERROR_NONE;
 700              		.loc 1 503 17 is_stmt 0 view .LVU239
 701 0026 0220     		movs	r0, #2
 702 0028 84F82500 		strb	r0, [r4, #37]
 504:Drivers/STM32L4xx_HAL_Driver/Src/stm32l4xx_hal_dma.c **** 
 703              		.loc 1 504 5 is_stmt 1 view .LVU240
 504:Drivers/STM32L4xx_HAL_Driver/Src/stm32l4xx_hal_dma.c **** 
 704              		.loc 1 504 21 is_stmt 0 view .LVU241
 705 002c 0020     		movs	r0, #0
 706 002e E063     		str	r0, [r4, #60]
 507:Drivers/STM32L4xx_HAL_Driver/Src/stm32l4xx_hal_dma.c **** 
 707              		.loc 1 507 5 is_stmt 1 view .LVU242
 708 0030 2568     		ldr	r5, [r4]
 709 0032 2868     		ldr	r0, [r5]
 710 0034 20F00100 		bic	r0, r0, #1
 711 0038 2860     		str	r0, [r5]
 510:Drivers/STM32L4xx_HAL_Driver/Src/stm32l4xx_hal_dma.c **** 
 712              		.loc 1 510 5 view .LVU243
 713 003a 2046     		mov	r0, r4
 714 003c FFF7FEFF 		bl	DMA_SetConfig
 715              	.LVL39:
 514:Drivers/STM32L4xx_HAL_Driver/Src/stm32l4xx_hal_dma.c ****     {
 716              		.loc 1 514 5 view .LVU244
 514:Drivers/STM32L4xx_HAL_Driver/Src/stm32l4xx_hal_dma.c ****     {
 717              		.loc 1 514 20 is_stmt 0 view .LVU245
 718 0040 236B     		ldr	r3, [r4, #48]
 514:Drivers/STM32L4xx_HAL_Driver/Src/stm32l4xx_hal_dma.c ****     {
 719              		.loc 1 514 7 view .LVU246
 720 0042 5BB1     		cbz	r3, .L43
 517:Drivers/STM32L4xx_HAL_Driver/Src/stm32l4xx_hal_dma.c ****     }
 721              		.loc 1 517 7 is_stmt 1 view .LVU247
ARM GAS  /tmp/ccaIxFiO.s 			page 37


 722 0044 2268     		ldr	r2, [r4]
 723 0046 1368     		ldr	r3, [r2]
 724 0048 43F00E03 		orr	r3, r3, #14
 725 004c 1360     		str	r3, [r2]
 726              	.L44:
 544:Drivers/STM32L4xx_HAL_Driver/Src/stm32l4xx_hal_dma.c ****   }
 727              		.loc 1 544 5 view .LVU248
 728 004e 2268     		ldr	r2, [r4]
 729 0050 1368     		ldr	r3, [r2]
 730 0052 43F00103 		orr	r3, r3, #1
 731 0056 1360     		str	r3, [r2]
 492:Drivers/STM32L4xx_HAL_Driver/Src/stm32l4xx_hal_dma.c **** 
 732              		.loc 1 492 21 is_stmt 0 view .LVU249
 733 0058 0020     		movs	r0, #0
 734 005a E3E7     		b	.L41
 735              	.L43:
 521:Drivers/STM32L4xx_HAL_Driver/Src/stm32l4xx_hal_dma.c ****       __HAL_DMA_ENABLE_IT(hdma, (DMA_IT_TC | DMA_IT_TE));
 736              		.loc 1 521 7 is_stmt 1 view .LVU250
 737 005c 2268     		ldr	r2, [r4]
 738 005e 1368     		ldr	r3, [r2]
 739 0060 23F00403 		bic	r3, r3, #4
 740 0064 1360     		str	r3, [r2]
 522:Drivers/STM32L4xx_HAL_Driver/Src/stm32l4xx_hal_dma.c ****     }
 741              		.loc 1 522 7 view .LVU251
 742 0066 2268     		ldr	r2, [r4]
 743 0068 1368     		ldr	r3, [r2]
 744 006a 43F00A03 		orr	r3, r3, #10
 745 006e 1360     		str	r3, [r2]
 746 0070 EDE7     		b	.L44
 747              	.LVL40:
 748              	.L45:
 498:Drivers/STM32L4xx_HAL_Driver/Src/stm32l4xx_hal_dma.c **** 
 749              		.loc 1 498 3 is_stmt 0 view .LVU252
 750 0072 0220     		movs	r0, #2
 751 0074 D6E7     		b	.L41
 752              		.cfi_endproc
 753              	.LFE312:
 755              		.section	.text.HAL_DMA_Abort,"ax",%progbits
 756              		.align	1
 757              		.global	HAL_DMA_Abort
 758              		.syntax unified
 759              		.thumb
 760              		.thumb_func
 761              		.fpu fpv4-sp-d16
 763              	HAL_DMA_Abort:
 764              	.LVL41:
 765              	.LFB313:
 564:Drivers/STM32L4xx_HAL_Driver/Src/stm32l4xx_hal_dma.c ****   HAL_StatusTypeDef status = HAL_OK;
 766              		.loc 1 564 1 is_stmt 1 view -0
 767              		.cfi_startproc
 768              		@ args = 0, pretend = 0, frame = 0
 769              		@ frame_needed = 0, uses_anonymous_args = 0
 770              		@ link register save eliminated.
 565:Drivers/STM32L4xx_HAL_Driver/Src/stm32l4xx_hal_dma.c **** 
 771              		.loc 1 565 3 view .LVU254
 568:Drivers/STM32L4xx_HAL_Driver/Src/stm32l4xx_hal_dma.c ****   {
 772              		.loc 1 568 3 view .LVU255
ARM GAS  /tmp/ccaIxFiO.s 			page 38


 568:Drivers/STM32L4xx_HAL_Driver/Src/stm32l4xx_hal_dma.c ****   {
 773              		.loc 1 568 5 is_stmt 0 view .LVU256
 774 0000 0346     		mov	r3, r0
 775 0002 B8B1     		cbz	r0, .L50
 574:Drivers/STM32L4xx_HAL_Driver/Src/stm32l4xx_hal_dma.c **** 
 776              		.loc 1 574 3 is_stmt 1 view .LVU257
 777 0004 0168     		ldr	r1, [r0]
 778 0006 0A68     		ldr	r2, [r1]
 779 0008 22F00E02 		bic	r2, r2, #14
 780 000c 0A60     		str	r2, [r1]
 582:Drivers/STM32L4xx_HAL_Driver/Src/stm32l4xx_hal_dma.c **** 
 781              		.loc 1 582 3 view .LVU258
 782 000e 0168     		ldr	r1, [r0]
 783 0010 0A68     		ldr	r2, [r1]
 784 0012 22F00102 		bic	r2, r2, #1
 785 0016 0A60     		str	r2, [r1]
 585:Drivers/STM32L4xx_HAL_Driver/Src/stm32l4xx_hal_dma.c **** 
 786              		.loc 1 585 3 view .LVU259
 585:Drivers/STM32L4xx_HAL_Driver/Src/stm32l4xx_hal_dma.c **** 
 787              		.loc 1 585 54 is_stmt 0 view .LVU260
 788 0018 426C     		ldr	r2, [r0, #68]
 585:Drivers/STM32L4xx_HAL_Driver/Src/stm32l4xx_hal_dma.c **** 
 789              		.loc 1 585 69 view .LVU261
 790 001a 02F01C02 		and	r2, r2, #28
 585:Drivers/STM32L4xx_HAL_Driver/Src/stm32l4xx_hal_dma.c **** 
 791              		.loc 1 585 7 view .LVU262
 792 001e 006C     		ldr	r0, [r0, #64]
 793              	.LVL42:
 585:Drivers/STM32L4xx_HAL_Driver/Src/stm32l4xx_hal_dma.c **** 
 794              		.loc 1 585 46 view .LVU263
 795 0020 0121     		movs	r1, #1
 796 0022 01FA02F2 		lsl	r2, r1, r2
 585:Drivers/STM32L4xx_HAL_Driver/Src/stm32l4xx_hal_dma.c **** 
 797              		.loc 1 585 30 view .LVU264
 798 0026 4260     		str	r2, [r0, #4]
 604:Drivers/STM32L4xx_HAL_Driver/Src/stm32l4xx_hal_dma.c **** 
 799              		.loc 1 604 3 is_stmt 1 view .LVU265
 604:Drivers/STM32L4xx_HAL_Driver/Src/stm32l4xx_hal_dma.c **** 
 800              		.loc 1 604 15 is_stmt 0 view .LVU266
 801 0028 83F82510 		strb	r1, [r3, #37]
 607:Drivers/STM32L4xx_HAL_Driver/Src/stm32l4xx_hal_dma.c **** 
 802              		.loc 1 607 3 is_stmt 1 view .LVU267
 607:Drivers/STM32L4xx_HAL_Driver/Src/stm32l4xx_hal_dma.c **** 
 803              		.loc 1 607 3 view .LVU268
 804 002c 0020     		movs	r0, #0
 805 002e 83F82400 		strb	r0, [r3, #36]
 607:Drivers/STM32L4xx_HAL_Driver/Src/stm32l4xx_hal_dma.c **** 
 806              		.loc 1 607 3 view .LVU269
 609:Drivers/STM32L4xx_HAL_Driver/Src/stm32l4xx_hal_dma.c **** }
 807              		.loc 1 609 3 view .LVU270
 609:Drivers/STM32L4xx_HAL_Driver/Src/stm32l4xx_hal_dma.c **** }
 808              		.loc 1 609 10 is_stmt 0 view .LVU271
 809 0032 7047     		bx	lr
 810              	.LVL43:
 811              	.L50:
 570:Drivers/STM32L4xx_HAL_Driver/Src/stm32l4xx_hal_dma.c ****   }
 812              		.loc 1 570 12 view .LVU272
ARM GAS  /tmp/ccaIxFiO.s 			page 39


 813 0034 0120     		movs	r0, #1
 814              	.LVL44:
 610:Drivers/STM32L4xx_HAL_Driver/Src/stm32l4xx_hal_dma.c **** 
 815              		.loc 1 610 1 view .LVU273
 816 0036 7047     		bx	lr
 817              		.cfi_endproc
 818              	.LFE313:
 820              		.section	.text.HAL_DMA_Abort_IT,"ax",%progbits
 821              		.align	1
 822              		.global	HAL_DMA_Abort_IT
 823              		.syntax unified
 824              		.thumb
 825              		.thumb_func
 826              		.fpu fpv4-sp-d16
 828              	HAL_DMA_Abort_IT:
 829              	.LVL45:
 830              	.LFB314:
 619:Drivers/STM32L4xx_HAL_Driver/Src/stm32l4xx_hal_dma.c ****   HAL_StatusTypeDef status = HAL_OK;
 831              		.loc 1 619 1 is_stmt 1 view -0
 832              		.cfi_startproc
 833              		@ args = 0, pretend = 0, frame = 0
 834              		@ frame_needed = 0, uses_anonymous_args = 0
 619:Drivers/STM32L4xx_HAL_Driver/Src/stm32l4xx_hal_dma.c ****   HAL_StatusTypeDef status = HAL_OK;
 835              		.loc 1 619 1 is_stmt 0 view .LVU275
 836 0000 08B5     		push	{r3, lr}
 837              	.LCFI13:
 838              		.cfi_def_cfa_offset 8
 839              		.cfi_offset 3, -8
 840              		.cfi_offset 14, -4
 620:Drivers/STM32L4xx_HAL_Driver/Src/stm32l4xx_hal_dma.c **** 
 841              		.loc 1 620 3 is_stmt 1 view .LVU276
 842              	.LVL46:
 622:Drivers/STM32L4xx_HAL_Driver/Src/stm32l4xx_hal_dma.c ****   {
 843              		.loc 1 622 3 view .LVU277
 622:Drivers/STM32L4xx_HAL_Driver/Src/stm32l4xx_hal_dma.c ****   {
 844              		.loc 1 622 32 is_stmt 0 view .LVU278
 845 0002 90F82530 		ldrb	r3, [r0, #37]	@ zero_extendqisi2
 846 0006 DBB2     		uxtb	r3, r3
 622:Drivers/STM32L4xx_HAL_Driver/Src/stm32l4xx_hal_dma.c ****   {
 847              		.loc 1 622 5 view .LVU279
 848 0008 022B     		cmp	r3, #2
 849 000a 03D0     		beq	.L52
 625:Drivers/STM32L4xx_HAL_Driver/Src/stm32l4xx_hal_dma.c **** 
 850              		.loc 1 625 5 is_stmt 1 view .LVU280
 625:Drivers/STM32L4xx_HAL_Driver/Src/stm32l4xx_hal_dma.c **** 
 851              		.loc 1 625 21 is_stmt 0 view .LVU281
 852 000c 0423     		movs	r3, #4
 853 000e C363     		str	r3, [r0, #60]
 627:Drivers/STM32L4xx_HAL_Driver/Src/stm32l4xx_hal_dma.c ****   }
 854              		.loc 1 627 5 is_stmt 1 view .LVU282
 855              	.LVL47:
 627:Drivers/STM32L4xx_HAL_Driver/Src/stm32l4xx_hal_dma.c ****   }
 856              		.loc 1 627 12 is_stmt 0 view .LVU283
 857 0010 0120     		movs	r0, #1
 858              	.LVL48:
 859              	.L53:
 674:Drivers/STM32L4xx_HAL_Driver/Src/stm32l4xx_hal_dma.c **** }
ARM GAS  /tmp/ccaIxFiO.s 			page 40


 860              		.loc 1 674 3 is_stmt 1 view .LVU284
 675:Drivers/STM32L4xx_HAL_Driver/Src/stm32l4xx_hal_dma.c **** 
 861              		.loc 1 675 1 is_stmt 0 view .LVU285
 862 0012 08BD     		pop	{r3, pc}
 863              	.LVL49:
 864              	.L52:
 632:Drivers/STM32L4xx_HAL_Driver/Src/stm32l4xx_hal_dma.c **** 
 865              		.loc 1 632 5 is_stmt 1 view .LVU286
 866 0014 0268     		ldr	r2, [r0]
 867 0016 1368     		ldr	r3, [r2]
 868 0018 23F00E03 		bic	r3, r3, #14
 869 001c 1360     		str	r3, [r2]
 635:Drivers/STM32L4xx_HAL_Driver/Src/stm32l4xx_hal_dma.c **** 
 870              		.loc 1 635 5 view .LVU287
 871 001e 0268     		ldr	r2, [r0]
 872 0020 1368     		ldr	r3, [r2]
 873 0022 23F00103 		bic	r3, r3, #1
 874 0026 1360     		str	r3, [r2]
 659:Drivers/STM32L4xx_HAL_Driver/Src/stm32l4xx_hal_dma.c **** #endif /* DMAMUX1 */
 875              		.loc 1 659 5 view .LVU288
 659:Drivers/STM32L4xx_HAL_Driver/Src/stm32l4xx_hal_dma.c **** #endif /* DMAMUX1 */
 876              		.loc 1 659 56 is_stmt 0 view .LVU289
 877 0028 436C     		ldr	r3, [r0, #68]
 659:Drivers/STM32L4xx_HAL_Driver/Src/stm32l4xx_hal_dma.c **** #endif /* DMAMUX1 */
 878              		.loc 1 659 71 view .LVU290
 879 002a 03F01C03 		and	r3, r3, #28
 659:Drivers/STM32L4xx_HAL_Driver/Src/stm32l4xx_hal_dma.c **** #endif /* DMAMUX1 */
 880              		.loc 1 659 9 view .LVU291
 881 002e 016C     		ldr	r1, [r0, #64]
 659:Drivers/STM32L4xx_HAL_Driver/Src/stm32l4xx_hal_dma.c **** #endif /* DMAMUX1 */
 882              		.loc 1 659 48 view .LVU292
 883 0030 0122     		movs	r2, #1
 884 0032 02FA03F3 		lsl	r3, r2, r3
 659:Drivers/STM32L4xx_HAL_Driver/Src/stm32l4xx_hal_dma.c **** #endif /* DMAMUX1 */
 885              		.loc 1 659 32 view .LVU293
 886 0036 4B60     		str	r3, [r1, #4]
 663:Drivers/STM32L4xx_HAL_Driver/Src/stm32l4xx_hal_dma.c **** 
 887              		.loc 1 663 5 is_stmt 1 view .LVU294
 663:Drivers/STM32L4xx_HAL_Driver/Src/stm32l4xx_hal_dma.c **** 
 888              		.loc 1 663 17 is_stmt 0 view .LVU295
 889 0038 80F82520 		strb	r2, [r0, #37]
 666:Drivers/STM32L4xx_HAL_Driver/Src/stm32l4xx_hal_dma.c **** 
 890              		.loc 1 666 5 is_stmt 1 view .LVU296
 666:Drivers/STM32L4xx_HAL_Driver/Src/stm32l4xx_hal_dma.c **** 
 891              		.loc 1 666 5 view .LVU297
 892 003c 0023     		movs	r3, #0
 893 003e 80F82430 		strb	r3, [r0, #36]
 666:Drivers/STM32L4xx_HAL_Driver/Src/stm32l4xx_hal_dma.c **** 
 894              		.loc 1 666 5 view .LVU298
 669:Drivers/STM32L4xx_HAL_Driver/Src/stm32l4xx_hal_dma.c ****     {
 895              		.loc 1 669 5 view .LVU299
 669:Drivers/STM32L4xx_HAL_Driver/Src/stm32l4xx_hal_dma.c ****     {
 896              		.loc 1 669 12 is_stmt 0 view .LVU300
 897 0042 836B     		ldr	r3, [r0, #56]
 669:Drivers/STM32L4xx_HAL_Driver/Src/stm32l4xx_hal_dma.c ****     {
 898              		.loc 1 669 7 view .LVU301
 899 0044 13B1     		cbz	r3, .L54
ARM GAS  /tmp/ccaIxFiO.s 			page 41


 671:Drivers/STM32L4xx_HAL_Driver/Src/stm32l4xx_hal_dma.c ****     }
 900              		.loc 1 671 7 is_stmt 1 view .LVU302
 901 0046 9847     		blx	r3
 902              	.LVL50:
 620:Drivers/STM32L4xx_HAL_Driver/Src/stm32l4xx_hal_dma.c **** 
 903              		.loc 1 620 21 is_stmt 0 view .LVU303
 904 0048 0020     		movs	r0, #0
 905 004a E2E7     		b	.L53
 906              	.LVL51:
 907              	.L54:
 620:Drivers/STM32L4xx_HAL_Driver/Src/stm32l4xx_hal_dma.c **** 
 908              		.loc 1 620 21 view .LVU304
 909 004c 0020     		movs	r0, #0
 910              	.LVL52:
 620:Drivers/STM32L4xx_HAL_Driver/Src/stm32l4xx_hal_dma.c **** 
 911              		.loc 1 620 21 view .LVU305
 912 004e E0E7     		b	.L53
 913              		.cfi_endproc
 914              	.LFE314:
 916              		.section	.text.HAL_DMA_PollForTransfer,"ax",%progbits
 917              		.align	1
 918              		.global	HAL_DMA_PollForTransfer
 919              		.syntax unified
 920              		.thumb
 921              		.thumb_func
 922              		.fpu fpv4-sp-d16
 924              	HAL_DMA_PollForTransfer:
 925              	.LVL53:
 926              	.LFB315:
 686:Drivers/STM32L4xx_HAL_Driver/Src/stm32l4xx_hal_dma.c ****   uint32_t temp;
 927              		.loc 1 686 1 is_stmt 1 view -0
 928              		.cfi_startproc
 929              		@ args = 0, pretend = 0, frame = 0
 930              		@ frame_needed = 0, uses_anonymous_args = 0
 686:Drivers/STM32L4xx_HAL_Driver/Src/stm32l4xx_hal_dma.c ****   uint32_t temp;
 931              		.loc 1 686 1 is_stmt 0 view .LVU307
 932 0000 2DE9F843 		push	{r3, r4, r5, r6, r7, r8, r9, lr}
 933              	.LCFI14:
 934              		.cfi_def_cfa_offset 32
 935              		.cfi_offset 3, -32
 936              		.cfi_offset 4, -28
 937              		.cfi_offset 5, -24
 938              		.cfi_offset 6, -20
 939              		.cfi_offset 7, -16
 940              		.cfi_offset 8, -12
 941              		.cfi_offset 9, -8
 942              		.cfi_offset 14, -4
 943 0004 0546     		mov	r5, r0
 687:Drivers/STM32L4xx_HAL_Driver/Src/stm32l4xx_hal_dma.c ****   uint32_t tickstart;
 944              		.loc 1 687 3 is_stmt 1 view .LVU308
 688:Drivers/STM32L4xx_HAL_Driver/Src/stm32l4xx_hal_dma.c **** 
 945              		.loc 1 688 3 view .LVU309
 690:Drivers/STM32L4xx_HAL_Driver/Src/stm32l4xx_hal_dma.c ****   {
 946              		.loc 1 690 3 view .LVU310
 690:Drivers/STM32L4xx_HAL_Driver/Src/stm32l4xx_hal_dma.c ****   {
 947              		.loc 1 690 32 is_stmt 0 view .LVU311
 948 0006 90F82530 		ldrb	r3, [r0, #37]	@ zero_extendqisi2
ARM GAS  /tmp/ccaIxFiO.s 			page 42


 949 000a DBB2     		uxtb	r3, r3
 690:Drivers/STM32L4xx_HAL_Driver/Src/stm32l4xx_hal_dma.c ****   {
 950              		.loc 1 690 5 view .LVU312
 951 000c 022B     		cmp	r3, #2
 952 000e 07D0     		beq	.L57
 693:Drivers/STM32L4xx_HAL_Driver/Src/stm32l4xx_hal_dma.c ****     __HAL_UNLOCK(hdma);
 953              		.loc 1 693 5 is_stmt 1 view .LVU313
 693:Drivers/STM32L4xx_HAL_Driver/Src/stm32l4xx_hal_dma.c ****     __HAL_UNLOCK(hdma);
 954              		.loc 1 693 21 is_stmt 0 view .LVU314
 955 0010 0423     		movs	r3, #4
 956 0012 C363     		str	r3, [r0, #60]
 694:Drivers/STM32L4xx_HAL_Driver/Src/stm32l4xx_hal_dma.c ****     return HAL_ERROR;
 957              		.loc 1 694 5 is_stmt 1 view .LVU315
 694:Drivers/STM32L4xx_HAL_Driver/Src/stm32l4xx_hal_dma.c ****     return HAL_ERROR;
 958              		.loc 1 694 5 view .LVU316
 959 0014 0023     		movs	r3, #0
 960 0016 80F82430 		strb	r3, [r0, #36]
 694:Drivers/STM32L4xx_HAL_Driver/Src/stm32l4xx_hal_dma.c ****     return HAL_ERROR;
 961              		.loc 1 694 5 view .LVU317
 695:Drivers/STM32L4xx_HAL_Driver/Src/stm32l4xx_hal_dma.c ****   }
 962              		.loc 1 695 5 view .LVU318
 695:Drivers/STM32L4xx_HAL_Driver/Src/stm32l4xx_hal_dma.c ****   }
 963              		.loc 1 695 12 is_stmt 0 view .LVU319
 964 001a 0120     		movs	r0, #1
 965              	.LVL54:
 966              	.L58:
 807:Drivers/STM32L4xx_HAL_Driver/Src/stm32l4xx_hal_dma.c **** 
 967              		.loc 1 807 1 view .LVU320
 968 001c BDE8F883 		pop	{r3, r4, r5, r6, r7, r8, r9, pc}
 969              	.LVL55:
 970              	.L57:
 807:Drivers/STM32L4xx_HAL_Driver/Src/stm32l4xx_hal_dma.c **** 
 971              		.loc 1 807 1 view .LVU321
 972 0020 8846     		mov	r8, r1
 973 0022 1646     		mov	r6, r2
 699:Drivers/STM32L4xx_HAL_Driver/Src/stm32l4xx_hal_dma.c ****   {
 974              		.loc 1 699 3 is_stmt 1 view .LVU322
 699:Drivers/STM32L4xx_HAL_Driver/Src/stm32l4xx_hal_dma.c ****   {
 975              		.loc 1 699 18 is_stmt 0 view .LVU323
 976 0024 0368     		ldr	r3, [r0]
 699:Drivers/STM32L4xx_HAL_Driver/Src/stm32l4xx_hal_dma.c ****   {
 977              		.loc 1 699 28 view .LVU324
 978 0026 1B68     		ldr	r3, [r3]
 699:Drivers/STM32L4xx_HAL_Driver/Src/stm32l4xx_hal_dma.c ****   {
 979              		.loc 1 699 6 view .LVU325
 980 0028 13F0200F 		tst	r3, #32
 981 002c 29D1     		bne	.L70
 706:Drivers/STM32L4xx_HAL_Driver/Src/stm32l4xx_hal_dma.c ****   {
 982              		.loc 1 706 3 is_stmt 1 view .LVU326
 706:Drivers/STM32L4xx_HAL_Driver/Src/stm32l4xx_hal_dma.c ****   {
 983              		.loc 1 706 6 is_stmt 0 view .LVU327
 984 002e 69BB     		cbnz	r1, .L60
 709:Drivers/STM32L4xx_HAL_Driver/Src/stm32l4xx_hal_dma.c ****   }
 985              		.loc 1 709 5 is_stmt 1 view .LVU328
 709:Drivers/STM32L4xx_HAL_Driver/Src/stm32l4xx_hal_dma.c ****   }
 986              		.loc 1 709 33 is_stmt 0 view .LVU329
 987 0030 476C     		ldr	r7, [r0, #68]
ARM GAS  /tmp/ccaIxFiO.s 			page 43


 709:Drivers/STM32L4xx_HAL_Driver/Src/stm32l4xx_hal_dma.c ****   }
 988              		.loc 1 709 48 view .LVU330
 989 0032 07F01C07 		and	r7, r7, #28
 709:Drivers/STM32L4xx_HAL_Driver/Src/stm32l4xx_hal_dma.c ****   }
 990              		.loc 1 709 10 view .LVU331
 991 0036 0223     		movs	r3, #2
 992 0038 03FA07F7 		lsl	r7, r3, r7
 993              	.LVL56:
 994              	.L61:
 718:Drivers/STM32L4xx_HAL_Driver/Src/stm32l4xx_hal_dma.c **** 
 995              		.loc 1 718 3 is_stmt 1 view .LVU332
 718:Drivers/STM32L4xx_HAL_Driver/Src/stm32l4xx_hal_dma.c **** 
 996              		.loc 1 718 15 is_stmt 0 view .LVU333
 997 003c FFF7FEFF 		bl	HAL_GetTick
 998              	.LVL57:
 718:Drivers/STM32L4xx_HAL_Driver/Src/stm32l4xx_hal_dma.c **** 
 999              		.loc 1 718 15 view .LVU334
 1000 0040 8146     		mov	r9, r0
 1001              	.LVL58:
 720:Drivers/STM32L4xx_HAL_Driver/Src/stm32l4xx_hal_dma.c ****   {
 1002              		.loc 1 720 3 is_stmt 1 view .LVU335
 1003              	.L64:
 720:Drivers/STM32L4xx_HAL_Driver/Src/stm32l4xx_hal_dma.c ****   {
 1004              		.loc 1 720 8 view .LVU336
 720:Drivers/STM32L4xx_HAL_Driver/Src/stm32l4xx_hal_dma.c ****   {
 1005              		.loc 1 720 20 is_stmt 0 view .LVU337
 1006 0042 2A6C     		ldr	r2, [r5, #64]
 720:Drivers/STM32L4xx_HAL_Driver/Src/stm32l4xx_hal_dma.c ****   {
 1007              		.loc 1 720 36 view .LVU338
 1008 0044 1368     		ldr	r3, [r2]
 720:Drivers/STM32L4xx_HAL_Driver/Src/stm32l4xx_hal_dma.c ****   {
 1009              		.loc 1 720 8 view .LVU339
 1010 0046 3B42     		tst	r3, r7
 1011 0048 32D1     		bne	.L71
 722:Drivers/STM32L4xx_HAL_Driver/Src/stm32l4xx_hal_dma.c ****     {
 1012              		.loc 1 722 5 is_stmt 1 view .LVU340
 722:Drivers/STM32L4xx_HAL_Driver/Src/stm32l4xx_hal_dma.c ****     {
 1013              		.loc 1 722 36 is_stmt 0 view .LVU341
 1014 004a 1168     		ldr	r1, [r2]
 722:Drivers/STM32L4xx_HAL_Driver/Src/stm32l4xx_hal_dma.c ****     {
 1015              		.loc 1 722 66 view .LVU342
 1016 004c 6B6C     		ldr	r3, [r5, #68]
 722:Drivers/STM32L4xx_HAL_Driver/Src/stm32l4xx_hal_dma.c ****     {
 1017              		.loc 1 722 80 view .LVU343
 1018 004e 03F01C03 		and	r3, r3, #28
 722:Drivers/STM32L4xx_HAL_Driver/Src/stm32l4xx_hal_dma.c ****     {
 1019              		.loc 1 722 58 view .LVU344
 1020 0052 0824     		movs	r4, #8
 1021 0054 9C40     		lsls	r4, r4, r3
 722:Drivers/STM32L4xx_HAL_Driver/Src/stm32l4xx_hal_dma.c ****     {
 1022              		.loc 1 722 7 view .LVU345
 1023 0056 2142     		tst	r1, r4
 1024 0058 1FD1     		bne	.L72
 741:Drivers/STM32L4xx_HAL_Driver/Src/stm32l4xx_hal_dma.c ****     {
 1025              		.loc 1 741 5 is_stmt 1 view .LVU346
 741:Drivers/STM32L4xx_HAL_Driver/Src/stm32l4xx_hal_dma.c ****     {
 1026              		.loc 1 741 7 is_stmt 0 view .LVU347
ARM GAS  /tmp/ccaIxFiO.s 			page 44


 1027 005a B6F1FF3F 		cmp	r6, #-1
 1028 005e F0D0     		beq	.L64
 743:Drivers/STM32L4xx_HAL_Driver/Src/stm32l4xx_hal_dma.c ****       {
 1029              		.loc 1 743 7 is_stmt 1 view .LVU348
 743:Drivers/STM32L4xx_HAL_Driver/Src/stm32l4xx_hal_dma.c ****       {
 1030              		.loc 1 743 12 is_stmt 0 view .LVU349
 1031 0060 FFF7FEFF 		bl	HAL_GetTick
 1032              	.LVL59:
 743:Drivers/STM32L4xx_HAL_Driver/Src/stm32l4xx_hal_dma.c ****       {
 1033              		.loc 1 743 26 view .LVU350
 1034 0064 A0EB0900 		sub	r0, r0, r9
 743:Drivers/STM32L4xx_HAL_Driver/Src/stm32l4xx_hal_dma.c ****       {
 1035              		.loc 1 743 9 view .LVU351
 1036 0068 B042     		cmp	r0, r6
 1037 006a 01D8     		bhi	.L65
 743:Drivers/STM32L4xx_HAL_Driver/Src/stm32l4xx_hal_dma.c ****       {
 1038              		.loc 1 743 50 discriminator 1 view .LVU352
 1039 006c 002E     		cmp	r6, #0
 1040 006e E8D1     		bne	.L64
 1041              	.L65:
 746:Drivers/STM32L4xx_HAL_Driver/Src/stm32l4xx_hal_dma.c **** 
 1042              		.loc 1 746 9 is_stmt 1 view .LVU353
 746:Drivers/STM32L4xx_HAL_Driver/Src/stm32l4xx_hal_dma.c **** 
 1043              		.loc 1 746 25 is_stmt 0 view .LVU354
 1044 0070 2023     		movs	r3, #32
 1045 0072 EB63     		str	r3, [r5, #60]
 749:Drivers/STM32L4xx_HAL_Driver/Src/stm32l4xx_hal_dma.c **** 
 1046              		.loc 1 749 9 is_stmt 1 view .LVU355
 749:Drivers/STM32L4xx_HAL_Driver/Src/stm32l4xx_hal_dma.c **** 
 1047              		.loc 1 749 21 is_stmt 0 view .LVU356
 1048 0074 0120     		movs	r0, #1
 1049 0076 85F82500 		strb	r0, [r5, #37]
 752:Drivers/STM32L4xx_HAL_Driver/Src/stm32l4xx_hal_dma.c **** 
 1050              		.loc 1 752 9 is_stmt 1 view .LVU357
 752:Drivers/STM32L4xx_HAL_Driver/Src/stm32l4xx_hal_dma.c **** 
 1051              		.loc 1 752 9 view .LVU358
 1052 007a 0023     		movs	r3, #0
 1053 007c 85F82430 		strb	r3, [r5, #36]
 752:Drivers/STM32L4xx_HAL_Driver/Src/stm32l4xx_hal_dma.c **** 
 1054              		.loc 1 752 9 view .LVU359
 754:Drivers/STM32L4xx_HAL_Driver/Src/stm32l4xx_hal_dma.c ****       }
 1055              		.loc 1 754 9 view .LVU360
 754:Drivers/STM32L4xx_HAL_Driver/Src/stm32l4xx_hal_dma.c ****       }
 1056              		.loc 1 754 16 is_stmt 0 view .LVU361
 1057 0080 CCE7     		b	.L58
 1058              	.LVL60:
 1059              	.L70:
 701:Drivers/STM32L4xx_HAL_Driver/Src/stm32l4xx_hal_dma.c ****     return HAL_ERROR;
 1060              		.loc 1 701 5 is_stmt 1 view .LVU362
 701:Drivers/STM32L4xx_HAL_Driver/Src/stm32l4xx_hal_dma.c ****     return HAL_ERROR;
 1061              		.loc 1 701 21 is_stmt 0 view .LVU363
 1062 0082 4FF48073 		mov	r3, #256
 1063 0086 C363     		str	r3, [r0, #60]
 702:Drivers/STM32L4xx_HAL_Driver/Src/stm32l4xx_hal_dma.c ****   }
 1064              		.loc 1 702 5 is_stmt 1 view .LVU364
 702:Drivers/STM32L4xx_HAL_Driver/Src/stm32l4xx_hal_dma.c ****   }
 1065              		.loc 1 702 12 is_stmt 0 view .LVU365
ARM GAS  /tmp/ccaIxFiO.s 			page 45


 1066 0088 0120     		movs	r0, #1
 1067              	.LVL61:
 702:Drivers/STM32L4xx_HAL_Driver/Src/stm32l4xx_hal_dma.c ****   }
 1068              		.loc 1 702 12 view .LVU366
 1069 008a C7E7     		b	.L58
 1070              	.LVL62:
 1071              	.L60:
 714:Drivers/STM32L4xx_HAL_Driver/Src/stm32l4xx_hal_dma.c ****   }
 1072              		.loc 1 714 5 is_stmt 1 view .LVU367
 714:Drivers/STM32L4xx_HAL_Driver/Src/stm32l4xx_hal_dma.c ****   }
 1073              		.loc 1 714 33 is_stmt 0 view .LVU368
 1074 008c 476C     		ldr	r7, [r0, #68]
 714:Drivers/STM32L4xx_HAL_Driver/Src/stm32l4xx_hal_dma.c ****   }
 1075              		.loc 1 714 48 view .LVU369
 1076 008e 07F01C07 		and	r7, r7, #28
 714:Drivers/STM32L4xx_HAL_Driver/Src/stm32l4xx_hal_dma.c ****   }
 1077              		.loc 1 714 10 view .LVU370
 1078 0092 0423     		movs	r3, #4
 1079 0094 03FA07F7 		lsl	r7, r3, r7
 1080              	.LVL63:
 714:Drivers/STM32L4xx_HAL_Driver/Src/stm32l4xx_hal_dma.c ****   }
 1081              		.loc 1 714 10 view .LVU371
 1082 0098 D0E7     		b	.L61
 1083              	.LVL64:
 1084              	.L72:
 727:Drivers/STM32L4xx_HAL_Driver/Src/stm32l4xx_hal_dma.c **** 
 1085              		.loc 1 727 7 is_stmt 1 view .LVU372
 727:Drivers/STM32L4xx_HAL_Driver/Src/stm32l4xx_hal_dma.c **** 
 1086              		.loc 1 727 50 is_stmt 0 view .LVU373
 1087 009a 0120     		movs	r0, #1
 1088 009c 00FA03F3 		lsl	r3, r0, r3
 727:Drivers/STM32L4xx_HAL_Driver/Src/stm32l4xx_hal_dma.c **** 
 1089              		.loc 1 727 34 view .LVU374
 1090 00a0 5360     		str	r3, [r2, #4]
 730:Drivers/STM32L4xx_HAL_Driver/Src/stm32l4xx_hal_dma.c **** 
 1091              		.loc 1 730 7 is_stmt 1 view .LVU375
 730:Drivers/STM32L4xx_HAL_Driver/Src/stm32l4xx_hal_dma.c **** 
 1092              		.loc 1 730 23 is_stmt 0 view .LVU376
 1093 00a2 E863     		str	r0, [r5, #60]
 733:Drivers/STM32L4xx_HAL_Driver/Src/stm32l4xx_hal_dma.c **** 
 1094              		.loc 1 733 7 is_stmt 1 view .LVU377
 733:Drivers/STM32L4xx_HAL_Driver/Src/stm32l4xx_hal_dma.c **** 
 1095              		.loc 1 733 18 is_stmt 0 view .LVU378
 1096 00a4 85F82500 		strb	r0, [r5, #37]
 736:Drivers/STM32L4xx_HAL_Driver/Src/stm32l4xx_hal_dma.c **** 
 1097              		.loc 1 736 7 is_stmt 1 view .LVU379
 736:Drivers/STM32L4xx_HAL_Driver/Src/stm32l4xx_hal_dma.c **** 
 1098              		.loc 1 736 7 view .LVU380
 1099 00a8 0023     		movs	r3, #0
 1100 00aa 85F82430 		strb	r3, [r5, #36]
 736:Drivers/STM32L4xx_HAL_Driver/Src/stm32l4xx_hal_dma.c **** 
 1101              		.loc 1 736 7 view .LVU381
 738:Drivers/STM32L4xx_HAL_Driver/Src/stm32l4xx_hal_dma.c ****     }
 1102              		.loc 1 738 7 view .LVU382
 738:Drivers/STM32L4xx_HAL_Driver/Src/stm32l4xx_hal_dma.c ****     }
 1103              		.loc 1 738 14 is_stmt 0 view .LVU383
 1104 00ae B5E7     		b	.L58
ARM GAS  /tmp/ccaIxFiO.s 			page 46


 1105              	.L71:
 788:Drivers/STM32L4xx_HAL_Driver/Src/stm32l4xx_hal_dma.c ****   {
 1106              		.loc 1 788 3 is_stmt 1 view .LVU384
 788:Drivers/STM32L4xx_HAL_Driver/Src/stm32l4xx_hal_dma.c ****   {
 1107              		.loc 1 788 5 is_stmt 0 view .LVU385
 1108 00b0 B8F1000F 		cmp	r8, #0
 1109 00b4 0CD1     		bne	.L67
 791:Drivers/STM32L4xx_HAL_Driver/Src/stm32l4xx_hal_dma.c **** 
 1110              		.loc 1 791 5 is_stmt 1 view .LVU386
 791:Drivers/STM32L4xx_HAL_Driver/Src/stm32l4xx_hal_dma.c **** 
 1111              		.loc 1 791 56 is_stmt 0 view .LVU387
 1112 00b6 6B6C     		ldr	r3, [r5, #68]
 791:Drivers/STM32L4xx_HAL_Driver/Src/stm32l4xx_hal_dma.c **** 
 1113              		.loc 1 791 70 view .LVU388
 1114 00b8 03F01C01 		and	r1, r3, #28
 791:Drivers/STM32L4xx_HAL_Driver/Src/stm32l4xx_hal_dma.c **** 
 1115              		.loc 1 791 48 view .LVU389
 1116 00bc 0223     		movs	r3, #2
 1117 00be 8B40     		lsls	r3, r3, r1
 791:Drivers/STM32L4xx_HAL_Driver/Src/stm32l4xx_hal_dma.c **** 
 1118              		.loc 1 791 32 view .LVU390
 1119 00c0 5360     		str	r3, [r2, #4]
 795:Drivers/STM32L4xx_HAL_Driver/Src/stm32l4xx_hal_dma.c ****   }
 1120              		.loc 1 795 5 is_stmt 1 view .LVU391
 795:Drivers/STM32L4xx_HAL_Driver/Src/stm32l4xx_hal_dma.c ****   }
 1121              		.loc 1 795 17 is_stmt 0 view .LVU392
 1122 00c2 0123     		movs	r3, #1
 1123 00c4 85F82530 		strb	r3, [r5, #37]
 1124              	.L68:
 804:Drivers/STM32L4xx_HAL_Driver/Src/stm32l4xx_hal_dma.c **** 
 1125              		.loc 1 804 3 is_stmt 1 view .LVU393
 804:Drivers/STM32L4xx_HAL_Driver/Src/stm32l4xx_hal_dma.c **** 
 1126              		.loc 1 804 3 view .LVU394
 1127 00c8 0020     		movs	r0, #0
 1128 00ca 85F82400 		strb	r0, [r5, #36]
 804:Drivers/STM32L4xx_HAL_Driver/Src/stm32l4xx_hal_dma.c **** 
 1129              		.loc 1 804 3 view .LVU395
 806:Drivers/STM32L4xx_HAL_Driver/Src/stm32l4xx_hal_dma.c **** }
 1130              		.loc 1 806 3 view .LVU396
 806:Drivers/STM32L4xx_HAL_Driver/Src/stm32l4xx_hal_dma.c **** }
 1131              		.loc 1 806 10 is_stmt 0 view .LVU397
 1132 00ce A5E7     		b	.L58
 1133              	.L67:
 800:Drivers/STM32L4xx_HAL_Driver/Src/stm32l4xx_hal_dma.c ****   }
 1134              		.loc 1 800 5 is_stmt 1 view .LVU398
 800:Drivers/STM32L4xx_HAL_Driver/Src/stm32l4xx_hal_dma.c ****   }
 1135              		.loc 1 800 56 is_stmt 0 view .LVU399
 1136 00d0 6B6C     		ldr	r3, [r5, #68]
 800:Drivers/STM32L4xx_HAL_Driver/Src/stm32l4xx_hal_dma.c ****   }
 1137              		.loc 1 800 71 view .LVU400
 1138 00d2 03F01C01 		and	r1, r3, #28
 800:Drivers/STM32L4xx_HAL_Driver/Src/stm32l4xx_hal_dma.c ****   }
 1139              		.loc 1 800 48 view .LVU401
 1140 00d6 0423     		movs	r3, #4
 1141 00d8 8B40     		lsls	r3, r3, r1
 800:Drivers/STM32L4xx_HAL_Driver/Src/stm32l4xx_hal_dma.c ****   }
 1142              		.loc 1 800 32 view .LVU402
ARM GAS  /tmp/ccaIxFiO.s 			page 47


 1143 00da 5360     		str	r3, [r2, #4]
 1144 00dc F4E7     		b	.L68
 1145              		.cfi_endproc
 1146              	.LFE315:
 1148              		.section	.text.HAL_DMA_IRQHandler,"ax",%progbits
 1149              		.align	1
 1150              		.global	HAL_DMA_IRQHandler
 1151              		.syntax unified
 1152              		.thumb
 1153              		.thumb_func
 1154              		.fpu fpv4-sp-d16
 1156              	HAL_DMA_IRQHandler:
 1157              	.LVL65:
 1158              	.LFB316:
 816:Drivers/STM32L4xx_HAL_Driver/Src/stm32l4xx_hal_dma.c ****   uint32_t flag_it = hdma->DmaBaseAddress->ISR;
 1159              		.loc 1 816 1 is_stmt 1 view -0
 1160              		.cfi_startproc
 1161              		@ args = 0, pretend = 0, frame = 0
 1162              		@ frame_needed = 0, uses_anonymous_args = 0
 816:Drivers/STM32L4xx_HAL_Driver/Src/stm32l4xx_hal_dma.c ****   uint32_t flag_it = hdma->DmaBaseAddress->ISR;
 1163              		.loc 1 816 1 is_stmt 0 view .LVU404
 1164 0000 38B5     		push	{r3, r4, r5, lr}
 1165              	.LCFI15:
 1166              		.cfi_def_cfa_offset 16
 1167              		.cfi_offset 3, -16
 1168              		.cfi_offset 4, -12
 1169              		.cfi_offset 5, -8
 1170              		.cfi_offset 14, -4
 817:Drivers/STM32L4xx_HAL_Driver/Src/stm32l4xx_hal_dma.c ****   uint32_t source_it = hdma->Instance->CCR;
 1171              		.loc 1 817 3 is_stmt 1 view .LVU405
 817:Drivers/STM32L4xx_HAL_Driver/Src/stm32l4xx_hal_dma.c ****   uint32_t source_it = hdma->Instance->CCR;
 1172              		.loc 1 817 26 is_stmt 0 view .LVU406
 1173 0002 036C     		ldr	r3, [r0, #64]
 817:Drivers/STM32L4xx_HAL_Driver/Src/stm32l4xx_hal_dma.c ****   uint32_t source_it = hdma->Instance->CCR;
 1174              		.loc 1 817 12 view .LVU407
 1175 0004 1968     		ldr	r1, [r3]
 1176              	.LVL66:
 818:Drivers/STM32L4xx_HAL_Driver/Src/stm32l4xx_hal_dma.c **** 
 1177              		.loc 1 818 3 is_stmt 1 view .LVU408
 818:Drivers/STM32L4xx_HAL_Driver/Src/stm32l4xx_hal_dma.c **** 
 1178              		.loc 1 818 28 is_stmt 0 view .LVU409
 1179 0006 0468     		ldr	r4, [r0]
 818:Drivers/STM32L4xx_HAL_Driver/Src/stm32l4xx_hal_dma.c **** 
 1180              		.loc 1 818 12 view .LVU410
 1181 0008 2568     		ldr	r5, [r4]
 1182              	.LVL67:
 821:Drivers/STM32L4xx_HAL_Driver/Src/stm32l4xx_hal_dma.c ****   {
 1183              		.loc 1 821 3 is_stmt 1 view .LVU411
 821:Drivers/STM32L4xx_HAL_Driver/Src/stm32l4xx_hal_dma.c ****   {
 1184              		.loc 1 821 47 is_stmt 0 view .LVU412
 1185 000a 436C     		ldr	r3, [r0, #68]
 821:Drivers/STM32L4xx_HAL_Driver/Src/stm32l4xx_hal_dma.c ****   {
 1186              		.loc 1 821 62 view .LVU413
 1187 000c 03F01C03 		and	r3, r3, #28
 821:Drivers/STM32L4xx_HAL_Driver/Src/stm32l4xx_hal_dma.c ****   {
 1188              		.loc 1 821 39 view .LVU414
 1189 0010 0422     		movs	r2, #4
ARM GAS  /tmp/ccaIxFiO.s 			page 48


 1190 0012 9A40     		lsls	r2, r2, r3
 821:Drivers/STM32L4xx_HAL_Driver/Src/stm32l4xx_hal_dma.c ****   {
 1191              		.loc 1 821 6 view .LVU415
 1192 0014 0A42     		tst	r2, r1
 1193 0016 15D0     		beq	.L74
 821:Drivers/STM32L4xx_HAL_Driver/Src/stm32l4xx_hal_dma.c ****   {
 1194              		.loc 1 821 74 discriminator 1 view .LVU416
 1195 0018 15F0040F 		tst	r5, #4
 1196 001c 12D0     		beq	.L74
 824:Drivers/STM32L4xx_HAL_Driver/Src/stm32l4xx_hal_dma.c ****       {
 1197              		.loc 1 824 7 is_stmt 1 view .LVU417
 824:Drivers/STM32L4xx_HAL_Driver/Src/stm32l4xx_hal_dma.c ****       {
 1198              		.loc 1 824 25 is_stmt 0 view .LVU418
 1199 001e 2368     		ldr	r3, [r4]
 824:Drivers/STM32L4xx_HAL_Driver/Src/stm32l4xx_hal_dma.c ****       {
 1200              		.loc 1 824 9 view .LVU419
 1201 0020 13F0200F 		tst	r3, #32
 1202 0024 03D1     		bne	.L75
 827:Drivers/STM32L4xx_HAL_Driver/Src/stm32l4xx_hal_dma.c ****       }
 1203              		.loc 1 827 9 is_stmt 1 view .LVU420
 1204 0026 2368     		ldr	r3, [r4]
 1205 0028 23F00403 		bic	r3, r3, #4
 1206 002c 2360     		str	r3, [r4]
 1207              	.L75:
 830:Drivers/STM32L4xx_HAL_Driver/Src/stm32l4xx_hal_dma.c **** 
 1208              		.loc 1 830 7 view .LVU421
 830:Drivers/STM32L4xx_HAL_Driver/Src/stm32l4xx_hal_dma.c **** 
 1209              		.loc 1 830 58 is_stmt 0 view .LVU422
 1210 002e 436C     		ldr	r3, [r0, #68]
 830:Drivers/STM32L4xx_HAL_Driver/Src/stm32l4xx_hal_dma.c **** 
 1211              		.loc 1 830 73 view .LVU423
 1212 0030 03F01C02 		and	r2, r3, #28
 830:Drivers/STM32L4xx_HAL_Driver/Src/stm32l4xx_hal_dma.c **** 
 1213              		.loc 1 830 11 view .LVU424
 1214 0034 016C     		ldr	r1, [r0, #64]
 1215              	.LVL68:
 830:Drivers/STM32L4xx_HAL_Driver/Src/stm32l4xx_hal_dma.c **** 
 1216              		.loc 1 830 50 view .LVU425
 1217 0036 0423     		movs	r3, #4
 1218 0038 9340     		lsls	r3, r3, r2
 830:Drivers/STM32L4xx_HAL_Driver/Src/stm32l4xx_hal_dma.c **** 
 1219              		.loc 1 830 34 view .LVU426
 1220 003a 4B60     		str	r3, [r1, #4]
 835:Drivers/STM32L4xx_HAL_Driver/Src/stm32l4xx_hal_dma.c ****       {
 1221              		.loc 1 835 6 is_stmt 1 view .LVU427
 835:Drivers/STM32L4xx_HAL_Driver/Src/stm32l4xx_hal_dma.c ****       {
 1222              		.loc 1 835 13 is_stmt 0 view .LVU428
 1223 003c 036B     		ldr	r3, [r0, #48]
 835:Drivers/STM32L4xx_HAL_Driver/Src/stm32l4xx_hal_dma.c ****       {
 1224              		.loc 1 835 8 view .LVU429
 1225 003e 03B1     		cbz	r3, .L73
 838:Drivers/STM32L4xx_HAL_Driver/Src/stm32l4xx_hal_dma.c ****       }
 1226              		.loc 1 838 9 is_stmt 1 view .LVU430
 1227 0040 9847     		blx	r3
 1228              	.LVL69:
 1229              	.L73:
 897:Drivers/STM32L4xx_HAL_Driver/Src/stm32l4xx_hal_dma.c **** 
ARM GAS  /tmp/ccaIxFiO.s 			page 49


 1230              		.loc 1 897 1 is_stmt 0 view .LVU431
 1231 0042 38BD     		pop	{r3, r4, r5, pc}
 1232              	.LVL70:
 1233              	.L74:
 843:Drivers/STM32L4xx_HAL_Driver/Src/stm32l4xx_hal_dma.c ****   {
 1234              		.loc 1 843 8 is_stmt 1 view .LVU432
 843:Drivers/STM32L4xx_HAL_Driver/Src/stm32l4xx_hal_dma.c ****   {
 1235              		.loc 1 843 44 is_stmt 0 view .LVU433
 1236 0044 0222     		movs	r2, #2
 1237 0046 9A40     		lsls	r2, r2, r3
 843:Drivers/STM32L4xx_HAL_Driver/Src/stm32l4xx_hal_dma.c ****   {
 1238              		.loc 1 843 11 view .LVU434
 1239 0048 0A42     		tst	r2, r1
 1240 004a 1CD0     		beq	.L77
 843:Drivers/STM32L4xx_HAL_Driver/Src/stm32l4xx_hal_dma.c ****   {
 1241              		.loc 1 843 79 discriminator 1 view .LVU435
 1242 004c 15F0020F 		tst	r5, #2
 1243 0050 19D0     		beq	.L77
 845:Drivers/STM32L4xx_HAL_Driver/Src/stm32l4xx_hal_dma.c ****     {
 1244              		.loc 1 845 5 is_stmt 1 view .LVU436
 845:Drivers/STM32L4xx_HAL_Driver/Src/stm32l4xx_hal_dma.c ****     {
 1245              		.loc 1 845 23 is_stmt 0 view .LVU437
 1246 0052 2368     		ldr	r3, [r4]
 845:Drivers/STM32L4xx_HAL_Driver/Src/stm32l4xx_hal_dma.c ****     {
 1247              		.loc 1 845 7 view .LVU438
 1248 0054 13F0200F 		tst	r3, #32
 1249 0058 06D1     		bne	.L78
 848:Drivers/STM32L4xx_HAL_Driver/Src/stm32l4xx_hal_dma.c **** 
 1250              		.loc 1 848 7 is_stmt 1 view .LVU439
 1251 005a 2368     		ldr	r3, [r4]
 1252 005c 23F00A03 		bic	r3, r3, #10
 1253 0060 2360     		str	r3, [r4]
 851:Drivers/STM32L4xx_HAL_Driver/Src/stm32l4xx_hal_dma.c ****     }
 1254              		.loc 1 851 7 view .LVU440
 851:Drivers/STM32L4xx_HAL_Driver/Src/stm32l4xx_hal_dma.c ****     }
 1255              		.loc 1 851 19 is_stmt 0 view .LVU441
 1256 0062 0123     		movs	r3, #1
 1257 0064 80F82530 		strb	r3, [r0, #37]
 1258              	.L78:
 854:Drivers/STM32L4xx_HAL_Driver/Src/stm32l4xx_hal_dma.c **** 
 1259              		.loc 1 854 5 is_stmt 1 view .LVU442
 854:Drivers/STM32L4xx_HAL_Driver/Src/stm32l4xx_hal_dma.c **** 
 1260              		.loc 1 854 57 is_stmt 0 view .LVU443
 1261 0068 436C     		ldr	r3, [r0, #68]
 854:Drivers/STM32L4xx_HAL_Driver/Src/stm32l4xx_hal_dma.c **** 
 1262              		.loc 1 854 72 view .LVU444
 1263 006a 03F01C02 		and	r2, r3, #28
 854:Drivers/STM32L4xx_HAL_Driver/Src/stm32l4xx_hal_dma.c **** 
 1264              		.loc 1 854 9 view .LVU445
 1265 006e 016C     		ldr	r1, [r0, #64]
 1266              	.LVL71:
 854:Drivers/STM32L4xx_HAL_Driver/Src/stm32l4xx_hal_dma.c **** 
 1267              		.loc 1 854 49 view .LVU446
 1268 0070 0223     		movs	r3, #2
 1269 0072 9340     		lsls	r3, r3, r2
 854:Drivers/STM32L4xx_HAL_Driver/Src/stm32l4xx_hal_dma.c **** 
 1270              		.loc 1 854 32 view .LVU447
ARM GAS  /tmp/ccaIxFiO.s 			page 50


 1271 0074 4B60     		str	r3, [r1, #4]
 857:Drivers/STM32L4xx_HAL_Driver/Src/stm32l4xx_hal_dma.c **** 
 1272              		.loc 1 857 5 is_stmt 1 view .LVU448
 857:Drivers/STM32L4xx_HAL_Driver/Src/stm32l4xx_hal_dma.c **** 
 1273              		.loc 1 857 5 view .LVU449
 1274 0076 0023     		movs	r3, #0
 1275 0078 80F82430 		strb	r3, [r0, #36]
 857:Drivers/STM32L4xx_HAL_Driver/Src/stm32l4xx_hal_dma.c **** 
 1276              		.loc 1 857 5 view .LVU450
 859:Drivers/STM32L4xx_HAL_Driver/Src/stm32l4xx_hal_dma.c ****     {
 1277              		.loc 1 859 5 view .LVU451
 859:Drivers/STM32L4xx_HAL_Driver/Src/stm32l4xx_hal_dma.c ****     {
 1278              		.loc 1 859 12 is_stmt 0 view .LVU452
 1279 007c C36A     		ldr	r3, [r0, #44]
 859:Drivers/STM32L4xx_HAL_Driver/Src/stm32l4xx_hal_dma.c ****     {
 1280              		.loc 1 859 7 view .LVU453
 1281 007e 002B     		cmp	r3, #0
 1282 0080 DFD0     		beq	.L73
 862:Drivers/STM32L4xx_HAL_Driver/Src/stm32l4xx_hal_dma.c ****     }
 1283              		.loc 1 862 7 is_stmt 1 view .LVU454
 1284 0082 9847     		blx	r3
 1285              	.LVL72:
 862:Drivers/STM32L4xx_HAL_Driver/Src/stm32l4xx_hal_dma.c ****     }
 1286              		.loc 1 862 7 is_stmt 0 view .LVU455
 1287 0084 DDE7     		b	.L73
 1288              	.LVL73:
 1289              	.L77:
 867:Drivers/STM32L4xx_HAL_Driver/Src/stm32l4xx_hal_dma.c ****   {
 1290              		.loc 1 867 8 is_stmt 1 view .LVU456
 867:Drivers/STM32L4xx_HAL_Driver/Src/stm32l4xx_hal_dma.c ****   {
 1291              		.loc 1 867 44 is_stmt 0 view .LVU457
 1292 0086 0822     		movs	r2, #8
 1293 0088 02FA03F3 		lsl	r3, r2, r3
 867:Drivers/STM32L4xx_HAL_Driver/Src/stm32l4xx_hal_dma.c ****   {
 1294              		.loc 1 867 11 view .LVU458
 1295 008c 0B42     		tst	r3, r1
 1296 008e D8D0     		beq	.L73
 867:Drivers/STM32L4xx_HAL_Driver/Src/stm32l4xx_hal_dma.c ****   {
 1297              		.loc 1 867 79 discriminator 1 view .LVU459
 1298 0090 15F0080F 		tst	r5, #8
 1299 0094 D5D0     		beq	.L73
 872:Drivers/STM32L4xx_HAL_Driver/Src/stm32l4xx_hal_dma.c **** 
 1300              		.loc 1 872 5 is_stmt 1 view .LVU460
 1301 0096 2368     		ldr	r3, [r4]
 1302 0098 23F00E03 		bic	r3, r3, #14
 1303 009c 2360     		str	r3, [r4]
 875:Drivers/STM32L4xx_HAL_Driver/Src/stm32l4xx_hal_dma.c **** 
 1304              		.loc 1 875 5 view .LVU461
 875:Drivers/STM32L4xx_HAL_Driver/Src/stm32l4xx_hal_dma.c **** 
 1305              		.loc 1 875 56 is_stmt 0 view .LVU462
 1306 009e 436C     		ldr	r3, [r0, #68]
 875:Drivers/STM32L4xx_HAL_Driver/Src/stm32l4xx_hal_dma.c **** 
 1307              		.loc 1 875 71 view .LVU463
 1308 00a0 03F01C03 		and	r3, r3, #28
 875:Drivers/STM32L4xx_HAL_Driver/Src/stm32l4xx_hal_dma.c **** 
 1309              		.loc 1 875 9 view .LVU464
 1310 00a4 016C     		ldr	r1, [r0, #64]
ARM GAS  /tmp/ccaIxFiO.s 			page 51


 1311              	.LVL74:
 875:Drivers/STM32L4xx_HAL_Driver/Src/stm32l4xx_hal_dma.c **** 
 1312              		.loc 1 875 48 view .LVU465
 1313 00a6 0122     		movs	r2, #1
 1314 00a8 02FA03F3 		lsl	r3, r2, r3
 875:Drivers/STM32L4xx_HAL_Driver/Src/stm32l4xx_hal_dma.c **** 
 1315              		.loc 1 875 32 view .LVU466
 1316 00ac 4B60     		str	r3, [r1, #4]
 878:Drivers/STM32L4xx_HAL_Driver/Src/stm32l4xx_hal_dma.c **** 
 1317              		.loc 1 878 5 is_stmt 1 view .LVU467
 878:Drivers/STM32L4xx_HAL_Driver/Src/stm32l4xx_hal_dma.c **** 
 1318              		.loc 1 878 21 is_stmt 0 view .LVU468
 1319 00ae C263     		str	r2, [r0, #60]
 881:Drivers/STM32L4xx_HAL_Driver/Src/stm32l4xx_hal_dma.c **** 
 1320              		.loc 1 881 5 is_stmt 1 view .LVU469
 881:Drivers/STM32L4xx_HAL_Driver/Src/stm32l4xx_hal_dma.c **** 
 1321              		.loc 1 881 17 is_stmt 0 view .LVU470
 1322 00b0 80F82520 		strb	r2, [r0, #37]
 884:Drivers/STM32L4xx_HAL_Driver/Src/stm32l4xx_hal_dma.c **** 
 1323              		.loc 1 884 5 is_stmt 1 view .LVU471
 884:Drivers/STM32L4xx_HAL_Driver/Src/stm32l4xx_hal_dma.c **** 
 1324              		.loc 1 884 5 view .LVU472
 1325 00b4 0023     		movs	r3, #0
 1326 00b6 80F82430 		strb	r3, [r0, #36]
 884:Drivers/STM32L4xx_HAL_Driver/Src/stm32l4xx_hal_dma.c **** 
 1327              		.loc 1 884 5 view .LVU473
 886:Drivers/STM32L4xx_HAL_Driver/Src/stm32l4xx_hal_dma.c ****     {
 1328              		.loc 1 886 5 view .LVU474
 886:Drivers/STM32L4xx_HAL_Driver/Src/stm32l4xx_hal_dma.c ****     {
 1329              		.loc 1 886 13 is_stmt 0 view .LVU475
 1330 00ba 436B     		ldr	r3, [r0, #52]
 886:Drivers/STM32L4xx_HAL_Driver/Src/stm32l4xx_hal_dma.c ****     {
 1331              		.loc 1 886 8 view .LVU476
 1332 00bc 002B     		cmp	r3, #0
 1333 00be C0D0     		beq	.L73
 889:Drivers/STM32L4xx_HAL_Driver/Src/stm32l4xx_hal_dma.c ****     }
 1334              		.loc 1 889 7 is_stmt 1 view .LVU477
 1335 00c0 9847     		blx	r3
 1336              	.LVL75:
 895:Drivers/STM32L4xx_HAL_Driver/Src/stm32l4xx_hal_dma.c ****   return;
 1337              		.loc 1 895 3 view .LVU478
 896:Drivers/STM32L4xx_HAL_Driver/Src/stm32l4xx_hal_dma.c **** }
 1338              		.loc 1 896 3 view .LVU479
 1339 00c2 BEE7     		b	.L73
 1340              		.cfi_endproc
 1341              	.LFE316:
 1343              		.section	.text.HAL_DMA_RegisterCallback,"ax",%progbits
 1344              		.align	1
 1345              		.global	HAL_DMA_RegisterCallback
 1346              		.syntax unified
 1347              		.thumb
 1348              		.thumb_func
 1349              		.fpu fpv4-sp-d16
 1351              	HAL_DMA_RegisterCallback:
 1352              	.LVL76:
 1353              	.LFB317:
 910:Drivers/STM32L4xx_HAL_Driver/Src/stm32l4xx_hal_dma.c ****   HAL_StatusTypeDef status = HAL_OK;
ARM GAS  /tmp/ccaIxFiO.s 			page 52


 1354              		.loc 1 910 1 view -0
 1355              		.cfi_startproc
 1356              		@ args = 0, pretend = 0, frame = 0
 1357              		@ frame_needed = 0, uses_anonymous_args = 0
 1358              		@ link register save eliminated.
 910:Drivers/STM32L4xx_HAL_Driver/Src/stm32l4xx_hal_dma.c ****   HAL_StatusTypeDef status = HAL_OK;
 1359              		.loc 1 910 1 is_stmt 0 view .LVU481
 1360 0000 0346     		mov	r3, r0
 911:Drivers/STM32L4xx_HAL_Driver/Src/stm32l4xx_hal_dma.c **** 
 1361              		.loc 1 911 3 is_stmt 1 view .LVU482
 1362              	.LVL77:
 914:Drivers/STM32L4xx_HAL_Driver/Src/stm32l4xx_hal_dma.c **** 
 1363              		.loc 1 914 3 view .LVU483
 914:Drivers/STM32L4xx_HAL_Driver/Src/stm32l4xx_hal_dma.c **** 
 1364              		.loc 1 914 3 view .LVU484
 1365 0002 90F82400 		ldrb	r0, [r0, #36]	@ zero_extendqisi2
 1366              	.LVL78:
 914:Drivers/STM32L4xx_HAL_Driver/Src/stm32l4xx_hal_dma.c **** 
 1367              		.loc 1 914 3 is_stmt 0 view .LVU485
 1368 0006 0128     		cmp	r0, #1
 1369 0008 1BD0     		beq	.L88
 914:Drivers/STM32L4xx_HAL_Driver/Src/stm32l4xx_hal_dma.c **** 
 1370              		.loc 1 914 3 is_stmt 1 discriminator 2 view .LVU486
 914:Drivers/STM32L4xx_HAL_Driver/Src/stm32l4xx_hal_dma.c **** 
 1371              		.loc 1 914 3 discriminator 2 view .LVU487
 916:Drivers/STM32L4xx_HAL_Driver/Src/stm32l4xx_hal_dma.c ****   {
 1372              		.loc 1 916 3 discriminator 2 view .LVU488
 916:Drivers/STM32L4xx_HAL_Driver/Src/stm32l4xx_hal_dma.c ****   {
 1373              		.loc 1 916 33 is_stmt 0 discriminator 2 view .LVU489
 1374 000a 93F82500 		ldrb	r0, [r3, #37]	@ zero_extendqisi2
 1375 000e C0B2     		uxtb	r0, r0
 916:Drivers/STM32L4xx_HAL_Driver/Src/stm32l4xx_hal_dma.c ****   {
 1376              		.loc 1 916 5 discriminator 2 view .LVU490
 1377 0010 0128     		cmp	r0, #1
 1378 0012 04D0     		beq	.L90
 943:Drivers/STM32L4xx_HAL_Driver/Src/stm32l4xx_hal_dma.c ****   }
 1379              		.loc 1 943 12 view .LVU491
 1380 0014 0120     		movs	r0, #1
 1381              	.L82:
 1382              	.LVL79:
 947:Drivers/STM32L4xx_HAL_Driver/Src/stm32l4xx_hal_dma.c **** 
 1383              		.loc 1 947 3 is_stmt 1 view .LVU492
 947:Drivers/STM32L4xx_HAL_Driver/Src/stm32l4xx_hal_dma.c **** 
 1384              		.loc 1 947 3 view .LVU493
 1385 0016 0022     		movs	r2, #0
 1386              	.LVL80:
 947:Drivers/STM32L4xx_HAL_Driver/Src/stm32l4xx_hal_dma.c **** 
 1387              		.loc 1 947 3 is_stmt 0 view .LVU494
 1388 0018 83F82420 		strb	r2, [r3, #36]
 947:Drivers/STM32L4xx_HAL_Driver/Src/stm32l4xx_hal_dma.c **** 
 1389              		.loc 1 947 3 is_stmt 1 view .LVU495
 949:Drivers/STM32L4xx_HAL_Driver/Src/stm32l4xx_hal_dma.c **** }
 1390              		.loc 1 949 3 view .LVU496
 949:Drivers/STM32L4xx_HAL_Driver/Src/stm32l4xx_hal_dma.c **** }
 1391              		.loc 1 949 10 is_stmt 0 view .LVU497
 1392 001c 7047     		bx	lr
 1393              	.LVL81:
ARM GAS  /tmp/ccaIxFiO.s 			page 53


 1394              	.L90:
 918:Drivers/STM32L4xx_HAL_Driver/Src/stm32l4xx_hal_dma.c ****     {
 1395              		.loc 1 918 5 is_stmt 1 view .LVU498
 1396 001e 0329     		cmp	r1, #3
 1397 0020 F9D8     		bhi	.L82
 1398 0022 DFE801F0 		tbb	[pc, r1]
 1399              	.L84:
 1400 0026 02       		.byte	(.L87-.L84)/2
 1401 0027 05       		.byte	(.L86-.L84)/2
 1402 0028 08       		.byte	(.L85-.L84)/2
 1403 0029 0B       		.byte	(.L83-.L84)/2
 1404              		.p2align 1
 1405              	.L87:
 921:Drivers/STM32L4xx_HAL_Driver/Src/stm32l4xx_hal_dma.c ****            break;
 1406              		.loc 1 921 12 view .LVU499
 921:Drivers/STM32L4xx_HAL_Driver/Src/stm32l4xx_hal_dma.c ****            break;
 1407              		.loc 1 921 35 is_stmt 0 view .LVU500
 1408 002a DA62     		str	r2, [r3, #44]
 922:Drivers/STM32L4xx_HAL_Driver/Src/stm32l4xx_hal_dma.c **** 
 1409              		.loc 1 922 12 is_stmt 1 view .LVU501
 911:Drivers/STM32L4xx_HAL_Driver/Src/stm32l4xx_hal_dma.c **** 
 1410              		.loc 1 911 21 is_stmt 0 view .LVU502
 1411 002c 0846     		mov	r0, r1
 922:Drivers/STM32L4xx_HAL_Driver/Src/stm32l4xx_hal_dma.c **** 
 1412              		.loc 1 922 12 view .LVU503
 1413 002e F2E7     		b	.L82
 1414              	.L86:
 925:Drivers/STM32L4xx_HAL_Driver/Src/stm32l4xx_hal_dma.c ****            break;
 1415              		.loc 1 925 12 is_stmt 1 view .LVU504
 925:Drivers/STM32L4xx_HAL_Driver/Src/stm32l4xx_hal_dma.c ****            break;
 1416              		.loc 1 925 39 is_stmt 0 view .LVU505
 1417 0030 1A63     		str	r2, [r3, #48]
 926:Drivers/STM32L4xx_HAL_Driver/Src/stm32l4xx_hal_dma.c **** 
 1418              		.loc 1 926 12 is_stmt 1 view .LVU506
 911:Drivers/STM32L4xx_HAL_Driver/Src/stm32l4xx_hal_dma.c **** 
 1419              		.loc 1 911 21 is_stmt 0 view .LVU507
 1420 0032 0020     		movs	r0, #0
 926:Drivers/STM32L4xx_HAL_Driver/Src/stm32l4xx_hal_dma.c **** 
 1421              		.loc 1 926 12 view .LVU508
 1422 0034 EFE7     		b	.L82
 1423              	.L85:
 929:Drivers/STM32L4xx_HAL_Driver/Src/stm32l4xx_hal_dma.c ****            break;
 1424              		.loc 1 929 12 is_stmt 1 view .LVU509
 929:Drivers/STM32L4xx_HAL_Driver/Src/stm32l4xx_hal_dma.c ****            break;
 1425              		.loc 1 929 36 is_stmt 0 view .LVU510
 1426 0036 5A63     		str	r2, [r3, #52]
 930:Drivers/STM32L4xx_HAL_Driver/Src/stm32l4xx_hal_dma.c **** 
 1427              		.loc 1 930 12 is_stmt 1 view .LVU511
 911:Drivers/STM32L4xx_HAL_Driver/Src/stm32l4xx_hal_dma.c **** 
 1428              		.loc 1 911 21 is_stmt 0 view .LVU512
 1429 0038 0020     		movs	r0, #0
 930:Drivers/STM32L4xx_HAL_Driver/Src/stm32l4xx_hal_dma.c **** 
 1430              		.loc 1 930 12 view .LVU513
 1431 003a ECE7     		b	.L82
 1432              	.L83:
 933:Drivers/STM32L4xx_HAL_Driver/Src/stm32l4xx_hal_dma.c ****            break;
 1433              		.loc 1 933 12 is_stmt 1 view .LVU514
ARM GAS  /tmp/ccaIxFiO.s 			page 54


 933:Drivers/STM32L4xx_HAL_Driver/Src/stm32l4xx_hal_dma.c ****            break;
 1434              		.loc 1 933 36 is_stmt 0 view .LVU515
 1435 003c 9A63     		str	r2, [r3, #56]
 934:Drivers/STM32L4xx_HAL_Driver/Src/stm32l4xx_hal_dma.c **** 
 1436              		.loc 1 934 12 is_stmt 1 view .LVU516
 911:Drivers/STM32L4xx_HAL_Driver/Src/stm32l4xx_hal_dma.c **** 
 1437              		.loc 1 911 21 is_stmt 0 view .LVU517
 1438 003e 0020     		movs	r0, #0
 934:Drivers/STM32L4xx_HAL_Driver/Src/stm32l4xx_hal_dma.c **** 
 1439              		.loc 1 934 12 view .LVU518
 1440 0040 E9E7     		b	.L82
 1441              	.L88:
 914:Drivers/STM32L4xx_HAL_Driver/Src/stm32l4xx_hal_dma.c **** 
 1442              		.loc 1 914 3 view .LVU519
 1443 0042 0220     		movs	r0, #2
 950:Drivers/STM32L4xx_HAL_Driver/Src/stm32l4xx_hal_dma.c **** 
 1444              		.loc 1 950 1 view .LVU520
 1445 0044 7047     		bx	lr
 1446              		.cfi_endproc
 1447              	.LFE317:
 1449              		.section	.text.HAL_DMA_UnRegisterCallback,"ax",%progbits
 1450              		.align	1
 1451              		.global	HAL_DMA_UnRegisterCallback
 1452              		.syntax unified
 1453              		.thumb
 1454              		.thumb_func
 1455              		.fpu fpv4-sp-d16
 1457              	HAL_DMA_UnRegisterCallback:
 1458              	.LVL82:
 1459              	.LFB318:
 961:Drivers/STM32L4xx_HAL_Driver/Src/stm32l4xx_hal_dma.c ****   HAL_StatusTypeDef status = HAL_OK;
 1460              		.loc 1 961 1 is_stmt 1 view -0
 1461              		.cfi_startproc
 1462              		@ args = 0, pretend = 0, frame = 0
 1463              		@ frame_needed = 0, uses_anonymous_args = 0
 1464              		@ link register save eliminated.
 961:Drivers/STM32L4xx_HAL_Driver/Src/stm32l4xx_hal_dma.c ****   HAL_StatusTypeDef status = HAL_OK;
 1465              		.loc 1 961 1 is_stmt 0 view .LVU522
 1466 0000 0346     		mov	r3, r0
 962:Drivers/STM32L4xx_HAL_Driver/Src/stm32l4xx_hal_dma.c **** 
 1467              		.loc 1 962 3 is_stmt 1 view .LVU523
 1468              	.LVL83:
 965:Drivers/STM32L4xx_HAL_Driver/Src/stm32l4xx_hal_dma.c **** 
 1469              		.loc 1 965 3 view .LVU524
 965:Drivers/STM32L4xx_HAL_Driver/Src/stm32l4xx_hal_dma.c **** 
 1470              		.loc 1 965 3 view .LVU525
 1471 0002 90F82420 		ldrb	r2, [r0, #36]	@ zero_extendqisi2
 1472 0006 012A     		cmp	r2, #1
 1473 0008 26D0     		beq	.L100
 965:Drivers/STM32L4xx_HAL_Driver/Src/stm32l4xx_hal_dma.c **** 
 1474              		.loc 1 965 3 discriminator 2 view .LVU526
 1475 000a 0122     		movs	r2, #1
 1476 000c 80F82420 		strb	r2, [r0, #36]
 965:Drivers/STM32L4xx_HAL_Driver/Src/stm32l4xx_hal_dma.c **** 
 1477              		.loc 1 965 3 discriminator 2 view .LVU527
 967:Drivers/STM32L4xx_HAL_Driver/Src/stm32l4xx_hal_dma.c ****   {
 1478              		.loc 1 967 3 discriminator 2 view .LVU528
ARM GAS  /tmp/ccaIxFiO.s 			page 55


 967:Drivers/STM32L4xx_HAL_Driver/Src/stm32l4xx_hal_dma.c ****   {
 1479              		.loc 1 967 33 is_stmt 0 discriminator 2 view .LVU529
 1480 0010 90F82500 		ldrb	r0, [r0, #37]	@ zero_extendqisi2
 1481              	.LVL84:
 967:Drivers/STM32L4xx_HAL_Driver/Src/stm32l4xx_hal_dma.c ****   {
 1482              		.loc 1 967 33 discriminator 2 view .LVU530
 1483 0014 C0B2     		uxtb	r0, r0
 967:Drivers/STM32L4xx_HAL_Driver/Src/stm32l4xx_hal_dma.c ****   {
 1484              		.loc 1 967 5 discriminator 2 view .LVU531
 1485 0016 9042     		cmp	r0, r2
 1486 0018 04D0     		beq	.L102
1001:Drivers/STM32L4xx_HAL_Driver/Src/stm32l4xx_hal_dma.c ****   }
 1487              		.loc 1 1001 12 view .LVU532
 1488 001a 0120     		movs	r0, #1
 1489              	.L93:
 1490              	.LVL85:
1005:Drivers/STM32L4xx_HAL_Driver/Src/stm32l4xx_hal_dma.c **** 
 1491              		.loc 1 1005 3 is_stmt 1 view .LVU533
1005:Drivers/STM32L4xx_HAL_Driver/Src/stm32l4xx_hal_dma.c **** 
 1492              		.loc 1 1005 3 view .LVU534
 1493 001c 0022     		movs	r2, #0
 1494 001e 83F82420 		strb	r2, [r3, #36]
1005:Drivers/STM32L4xx_HAL_Driver/Src/stm32l4xx_hal_dma.c **** 
 1495              		.loc 1 1005 3 view .LVU535
1007:Drivers/STM32L4xx_HAL_Driver/Src/stm32l4xx_hal_dma.c **** }
 1496              		.loc 1 1007 3 view .LVU536
1007:Drivers/STM32L4xx_HAL_Driver/Src/stm32l4xx_hal_dma.c **** }
 1497              		.loc 1 1007 10 is_stmt 0 view .LVU537
 1498 0022 7047     		bx	lr
 1499              	.LVL86:
 1500              	.L102:
 969:Drivers/STM32L4xx_HAL_Driver/Src/stm32l4xx_hal_dma.c ****     {
 1501              		.loc 1 969 5 is_stmt 1 view .LVU538
 1502 0024 0429     		cmp	r1, #4
 1503 0026 F9D8     		bhi	.L93
 1504 0028 DFE801F0 		tbb	[pc, r1]
 1505              	.L95:
 1506 002c 03       		.byte	(.L99-.L95)/2
 1507 002d 07       		.byte	(.L98-.L95)/2
 1508 002e 0A       		.byte	(.L97-.L95)/2
 1509 002f 0D       		.byte	(.L96-.L95)/2
 1510 0030 10       		.byte	(.L94-.L95)/2
 1511 0031 00       		.p2align 1
 1512              	.L99:
 972:Drivers/STM32L4xx_HAL_Driver/Src/stm32l4xx_hal_dma.c ****            break;
 1513              		.loc 1 972 12 view .LVU539
 972:Drivers/STM32L4xx_HAL_Driver/Src/stm32l4xx_hal_dma.c ****            break;
 1514              		.loc 1 972 35 is_stmt 0 view .LVU540
 1515 0032 0022     		movs	r2, #0
 1516 0034 DA62     		str	r2, [r3, #44]
 973:Drivers/STM32L4xx_HAL_Driver/Src/stm32l4xx_hal_dma.c **** 
 1517              		.loc 1 973 12 is_stmt 1 view .LVU541
 962:Drivers/STM32L4xx_HAL_Driver/Src/stm32l4xx_hal_dma.c **** 
 1518              		.loc 1 962 21 is_stmt 0 view .LVU542
 1519 0036 0846     		mov	r0, r1
 973:Drivers/STM32L4xx_HAL_Driver/Src/stm32l4xx_hal_dma.c **** 
 1520              		.loc 1 973 12 view .LVU543
ARM GAS  /tmp/ccaIxFiO.s 			page 56


 1521 0038 F0E7     		b	.L93
 1522              	.L98:
 976:Drivers/STM32L4xx_HAL_Driver/Src/stm32l4xx_hal_dma.c ****            break;
 1523              		.loc 1 976 12 is_stmt 1 view .LVU544
 976:Drivers/STM32L4xx_HAL_Driver/Src/stm32l4xx_hal_dma.c ****            break;
 1524              		.loc 1 976 39 is_stmt 0 view .LVU545
 1525 003a 0020     		movs	r0, #0
 1526 003c 1863     		str	r0, [r3, #48]
 977:Drivers/STM32L4xx_HAL_Driver/Src/stm32l4xx_hal_dma.c **** 
 1527              		.loc 1 977 12 is_stmt 1 view .LVU546
 1528 003e EDE7     		b	.L93
 1529              	.L97:
 980:Drivers/STM32L4xx_HAL_Driver/Src/stm32l4xx_hal_dma.c ****            break;
 1530              		.loc 1 980 12 view .LVU547
 980:Drivers/STM32L4xx_HAL_Driver/Src/stm32l4xx_hal_dma.c ****            break;
 1531              		.loc 1 980 36 is_stmt 0 view .LVU548
 1532 0040 0020     		movs	r0, #0
 1533 0042 5863     		str	r0, [r3, #52]
 981:Drivers/STM32L4xx_HAL_Driver/Src/stm32l4xx_hal_dma.c **** 
 1534              		.loc 1 981 12 is_stmt 1 view .LVU549
 1535 0044 EAE7     		b	.L93
 1536              	.L96:
 984:Drivers/STM32L4xx_HAL_Driver/Src/stm32l4xx_hal_dma.c ****            break;
 1537              		.loc 1 984 12 view .LVU550
 984:Drivers/STM32L4xx_HAL_Driver/Src/stm32l4xx_hal_dma.c ****            break;
 1538              		.loc 1 984 36 is_stmt 0 view .LVU551
 1539 0046 0020     		movs	r0, #0
 1540 0048 9863     		str	r0, [r3, #56]
 985:Drivers/STM32L4xx_HAL_Driver/Src/stm32l4xx_hal_dma.c **** 
 1541              		.loc 1 985 12 is_stmt 1 view .LVU552
 1542 004a E7E7     		b	.L93
 1543              	.L94:
 988:Drivers/STM32L4xx_HAL_Driver/Src/stm32l4xx_hal_dma.c ****            hdma->XferHalfCpltCallback = NULL;
 1544              		.loc 1 988 12 view .LVU553
 988:Drivers/STM32L4xx_HAL_Driver/Src/stm32l4xx_hal_dma.c ****            hdma->XferHalfCpltCallback = NULL;
 1545              		.loc 1 988 35 is_stmt 0 view .LVU554
 1546 004c 0020     		movs	r0, #0
 1547 004e D862     		str	r0, [r3, #44]
 989:Drivers/STM32L4xx_HAL_Driver/Src/stm32l4xx_hal_dma.c ****            hdma->XferErrorCallback = NULL;
 1548              		.loc 1 989 12 is_stmt 1 view .LVU555
 989:Drivers/STM32L4xx_HAL_Driver/Src/stm32l4xx_hal_dma.c ****            hdma->XferErrorCallback = NULL;
 1549              		.loc 1 989 39 is_stmt 0 view .LVU556
 1550 0050 1863     		str	r0, [r3, #48]
 990:Drivers/STM32L4xx_HAL_Driver/Src/stm32l4xx_hal_dma.c ****            hdma->XferAbortCallback = NULL;
 1551              		.loc 1 990 12 is_stmt 1 view .LVU557
 990:Drivers/STM32L4xx_HAL_Driver/Src/stm32l4xx_hal_dma.c ****            hdma->XferAbortCallback = NULL;
 1552              		.loc 1 990 36 is_stmt 0 view .LVU558
 1553 0052 5863     		str	r0, [r3, #52]
 991:Drivers/STM32L4xx_HAL_Driver/Src/stm32l4xx_hal_dma.c ****            break;
 1554              		.loc 1 991 12 is_stmt 1 view .LVU559
 991:Drivers/STM32L4xx_HAL_Driver/Src/stm32l4xx_hal_dma.c ****            break;
 1555              		.loc 1 991 36 is_stmt 0 view .LVU560
 1556 0054 9863     		str	r0, [r3, #56]
 992:Drivers/STM32L4xx_HAL_Driver/Src/stm32l4xx_hal_dma.c **** 
 1557              		.loc 1 992 12 is_stmt 1 view .LVU561
 1558 0056 E1E7     		b	.L93
 1559              	.LVL87:
ARM GAS  /tmp/ccaIxFiO.s 			page 57


 1560              	.L100:
 965:Drivers/STM32L4xx_HAL_Driver/Src/stm32l4xx_hal_dma.c **** 
 1561              		.loc 1 965 3 is_stmt 0 view .LVU562
 1562 0058 0220     		movs	r0, #2
 1563              	.LVL88:
1008:Drivers/STM32L4xx_HAL_Driver/Src/stm32l4xx_hal_dma.c **** 
 1564              		.loc 1 1008 1 view .LVU563
 1565 005a 7047     		bx	lr
 1566              		.cfi_endproc
 1567              	.LFE318:
 1569              		.section	.text.HAL_DMA_GetState,"ax",%progbits
 1570              		.align	1
 1571              		.global	HAL_DMA_GetState
 1572              		.syntax unified
 1573              		.thumb
 1574              		.thumb_func
 1575              		.fpu fpv4-sp-d16
 1577              	HAL_DMA_GetState:
 1578              	.LVL89:
 1579              	.LFB319:
1039:Drivers/STM32L4xx_HAL_Driver/Src/stm32l4xx_hal_dma.c ****   /* Return DMA handle state */
 1580              		.loc 1 1039 1 is_stmt 1 view -0
 1581              		.cfi_startproc
 1582              		@ args = 0, pretend = 0, frame = 0
 1583              		@ frame_needed = 0, uses_anonymous_args = 0
 1584              		@ link register save eliminated.
1041:Drivers/STM32L4xx_HAL_Driver/Src/stm32l4xx_hal_dma.c **** }
 1585              		.loc 1 1041 3 view .LVU565
1041:Drivers/STM32L4xx_HAL_Driver/Src/stm32l4xx_hal_dma.c **** }
 1586              		.loc 1 1041 14 is_stmt 0 view .LVU566
 1587 0000 90F82500 		ldrb	r0, [r0, #37]	@ zero_extendqisi2
 1588              	.LVL90:
1042:Drivers/STM32L4xx_HAL_Driver/Src/stm32l4xx_hal_dma.c **** 
 1589              		.loc 1 1042 1 view .LVU567
 1590 0004 7047     		bx	lr
 1591              		.cfi_endproc
 1592              	.LFE319:
 1594              		.section	.text.HAL_DMA_GetError,"ax",%progbits
 1595              		.align	1
 1596              		.global	HAL_DMA_GetError
 1597              		.syntax unified
 1598              		.thumb
 1599              		.thumb_func
 1600              		.fpu fpv4-sp-d16
 1602              	HAL_DMA_GetError:
 1603              	.LVL91:
 1604              	.LFB320:
1051:Drivers/STM32L4xx_HAL_Driver/Src/stm32l4xx_hal_dma.c ****   return hdma->ErrorCode;
 1605              		.loc 1 1051 1 is_stmt 1 view -0
 1606              		.cfi_startproc
 1607              		@ args = 0, pretend = 0, frame = 0
 1608              		@ frame_needed = 0, uses_anonymous_args = 0
 1609              		@ link register save eliminated.
1052:Drivers/STM32L4xx_HAL_Driver/Src/stm32l4xx_hal_dma.c **** }
 1610              		.loc 1 1052 3 view .LVU569
1052:Drivers/STM32L4xx_HAL_Driver/Src/stm32l4xx_hal_dma.c **** }
 1611              		.loc 1 1052 14 is_stmt 0 view .LVU570
ARM GAS  /tmp/ccaIxFiO.s 			page 58


 1612 0000 C06B     		ldr	r0, [r0, #60]
 1613              	.LVL92:
1053:Drivers/STM32L4xx_HAL_Driver/Src/stm32l4xx_hal_dma.c **** 
 1614              		.loc 1 1053 1 view .LVU571
 1615 0002 7047     		bx	lr
 1616              		.cfi_endproc
 1617              	.LFE320:
 1619              		.text
 1620              	.Letext0:
 1621              		.file 2 "/usr/arm-none-eabi/include/machine/_default_types.h"
 1622              		.file 3 "/usr/arm-none-eabi/include/sys/_stdint.h"
 1623              		.file 4 "Drivers/CMSIS/Include/core_cm4.h"
 1624              		.file 5 "Drivers/CMSIS/Device/ST/STM32L4xx/Include/system_stm32l4xx.h"
 1625              		.file 6 "Drivers/CMSIS/Device/ST/STM32L4xx/Include/stm32l476xx.h"
 1626              		.file 7 "/usr/arm-none-eabi/include/sys/lock.h"
 1627              		.file 8 "/usr/arm-none-eabi/include/sys/_types.h"
 1628              		.file 9 "/usr/lib/gcc/arm-none-eabi/9.2.0/include/stddef.h"
 1629              		.file 10 "/usr/arm-none-eabi/include/sys/reent.h"
 1630              		.file 11 "Drivers/STM32L4xx_HAL_Driver/Inc/stm32l4xx_hal_def.h"
 1631              		.file 12 "Drivers/STM32L4xx_HAL_Driver/Inc/stm32l4xx_hal_dma.h"
 1632              		.file 13 "Drivers/STM32L4xx_HAL_Driver/Inc/stm32l4xx_hal.h"
ARM GAS  /tmp/ccaIxFiO.s 			page 59


DEFINED SYMBOLS
                            *ABS*:0000000000000000 stm32l4xx_hal_dma.c
     /tmp/ccaIxFiO.s:18     .text.DMA_SetConfig:0000000000000000 $t
     /tmp/ccaIxFiO.s:25     .text.DMA_SetConfig:0000000000000000 DMA_SetConfig
     /tmp/ccaIxFiO.s:106    .text.HAL_DMA_Init:0000000000000000 $t
     /tmp/ccaIxFiO.s:113    .text.HAL_DMA_Init:0000000000000000 HAL_DMA_Init
     /tmp/ccaIxFiO.s:342    .text.HAL_DMA_Init:00000000000000dc $d
     /tmp/ccaIxFiO.s:353    .text.HAL_DMA_DeInit:0000000000000000 $t
     /tmp/ccaIxFiO.s:360    .text.HAL_DMA_DeInit:0000000000000000 HAL_DMA_DeInit
     /tmp/ccaIxFiO.s:531    .text.HAL_DMA_DeInit:00000000000000a8 $d
     /tmp/ccaIxFiO.s:543    .text.HAL_DMA_Start:0000000000000000 $t
     /tmp/ccaIxFiO.s:550    .text.HAL_DMA_Start:0000000000000000 HAL_DMA_Start
     /tmp/ccaIxFiO.s:638    .text.HAL_DMA_Start_IT:0000000000000000 $t
     /tmp/ccaIxFiO.s:645    .text.HAL_DMA_Start_IT:0000000000000000 HAL_DMA_Start_IT
     /tmp/ccaIxFiO.s:756    .text.HAL_DMA_Abort:0000000000000000 $t
     /tmp/ccaIxFiO.s:763    .text.HAL_DMA_Abort:0000000000000000 HAL_DMA_Abort
     /tmp/ccaIxFiO.s:821    .text.HAL_DMA_Abort_IT:0000000000000000 $t
     /tmp/ccaIxFiO.s:828    .text.HAL_DMA_Abort_IT:0000000000000000 HAL_DMA_Abort_IT
     /tmp/ccaIxFiO.s:917    .text.HAL_DMA_PollForTransfer:0000000000000000 $t
     /tmp/ccaIxFiO.s:924    .text.HAL_DMA_PollForTransfer:0000000000000000 HAL_DMA_PollForTransfer
     /tmp/ccaIxFiO.s:1149   .text.HAL_DMA_IRQHandler:0000000000000000 $t
     /tmp/ccaIxFiO.s:1156   .text.HAL_DMA_IRQHandler:0000000000000000 HAL_DMA_IRQHandler
     /tmp/ccaIxFiO.s:1344   .text.HAL_DMA_RegisterCallback:0000000000000000 $t
     /tmp/ccaIxFiO.s:1351   .text.HAL_DMA_RegisterCallback:0000000000000000 HAL_DMA_RegisterCallback
     /tmp/ccaIxFiO.s:1400   .text.HAL_DMA_RegisterCallback:0000000000000026 $d
     /tmp/ccaIxFiO.s:1404   .text.HAL_DMA_RegisterCallback:000000000000002a $t
     /tmp/ccaIxFiO.s:1450   .text.HAL_DMA_UnRegisterCallback:0000000000000000 $t
     /tmp/ccaIxFiO.s:1457   .text.HAL_DMA_UnRegisterCallback:0000000000000000 HAL_DMA_UnRegisterCallback
     /tmp/ccaIxFiO.s:1506   .text.HAL_DMA_UnRegisterCallback:000000000000002c $d
     /tmp/ccaIxFiO.s:1570   .text.HAL_DMA_GetState:0000000000000000 $t
     /tmp/ccaIxFiO.s:1577   .text.HAL_DMA_GetState:0000000000000000 HAL_DMA_GetState
     /tmp/ccaIxFiO.s:1595   .text.HAL_DMA_GetError:0000000000000000 $t
     /tmp/ccaIxFiO.s:1602   .text.HAL_DMA_GetError:0000000000000000 HAL_DMA_GetError
     /tmp/ccaIxFiO.s:1511   .text.HAL_DMA_UnRegisterCallback:0000000000000031 $d
     /tmp/ccaIxFiO.s:1511   .text.HAL_DMA_UnRegisterCallback:0000000000000032 $t

UNDEFINED SYMBOLS
HAL_GetTick
