ARM GAS  /var/folders/bq/zy6zjhwd1qn4sn8dk3jpjcq80000gn/T//cc47l0uG.s 			page 1


   1              		.syntax unified
   2              		.cpu cortex-m4
   3              		.eabi_attribute 27, 1
   4              		.eabi_attribute 28, 1
   5              		.fpu fpv4-sp-d16
   6              		.eabi_attribute 20, 1
   7              		.eabi_attribute 21, 1
   8              		.eabi_attribute 23, 3
   9              		.eabi_attribute 24, 1
  10              		.eabi_attribute 25, 1
  11              		.eabi_attribute 26, 1
  12              		.eabi_attribute 30, 1
  13              		.eabi_attribute 34, 1
  14              		.eabi_attribute 18, 4
  15              		.thumb
  16              		.file	"stm32l4xx_hal_rcc.c"
  17              		.text
  18              	.Ltext0:
  19              		.cfi_sections	.debug_frame
  20              		.section	.text.RCC_SetFlashLatencyFromMSIRange,"ax",%progbits
  21              		.align	2
  22              		.thumb
  23              		.thumb_func
  25              	RCC_SetFlashLatencyFromMSIRange:
  26              	.LFB319:
  27              		.file 1 "Drivers/STM32L4xx_HAL_Driver/Src/stm32l4xx_hal_rcc.c"
   1:Drivers/STM32L4xx_HAL_Driver/Src/stm32l4xx_hal_rcc.c **** /**
   2:Drivers/STM32L4xx_HAL_Driver/Src/stm32l4xx_hal_rcc.c ****   ******************************************************************************
   3:Drivers/STM32L4xx_HAL_Driver/Src/stm32l4xx_hal_rcc.c ****   * @file    stm32l4xx_hal_rcc.c
   4:Drivers/STM32L4xx_HAL_Driver/Src/stm32l4xx_hal_rcc.c ****   * @author  MCD Application Team
   5:Drivers/STM32L4xx_HAL_Driver/Src/stm32l4xx_hal_rcc.c ****   * @brief   RCC HAL module driver.
   6:Drivers/STM32L4xx_HAL_Driver/Src/stm32l4xx_hal_rcc.c ****   *          This file provides firmware functions to manage the following
   7:Drivers/STM32L4xx_HAL_Driver/Src/stm32l4xx_hal_rcc.c ****   *          functionalities of the Reset and Clock Control (RCC) peripheral:
   8:Drivers/STM32L4xx_HAL_Driver/Src/stm32l4xx_hal_rcc.c ****   *           + Initialization and de-initialization functions
   9:Drivers/STM32L4xx_HAL_Driver/Src/stm32l4xx_hal_rcc.c ****   *           + Peripheral Control functions
  10:Drivers/STM32L4xx_HAL_Driver/Src/stm32l4xx_hal_rcc.c ****   *
  11:Drivers/STM32L4xx_HAL_Driver/Src/stm32l4xx_hal_rcc.c ****   @verbatim
  12:Drivers/STM32L4xx_HAL_Driver/Src/stm32l4xx_hal_rcc.c ****   ==============================================================================
  13:Drivers/STM32L4xx_HAL_Driver/Src/stm32l4xx_hal_rcc.c ****                       ##### RCC specific features #####
  14:Drivers/STM32L4xx_HAL_Driver/Src/stm32l4xx_hal_rcc.c ****   ==============================================================================
  15:Drivers/STM32L4xx_HAL_Driver/Src/stm32l4xx_hal_rcc.c ****     [..]
  16:Drivers/STM32L4xx_HAL_Driver/Src/stm32l4xx_hal_rcc.c ****       After reset the device is running from Multiple Speed Internal oscillator
  17:Drivers/STM32L4xx_HAL_Driver/Src/stm32l4xx_hal_rcc.c ****       (4 MHz) with Flash 0 wait state. Flash prefetch buffer, D-Cache
  18:Drivers/STM32L4xx_HAL_Driver/Src/stm32l4xx_hal_rcc.c ****       and I-Cache are disabled, and all peripherals are off except internal
  19:Drivers/STM32L4xx_HAL_Driver/Src/stm32l4xx_hal_rcc.c ****       SRAM, Flash and JTAG.
  20:Drivers/STM32L4xx_HAL_Driver/Src/stm32l4xx_hal_rcc.c **** 
  21:Drivers/STM32L4xx_HAL_Driver/Src/stm32l4xx_hal_rcc.c ****       (+) There is no prescaler on High speed (AHBs) and Low speed (APBs) busses:
  22:Drivers/STM32L4xx_HAL_Driver/Src/stm32l4xx_hal_rcc.c ****           all peripherals mapped on these busses are running at MSI speed.
  23:Drivers/STM32L4xx_HAL_Driver/Src/stm32l4xx_hal_rcc.c ****       (+) The clock for all peripherals is switched off, except the SRAM and FLASH.
  24:Drivers/STM32L4xx_HAL_Driver/Src/stm32l4xx_hal_rcc.c ****       (+) All GPIOs are in analog mode, except the JTAG pins which
  25:Drivers/STM32L4xx_HAL_Driver/Src/stm32l4xx_hal_rcc.c ****           are assigned to be used for debug purpose.
  26:Drivers/STM32L4xx_HAL_Driver/Src/stm32l4xx_hal_rcc.c **** 
  27:Drivers/STM32L4xx_HAL_Driver/Src/stm32l4xx_hal_rcc.c ****     [..]
  28:Drivers/STM32L4xx_HAL_Driver/Src/stm32l4xx_hal_rcc.c ****       Once the device started from reset, the user application has to:
  29:Drivers/STM32L4xx_HAL_Driver/Src/stm32l4xx_hal_rcc.c ****       (+) Configure the clock source to be used to drive the System clock
  30:Drivers/STM32L4xx_HAL_Driver/Src/stm32l4xx_hal_rcc.c ****           (if the application needs higher frequency/performance)
  31:Drivers/STM32L4xx_HAL_Driver/Src/stm32l4xx_hal_rcc.c ****       (+) Configure the System clock frequency and Flash settings
ARM GAS  /var/folders/bq/zy6zjhwd1qn4sn8dk3jpjcq80000gn/T//cc47l0uG.s 			page 2


  32:Drivers/STM32L4xx_HAL_Driver/Src/stm32l4xx_hal_rcc.c ****       (+) Configure the AHB and APB busses prescalers
  33:Drivers/STM32L4xx_HAL_Driver/Src/stm32l4xx_hal_rcc.c ****       (+) Enable the clock for the peripheral(s) to be used
  34:Drivers/STM32L4xx_HAL_Driver/Src/stm32l4xx_hal_rcc.c ****       (+) Configure the clock source(s) for peripherals which clocks are not
  35:Drivers/STM32L4xx_HAL_Driver/Src/stm32l4xx_hal_rcc.c ****           derived from the System clock (SAIx, RTC, ADC, USB OTG FS/SDMMC1/RNG)
  36:Drivers/STM32L4xx_HAL_Driver/Src/stm32l4xx_hal_rcc.c **** 
  37:Drivers/STM32L4xx_HAL_Driver/Src/stm32l4xx_hal_rcc.c ****   @endverbatim
  38:Drivers/STM32L4xx_HAL_Driver/Src/stm32l4xx_hal_rcc.c ****   ******************************************************************************
  39:Drivers/STM32L4xx_HAL_Driver/Src/stm32l4xx_hal_rcc.c ****   * @attention
  40:Drivers/STM32L4xx_HAL_Driver/Src/stm32l4xx_hal_rcc.c ****   *
  41:Drivers/STM32L4xx_HAL_Driver/Src/stm32l4xx_hal_rcc.c ****   * <h2><center>&copy; COPYRIGHT(c) 2017 STMicroelectronics</center></h2>
  42:Drivers/STM32L4xx_HAL_Driver/Src/stm32l4xx_hal_rcc.c ****   *
  43:Drivers/STM32L4xx_HAL_Driver/Src/stm32l4xx_hal_rcc.c ****   * Redistribution and use in source and binary forms, with or without modification,
  44:Drivers/STM32L4xx_HAL_Driver/Src/stm32l4xx_hal_rcc.c ****   * are permitted provided that the following conditions are met:
  45:Drivers/STM32L4xx_HAL_Driver/Src/stm32l4xx_hal_rcc.c ****   *   1. Redistributions of source code must retain the above copyright notice,
  46:Drivers/STM32L4xx_HAL_Driver/Src/stm32l4xx_hal_rcc.c ****   *      this list of conditions and the following disclaimer.
  47:Drivers/STM32L4xx_HAL_Driver/Src/stm32l4xx_hal_rcc.c ****   *   2. Redistributions in binary form must reproduce the above copyright notice,
  48:Drivers/STM32L4xx_HAL_Driver/Src/stm32l4xx_hal_rcc.c ****   *      this list of conditions and the following disclaimer in the documentation
  49:Drivers/STM32L4xx_HAL_Driver/Src/stm32l4xx_hal_rcc.c ****   *      and/or other materials provided with the distribution.
  50:Drivers/STM32L4xx_HAL_Driver/Src/stm32l4xx_hal_rcc.c ****   *   3. Neither the name of STMicroelectronics nor the names of its contributors
  51:Drivers/STM32L4xx_HAL_Driver/Src/stm32l4xx_hal_rcc.c ****   *      may be used to endorse or promote products derived from this software
  52:Drivers/STM32L4xx_HAL_Driver/Src/stm32l4xx_hal_rcc.c ****   *      without specific prior written permission.
  53:Drivers/STM32L4xx_HAL_Driver/Src/stm32l4xx_hal_rcc.c ****   *
  54:Drivers/STM32L4xx_HAL_Driver/Src/stm32l4xx_hal_rcc.c ****   * THIS SOFTWARE IS PROVIDED BY THE COPYRIGHT HOLDERS AND CONTRIBUTORS "AS IS"
  55:Drivers/STM32L4xx_HAL_Driver/Src/stm32l4xx_hal_rcc.c ****   * AND ANY EXPRESS OR IMPLIED WARRANTIES, INCLUDING, BUT NOT LIMITED TO, THE
  56:Drivers/STM32L4xx_HAL_Driver/Src/stm32l4xx_hal_rcc.c ****   * IMPLIED WARRANTIES OF MERCHANTABILITY AND FITNESS FOR A PARTICULAR PURPOSE ARE
  57:Drivers/STM32L4xx_HAL_Driver/Src/stm32l4xx_hal_rcc.c ****   * DISCLAIMED. IN NO EVENT SHALL THE COPYRIGHT HOLDER OR CONTRIBUTORS BE LIABLE
  58:Drivers/STM32L4xx_HAL_Driver/Src/stm32l4xx_hal_rcc.c ****   * FOR ANY DIRECT, INDIRECT, INCIDENTAL, SPECIAL, EXEMPLARY, OR CONSEQUENTIAL
  59:Drivers/STM32L4xx_HAL_Driver/Src/stm32l4xx_hal_rcc.c ****   * DAMAGES (INCLUDING, BUT NOT LIMITED TO, PROCUREMENT OF SUBSTITUTE GOODS OR
  60:Drivers/STM32L4xx_HAL_Driver/Src/stm32l4xx_hal_rcc.c ****   * SERVICES; LOSS OF USE, DATA, OR PROFITS; OR BUSINESS INTERRUPTION) HOWEVER
  61:Drivers/STM32L4xx_HAL_Driver/Src/stm32l4xx_hal_rcc.c ****   * CAUSED AND ON ANY THEORY OF LIABILITY, WHETHER IN CONTRACT, STRICT LIABILITY,
  62:Drivers/STM32L4xx_HAL_Driver/Src/stm32l4xx_hal_rcc.c ****   * OR TORT (INCLUDING NEGLIGENCE OR OTHERWISE) ARISING IN ANY WAY OUT OF THE USE
  63:Drivers/STM32L4xx_HAL_Driver/Src/stm32l4xx_hal_rcc.c ****   * OF THIS SOFTWARE, EVEN IF ADVISED OF THE POSSIBILITY OF SUCH DAMAGE.
  64:Drivers/STM32L4xx_HAL_Driver/Src/stm32l4xx_hal_rcc.c ****   *
  65:Drivers/STM32L4xx_HAL_Driver/Src/stm32l4xx_hal_rcc.c ****   ******************************************************************************
  66:Drivers/STM32L4xx_HAL_Driver/Src/stm32l4xx_hal_rcc.c ****   */
  67:Drivers/STM32L4xx_HAL_Driver/Src/stm32l4xx_hal_rcc.c **** 
  68:Drivers/STM32L4xx_HAL_Driver/Src/stm32l4xx_hal_rcc.c **** /* Includes ------------------------------------------------------------------*/
  69:Drivers/STM32L4xx_HAL_Driver/Src/stm32l4xx_hal_rcc.c **** #include "stm32l4xx_hal.h"
  70:Drivers/STM32L4xx_HAL_Driver/Src/stm32l4xx_hal_rcc.c **** 
  71:Drivers/STM32L4xx_HAL_Driver/Src/stm32l4xx_hal_rcc.c **** /** @addtogroup STM32L4xx_HAL_Driver
  72:Drivers/STM32L4xx_HAL_Driver/Src/stm32l4xx_hal_rcc.c ****   * @{
  73:Drivers/STM32L4xx_HAL_Driver/Src/stm32l4xx_hal_rcc.c ****   */
  74:Drivers/STM32L4xx_HAL_Driver/Src/stm32l4xx_hal_rcc.c **** 
  75:Drivers/STM32L4xx_HAL_Driver/Src/stm32l4xx_hal_rcc.c **** /** @defgroup RCC RCC
  76:Drivers/STM32L4xx_HAL_Driver/Src/stm32l4xx_hal_rcc.c ****   * @brief RCC HAL module driver
  77:Drivers/STM32L4xx_HAL_Driver/Src/stm32l4xx_hal_rcc.c ****   * @{
  78:Drivers/STM32L4xx_HAL_Driver/Src/stm32l4xx_hal_rcc.c ****   */
  79:Drivers/STM32L4xx_HAL_Driver/Src/stm32l4xx_hal_rcc.c **** 
  80:Drivers/STM32L4xx_HAL_Driver/Src/stm32l4xx_hal_rcc.c **** #ifdef HAL_RCC_MODULE_ENABLED
  81:Drivers/STM32L4xx_HAL_Driver/Src/stm32l4xx_hal_rcc.c **** 
  82:Drivers/STM32L4xx_HAL_Driver/Src/stm32l4xx_hal_rcc.c **** /* Private typedef -----------------------------------------------------------*/
  83:Drivers/STM32L4xx_HAL_Driver/Src/stm32l4xx_hal_rcc.c **** /* Private define ------------------------------------------------------------*/
  84:Drivers/STM32L4xx_HAL_Driver/Src/stm32l4xx_hal_rcc.c **** /** @defgroup RCC_Private_Constants RCC Private Constants
  85:Drivers/STM32L4xx_HAL_Driver/Src/stm32l4xx_hal_rcc.c ****  * @{
  86:Drivers/STM32L4xx_HAL_Driver/Src/stm32l4xx_hal_rcc.c ****  */
  87:Drivers/STM32L4xx_HAL_Driver/Src/stm32l4xx_hal_rcc.c **** #define HSE_TIMEOUT_VALUE          HSE_STARTUP_TIMEOUT
  88:Drivers/STM32L4xx_HAL_Driver/Src/stm32l4xx_hal_rcc.c **** #define HSI_TIMEOUT_VALUE          2U    /* 2 ms (minimum Tick + 1) */
ARM GAS  /var/folders/bq/zy6zjhwd1qn4sn8dk3jpjcq80000gn/T//cc47l0uG.s 			page 3


  89:Drivers/STM32L4xx_HAL_Driver/Src/stm32l4xx_hal_rcc.c **** #define MSI_TIMEOUT_VALUE          2U    /* 2 ms (minimum Tick + 1) */
  90:Drivers/STM32L4xx_HAL_Driver/Src/stm32l4xx_hal_rcc.c **** #define LSI_TIMEOUT_VALUE          2U    /* 2 ms (minimum Tick + 1) */
  91:Drivers/STM32L4xx_HAL_Driver/Src/stm32l4xx_hal_rcc.c **** #define HSI48_TIMEOUT_VALUE        2U    /* 2 ms (minimum Tick + 1) */
  92:Drivers/STM32L4xx_HAL_Driver/Src/stm32l4xx_hal_rcc.c **** #define PLL_TIMEOUT_VALUE          2U    /* 2 ms (minimum Tick + 1) */
  93:Drivers/STM32L4xx_HAL_Driver/Src/stm32l4xx_hal_rcc.c **** #define CLOCKSWITCH_TIMEOUT_VALUE  5000U /* 5 s    */
  94:Drivers/STM32L4xx_HAL_Driver/Src/stm32l4xx_hal_rcc.c **** /**
  95:Drivers/STM32L4xx_HAL_Driver/Src/stm32l4xx_hal_rcc.c ****   * @}
  96:Drivers/STM32L4xx_HAL_Driver/Src/stm32l4xx_hal_rcc.c ****   */
  97:Drivers/STM32L4xx_HAL_Driver/Src/stm32l4xx_hal_rcc.c **** 
  98:Drivers/STM32L4xx_HAL_Driver/Src/stm32l4xx_hal_rcc.c **** /* Private macro -------------------------------------------------------------*/
  99:Drivers/STM32L4xx_HAL_Driver/Src/stm32l4xx_hal_rcc.c **** /** @defgroup RCC_Private_Macros RCC Private Macros
 100:Drivers/STM32L4xx_HAL_Driver/Src/stm32l4xx_hal_rcc.c ****   * @{
 101:Drivers/STM32L4xx_HAL_Driver/Src/stm32l4xx_hal_rcc.c ****   */
 102:Drivers/STM32L4xx_HAL_Driver/Src/stm32l4xx_hal_rcc.c **** #define __MCO1_CLK_ENABLE()   __HAL_RCC_GPIOA_CLK_ENABLE()
 103:Drivers/STM32L4xx_HAL_Driver/Src/stm32l4xx_hal_rcc.c **** #define MCO1_GPIO_PORT        GPIOA
 104:Drivers/STM32L4xx_HAL_Driver/Src/stm32l4xx_hal_rcc.c **** #define MCO1_PIN              GPIO_PIN_8
 105:Drivers/STM32L4xx_HAL_Driver/Src/stm32l4xx_hal_rcc.c **** 
 106:Drivers/STM32L4xx_HAL_Driver/Src/stm32l4xx_hal_rcc.c **** #define RCC_PLL_OSCSOURCE_CONFIG(__HAL_RCC_PLLSOURCE__) \
 107:Drivers/STM32L4xx_HAL_Driver/Src/stm32l4xx_hal_rcc.c ****             (MODIFY_REG(RCC->PLLCFGR, RCC_PLLCFGR_PLLSRC, (__HAL_RCC_PLLSOURCE__)))
 108:Drivers/STM32L4xx_HAL_Driver/Src/stm32l4xx_hal_rcc.c **** /**
 109:Drivers/STM32L4xx_HAL_Driver/Src/stm32l4xx_hal_rcc.c ****   * @}
 110:Drivers/STM32L4xx_HAL_Driver/Src/stm32l4xx_hal_rcc.c ****   */
 111:Drivers/STM32L4xx_HAL_Driver/Src/stm32l4xx_hal_rcc.c **** 
 112:Drivers/STM32L4xx_HAL_Driver/Src/stm32l4xx_hal_rcc.c **** /* Private variables ---------------------------------------------------------*/
 113:Drivers/STM32L4xx_HAL_Driver/Src/stm32l4xx_hal_rcc.c **** 
 114:Drivers/STM32L4xx_HAL_Driver/Src/stm32l4xx_hal_rcc.c **** /* Private function prototypes -----------------------------------------------*/
 115:Drivers/STM32L4xx_HAL_Driver/Src/stm32l4xx_hal_rcc.c **** /** @defgroup RCC_Private_Functions RCC Private Functions
 116:Drivers/STM32L4xx_HAL_Driver/Src/stm32l4xx_hal_rcc.c ****   * @{
 117:Drivers/STM32L4xx_HAL_Driver/Src/stm32l4xx_hal_rcc.c ****   */
 118:Drivers/STM32L4xx_HAL_Driver/Src/stm32l4xx_hal_rcc.c **** static HAL_StatusTypeDef RCC_SetFlashLatencyFromMSIRange(uint32_t msirange);
 119:Drivers/STM32L4xx_HAL_Driver/Src/stm32l4xx_hal_rcc.c **** #if defined(STM32L4R5xx) || defined(STM32L4R7xx) || defined(STM32L4R9xx) || defined(STM32L4S5xx) ||
 120:Drivers/STM32L4xx_HAL_Driver/Src/stm32l4xx_hal_rcc.c **** static uint32_t          RCC_GetSysClockFreqFromPLLSource(void);
 121:Drivers/STM32L4xx_HAL_Driver/Src/stm32l4xx_hal_rcc.c **** #endif
 122:Drivers/STM32L4xx_HAL_Driver/Src/stm32l4xx_hal_rcc.c **** /**
 123:Drivers/STM32L4xx_HAL_Driver/Src/stm32l4xx_hal_rcc.c ****   * @}
 124:Drivers/STM32L4xx_HAL_Driver/Src/stm32l4xx_hal_rcc.c ****   */
 125:Drivers/STM32L4xx_HAL_Driver/Src/stm32l4xx_hal_rcc.c **** 
 126:Drivers/STM32L4xx_HAL_Driver/Src/stm32l4xx_hal_rcc.c **** /* Exported functions --------------------------------------------------------*/
 127:Drivers/STM32L4xx_HAL_Driver/Src/stm32l4xx_hal_rcc.c **** 
 128:Drivers/STM32L4xx_HAL_Driver/Src/stm32l4xx_hal_rcc.c **** /** @defgroup RCC_Exported_Functions RCC Exported Functions
 129:Drivers/STM32L4xx_HAL_Driver/Src/stm32l4xx_hal_rcc.c ****   * @{
 130:Drivers/STM32L4xx_HAL_Driver/Src/stm32l4xx_hal_rcc.c ****   */
 131:Drivers/STM32L4xx_HAL_Driver/Src/stm32l4xx_hal_rcc.c **** 
 132:Drivers/STM32L4xx_HAL_Driver/Src/stm32l4xx_hal_rcc.c **** /** @defgroup RCC_Exported_Functions_Group1 Initialization and de-initialization functions
 133:Drivers/STM32L4xx_HAL_Driver/Src/stm32l4xx_hal_rcc.c ****   *  @brief    Initialization and Configuration functions
 134:Drivers/STM32L4xx_HAL_Driver/Src/stm32l4xx_hal_rcc.c ****   *
 135:Drivers/STM32L4xx_HAL_Driver/Src/stm32l4xx_hal_rcc.c ****   @verbatim
 136:Drivers/STM32L4xx_HAL_Driver/Src/stm32l4xx_hal_rcc.c ****  ===============================================================================
 137:Drivers/STM32L4xx_HAL_Driver/Src/stm32l4xx_hal_rcc.c ****            ##### Initialization and de-initialization functions #####
 138:Drivers/STM32L4xx_HAL_Driver/Src/stm32l4xx_hal_rcc.c ****  ===============================================================================
 139:Drivers/STM32L4xx_HAL_Driver/Src/stm32l4xx_hal_rcc.c ****     [..]
 140:Drivers/STM32L4xx_HAL_Driver/Src/stm32l4xx_hal_rcc.c ****       This section provides functions allowing to configure the internal and external oscillators
 141:Drivers/STM32L4xx_HAL_Driver/Src/stm32l4xx_hal_rcc.c ****       (HSE, HSI, LSE, MSI, LSI, PLL, CSS and MCO) and the System busses clocks (SYSCLK, AHB, APB1
 142:Drivers/STM32L4xx_HAL_Driver/Src/stm32l4xx_hal_rcc.c ****        and APB2).
 143:Drivers/STM32L4xx_HAL_Driver/Src/stm32l4xx_hal_rcc.c **** 
 144:Drivers/STM32L4xx_HAL_Driver/Src/stm32l4xx_hal_rcc.c ****     [..] Internal/external clock and PLL configuration
 145:Drivers/STM32L4xx_HAL_Driver/Src/stm32l4xx_hal_rcc.c ****          (+) HSI (high-speed internal): 16 MHz factory-trimmed RC used directly or through
ARM GAS  /var/folders/bq/zy6zjhwd1qn4sn8dk3jpjcq80000gn/T//cc47l0uG.s 			page 4


 146:Drivers/STM32L4xx_HAL_Driver/Src/stm32l4xx_hal_rcc.c ****              the PLL as System clock source.
 147:Drivers/STM32L4xx_HAL_Driver/Src/stm32l4xx_hal_rcc.c **** 
 148:Drivers/STM32L4xx_HAL_Driver/Src/stm32l4xx_hal_rcc.c ****          (+) MSI (Mutiple Speed Internal): Its frequency is software trimmable from 100KHZ to 48MHZ
 149:Drivers/STM32L4xx_HAL_Driver/Src/stm32l4xx_hal_rcc.c ****              It can be used to generate the clock for the USB OTG FS (48 MHz).
 150:Drivers/STM32L4xx_HAL_Driver/Src/stm32l4xx_hal_rcc.c ****              The number of flash wait states is automatically adjusted when MSI range is updated wi
 151:Drivers/STM32L4xx_HAL_Driver/Src/stm32l4xx_hal_rcc.c ****              HAL_RCC_OscConfig() and the MSI is used as System clock source.
 152:Drivers/STM32L4xx_HAL_Driver/Src/stm32l4xx_hal_rcc.c **** 
 153:Drivers/STM32L4xx_HAL_Driver/Src/stm32l4xx_hal_rcc.c ****          (+) LSI (low-speed internal): 32 KHz low consumption RC used as IWDG and/or RTC
 154:Drivers/STM32L4xx_HAL_Driver/Src/stm32l4xx_hal_rcc.c ****              clock source.
 155:Drivers/STM32L4xx_HAL_Driver/Src/stm32l4xx_hal_rcc.c **** 
 156:Drivers/STM32L4xx_HAL_Driver/Src/stm32l4xx_hal_rcc.c ****          (+) HSE (high-speed external): 4 to 48 MHz crystal oscillator used directly or
 157:Drivers/STM32L4xx_HAL_Driver/Src/stm32l4xx_hal_rcc.c ****              through the PLL as System clock source. Can be used also optionally as RTC clock sourc
 158:Drivers/STM32L4xx_HAL_Driver/Src/stm32l4xx_hal_rcc.c **** 
 159:Drivers/STM32L4xx_HAL_Driver/Src/stm32l4xx_hal_rcc.c ****          (+) LSE (low-speed external): 32.768 KHz oscillator used optionally as RTC clock source.
 160:Drivers/STM32L4xx_HAL_Driver/Src/stm32l4xx_hal_rcc.c **** 
 161:Drivers/STM32L4xx_HAL_Driver/Src/stm32l4xx_hal_rcc.c ****          (+) PLL (clocked by HSI, HSE or MSI) providing up to three independent output clocks:
 162:Drivers/STM32L4xx_HAL_Driver/Src/stm32l4xx_hal_rcc.c ****            (++) The first output is used to generate the high speed system clock (up to 80MHz).
 163:Drivers/STM32L4xx_HAL_Driver/Src/stm32l4xx_hal_rcc.c ****            (++) The second output is used to generate the clock for the USB OTG FS (48 MHz),
 164:Drivers/STM32L4xx_HAL_Driver/Src/stm32l4xx_hal_rcc.c ****                 the random analog generator (<=48 MHz) and the SDMMC1 (<= 48 MHz).
 165:Drivers/STM32L4xx_HAL_Driver/Src/stm32l4xx_hal_rcc.c ****            (++) The third output is used to generate an accurate clock to achieve
 166:Drivers/STM32L4xx_HAL_Driver/Src/stm32l4xx_hal_rcc.c ****                 high-quality audio performance on SAI interface.
 167:Drivers/STM32L4xx_HAL_Driver/Src/stm32l4xx_hal_rcc.c **** 
 168:Drivers/STM32L4xx_HAL_Driver/Src/stm32l4xx_hal_rcc.c ****          (+) PLLSAI1 (clocked by HSI, HSE or MSI) providing up to three independent output clocks:
 169:Drivers/STM32L4xx_HAL_Driver/Src/stm32l4xx_hal_rcc.c ****            (++) The first output is used to generate SAR ADC1 clock.
 170:Drivers/STM32L4xx_HAL_Driver/Src/stm32l4xx_hal_rcc.c ****            (++) The second output is used to generate the clock for the USB OTG FS (48 MHz),
 171:Drivers/STM32L4xx_HAL_Driver/Src/stm32l4xx_hal_rcc.c ****                 the random analog generator (<=48 MHz) and the SDMMC1 (<= 48 MHz).
 172:Drivers/STM32L4xx_HAL_Driver/Src/stm32l4xx_hal_rcc.c ****            (++) The Third output is used to generate an accurate clock to achieve
 173:Drivers/STM32L4xx_HAL_Driver/Src/stm32l4xx_hal_rcc.c ****                 high-quality audio performance on SAI interface.
 174:Drivers/STM32L4xx_HAL_Driver/Src/stm32l4xx_hal_rcc.c **** 
 175:Drivers/STM32L4xx_HAL_Driver/Src/stm32l4xx_hal_rcc.c ****          (+) PLLSAI2 (clocked by HSI , HSE or MSI) providing up to two independent output clocks:
 176:Drivers/STM32L4xx_HAL_Driver/Src/stm32l4xx_hal_rcc.c ****            (++) The first output is used to generate SAR ADC2 clock.
 177:Drivers/STM32L4xx_HAL_Driver/Src/stm32l4xx_hal_rcc.c ****            (++) The second  output is used to generate an accurate clock to achieve
 178:Drivers/STM32L4xx_HAL_Driver/Src/stm32l4xx_hal_rcc.c ****                 high-quality audio performance on SAI interface.
 179:Drivers/STM32L4xx_HAL_Driver/Src/stm32l4xx_hal_rcc.c **** 
 180:Drivers/STM32L4xx_HAL_Driver/Src/stm32l4xx_hal_rcc.c ****          (+) CSS (Clock security system): once enabled, if a HSE clock failure occurs
 181:Drivers/STM32L4xx_HAL_Driver/Src/stm32l4xx_hal_rcc.c ****             (HSE used directly or through PLL as System clock source), the System clock
 182:Drivers/STM32L4xx_HAL_Driver/Src/stm32l4xx_hal_rcc.c ****              is automatically switched to HSI and an interrupt is generated if enabled.
 183:Drivers/STM32L4xx_HAL_Driver/Src/stm32l4xx_hal_rcc.c ****              The interrupt is linked to the Cortex-M4 NMI (Non-Maskable Interrupt)
 184:Drivers/STM32L4xx_HAL_Driver/Src/stm32l4xx_hal_rcc.c ****              exception vector.
 185:Drivers/STM32L4xx_HAL_Driver/Src/stm32l4xx_hal_rcc.c **** 
 186:Drivers/STM32L4xx_HAL_Driver/Src/stm32l4xx_hal_rcc.c ****          (+) MCO (microcontroller clock output): used to output MSI, LSI, HSI, LSE, HSE or
 187:Drivers/STM32L4xx_HAL_Driver/Src/stm32l4xx_hal_rcc.c ****              main PLL clock (through a configurable prescaler) on PA8 pin.
 188:Drivers/STM32L4xx_HAL_Driver/Src/stm32l4xx_hal_rcc.c **** 
 189:Drivers/STM32L4xx_HAL_Driver/Src/stm32l4xx_hal_rcc.c ****     [..] System, AHB and APB busses clocks configuration
 190:Drivers/STM32L4xx_HAL_Driver/Src/stm32l4xx_hal_rcc.c ****          (+) Several clock sources can be used to drive the System clock (SYSCLK): MSI, HSI,
 191:Drivers/STM32L4xx_HAL_Driver/Src/stm32l4xx_hal_rcc.c ****              HSE and main PLL.
 192:Drivers/STM32L4xx_HAL_Driver/Src/stm32l4xx_hal_rcc.c ****              The AHB clock (HCLK) is derived from System clock through configurable
 193:Drivers/STM32L4xx_HAL_Driver/Src/stm32l4xx_hal_rcc.c ****              prescaler and used to clock the CPU, memory and peripherals mapped
 194:Drivers/STM32L4xx_HAL_Driver/Src/stm32l4xx_hal_rcc.c ****              on AHB bus (DMA, GPIO...). APB1 (PCLK1) and APB2 (PCLK2) clocks are derived
 195:Drivers/STM32L4xx_HAL_Driver/Src/stm32l4xx_hal_rcc.c ****              from AHB clock through configurable prescalers and used to clock
 196:Drivers/STM32L4xx_HAL_Driver/Src/stm32l4xx_hal_rcc.c ****              the peripherals mapped on these busses. You can use
 197:Drivers/STM32L4xx_HAL_Driver/Src/stm32l4xx_hal_rcc.c ****              "HAL_RCC_GetSysClockFreq()" function to retrieve the frequencies of these clocks.
 198:Drivers/STM32L4xx_HAL_Driver/Src/stm32l4xx_hal_rcc.c **** 
 199:Drivers/STM32L4xx_HAL_Driver/Src/stm32l4xx_hal_rcc.c ****          -@- All the peripheral clocks are derived from the System clock (SYSCLK) except:
 200:Drivers/STM32L4xx_HAL_Driver/Src/stm32l4xx_hal_rcc.c **** 
 201:Drivers/STM32L4xx_HAL_Driver/Src/stm32l4xx_hal_rcc.c ****            (+@) SAI: the SAI clock can be derived either from a specific PLL (PLLSAI1) or (PLLSAI2)
 202:Drivers/STM32L4xx_HAL_Driver/Src/stm32l4xx_hal_rcc.c ****                 from an external clock mapped on the SAI_CKIN pin.
ARM GAS  /var/folders/bq/zy6zjhwd1qn4sn8dk3jpjcq80000gn/T//cc47l0uG.s 			page 5


 203:Drivers/STM32L4xx_HAL_Driver/Src/stm32l4xx_hal_rcc.c ****                 You have to use HAL_RCCEx_PeriphCLKConfig() function to configure this clock.
 204:Drivers/STM32L4xx_HAL_Driver/Src/stm32l4xx_hal_rcc.c ****            (+@) RTC: the RTC clock can be derived either from the LSI, LSE or HSE clock
 205:Drivers/STM32L4xx_HAL_Driver/Src/stm32l4xx_hal_rcc.c ****                 divided by 2 to 31.
 206:Drivers/STM32L4xx_HAL_Driver/Src/stm32l4xx_hal_rcc.c ****                 You have to use __HAL_RCC_RTC_ENABLE() and HAL_RCCEx_PeriphCLKConfig() function
 207:Drivers/STM32L4xx_HAL_Driver/Src/stm32l4xx_hal_rcc.c ****                 to configure this clock.
 208:Drivers/STM32L4xx_HAL_Driver/Src/stm32l4xx_hal_rcc.c ****            (+@) USB OTG FS, SDMMC1 and RNG: USB OTG FS requires a frequency equal to 48 MHz
 209:Drivers/STM32L4xx_HAL_Driver/Src/stm32l4xx_hal_rcc.c ****                 to work correctly, while the SDMMC1 and RNG peripherals require a frequency
 210:Drivers/STM32L4xx_HAL_Driver/Src/stm32l4xx_hal_rcc.c ****                 equal or lower than to 48 MHz. This clock is derived of the main PLL or PLLSAI1
 211:Drivers/STM32L4xx_HAL_Driver/Src/stm32l4xx_hal_rcc.c ****                 through PLLQ divider. You have to enable the peripheral clock and use
 212:Drivers/STM32L4xx_HAL_Driver/Src/stm32l4xx_hal_rcc.c ****                 HAL_RCCEx_PeriphCLKConfig() function to configure this clock.
 213:Drivers/STM32L4xx_HAL_Driver/Src/stm32l4xx_hal_rcc.c ****            (+@) IWDG clock which is always the LSI clock.
 214:Drivers/STM32L4xx_HAL_Driver/Src/stm32l4xx_hal_rcc.c **** 
 215:Drivers/STM32L4xx_HAL_Driver/Src/stm32l4xx_hal_rcc.c **** 
 216:Drivers/STM32L4xx_HAL_Driver/Src/stm32l4xx_hal_rcc.c ****          (+) The maximum frequency of the SYSCLK, HCLK, PCLK1 and PCLK2 is 80 MHz.
 217:Drivers/STM32L4xx_HAL_Driver/Src/stm32l4xx_hal_rcc.c ****              The clock source frequency should be adapted depending on the device voltage range
 218:Drivers/STM32L4xx_HAL_Driver/Src/stm32l4xx_hal_rcc.c ****              as listed in the Reference Manual "Clock source frequency versus voltage scaling" chap
 219:Drivers/STM32L4xx_HAL_Driver/Src/stm32l4xx_hal_rcc.c **** 
 220:Drivers/STM32L4xx_HAL_Driver/Src/stm32l4xx_hal_rcc.c ****   @endverbatim
 221:Drivers/STM32L4xx_HAL_Driver/Src/stm32l4xx_hal_rcc.c **** 
 222:Drivers/STM32L4xx_HAL_Driver/Src/stm32l4xx_hal_rcc.c ****            Table 1. HCLK clock frequency for STM32L4Rx/STM32L4Sx devices
 223:Drivers/STM32L4xx_HAL_Driver/Src/stm32l4xx_hal_rcc.c ****            +--------------------------------------------------------+
 224:Drivers/STM32L4xx_HAL_Driver/Src/stm32l4xx_hal_rcc.c ****            | Latency         |     HCLK clock frequency (MHz)       |
 225:Drivers/STM32L4xx_HAL_Driver/Src/stm32l4xx_hal_rcc.c ****            |                 |--------------------------------------|
 226:Drivers/STM32L4xx_HAL_Driver/Src/stm32l4xx_hal_rcc.c ****            |                 |  voltage range 1  | voltage range 2  |
 227:Drivers/STM32L4xx_HAL_Driver/Src/stm32l4xx_hal_rcc.c ****            |                 |       1.2 V       |     1.0 V        |
 228:Drivers/STM32L4xx_HAL_Driver/Src/stm32l4xx_hal_rcc.c ****            |-----------------|-------------------|------------------|
 229:Drivers/STM32L4xx_HAL_Driver/Src/stm32l4xx_hal_rcc.c ****            |0WS(1 CPU cycles)|   0 < HCLK <= 20  |  0 < HCLK <= 8   |
 230:Drivers/STM32L4xx_HAL_Driver/Src/stm32l4xx_hal_rcc.c ****            |-----------------|-------------------|------------------|
 231:Drivers/STM32L4xx_HAL_Driver/Src/stm32l4xx_hal_rcc.c ****            |1WS(2 CPU cycles)|  20 < HCLK <= 40  |  8 < HCLK <= 16  |
 232:Drivers/STM32L4xx_HAL_Driver/Src/stm32l4xx_hal_rcc.c ****            |-----------------|-------------------|------------------|
 233:Drivers/STM32L4xx_HAL_Driver/Src/stm32l4xx_hal_rcc.c ****            |2WS(3 CPU cycles)|  40 < HCLK <= 60  | 16 < HCLK <= 26  |
 234:Drivers/STM32L4xx_HAL_Driver/Src/stm32l4xx_hal_rcc.c ****            |-----------------|-------------------|------------------|
 235:Drivers/STM32L4xx_HAL_Driver/Src/stm32l4xx_hal_rcc.c ****            |3WS(4 CPU cycles)|  60 < HCLK <= 80  | 16 < HCLK <= 26  |
 236:Drivers/STM32L4xx_HAL_Driver/Src/stm32l4xx_hal_rcc.c ****            |-----------------|-------------------|------------------|
 237:Drivers/STM32L4xx_HAL_Driver/Src/stm32l4xx_hal_rcc.c ****            |4WS(5 CPU cycles)|  80 < HCLK <= 100 | 16 < HCLK <= 26  |
 238:Drivers/STM32L4xx_HAL_Driver/Src/stm32l4xx_hal_rcc.c ****            |-----------------|-------------------|------------------|
 239:Drivers/STM32L4xx_HAL_Driver/Src/stm32l4xx_hal_rcc.c ****            |5WS(6 CPU cycles)| 100 < HCLK <= 120 | 16 < HCLK <= 26  |
 240:Drivers/STM32L4xx_HAL_Driver/Src/stm32l4xx_hal_rcc.c ****            +--------------------------------------------------------+
 241:Drivers/STM32L4xx_HAL_Driver/Src/stm32l4xx_hal_rcc.c **** 
 242:Drivers/STM32L4xx_HAL_Driver/Src/stm32l4xx_hal_rcc.c ****            Table 2. HCLK clock frequency for other STM32L4 devices
 243:Drivers/STM32L4xx_HAL_Driver/Src/stm32l4xx_hal_rcc.c ****            +-------------------------------------------------------+
 244:Drivers/STM32L4xx_HAL_Driver/Src/stm32l4xx_hal_rcc.c ****            | Latency         |    HCLK clock frequency (MHz)       |
 245:Drivers/STM32L4xx_HAL_Driver/Src/stm32l4xx_hal_rcc.c ****            |                 |-------------------------------------|
 246:Drivers/STM32L4xx_HAL_Driver/Src/stm32l4xx_hal_rcc.c ****            |                 | voltage range 1  | voltage range 2  |
 247:Drivers/STM32L4xx_HAL_Driver/Src/stm32l4xx_hal_rcc.c ****            |                 |      1.2 V       |     1.0 V        |
 248:Drivers/STM32L4xx_HAL_Driver/Src/stm32l4xx_hal_rcc.c ****            |-----------------|------------------|------------------|
 249:Drivers/STM32L4xx_HAL_Driver/Src/stm32l4xx_hal_rcc.c ****            |0WS(1 CPU cycles)|  0 < HCLK <= 16  |  0 < HCLK <= 6   |
 250:Drivers/STM32L4xx_HAL_Driver/Src/stm32l4xx_hal_rcc.c ****            |-----------------|------------------|------------------|
 251:Drivers/STM32L4xx_HAL_Driver/Src/stm32l4xx_hal_rcc.c ****            |1WS(2 CPU cycles)| 16 < HCLK <= 32  |  6 < HCLK <= 12  |
 252:Drivers/STM32L4xx_HAL_Driver/Src/stm32l4xx_hal_rcc.c ****            |-----------------|------------------|------------------|
 253:Drivers/STM32L4xx_HAL_Driver/Src/stm32l4xx_hal_rcc.c ****            |2WS(3 CPU cycles)| 32 < HCLK <= 48  | 12 < HCLK <= 18  |
 254:Drivers/STM32L4xx_HAL_Driver/Src/stm32l4xx_hal_rcc.c ****            |-----------------|------------------|------------------|
 255:Drivers/STM32L4xx_HAL_Driver/Src/stm32l4xx_hal_rcc.c ****            |3WS(4 CPU cycles)| 48 < HCLK <= 64  | 18 < HCLK <= 26  |
 256:Drivers/STM32L4xx_HAL_Driver/Src/stm32l4xx_hal_rcc.c ****            |-----------------|------------------|------------------|
 257:Drivers/STM32L4xx_HAL_Driver/Src/stm32l4xx_hal_rcc.c ****            |4WS(5 CPU cycles)| 64 < HCLK <= 80  | 18 < HCLK <= 26  |
 258:Drivers/STM32L4xx_HAL_Driver/Src/stm32l4xx_hal_rcc.c ****            +-------------------------------------------------------+
 259:Drivers/STM32L4xx_HAL_Driver/Src/stm32l4xx_hal_rcc.c ****   * @{
ARM GAS  /var/folders/bq/zy6zjhwd1qn4sn8dk3jpjcq80000gn/T//cc47l0uG.s 			page 6


 260:Drivers/STM32L4xx_HAL_Driver/Src/stm32l4xx_hal_rcc.c ****   */
 261:Drivers/STM32L4xx_HAL_Driver/Src/stm32l4xx_hal_rcc.c **** 
 262:Drivers/STM32L4xx_HAL_Driver/Src/stm32l4xx_hal_rcc.c **** /**
 263:Drivers/STM32L4xx_HAL_Driver/Src/stm32l4xx_hal_rcc.c ****   * @brief  Reset the RCC clock configuration to the default reset state.
 264:Drivers/STM32L4xx_HAL_Driver/Src/stm32l4xx_hal_rcc.c ****   * @note   The default reset state of the clock configuration is given below:
 265:Drivers/STM32L4xx_HAL_Driver/Src/stm32l4xx_hal_rcc.c ****   *            - MSI ON and used as system clock source
 266:Drivers/STM32L4xx_HAL_Driver/Src/stm32l4xx_hal_rcc.c ****   *            - HSE, HSI, PLL, PLLSAI1 and PLLISAI2 OFF
 267:Drivers/STM32L4xx_HAL_Driver/Src/stm32l4xx_hal_rcc.c ****   *            - AHB, APB1 and APB2 prescaler set to 1.
 268:Drivers/STM32L4xx_HAL_Driver/Src/stm32l4xx_hal_rcc.c ****   *            - CSS, MCO1 OFF
 269:Drivers/STM32L4xx_HAL_Driver/Src/stm32l4xx_hal_rcc.c ****   *            - All interrupts disabled
 270:Drivers/STM32L4xx_HAL_Driver/Src/stm32l4xx_hal_rcc.c ****   *            - All interrupt and reset flags cleared
 271:Drivers/STM32L4xx_HAL_Driver/Src/stm32l4xx_hal_rcc.c ****   * @note   This function doesn't modify the configuration of the
 272:Drivers/STM32L4xx_HAL_Driver/Src/stm32l4xx_hal_rcc.c ****   *            - Peripheral clocks
 273:Drivers/STM32L4xx_HAL_Driver/Src/stm32l4xx_hal_rcc.c ****   *            - LSI, LSE and RTC clocks
 274:Drivers/STM32L4xx_HAL_Driver/Src/stm32l4xx_hal_rcc.c ****   * @retval HAL status
 275:Drivers/STM32L4xx_HAL_Driver/Src/stm32l4xx_hal_rcc.c ****   */
 276:Drivers/STM32L4xx_HAL_Driver/Src/stm32l4xx_hal_rcc.c **** HAL_StatusTypeDef HAL_RCC_DeInit(void)
 277:Drivers/STM32L4xx_HAL_Driver/Src/stm32l4xx_hal_rcc.c **** {
 278:Drivers/STM32L4xx_HAL_Driver/Src/stm32l4xx_hal_rcc.c ****   uint32_t tickstart = 0;
 279:Drivers/STM32L4xx_HAL_Driver/Src/stm32l4xx_hal_rcc.c **** 
 280:Drivers/STM32L4xx_HAL_Driver/Src/stm32l4xx_hal_rcc.c ****   /* Set MSION bit */
 281:Drivers/STM32L4xx_HAL_Driver/Src/stm32l4xx_hal_rcc.c ****   SET_BIT(RCC->CR, RCC_CR_MSION);
 282:Drivers/STM32L4xx_HAL_Driver/Src/stm32l4xx_hal_rcc.c **** 
 283:Drivers/STM32L4xx_HAL_Driver/Src/stm32l4xx_hal_rcc.c ****   /* Insure MSIRDY bit is set before writing default MSIRANGE value */
 284:Drivers/STM32L4xx_HAL_Driver/Src/stm32l4xx_hal_rcc.c ****   /* Get start tick */
 285:Drivers/STM32L4xx_HAL_Driver/Src/stm32l4xx_hal_rcc.c ****   tickstart = HAL_GetTick();
 286:Drivers/STM32L4xx_HAL_Driver/Src/stm32l4xx_hal_rcc.c **** 
 287:Drivers/STM32L4xx_HAL_Driver/Src/stm32l4xx_hal_rcc.c ****   /* Wait till MSI is ready */
 288:Drivers/STM32L4xx_HAL_Driver/Src/stm32l4xx_hal_rcc.c ****   while(READ_BIT(RCC->CR, RCC_CR_MSIRDY) == RESET)
 289:Drivers/STM32L4xx_HAL_Driver/Src/stm32l4xx_hal_rcc.c ****   {
 290:Drivers/STM32L4xx_HAL_Driver/Src/stm32l4xx_hal_rcc.c ****     if((HAL_GetTick() - tickstart) > MSI_TIMEOUT_VALUE)
 291:Drivers/STM32L4xx_HAL_Driver/Src/stm32l4xx_hal_rcc.c ****     {
 292:Drivers/STM32L4xx_HAL_Driver/Src/stm32l4xx_hal_rcc.c ****       return HAL_TIMEOUT;
 293:Drivers/STM32L4xx_HAL_Driver/Src/stm32l4xx_hal_rcc.c ****     }
 294:Drivers/STM32L4xx_HAL_Driver/Src/stm32l4xx_hal_rcc.c ****   }
 295:Drivers/STM32L4xx_HAL_Driver/Src/stm32l4xx_hal_rcc.c **** 
 296:Drivers/STM32L4xx_HAL_Driver/Src/stm32l4xx_hal_rcc.c ****   /* Set MSIRANGE default value */
 297:Drivers/STM32L4xx_HAL_Driver/Src/stm32l4xx_hal_rcc.c ****   MODIFY_REG(RCC->CR, RCC_CR_MSIRANGE, RCC_MSIRANGE_6);
 298:Drivers/STM32L4xx_HAL_Driver/Src/stm32l4xx_hal_rcc.c **** 
 299:Drivers/STM32L4xx_HAL_Driver/Src/stm32l4xx_hal_rcc.c ****   /* Reset CFGR register (MSI is selected as system clock source) */
 300:Drivers/STM32L4xx_HAL_Driver/Src/stm32l4xx_hal_rcc.c ****   CLEAR_REG(RCC->CFGR);
 301:Drivers/STM32L4xx_HAL_Driver/Src/stm32l4xx_hal_rcc.c **** 
 302:Drivers/STM32L4xx_HAL_Driver/Src/stm32l4xx_hal_rcc.c ****   /* Update the SystemCoreClock global variable for MSI as system clock source */
 303:Drivers/STM32L4xx_HAL_Driver/Src/stm32l4xx_hal_rcc.c ****   SystemCoreClock = MSI_VALUE;
 304:Drivers/STM32L4xx_HAL_Driver/Src/stm32l4xx_hal_rcc.c **** 
 305:Drivers/STM32L4xx_HAL_Driver/Src/stm32l4xx_hal_rcc.c ****   /* Configure the source of time base considering new system clock settings  */
 306:Drivers/STM32L4xx_HAL_Driver/Src/stm32l4xx_hal_rcc.c ****   if(HAL_InitTick(TICK_INT_PRIORITY) != HAL_OK)
 307:Drivers/STM32L4xx_HAL_Driver/Src/stm32l4xx_hal_rcc.c ****   {
 308:Drivers/STM32L4xx_HAL_Driver/Src/stm32l4xx_hal_rcc.c ****     return HAL_ERROR;
 309:Drivers/STM32L4xx_HAL_Driver/Src/stm32l4xx_hal_rcc.c ****   }
 310:Drivers/STM32L4xx_HAL_Driver/Src/stm32l4xx_hal_rcc.c **** 
 311:Drivers/STM32L4xx_HAL_Driver/Src/stm32l4xx_hal_rcc.c ****   /* Insure MSI selected as system clock source */
 312:Drivers/STM32L4xx_HAL_Driver/Src/stm32l4xx_hal_rcc.c ****   /* Get start tick */
 313:Drivers/STM32L4xx_HAL_Driver/Src/stm32l4xx_hal_rcc.c ****   tickstart = HAL_GetTick();
 314:Drivers/STM32L4xx_HAL_Driver/Src/stm32l4xx_hal_rcc.c **** 
 315:Drivers/STM32L4xx_HAL_Driver/Src/stm32l4xx_hal_rcc.c ****   /* Wait till system clock source is ready */
 316:Drivers/STM32L4xx_HAL_Driver/Src/stm32l4xx_hal_rcc.c ****   while(READ_BIT(RCC->CFGR, RCC_CFGR_SWS) != RCC_CFGR_SWS_MSI)
ARM GAS  /var/folders/bq/zy6zjhwd1qn4sn8dk3jpjcq80000gn/T//cc47l0uG.s 			page 7


 317:Drivers/STM32L4xx_HAL_Driver/Src/stm32l4xx_hal_rcc.c ****   {
 318:Drivers/STM32L4xx_HAL_Driver/Src/stm32l4xx_hal_rcc.c ****     if((HAL_GetTick() - tickstart) > CLOCKSWITCH_TIMEOUT_VALUE)
 319:Drivers/STM32L4xx_HAL_Driver/Src/stm32l4xx_hal_rcc.c ****     {
 320:Drivers/STM32L4xx_HAL_Driver/Src/stm32l4xx_hal_rcc.c ****       return HAL_TIMEOUT;
 321:Drivers/STM32L4xx_HAL_Driver/Src/stm32l4xx_hal_rcc.c ****     }
 322:Drivers/STM32L4xx_HAL_Driver/Src/stm32l4xx_hal_rcc.c ****   }
 323:Drivers/STM32L4xx_HAL_Driver/Src/stm32l4xx_hal_rcc.c **** 
 324:Drivers/STM32L4xx_HAL_Driver/Src/stm32l4xx_hal_rcc.c ****   /* Reset HSION, HSIKERON, HSIASFS, HSEON, HSECSSON, PLLON, PLLSAIxON bits */
 325:Drivers/STM32L4xx_HAL_Driver/Src/stm32l4xx_hal_rcc.c **** #if defined(RCC_PLLSAI2_SUPPORT)
 326:Drivers/STM32L4xx_HAL_Driver/Src/stm32l4xx_hal_rcc.c **** 
 327:Drivers/STM32L4xx_HAL_Driver/Src/stm32l4xx_hal_rcc.c ****   CLEAR_BIT(RCC->CR, RCC_CR_HSEON | RCC_CR_HSION | RCC_CR_HSIKERON| RCC_CR_HSIASFS | RCC_CR_PLLON |
 328:Drivers/STM32L4xx_HAL_Driver/Src/stm32l4xx_hal_rcc.c **** 
 329:Drivers/STM32L4xx_HAL_Driver/Src/stm32l4xx_hal_rcc.c **** #else
 330:Drivers/STM32L4xx_HAL_Driver/Src/stm32l4xx_hal_rcc.c **** 
 331:Drivers/STM32L4xx_HAL_Driver/Src/stm32l4xx_hal_rcc.c ****   CLEAR_BIT(RCC->CR, RCC_CR_HSEON | RCC_CR_HSION | RCC_CR_HSIKERON| RCC_CR_HSIASFS | RCC_CR_PLLON |
 332:Drivers/STM32L4xx_HAL_Driver/Src/stm32l4xx_hal_rcc.c **** 
 333:Drivers/STM32L4xx_HAL_Driver/Src/stm32l4xx_hal_rcc.c **** #endif /* RCC_PLLSAI2_SUPPORT */
 334:Drivers/STM32L4xx_HAL_Driver/Src/stm32l4xx_hal_rcc.c **** 
 335:Drivers/STM32L4xx_HAL_Driver/Src/stm32l4xx_hal_rcc.c ****   /* Insure PLLRDY, PLLSAI1RDY and PLLSAI2RDY (if present) are reset */
 336:Drivers/STM32L4xx_HAL_Driver/Src/stm32l4xx_hal_rcc.c ****   /* Get start tick */
 337:Drivers/STM32L4xx_HAL_Driver/Src/stm32l4xx_hal_rcc.c ****   tickstart = HAL_GetTick();
 338:Drivers/STM32L4xx_HAL_Driver/Src/stm32l4xx_hal_rcc.c **** 
 339:Drivers/STM32L4xx_HAL_Driver/Src/stm32l4xx_hal_rcc.c **** #if defined(RCC_PLLSAI2_SUPPORT)
 340:Drivers/STM32L4xx_HAL_Driver/Src/stm32l4xx_hal_rcc.c **** 
 341:Drivers/STM32L4xx_HAL_Driver/Src/stm32l4xx_hal_rcc.c ****   while(READ_BIT(RCC->CR, RCC_CR_PLLRDY | RCC_CR_PLLSAI1RDY | RCC_CR_PLLSAI2RDY) != 0U)
 342:Drivers/STM32L4xx_HAL_Driver/Src/stm32l4xx_hal_rcc.c **** 
 343:Drivers/STM32L4xx_HAL_Driver/Src/stm32l4xx_hal_rcc.c **** #else
 344:Drivers/STM32L4xx_HAL_Driver/Src/stm32l4xx_hal_rcc.c **** 
 345:Drivers/STM32L4xx_HAL_Driver/Src/stm32l4xx_hal_rcc.c ****   while(READ_BIT(RCC->CR, RCC_CR_PLLRDY | RCC_CR_PLLSAI1RDY) != 0U)
 346:Drivers/STM32L4xx_HAL_Driver/Src/stm32l4xx_hal_rcc.c **** 
 347:Drivers/STM32L4xx_HAL_Driver/Src/stm32l4xx_hal_rcc.c **** #endif
 348:Drivers/STM32L4xx_HAL_Driver/Src/stm32l4xx_hal_rcc.c ****   {
 349:Drivers/STM32L4xx_HAL_Driver/Src/stm32l4xx_hal_rcc.c ****     if((HAL_GetTick() - tickstart) > PLL_TIMEOUT_VALUE)
 350:Drivers/STM32L4xx_HAL_Driver/Src/stm32l4xx_hal_rcc.c ****     {
 351:Drivers/STM32L4xx_HAL_Driver/Src/stm32l4xx_hal_rcc.c ****       return HAL_TIMEOUT;
 352:Drivers/STM32L4xx_HAL_Driver/Src/stm32l4xx_hal_rcc.c ****     }
 353:Drivers/STM32L4xx_HAL_Driver/Src/stm32l4xx_hal_rcc.c ****   }
 354:Drivers/STM32L4xx_HAL_Driver/Src/stm32l4xx_hal_rcc.c **** 
 355:Drivers/STM32L4xx_HAL_Driver/Src/stm32l4xx_hal_rcc.c ****   /* Reset PLLCFGR register */
 356:Drivers/STM32L4xx_HAL_Driver/Src/stm32l4xx_hal_rcc.c ****   CLEAR_REG(RCC->PLLCFGR);
 357:Drivers/STM32L4xx_HAL_Driver/Src/stm32l4xx_hal_rcc.c ****   SET_BIT(RCC->PLLCFGR, RCC_PLLCFGR_PLLN_4 );
 358:Drivers/STM32L4xx_HAL_Driver/Src/stm32l4xx_hal_rcc.c **** 
 359:Drivers/STM32L4xx_HAL_Driver/Src/stm32l4xx_hal_rcc.c ****   /* Reset PLLSAI1CFGR register */
 360:Drivers/STM32L4xx_HAL_Driver/Src/stm32l4xx_hal_rcc.c ****   CLEAR_REG(RCC->PLLSAI1CFGR);
 361:Drivers/STM32L4xx_HAL_Driver/Src/stm32l4xx_hal_rcc.c ****   SET_BIT(RCC->PLLSAI1CFGR,  RCC_PLLSAI1CFGR_PLLSAI1N_4 );
 362:Drivers/STM32L4xx_HAL_Driver/Src/stm32l4xx_hal_rcc.c **** 
 363:Drivers/STM32L4xx_HAL_Driver/Src/stm32l4xx_hal_rcc.c **** #if defined(RCC_PLLSAI2_SUPPORT)
 364:Drivers/STM32L4xx_HAL_Driver/Src/stm32l4xx_hal_rcc.c **** 
 365:Drivers/STM32L4xx_HAL_Driver/Src/stm32l4xx_hal_rcc.c ****   /* Reset PLLSAI2CFGR register */
 366:Drivers/STM32L4xx_HAL_Driver/Src/stm32l4xx_hal_rcc.c ****   CLEAR_REG(RCC->PLLSAI2CFGR);
 367:Drivers/STM32L4xx_HAL_Driver/Src/stm32l4xx_hal_rcc.c ****   SET_BIT(RCC->PLLSAI2CFGR,  RCC_PLLSAI2CFGR_PLLSAI2N_4 );
 368:Drivers/STM32L4xx_HAL_Driver/Src/stm32l4xx_hal_rcc.c **** 
 369:Drivers/STM32L4xx_HAL_Driver/Src/stm32l4xx_hal_rcc.c **** #endif /* RCC_PLLSAI2_SUPPORT */
 370:Drivers/STM32L4xx_HAL_Driver/Src/stm32l4xx_hal_rcc.c **** 
 371:Drivers/STM32L4xx_HAL_Driver/Src/stm32l4xx_hal_rcc.c ****   /* Reset HSEBYP bit */
 372:Drivers/STM32L4xx_HAL_Driver/Src/stm32l4xx_hal_rcc.c ****   CLEAR_BIT(RCC->CR, RCC_CR_HSEBYP);
 373:Drivers/STM32L4xx_HAL_Driver/Src/stm32l4xx_hal_rcc.c **** 
ARM GAS  /var/folders/bq/zy6zjhwd1qn4sn8dk3jpjcq80000gn/T//cc47l0uG.s 			page 8


 374:Drivers/STM32L4xx_HAL_Driver/Src/stm32l4xx_hal_rcc.c ****   /* Disable all interrupts */
 375:Drivers/STM32L4xx_HAL_Driver/Src/stm32l4xx_hal_rcc.c ****   CLEAR_REG(RCC->CIER);
 376:Drivers/STM32L4xx_HAL_Driver/Src/stm32l4xx_hal_rcc.c **** 
 377:Drivers/STM32L4xx_HAL_Driver/Src/stm32l4xx_hal_rcc.c ****   /* Clear all interrupt flags */
 378:Drivers/STM32L4xx_HAL_Driver/Src/stm32l4xx_hal_rcc.c ****   WRITE_REG(RCC->CICR, 0xFFFFFFFFU);
 379:Drivers/STM32L4xx_HAL_Driver/Src/stm32l4xx_hal_rcc.c **** 
 380:Drivers/STM32L4xx_HAL_Driver/Src/stm32l4xx_hal_rcc.c ****   /* Clear all reset flags */
 381:Drivers/STM32L4xx_HAL_Driver/Src/stm32l4xx_hal_rcc.c ****   SET_BIT(RCC->CSR, RCC_CSR_RMVF);
 382:Drivers/STM32L4xx_HAL_Driver/Src/stm32l4xx_hal_rcc.c **** 
 383:Drivers/STM32L4xx_HAL_Driver/Src/stm32l4xx_hal_rcc.c ****   return HAL_OK;
 384:Drivers/STM32L4xx_HAL_Driver/Src/stm32l4xx_hal_rcc.c **** }
 385:Drivers/STM32L4xx_HAL_Driver/Src/stm32l4xx_hal_rcc.c **** 
 386:Drivers/STM32L4xx_HAL_Driver/Src/stm32l4xx_hal_rcc.c **** /**
 387:Drivers/STM32L4xx_HAL_Driver/Src/stm32l4xx_hal_rcc.c ****   * @brief  Initialize the RCC Oscillators according to the specified parameters in the
 388:Drivers/STM32L4xx_HAL_Driver/Src/stm32l4xx_hal_rcc.c ****   *         RCC_OscInitTypeDef.
 389:Drivers/STM32L4xx_HAL_Driver/Src/stm32l4xx_hal_rcc.c ****   * @param  RCC_OscInitStruct  pointer to an RCC_OscInitTypeDef structure that
 390:Drivers/STM32L4xx_HAL_Driver/Src/stm32l4xx_hal_rcc.c ****   *         contains the configuration information for the RCC Oscillators.
 391:Drivers/STM32L4xx_HAL_Driver/Src/stm32l4xx_hal_rcc.c ****   * @note   The PLL is not disabled when used as system clock.
 392:Drivers/STM32L4xx_HAL_Driver/Src/stm32l4xx_hal_rcc.c ****   * @note   Transitions LSE Bypass to LSE On and LSE On to LSE Bypass are not
 393:Drivers/STM32L4xx_HAL_Driver/Src/stm32l4xx_hal_rcc.c ****   *         supported by this macro. User should request a transition to LSE Off
 394:Drivers/STM32L4xx_HAL_Driver/Src/stm32l4xx_hal_rcc.c ****   *         first and then LSE On or LSE Bypass.
 395:Drivers/STM32L4xx_HAL_Driver/Src/stm32l4xx_hal_rcc.c ****   * @note   Transition HSE Bypass to HSE On and HSE On to HSE Bypass are not
 396:Drivers/STM32L4xx_HAL_Driver/Src/stm32l4xx_hal_rcc.c ****   *         supported by this macro. User should request a transition to HSE Off
 397:Drivers/STM32L4xx_HAL_Driver/Src/stm32l4xx_hal_rcc.c ****   *         first and then HSE On or HSE Bypass.
 398:Drivers/STM32L4xx_HAL_Driver/Src/stm32l4xx_hal_rcc.c ****   * @retval HAL status
 399:Drivers/STM32L4xx_HAL_Driver/Src/stm32l4xx_hal_rcc.c ****   */
 400:Drivers/STM32L4xx_HAL_Driver/Src/stm32l4xx_hal_rcc.c **** HAL_StatusTypeDef HAL_RCC_OscConfig(RCC_OscInitTypeDef  *RCC_OscInitStruct)
 401:Drivers/STM32L4xx_HAL_Driver/Src/stm32l4xx_hal_rcc.c **** {
 402:Drivers/STM32L4xx_HAL_Driver/Src/stm32l4xx_hal_rcc.c ****   uint32_t tickstart;
 403:Drivers/STM32L4xx_HAL_Driver/Src/stm32l4xx_hal_rcc.c **** 
 404:Drivers/STM32L4xx_HAL_Driver/Src/stm32l4xx_hal_rcc.c ****   /* Check Null pointer */
 405:Drivers/STM32L4xx_HAL_Driver/Src/stm32l4xx_hal_rcc.c ****   if(RCC_OscInitStruct == NULL)
 406:Drivers/STM32L4xx_HAL_Driver/Src/stm32l4xx_hal_rcc.c ****   {
 407:Drivers/STM32L4xx_HAL_Driver/Src/stm32l4xx_hal_rcc.c ****     return HAL_ERROR;
 408:Drivers/STM32L4xx_HAL_Driver/Src/stm32l4xx_hal_rcc.c ****   }
 409:Drivers/STM32L4xx_HAL_Driver/Src/stm32l4xx_hal_rcc.c **** 
 410:Drivers/STM32L4xx_HAL_Driver/Src/stm32l4xx_hal_rcc.c ****   /* Check the parameters */
 411:Drivers/STM32L4xx_HAL_Driver/Src/stm32l4xx_hal_rcc.c ****   assert_param(IS_RCC_OSCILLATORTYPE(RCC_OscInitStruct->OscillatorType));
 412:Drivers/STM32L4xx_HAL_Driver/Src/stm32l4xx_hal_rcc.c **** 
 413:Drivers/STM32L4xx_HAL_Driver/Src/stm32l4xx_hal_rcc.c ****   /*----------------------------- MSI Configuration --------------------------*/
 414:Drivers/STM32L4xx_HAL_Driver/Src/stm32l4xx_hal_rcc.c ****   if(((RCC_OscInitStruct->OscillatorType) & RCC_OSCILLATORTYPE_MSI) == RCC_OSCILLATORTYPE_MSI)
 415:Drivers/STM32L4xx_HAL_Driver/Src/stm32l4xx_hal_rcc.c ****   {
 416:Drivers/STM32L4xx_HAL_Driver/Src/stm32l4xx_hal_rcc.c ****     /* Check the parameters */
 417:Drivers/STM32L4xx_HAL_Driver/Src/stm32l4xx_hal_rcc.c ****     assert_param(IS_RCC_MSI(RCC_OscInitStruct->MSIState));
 418:Drivers/STM32L4xx_HAL_Driver/Src/stm32l4xx_hal_rcc.c ****     assert_param(IS_RCC_MSICALIBRATION_VALUE(RCC_OscInitStruct->MSICalibrationValue));
 419:Drivers/STM32L4xx_HAL_Driver/Src/stm32l4xx_hal_rcc.c ****     assert_param(IS_RCC_MSI_CLOCK_RANGE(RCC_OscInitStruct->MSIClockRange));
 420:Drivers/STM32L4xx_HAL_Driver/Src/stm32l4xx_hal_rcc.c **** 
 421:Drivers/STM32L4xx_HAL_Driver/Src/stm32l4xx_hal_rcc.c ****     /* When the MSI is used as system clock it will not be disabled */
 422:Drivers/STM32L4xx_HAL_Driver/Src/stm32l4xx_hal_rcc.c ****     if((__HAL_RCC_GET_SYSCLK_SOURCE() == RCC_CFGR_SWS_MSI) )
 423:Drivers/STM32L4xx_HAL_Driver/Src/stm32l4xx_hal_rcc.c ****     {
 424:Drivers/STM32L4xx_HAL_Driver/Src/stm32l4xx_hal_rcc.c ****       if((READ_BIT(RCC->CR, RCC_CR_MSIRDY) != RESET) && (RCC_OscInitStruct->MSIState == RCC_MSI_OFF
 425:Drivers/STM32L4xx_HAL_Driver/Src/stm32l4xx_hal_rcc.c ****       {
 426:Drivers/STM32L4xx_HAL_Driver/Src/stm32l4xx_hal_rcc.c ****         return HAL_ERROR;
 427:Drivers/STM32L4xx_HAL_Driver/Src/stm32l4xx_hal_rcc.c ****       }
 428:Drivers/STM32L4xx_HAL_Driver/Src/stm32l4xx_hal_rcc.c **** 
 429:Drivers/STM32L4xx_HAL_Driver/Src/stm32l4xx_hal_rcc.c ****        /* Otherwise, just the calibration and MSI range change are allowed */
 430:Drivers/STM32L4xx_HAL_Driver/Src/stm32l4xx_hal_rcc.c ****       else
ARM GAS  /var/folders/bq/zy6zjhwd1qn4sn8dk3jpjcq80000gn/T//cc47l0uG.s 			page 9


 431:Drivers/STM32L4xx_HAL_Driver/Src/stm32l4xx_hal_rcc.c ****       {
 432:Drivers/STM32L4xx_HAL_Driver/Src/stm32l4xx_hal_rcc.c ****         /* To correctly read data from FLASH memory, the number of wait states (LATENCY)
 433:Drivers/STM32L4xx_HAL_Driver/Src/stm32l4xx_hal_rcc.c ****            must be correctly programmed according to the frequency of the CPU clock
 434:Drivers/STM32L4xx_HAL_Driver/Src/stm32l4xx_hal_rcc.c ****            (HCLK) and the supply voltage of the device. */
 435:Drivers/STM32L4xx_HAL_Driver/Src/stm32l4xx_hal_rcc.c ****         if(RCC_OscInitStruct->MSIClockRange > __HAL_RCC_GET_MSI_RANGE())
 436:Drivers/STM32L4xx_HAL_Driver/Src/stm32l4xx_hal_rcc.c ****         {
 437:Drivers/STM32L4xx_HAL_Driver/Src/stm32l4xx_hal_rcc.c ****           /* First increase number of wait states update if necessary */
 438:Drivers/STM32L4xx_HAL_Driver/Src/stm32l4xx_hal_rcc.c ****           if(RCC_SetFlashLatencyFromMSIRange(RCC_OscInitStruct->MSIClockRange) != HAL_OK)
 439:Drivers/STM32L4xx_HAL_Driver/Src/stm32l4xx_hal_rcc.c ****           {
 440:Drivers/STM32L4xx_HAL_Driver/Src/stm32l4xx_hal_rcc.c ****             return HAL_ERROR;
 441:Drivers/STM32L4xx_HAL_Driver/Src/stm32l4xx_hal_rcc.c ****           }
 442:Drivers/STM32L4xx_HAL_Driver/Src/stm32l4xx_hal_rcc.c **** 
 443:Drivers/STM32L4xx_HAL_Driver/Src/stm32l4xx_hal_rcc.c ****           /* Selects the Multiple Speed oscillator (MSI) clock range .*/
 444:Drivers/STM32L4xx_HAL_Driver/Src/stm32l4xx_hal_rcc.c ****           __HAL_RCC_MSI_RANGE_CONFIG(RCC_OscInitStruct->MSIClockRange);
 445:Drivers/STM32L4xx_HAL_Driver/Src/stm32l4xx_hal_rcc.c ****           /* Adjusts the Multiple Speed oscillator (MSI) calibration value.*/
 446:Drivers/STM32L4xx_HAL_Driver/Src/stm32l4xx_hal_rcc.c ****           __HAL_RCC_MSI_CALIBRATIONVALUE_ADJUST(RCC_OscInitStruct->MSICalibrationValue);
 447:Drivers/STM32L4xx_HAL_Driver/Src/stm32l4xx_hal_rcc.c ****         }
 448:Drivers/STM32L4xx_HAL_Driver/Src/stm32l4xx_hal_rcc.c ****         else
 449:Drivers/STM32L4xx_HAL_Driver/Src/stm32l4xx_hal_rcc.c ****         {
 450:Drivers/STM32L4xx_HAL_Driver/Src/stm32l4xx_hal_rcc.c ****           /* Else, keep current flash latency while decreasing applies */
 451:Drivers/STM32L4xx_HAL_Driver/Src/stm32l4xx_hal_rcc.c ****           /* Selects the Multiple Speed oscillator (MSI) clock range .*/
 452:Drivers/STM32L4xx_HAL_Driver/Src/stm32l4xx_hal_rcc.c ****           __HAL_RCC_MSI_RANGE_CONFIG(RCC_OscInitStruct->MSIClockRange);
 453:Drivers/STM32L4xx_HAL_Driver/Src/stm32l4xx_hal_rcc.c ****           /* Adjusts the Multiple Speed oscillator (MSI) calibration value.*/
 454:Drivers/STM32L4xx_HAL_Driver/Src/stm32l4xx_hal_rcc.c ****           __HAL_RCC_MSI_CALIBRATIONVALUE_ADJUST(RCC_OscInitStruct->MSICalibrationValue);
 455:Drivers/STM32L4xx_HAL_Driver/Src/stm32l4xx_hal_rcc.c **** 
 456:Drivers/STM32L4xx_HAL_Driver/Src/stm32l4xx_hal_rcc.c ****           /* Decrease number of wait states update if necessary */
 457:Drivers/STM32L4xx_HAL_Driver/Src/stm32l4xx_hal_rcc.c ****           if(RCC_SetFlashLatencyFromMSIRange(RCC_OscInitStruct->MSIClockRange) != HAL_OK)
 458:Drivers/STM32L4xx_HAL_Driver/Src/stm32l4xx_hal_rcc.c ****           {
 459:Drivers/STM32L4xx_HAL_Driver/Src/stm32l4xx_hal_rcc.c ****             return HAL_ERROR;
 460:Drivers/STM32L4xx_HAL_Driver/Src/stm32l4xx_hal_rcc.c ****           }
 461:Drivers/STM32L4xx_HAL_Driver/Src/stm32l4xx_hal_rcc.c ****         }
 462:Drivers/STM32L4xx_HAL_Driver/Src/stm32l4xx_hal_rcc.c **** 
 463:Drivers/STM32L4xx_HAL_Driver/Src/stm32l4xx_hal_rcc.c ****         /* Update the SystemCoreClock global variable */
 464:Drivers/STM32L4xx_HAL_Driver/Src/stm32l4xx_hal_rcc.c ****         SystemCoreClock = HAL_RCC_GetSysClockFreq() >> AHBPrescTable[READ_BIT(RCC->CFGR, RCC_CFGR_H
 465:Drivers/STM32L4xx_HAL_Driver/Src/stm32l4xx_hal_rcc.c **** 
 466:Drivers/STM32L4xx_HAL_Driver/Src/stm32l4xx_hal_rcc.c ****         /* Configure the source of time base considering new system clocks settings*/
 467:Drivers/STM32L4xx_HAL_Driver/Src/stm32l4xx_hal_rcc.c ****         HAL_InitTick (TICK_INT_PRIORITY);
 468:Drivers/STM32L4xx_HAL_Driver/Src/stm32l4xx_hal_rcc.c ****       }
 469:Drivers/STM32L4xx_HAL_Driver/Src/stm32l4xx_hal_rcc.c ****     }
 470:Drivers/STM32L4xx_HAL_Driver/Src/stm32l4xx_hal_rcc.c ****     else
 471:Drivers/STM32L4xx_HAL_Driver/Src/stm32l4xx_hal_rcc.c ****     {
 472:Drivers/STM32L4xx_HAL_Driver/Src/stm32l4xx_hal_rcc.c ****       /* Check the MSI State */
 473:Drivers/STM32L4xx_HAL_Driver/Src/stm32l4xx_hal_rcc.c ****       if(RCC_OscInitStruct->MSIState != RCC_MSI_OFF)
 474:Drivers/STM32L4xx_HAL_Driver/Src/stm32l4xx_hal_rcc.c ****       {
 475:Drivers/STM32L4xx_HAL_Driver/Src/stm32l4xx_hal_rcc.c ****         /* Enable the Internal High Speed oscillator (MSI). */
 476:Drivers/STM32L4xx_HAL_Driver/Src/stm32l4xx_hal_rcc.c ****         __HAL_RCC_MSI_ENABLE();
 477:Drivers/STM32L4xx_HAL_Driver/Src/stm32l4xx_hal_rcc.c **** 
 478:Drivers/STM32L4xx_HAL_Driver/Src/stm32l4xx_hal_rcc.c ****         /* Get timeout */
 479:Drivers/STM32L4xx_HAL_Driver/Src/stm32l4xx_hal_rcc.c ****         tickstart = HAL_GetTick();
 480:Drivers/STM32L4xx_HAL_Driver/Src/stm32l4xx_hal_rcc.c **** 
 481:Drivers/STM32L4xx_HAL_Driver/Src/stm32l4xx_hal_rcc.c ****         /* Wait till MSI is ready */
 482:Drivers/STM32L4xx_HAL_Driver/Src/stm32l4xx_hal_rcc.c ****         while(READ_BIT(RCC->CR, RCC_CR_MSIRDY) == RESET)
 483:Drivers/STM32L4xx_HAL_Driver/Src/stm32l4xx_hal_rcc.c ****         {
 484:Drivers/STM32L4xx_HAL_Driver/Src/stm32l4xx_hal_rcc.c ****           if((HAL_GetTick() - tickstart) > MSI_TIMEOUT_VALUE)
 485:Drivers/STM32L4xx_HAL_Driver/Src/stm32l4xx_hal_rcc.c ****           {
 486:Drivers/STM32L4xx_HAL_Driver/Src/stm32l4xx_hal_rcc.c ****             return HAL_TIMEOUT;
 487:Drivers/STM32L4xx_HAL_Driver/Src/stm32l4xx_hal_rcc.c ****           }
ARM GAS  /var/folders/bq/zy6zjhwd1qn4sn8dk3jpjcq80000gn/T//cc47l0uG.s 			page 10


 488:Drivers/STM32L4xx_HAL_Driver/Src/stm32l4xx_hal_rcc.c ****         }
 489:Drivers/STM32L4xx_HAL_Driver/Src/stm32l4xx_hal_rcc.c ****          /* Selects the Multiple Speed oscillator (MSI) clock range .*/
 490:Drivers/STM32L4xx_HAL_Driver/Src/stm32l4xx_hal_rcc.c ****         __HAL_RCC_MSI_RANGE_CONFIG(RCC_OscInitStruct->MSIClockRange);
 491:Drivers/STM32L4xx_HAL_Driver/Src/stm32l4xx_hal_rcc.c ****          /* Adjusts the Multiple Speed oscillator (MSI) calibration value.*/
 492:Drivers/STM32L4xx_HAL_Driver/Src/stm32l4xx_hal_rcc.c ****         __HAL_RCC_MSI_CALIBRATIONVALUE_ADJUST(RCC_OscInitStruct->MSICalibrationValue);
 493:Drivers/STM32L4xx_HAL_Driver/Src/stm32l4xx_hal_rcc.c **** 
 494:Drivers/STM32L4xx_HAL_Driver/Src/stm32l4xx_hal_rcc.c ****       }
 495:Drivers/STM32L4xx_HAL_Driver/Src/stm32l4xx_hal_rcc.c ****       else
 496:Drivers/STM32L4xx_HAL_Driver/Src/stm32l4xx_hal_rcc.c ****       {
 497:Drivers/STM32L4xx_HAL_Driver/Src/stm32l4xx_hal_rcc.c ****         /* Disable the Internal High Speed oscillator (MSI). */
 498:Drivers/STM32L4xx_HAL_Driver/Src/stm32l4xx_hal_rcc.c ****         __HAL_RCC_MSI_DISABLE();
 499:Drivers/STM32L4xx_HAL_Driver/Src/stm32l4xx_hal_rcc.c **** 
 500:Drivers/STM32L4xx_HAL_Driver/Src/stm32l4xx_hal_rcc.c ****         /* Get timeout */
 501:Drivers/STM32L4xx_HAL_Driver/Src/stm32l4xx_hal_rcc.c ****         tickstart = HAL_GetTick();
 502:Drivers/STM32L4xx_HAL_Driver/Src/stm32l4xx_hal_rcc.c **** 
 503:Drivers/STM32L4xx_HAL_Driver/Src/stm32l4xx_hal_rcc.c ****         /* Wait till MSI is ready */
 504:Drivers/STM32L4xx_HAL_Driver/Src/stm32l4xx_hal_rcc.c ****         while(READ_BIT(RCC->CR, RCC_CR_MSIRDY) != RESET)
 505:Drivers/STM32L4xx_HAL_Driver/Src/stm32l4xx_hal_rcc.c ****         {
 506:Drivers/STM32L4xx_HAL_Driver/Src/stm32l4xx_hal_rcc.c ****           if((HAL_GetTick() - tickstart) > MSI_TIMEOUT_VALUE)
 507:Drivers/STM32L4xx_HAL_Driver/Src/stm32l4xx_hal_rcc.c ****           {
 508:Drivers/STM32L4xx_HAL_Driver/Src/stm32l4xx_hal_rcc.c ****             return HAL_TIMEOUT;
 509:Drivers/STM32L4xx_HAL_Driver/Src/stm32l4xx_hal_rcc.c ****           }
 510:Drivers/STM32L4xx_HAL_Driver/Src/stm32l4xx_hal_rcc.c ****         }
 511:Drivers/STM32L4xx_HAL_Driver/Src/stm32l4xx_hal_rcc.c ****       }
 512:Drivers/STM32L4xx_HAL_Driver/Src/stm32l4xx_hal_rcc.c ****     }
 513:Drivers/STM32L4xx_HAL_Driver/Src/stm32l4xx_hal_rcc.c ****   }
 514:Drivers/STM32L4xx_HAL_Driver/Src/stm32l4xx_hal_rcc.c ****   /*------------------------------- HSE Configuration ------------------------*/
 515:Drivers/STM32L4xx_HAL_Driver/Src/stm32l4xx_hal_rcc.c ****   if(((RCC_OscInitStruct->OscillatorType) & RCC_OSCILLATORTYPE_HSE) == RCC_OSCILLATORTYPE_HSE)
 516:Drivers/STM32L4xx_HAL_Driver/Src/stm32l4xx_hal_rcc.c ****   {
 517:Drivers/STM32L4xx_HAL_Driver/Src/stm32l4xx_hal_rcc.c ****     /* Check the parameters */
 518:Drivers/STM32L4xx_HAL_Driver/Src/stm32l4xx_hal_rcc.c ****     assert_param(IS_RCC_HSE(RCC_OscInitStruct->HSEState));
 519:Drivers/STM32L4xx_HAL_Driver/Src/stm32l4xx_hal_rcc.c **** 
 520:Drivers/STM32L4xx_HAL_Driver/Src/stm32l4xx_hal_rcc.c ****     /* When the HSE is used as system clock or clock source for PLL in these cases it is not allowe
 521:Drivers/STM32L4xx_HAL_Driver/Src/stm32l4xx_hal_rcc.c ****     if((__HAL_RCC_GET_SYSCLK_SOURCE() == RCC_CFGR_SWS_HSE) ||
 522:Drivers/STM32L4xx_HAL_Driver/Src/stm32l4xx_hal_rcc.c ****        ((__HAL_RCC_GET_SYSCLK_SOURCE() == RCC_CFGR_SWS_PLL) && (__HAL_RCC_GET_PLL_OSCSOURCE() == RC
 523:Drivers/STM32L4xx_HAL_Driver/Src/stm32l4xx_hal_rcc.c ****     {
 524:Drivers/STM32L4xx_HAL_Driver/Src/stm32l4xx_hal_rcc.c ****       if((READ_BIT(RCC->CR, RCC_CR_HSERDY) != RESET) && (RCC_OscInitStruct->HSEState == RCC_HSE_OFF
 525:Drivers/STM32L4xx_HAL_Driver/Src/stm32l4xx_hal_rcc.c ****       {
 526:Drivers/STM32L4xx_HAL_Driver/Src/stm32l4xx_hal_rcc.c ****         return HAL_ERROR;
 527:Drivers/STM32L4xx_HAL_Driver/Src/stm32l4xx_hal_rcc.c ****       }
 528:Drivers/STM32L4xx_HAL_Driver/Src/stm32l4xx_hal_rcc.c ****     }
 529:Drivers/STM32L4xx_HAL_Driver/Src/stm32l4xx_hal_rcc.c ****     else
 530:Drivers/STM32L4xx_HAL_Driver/Src/stm32l4xx_hal_rcc.c ****     {
 531:Drivers/STM32L4xx_HAL_Driver/Src/stm32l4xx_hal_rcc.c ****       /* Set the new HSE configuration ---------------------------------------*/
 532:Drivers/STM32L4xx_HAL_Driver/Src/stm32l4xx_hal_rcc.c ****       __HAL_RCC_HSE_CONFIG(RCC_OscInitStruct->HSEState);
 533:Drivers/STM32L4xx_HAL_Driver/Src/stm32l4xx_hal_rcc.c **** 
 534:Drivers/STM32L4xx_HAL_Driver/Src/stm32l4xx_hal_rcc.c ****       /* Check the HSE State */
 535:Drivers/STM32L4xx_HAL_Driver/Src/stm32l4xx_hal_rcc.c ****       if(RCC_OscInitStruct->HSEState != RCC_HSE_OFF)
 536:Drivers/STM32L4xx_HAL_Driver/Src/stm32l4xx_hal_rcc.c ****       {
 537:Drivers/STM32L4xx_HAL_Driver/Src/stm32l4xx_hal_rcc.c ****         /* Get Start Tick*/
 538:Drivers/STM32L4xx_HAL_Driver/Src/stm32l4xx_hal_rcc.c ****         tickstart = HAL_GetTick();
 539:Drivers/STM32L4xx_HAL_Driver/Src/stm32l4xx_hal_rcc.c **** 
 540:Drivers/STM32L4xx_HAL_Driver/Src/stm32l4xx_hal_rcc.c ****         /* Wait till HSE is ready */
 541:Drivers/STM32L4xx_HAL_Driver/Src/stm32l4xx_hal_rcc.c ****         while(READ_BIT(RCC->CR, RCC_CR_HSERDY) == RESET)
 542:Drivers/STM32L4xx_HAL_Driver/Src/stm32l4xx_hal_rcc.c ****         {
 543:Drivers/STM32L4xx_HAL_Driver/Src/stm32l4xx_hal_rcc.c ****           if((HAL_GetTick() - tickstart) > HSE_TIMEOUT_VALUE)
 544:Drivers/STM32L4xx_HAL_Driver/Src/stm32l4xx_hal_rcc.c ****           {
ARM GAS  /var/folders/bq/zy6zjhwd1qn4sn8dk3jpjcq80000gn/T//cc47l0uG.s 			page 11


 545:Drivers/STM32L4xx_HAL_Driver/Src/stm32l4xx_hal_rcc.c ****             return HAL_TIMEOUT;
 546:Drivers/STM32L4xx_HAL_Driver/Src/stm32l4xx_hal_rcc.c ****           }
 547:Drivers/STM32L4xx_HAL_Driver/Src/stm32l4xx_hal_rcc.c ****         }
 548:Drivers/STM32L4xx_HAL_Driver/Src/stm32l4xx_hal_rcc.c ****       }
 549:Drivers/STM32L4xx_HAL_Driver/Src/stm32l4xx_hal_rcc.c ****       else
 550:Drivers/STM32L4xx_HAL_Driver/Src/stm32l4xx_hal_rcc.c ****       {
 551:Drivers/STM32L4xx_HAL_Driver/Src/stm32l4xx_hal_rcc.c ****         /* Get Start Tick*/
 552:Drivers/STM32L4xx_HAL_Driver/Src/stm32l4xx_hal_rcc.c ****         tickstart = HAL_GetTick();
 553:Drivers/STM32L4xx_HAL_Driver/Src/stm32l4xx_hal_rcc.c **** 
 554:Drivers/STM32L4xx_HAL_Driver/Src/stm32l4xx_hal_rcc.c ****         /* Wait till HSE is disabled */
 555:Drivers/STM32L4xx_HAL_Driver/Src/stm32l4xx_hal_rcc.c ****         while(READ_BIT(RCC->CR, RCC_CR_HSERDY) != RESET)
 556:Drivers/STM32L4xx_HAL_Driver/Src/stm32l4xx_hal_rcc.c ****         {
 557:Drivers/STM32L4xx_HAL_Driver/Src/stm32l4xx_hal_rcc.c ****           if((HAL_GetTick() - tickstart) > HSE_TIMEOUT_VALUE)
 558:Drivers/STM32L4xx_HAL_Driver/Src/stm32l4xx_hal_rcc.c ****           {
 559:Drivers/STM32L4xx_HAL_Driver/Src/stm32l4xx_hal_rcc.c ****             return HAL_TIMEOUT;
 560:Drivers/STM32L4xx_HAL_Driver/Src/stm32l4xx_hal_rcc.c ****           }
 561:Drivers/STM32L4xx_HAL_Driver/Src/stm32l4xx_hal_rcc.c ****         }
 562:Drivers/STM32L4xx_HAL_Driver/Src/stm32l4xx_hal_rcc.c ****       }
 563:Drivers/STM32L4xx_HAL_Driver/Src/stm32l4xx_hal_rcc.c ****     }
 564:Drivers/STM32L4xx_HAL_Driver/Src/stm32l4xx_hal_rcc.c ****   }
 565:Drivers/STM32L4xx_HAL_Driver/Src/stm32l4xx_hal_rcc.c ****   /*----------------------------- HSI Configuration --------------------------*/
 566:Drivers/STM32L4xx_HAL_Driver/Src/stm32l4xx_hal_rcc.c ****   if(((RCC_OscInitStruct->OscillatorType) & RCC_OSCILLATORTYPE_HSI) == RCC_OSCILLATORTYPE_HSI)
 567:Drivers/STM32L4xx_HAL_Driver/Src/stm32l4xx_hal_rcc.c ****   {
 568:Drivers/STM32L4xx_HAL_Driver/Src/stm32l4xx_hal_rcc.c ****     /* Check the parameters */
 569:Drivers/STM32L4xx_HAL_Driver/Src/stm32l4xx_hal_rcc.c ****     assert_param(IS_RCC_HSI(RCC_OscInitStruct->HSIState));
 570:Drivers/STM32L4xx_HAL_Driver/Src/stm32l4xx_hal_rcc.c ****     assert_param(IS_RCC_HSI_CALIBRATION_VALUE(RCC_OscInitStruct->HSICalibrationValue));
 571:Drivers/STM32L4xx_HAL_Driver/Src/stm32l4xx_hal_rcc.c **** 
 572:Drivers/STM32L4xx_HAL_Driver/Src/stm32l4xx_hal_rcc.c ****     /* Check if HSI is used as system clock or as PLL source when PLL is selected as system clock *
 573:Drivers/STM32L4xx_HAL_Driver/Src/stm32l4xx_hal_rcc.c ****     if((__HAL_RCC_GET_SYSCLK_SOURCE() == RCC_CFGR_SWS_HSI) ||
 574:Drivers/STM32L4xx_HAL_Driver/Src/stm32l4xx_hal_rcc.c ****        ((__HAL_RCC_GET_SYSCLK_SOURCE() == RCC_CFGR_SWS_PLL) && (__HAL_RCC_GET_PLL_OSCSOURCE() == RC
 575:Drivers/STM32L4xx_HAL_Driver/Src/stm32l4xx_hal_rcc.c ****     {
 576:Drivers/STM32L4xx_HAL_Driver/Src/stm32l4xx_hal_rcc.c ****       /* When HSI is used as system clock it will not be disabled */
 577:Drivers/STM32L4xx_HAL_Driver/Src/stm32l4xx_hal_rcc.c ****       if((READ_BIT(RCC->CR, RCC_CR_HSIRDY) != RESET) && (RCC_OscInitStruct->HSIState == RCC_HSI_OFF
 578:Drivers/STM32L4xx_HAL_Driver/Src/stm32l4xx_hal_rcc.c ****       {
 579:Drivers/STM32L4xx_HAL_Driver/Src/stm32l4xx_hal_rcc.c ****         return HAL_ERROR;
 580:Drivers/STM32L4xx_HAL_Driver/Src/stm32l4xx_hal_rcc.c ****       }
 581:Drivers/STM32L4xx_HAL_Driver/Src/stm32l4xx_hal_rcc.c ****       /* Otherwise, just the calibration is allowed */
 582:Drivers/STM32L4xx_HAL_Driver/Src/stm32l4xx_hal_rcc.c ****       else
 583:Drivers/STM32L4xx_HAL_Driver/Src/stm32l4xx_hal_rcc.c ****       {
 584:Drivers/STM32L4xx_HAL_Driver/Src/stm32l4xx_hal_rcc.c ****         /* Adjusts the Internal High Speed oscillator (HSI) calibration value.*/
 585:Drivers/STM32L4xx_HAL_Driver/Src/stm32l4xx_hal_rcc.c ****         __HAL_RCC_HSI_CALIBRATIONVALUE_ADJUST(RCC_OscInitStruct->HSICalibrationValue);
 586:Drivers/STM32L4xx_HAL_Driver/Src/stm32l4xx_hal_rcc.c ****       }
 587:Drivers/STM32L4xx_HAL_Driver/Src/stm32l4xx_hal_rcc.c ****     }
 588:Drivers/STM32L4xx_HAL_Driver/Src/stm32l4xx_hal_rcc.c ****     else
 589:Drivers/STM32L4xx_HAL_Driver/Src/stm32l4xx_hal_rcc.c ****     {
 590:Drivers/STM32L4xx_HAL_Driver/Src/stm32l4xx_hal_rcc.c ****       /* Check the HSI State */
 591:Drivers/STM32L4xx_HAL_Driver/Src/stm32l4xx_hal_rcc.c ****       if(RCC_OscInitStruct->HSIState != RCC_HSI_OFF)
 592:Drivers/STM32L4xx_HAL_Driver/Src/stm32l4xx_hal_rcc.c ****       {
 593:Drivers/STM32L4xx_HAL_Driver/Src/stm32l4xx_hal_rcc.c ****         /* Enable the Internal High Speed oscillator (HSI). */
 594:Drivers/STM32L4xx_HAL_Driver/Src/stm32l4xx_hal_rcc.c ****         __HAL_RCC_HSI_ENABLE();
 595:Drivers/STM32L4xx_HAL_Driver/Src/stm32l4xx_hal_rcc.c **** 
 596:Drivers/STM32L4xx_HAL_Driver/Src/stm32l4xx_hal_rcc.c ****         /* Get Start Tick*/
 597:Drivers/STM32L4xx_HAL_Driver/Src/stm32l4xx_hal_rcc.c ****         tickstart = HAL_GetTick();
 598:Drivers/STM32L4xx_HAL_Driver/Src/stm32l4xx_hal_rcc.c **** 
 599:Drivers/STM32L4xx_HAL_Driver/Src/stm32l4xx_hal_rcc.c ****         /* Wait till HSI is ready */
 600:Drivers/STM32L4xx_HAL_Driver/Src/stm32l4xx_hal_rcc.c ****         while(READ_BIT(RCC->CR, RCC_CR_HSIRDY) == RESET)
 601:Drivers/STM32L4xx_HAL_Driver/Src/stm32l4xx_hal_rcc.c ****         {
ARM GAS  /var/folders/bq/zy6zjhwd1qn4sn8dk3jpjcq80000gn/T//cc47l0uG.s 			page 12


 602:Drivers/STM32L4xx_HAL_Driver/Src/stm32l4xx_hal_rcc.c ****           if((HAL_GetTick() - tickstart) > HSI_TIMEOUT_VALUE)
 603:Drivers/STM32L4xx_HAL_Driver/Src/stm32l4xx_hal_rcc.c ****           {
 604:Drivers/STM32L4xx_HAL_Driver/Src/stm32l4xx_hal_rcc.c ****             return HAL_TIMEOUT;
 605:Drivers/STM32L4xx_HAL_Driver/Src/stm32l4xx_hal_rcc.c ****           }
 606:Drivers/STM32L4xx_HAL_Driver/Src/stm32l4xx_hal_rcc.c ****         }
 607:Drivers/STM32L4xx_HAL_Driver/Src/stm32l4xx_hal_rcc.c **** 
 608:Drivers/STM32L4xx_HAL_Driver/Src/stm32l4xx_hal_rcc.c ****         /* Adjusts the Internal High Speed oscillator (HSI) calibration value.*/
 609:Drivers/STM32L4xx_HAL_Driver/Src/stm32l4xx_hal_rcc.c ****         __HAL_RCC_HSI_CALIBRATIONVALUE_ADJUST(RCC_OscInitStruct->HSICalibrationValue);
 610:Drivers/STM32L4xx_HAL_Driver/Src/stm32l4xx_hal_rcc.c ****       }
 611:Drivers/STM32L4xx_HAL_Driver/Src/stm32l4xx_hal_rcc.c ****       else
 612:Drivers/STM32L4xx_HAL_Driver/Src/stm32l4xx_hal_rcc.c ****       {
 613:Drivers/STM32L4xx_HAL_Driver/Src/stm32l4xx_hal_rcc.c ****         /* Disable the Internal High Speed oscillator (HSI). */
 614:Drivers/STM32L4xx_HAL_Driver/Src/stm32l4xx_hal_rcc.c ****         __HAL_RCC_HSI_DISABLE();
 615:Drivers/STM32L4xx_HAL_Driver/Src/stm32l4xx_hal_rcc.c **** 
 616:Drivers/STM32L4xx_HAL_Driver/Src/stm32l4xx_hal_rcc.c ****         /* Get Start Tick*/
 617:Drivers/STM32L4xx_HAL_Driver/Src/stm32l4xx_hal_rcc.c ****         tickstart = HAL_GetTick();
 618:Drivers/STM32L4xx_HAL_Driver/Src/stm32l4xx_hal_rcc.c **** 
 619:Drivers/STM32L4xx_HAL_Driver/Src/stm32l4xx_hal_rcc.c ****         /* Wait till HSI is disabled */
 620:Drivers/STM32L4xx_HAL_Driver/Src/stm32l4xx_hal_rcc.c ****         while(READ_BIT(RCC->CR, RCC_CR_HSIRDY) != RESET)
 621:Drivers/STM32L4xx_HAL_Driver/Src/stm32l4xx_hal_rcc.c ****         {
 622:Drivers/STM32L4xx_HAL_Driver/Src/stm32l4xx_hal_rcc.c ****           if((HAL_GetTick() - tickstart) > HSI_TIMEOUT_VALUE)
 623:Drivers/STM32L4xx_HAL_Driver/Src/stm32l4xx_hal_rcc.c ****           {
 624:Drivers/STM32L4xx_HAL_Driver/Src/stm32l4xx_hal_rcc.c ****             return HAL_TIMEOUT;
 625:Drivers/STM32L4xx_HAL_Driver/Src/stm32l4xx_hal_rcc.c ****           }
 626:Drivers/STM32L4xx_HAL_Driver/Src/stm32l4xx_hal_rcc.c ****         }
 627:Drivers/STM32L4xx_HAL_Driver/Src/stm32l4xx_hal_rcc.c ****       }
 628:Drivers/STM32L4xx_HAL_Driver/Src/stm32l4xx_hal_rcc.c ****     }
 629:Drivers/STM32L4xx_HAL_Driver/Src/stm32l4xx_hal_rcc.c ****   }
 630:Drivers/STM32L4xx_HAL_Driver/Src/stm32l4xx_hal_rcc.c ****   /*------------------------------ LSI Configuration -------------------------*/
 631:Drivers/STM32L4xx_HAL_Driver/Src/stm32l4xx_hal_rcc.c ****   if(((RCC_OscInitStruct->OscillatorType) & RCC_OSCILLATORTYPE_LSI) == RCC_OSCILLATORTYPE_LSI)
 632:Drivers/STM32L4xx_HAL_Driver/Src/stm32l4xx_hal_rcc.c ****   {
 633:Drivers/STM32L4xx_HAL_Driver/Src/stm32l4xx_hal_rcc.c ****     /* Check the parameters */
 634:Drivers/STM32L4xx_HAL_Driver/Src/stm32l4xx_hal_rcc.c ****     assert_param(IS_RCC_LSI(RCC_OscInitStruct->LSIState));
 635:Drivers/STM32L4xx_HAL_Driver/Src/stm32l4xx_hal_rcc.c **** 
 636:Drivers/STM32L4xx_HAL_Driver/Src/stm32l4xx_hal_rcc.c ****     /* Check the LSI State */
 637:Drivers/STM32L4xx_HAL_Driver/Src/stm32l4xx_hal_rcc.c ****     if(RCC_OscInitStruct->LSIState != RCC_LSI_OFF)
 638:Drivers/STM32L4xx_HAL_Driver/Src/stm32l4xx_hal_rcc.c ****     {
 639:Drivers/STM32L4xx_HAL_Driver/Src/stm32l4xx_hal_rcc.c ****       /* Enable the Internal Low Speed oscillator (LSI). */
 640:Drivers/STM32L4xx_HAL_Driver/Src/stm32l4xx_hal_rcc.c ****       __HAL_RCC_LSI_ENABLE();
 641:Drivers/STM32L4xx_HAL_Driver/Src/stm32l4xx_hal_rcc.c **** 
 642:Drivers/STM32L4xx_HAL_Driver/Src/stm32l4xx_hal_rcc.c ****       /* Get Start Tick*/
 643:Drivers/STM32L4xx_HAL_Driver/Src/stm32l4xx_hal_rcc.c ****       tickstart = HAL_GetTick();
 644:Drivers/STM32L4xx_HAL_Driver/Src/stm32l4xx_hal_rcc.c **** 
 645:Drivers/STM32L4xx_HAL_Driver/Src/stm32l4xx_hal_rcc.c ****       /* Wait till LSI is ready */
 646:Drivers/STM32L4xx_HAL_Driver/Src/stm32l4xx_hal_rcc.c ****       while(READ_BIT(RCC->CSR, RCC_CSR_LSIRDY) == RESET)
 647:Drivers/STM32L4xx_HAL_Driver/Src/stm32l4xx_hal_rcc.c ****       {
 648:Drivers/STM32L4xx_HAL_Driver/Src/stm32l4xx_hal_rcc.c ****         if((HAL_GetTick() - tickstart) > LSI_TIMEOUT_VALUE)
 649:Drivers/STM32L4xx_HAL_Driver/Src/stm32l4xx_hal_rcc.c ****         {
 650:Drivers/STM32L4xx_HAL_Driver/Src/stm32l4xx_hal_rcc.c ****           return HAL_TIMEOUT;
 651:Drivers/STM32L4xx_HAL_Driver/Src/stm32l4xx_hal_rcc.c ****         }
 652:Drivers/STM32L4xx_HAL_Driver/Src/stm32l4xx_hal_rcc.c ****       }
 653:Drivers/STM32L4xx_HAL_Driver/Src/stm32l4xx_hal_rcc.c ****     }
 654:Drivers/STM32L4xx_HAL_Driver/Src/stm32l4xx_hal_rcc.c ****     else
 655:Drivers/STM32L4xx_HAL_Driver/Src/stm32l4xx_hal_rcc.c ****     {
 656:Drivers/STM32L4xx_HAL_Driver/Src/stm32l4xx_hal_rcc.c ****       /* Disable the Internal Low Speed oscillator (LSI). */
 657:Drivers/STM32L4xx_HAL_Driver/Src/stm32l4xx_hal_rcc.c ****       __HAL_RCC_LSI_DISABLE();
 658:Drivers/STM32L4xx_HAL_Driver/Src/stm32l4xx_hal_rcc.c **** 
ARM GAS  /var/folders/bq/zy6zjhwd1qn4sn8dk3jpjcq80000gn/T//cc47l0uG.s 			page 13


 659:Drivers/STM32L4xx_HAL_Driver/Src/stm32l4xx_hal_rcc.c ****       /* Get Start Tick*/
 660:Drivers/STM32L4xx_HAL_Driver/Src/stm32l4xx_hal_rcc.c ****       tickstart = HAL_GetTick();
 661:Drivers/STM32L4xx_HAL_Driver/Src/stm32l4xx_hal_rcc.c **** 
 662:Drivers/STM32L4xx_HAL_Driver/Src/stm32l4xx_hal_rcc.c ****       /* Wait till LSI is disabled */
 663:Drivers/STM32L4xx_HAL_Driver/Src/stm32l4xx_hal_rcc.c ****       while(READ_BIT(RCC->CSR, RCC_CSR_LSIRDY) != RESET)
 664:Drivers/STM32L4xx_HAL_Driver/Src/stm32l4xx_hal_rcc.c ****       {
 665:Drivers/STM32L4xx_HAL_Driver/Src/stm32l4xx_hal_rcc.c ****         if((HAL_GetTick() - tickstart) > LSI_TIMEOUT_VALUE)
 666:Drivers/STM32L4xx_HAL_Driver/Src/stm32l4xx_hal_rcc.c ****         {
 667:Drivers/STM32L4xx_HAL_Driver/Src/stm32l4xx_hal_rcc.c ****           return HAL_TIMEOUT;
 668:Drivers/STM32L4xx_HAL_Driver/Src/stm32l4xx_hal_rcc.c ****         }
 669:Drivers/STM32L4xx_HAL_Driver/Src/stm32l4xx_hal_rcc.c ****       }
 670:Drivers/STM32L4xx_HAL_Driver/Src/stm32l4xx_hal_rcc.c ****     }
 671:Drivers/STM32L4xx_HAL_Driver/Src/stm32l4xx_hal_rcc.c ****   }
 672:Drivers/STM32L4xx_HAL_Driver/Src/stm32l4xx_hal_rcc.c ****   /*------------------------------ LSE Configuration -------------------------*/
 673:Drivers/STM32L4xx_HAL_Driver/Src/stm32l4xx_hal_rcc.c ****   if(((RCC_OscInitStruct->OscillatorType) & RCC_OSCILLATORTYPE_LSE) == RCC_OSCILLATORTYPE_LSE)
 674:Drivers/STM32L4xx_HAL_Driver/Src/stm32l4xx_hal_rcc.c ****   {
 675:Drivers/STM32L4xx_HAL_Driver/Src/stm32l4xx_hal_rcc.c ****     FlagStatus       pwrclkchanged = RESET;
 676:Drivers/STM32L4xx_HAL_Driver/Src/stm32l4xx_hal_rcc.c **** 
 677:Drivers/STM32L4xx_HAL_Driver/Src/stm32l4xx_hal_rcc.c ****     /* Check the parameters */
 678:Drivers/STM32L4xx_HAL_Driver/Src/stm32l4xx_hal_rcc.c ****     assert_param(IS_RCC_LSE(RCC_OscInitStruct->LSEState));
 679:Drivers/STM32L4xx_HAL_Driver/Src/stm32l4xx_hal_rcc.c **** 
 680:Drivers/STM32L4xx_HAL_Driver/Src/stm32l4xx_hal_rcc.c ****     /* Update LSE configuration in Backup Domain control register    */
 681:Drivers/STM32L4xx_HAL_Driver/Src/stm32l4xx_hal_rcc.c ****     /* Requires to enable write access to Backup Domain of necessary */
 682:Drivers/STM32L4xx_HAL_Driver/Src/stm32l4xx_hal_rcc.c ****     if(HAL_IS_BIT_CLR(RCC->APB1ENR1, RCC_APB1ENR1_PWREN))
 683:Drivers/STM32L4xx_HAL_Driver/Src/stm32l4xx_hal_rcc.c ****     {
 684:Drivers/STM32L4xx_HAL_Driver/Src/stm32l4xx_hal_rcc.c ****       __HAL_RCC_PWR_CLK_ENABLE();
 685:Drivers/STM32L4xx_HAL_Driver/Src/stm32l4xx_hal_rcc.c ****       pwrclkchanged = SET;
 686:Drivers/STM32L4xx_HAL_Driver/Src/stm32l4xx_hal_rcc.c ****     }
 687:Drivers/STM32L4xx_HAL_Driver/Src/stm32l4xx_hal_rcc.c **** 
 688:Drivers/STM32L4xx_HAL_Driver/Src/stm32l4xx_hal_rcc.c ****     if(HAL_IS_BIT_CLR(PWR->CR1, PWR_CR1_DBP))
 689:Drivers/STM32L4xx_HAL_Driver/Src/stm32l4xx_hal_rcc.c ****     {
 690:Drivers/STM32L4xx_HAL_Driver/Src/stm32l4xx_hal_rcc.c ****       /* Enable write access to Backup domain */
 691:Drivers/STM32L4xx_HAL_Driver/Src/stm32l4xx_hal_rcc.c ****       SET_BIT(PWR->CR1, PWR_CR1_DBP);
 692:Drivers/STM32L4xx_HAL_Driver/Src/stm32l4xx_hal_rcc.c **** 
 693:Drivers/STM32L4xx_HAL_Driver/Src/stm32l4xx_hal_rcc.c ****       /* Wait for Backup domain Write protection disable */
 694:Drivers/STM32L4xx_HAL_Driver/Src/stm32l4xx_hal_rcc.c ****       tickstart = HAL_GetTick();
 695:Drivers/STM32L4xx_HAL_Driver/Src/stm32l4xx_hal_rcc.c **** 
 696:Drivers/STM32L4xx_HAL_Driver/Src/stm32l4xx_hal_rcc.c ****       while(HAL_IS_BIT_CLR(PWR->CR1, PWR_CR1_DBP))
 697:Drivers/STM32L4xx_HAL_Driver/Src/stm32l4xx_hal_rcc.c ****       {
 698:Drivers/STM32L4xx_HAL_Driver/Src/stm32l4xx_hal_rcc.c ****         if((HAL_GetTick() - tickstart) > RCC_DBP_TIMEOUT_VALUE)
 699:Drivers/STM32L4xx_HAL_Driver/Src/stm32l4xx_hal_rcc.c ****         {
 700:Drivers/STM32L4xx_HAL_Driver/Src/stm32l4xx_hal_rcc.c ****           return HAL_TIMEOUT;
 701:Drivers/STM32L4xx_HAL_Driver/Src/stm32l4xx_hal_rcc.c ****         }
 702:Drivers/STM32L4xx_HAL_Driver/Src/stm32l4xx_hal_rcc.c ****       }
 703:Drivers/STM32L4xx_HAL_Driver/Src/stm32l4xx_hal_rcc.c ****     }
 704:Drivers/STM32L4xx_HAL_Driver/Src/stm32l4xx_hal_rcc.c **** 
 705:Drivers/STM32L4xx_HAL_Driver/Src/stm32l4xx_hal_rcc.c ****     /* Set the new LSE configuration -----------------------------------------*/
 706:Drivers/STM32L4xx_HAL_Driver/Src/stm32l4xx_hal_rcc.c ****     __HAL_RCC_LSE_CONFIG(RCC_OscInitStruct->LSEState);
 707:Drivers/STM32L4xx_HAL_Driver/Src/stm32l4xx_hal_rcc.c **** 
 708:Drivers/STM32L4xx_HAL_Driver/Src/stm32l4xx_hal_rcc.c ****     /* Check the LSE State */
 709:Drivers/STM32L4xx_HAL_Driver/Src/stm32l4xx_hal_rcc.c ****     if(RCC_OscInitStruct->LSEState != RCC_LSE_OFF)
 710:Drivers/STM32L4xx_HAL_Driver/Src/stm32l4xx_hal_rcc.c ****     {
 711:Drivers/STM32L4xx_HAL_Driver/Src/stm32l4xx_hal_rcc.c ****       /* Get Start Tick*/
 712:Drivers/STM32L4xx_HAL_Driver/Src/stm32l4xx_hal_rcc.c ****       tickstart = HAL_GetTick();
 713:Drivers/STM32L4xx_HAL_Driver/Src/stm32l4xx_hal_rcc.c **** 
 714:Drivers/STM32L4xx_HAL_Driver/Src/stm32l4xx_hal_rcc.c ****       /* Wait till LSE is ready */
 715:Drivers/STM32L4xx_HAL_Driver/Src/stm32l4xx_hal_rcc.c ****       while(READ_BIT(RCC->BDCR, RCC_BDCR_LSERDY) == RESET)
ARM GAS  /var/folders/bq/zy6zjhwd1qn4sn8dk3jpjcq80000gn/T//cc47l0uG.s 			page 14


 716:Drivers/STM32L4xx_HAL_Driver/Src/stm32l4xx_hal_rcc.c ****       {
 717:Drivers/STM32L4xx_HAL_Driver/Src/stm32l4xx_hal_rcc.c ****         if((HAL_GetTick() - tickstart) > RCC_LSE_TIMEOUT_VALUE)
 718:Drivers/STM32L4xx_HAL_Driver/Src/stm32l4xx_hal_rcc.c ****         {
 719:Drivers/STM32L4xx_HAL_Driver/Src/stm32l4xx_hal_rcc.c ****           return HAL_TIMEOUT;
 720:Drivers/STM32L4xx_HAL_Driver/Src/stm32l4xx_hal_rcc.c ****         }
 721:Drivers/STM32L4xx_HAL_Driver/Src/stm32l4xx_hal_rcc.c ****       }
 722:Drivers/STM32L4xx_HAL_Driver/Src/stm32l4xx_hal_rcc.c ****     }
 723:Drivers/STM32L4xx_HAL_Driver/Src/stm32l4xx_hal_rcc.c ****     else
 724:Drivers/STM32L4xx_HAL_Driver/Src/stm32l4xx_hal_rcc.c ****     {
 725:Drivers/STM32L4xx_HAL_Driver/Src/stm32l4xx_hal_rcc.c ****       /* Get Start Tick*/
 726:Drivers/STM32L4xx_HAL_Driver/Src/stm32l4xx_hal_rcc.c ****       tickstart = HAL_GetTick();
 727:Drivers/STM32L4xx_HAL_Driver/Src/stm32l4xx_hal_rcc.c **** 
 728:Drivers/STM32L4xx_HAL_Driver/Src/stm32l4xx_hal_rcc.c ****       /* Wait till LSE is disabled */
 729:Drivers/STM32L4xx_HAL_Driver/Src/stm32l4xx_hal_rcc.c ****       while(READ_BIT(RCC->BDCR, RCC_BDCR_LSERDY) != RESET)
 730:Drivers/STM32L4xx_HAL_Driver/Src/stm32l4xx_hal_rcc.c ****       {
 731:Drivers/STM32L4xx_HAL_Driver/Src/stm32l4xx_hal_rcc.c ****         if((HAL_GetTick() - tickstart) > RCC_LSE_TIMEOUT_VALUE)
 732:Drivers/STM32L4xx_HAL_Driver/Src/stm32l4xx_hal_rcc.c ****         {
 733:Drivers/STM32L4xx_HAL_Driver/Src/stm32l4xx_hal_rcc.c ****           return HAL_TIMEOUT;
 734:Drivers/STM32L4xx_HAL_Driver/Src/stm32l4xx_hal_rcc.c ****         }
 735:Drivers/STM32L4xx_HAL_Driver/Src/stm32l4xx_hal_rcc.c ****       }
 736:Drivers/STM32L4xx_HAL_Driver/Src/stm32l4xx_hal_rcc.c ****     }
 737:Drivers/STM32L4xx_HAL_Driver/Src/stm32l4xx_hal_rcc.c **** 
 738:Drivers/STM32L4xx_HAL_Driver/Src/stm32l4xx_hal_rcc.c ****     /* Restore clock configuration if changed */
 739:Drivers/STM32L4xx_HAL_Driver/Src/stm32l4xx_hal_rcc.c ****     if(pwrclkchanged == SET)
 740:Drivers/STM32L4xx_HAL_Driver/Src/stm32l4xx_hal_rcc.c ****     {
 741:Drivers/STM32L4xx_HAL_Driver/Src/stm32l4xx_hal_rcc.c ****       __HAL_RCC_PWR_CLK_DISABLE();
 742:Drivers/STM32L4xx_HAL_Driver/Src/stm32l4xx_hal_rcc.c ****     }
 743:Drivers/STM32L4xx_HAL_Driver/Src/stm32l4xx_hal_rcc.c ****   }
 744:Drivers/STM32L4xx_HAL_Driver/Src/stm32l4xx_hal_rcc.c **** #if defined(RCC_HSI48_SUPPORT)
 745:Drivers/STM32L4xx_HAL_Driver/Src/stm32l4xx_hal_rcc.c ****   /*------------------------------ HSI48 Configuration -----------------------*/
 746:Drivers/STM32L4xx_HAL_Driver/Src/stm32l4xx_hal_rcc.c ****   if(((RCC_OscInitStruct->OscillatorType) & RCC_OSCILLATORTYPE_HSI48) == RCC_OSCILLATORTYPE_HSI48)
 747:Drivers/STM32L4xx_HAL_Driver/Src/stm32l4xx_hal_rcc.c ****   {
 748:Drivers/STM32L4xx_HAL_Driver/Src/stm32l4xx_hal_rcc.c ****     /* Check the parameters */
 749:Drivers/STM32L4xx_HAL_Driver/Src/stm32l4xx_hal_rcc.c ****     assert_param(IS_RCC_HSI48(RCC_OscInitStruct->HSI48State));
 750:Drivers/STM32L4xx_HAL_Driver/Src/stm32l4xx_hal_rcc.c **** 
 751:Drivers/STM32L4xx_HAL_Driver/Src/stm32l4xx_hal_rcc.c ****     /* Check the LSI State */
 752:Drivers/STM32L4xx_HAL_Driver/Src/stm32l4xx_hal_rcc.c ****     if(RCC_OscInitStruct->HSI48State != RCC_HSI48_OFF)
 753:Drivers/STM32L4xx_HAL_Driver/Src/stm32l4xx_hal_rcc.c ****     {
 754:Drivers/STM32L4xx_HAL_Driver/Src/stm32l4xx_hal_rcc.c ****       /* Enable the Internal Low Speed oscillator (HSI48). */
 755:Drivers/STM32L4xx_HAL_Driver/Src/stm32l4xx_hal_rcc.c ****       __HAL_RCC_HSI48_ENABLE();
 756:Drivers/STM32L4xx_HAL_Driver/Src/stm32l4xx_hal_rcc.c **** 
 757:Drivers/STM32L4xx_HAL_Driver/Src/stm32l4xx_hal_rcc.c ****       /* Get Start Tick*/
 758:Drivers/STM32L4xx_HAL_Driver/Src/stm32l4xx_hal_rcc.c ****       tickstart = HAL_GetTick();
 759:Drivers/STM32L4xx_HAL_Driver/Src/stm32l4xx_hal_rcc.c **** 
 760:Drivers/STM32L4xx_HAL_Driver/Src/stm32l4xx_hal_rcc.c ****       /* Wait till HSI48 is ready */
 761:Drivers/STM32L4xx_HAL_Driver/Src/stm32l4xx_hal_rcc.c ****       while(READ_BIT(RCC->CRRCR, RCC_CRRCR_HSI48RDY) == RESET)
 762:Drivers/STM32L4xx_HAL_Driver/Src/stm32l4xx_hal_rcc.c ****       {
 763:Drivers/STM32L4xx_HAL_Driver/Src/stm32l4xx_hal_rcc.c ****         if((HAL_GetTick() - tickstart) > HSI48_TIMEOUT_VALUE)
 764:Drivers/STM32L4xx_HAL_Driver/Src/stm32l4xx_hal_rcc.c ****         {
 765:Drivers/STM32L4xx_HAL_Driver/Src/stm32l4xx_hal_rcc.c ****           return HAL_TIMEOUT;
 766:Drivers/STM32L4xx_HAL_Driver/Src/stm32l4xx_hal_rcc.c ****         }
 767:Drivers/STM32L4xx_HAL_Driver/Src/stm32l4xx_hal_rcc.c ****       }
 768:Drivers/STM32L4xx_HAL_Driver/Src/stm32l4xx_hal_rcc.c ****     }
 769:Drivers/STM32L4xx_HAL_Driver/Src/stm32l4xx_hal_rcc.c ****     else
 770:Drivers/STM32L4xx_HAL_Driver/Src/stm32l4xx_hal_rcc.c ****     {
 771:Drivers/STM32L4xx_HAL_Driver/Src/stm32l4xx_hal_rcc.c ****       /* Disable the Internal Low Speed oscillator (HSI48). */
 772:Drivers/STM32L4xx_HAL_Driver/Src/stm32l4xx_hal_rcc.c ****       __HAL_RCC_HSI48_DISABLE();
ARM GAS  /var/folders/bq/zy6zjhwd1qn4sn8dk3jpjcq80000gn/T//cc47l0uG.s 			page 15


 773:Drivers/STM32L4xx_HAL_Driver/Src/stm32l4xx_hal_rcc.c **** 
 774:Drivers/STM32L4xx_HAL_Driver/Src/stm32l4xx_hal_rcc.c ****       /* Get Start Tick*/
 775:Drivers/STM32L4xx_HAL_Driver/Src/stm32l4xx_hal_rcc.c ****       tickstart = HAL_GetTick();
 776:Drivers/STM32L4xx_HAL_Driver/Src/stm32l4xx_hal_rcc.c **** 
 777:Drivers/STM32L4xx_HAL_Driver/Src/stm32l4xx_hal_rcc.c ****       /* Wait till HSI48 is disabled */
 778:Drivers/STM32L4xx_HAL_Driver/Src/stm32l4xx_hal_rcc.c ****       while(READ_BIT(RCC->CRRCR, RCC_CRRCR_HSI48RDY) != RESET)
 779:Drivers/STM32L4xx_HAL_Driver/Src/stm32l4xx_hal_rcc.c ****       {
 780:Drivers/STM32L4xx_HAL_Driver/Src/stm32l4xx_hal_rcc.c ****         if((HAL_GetTick() - tickstart) > HSI48_TIMEOUT_VALUE)
 781:Drivers/STM32L4xx_HAL_Driver/Src/stm32l4xx_hal_rcc.c ****         {
 782:Drivers/STM32L4xx_HAL_Driver/Src/stm32l4xx_hal_rcc.c ****           return HAL_TIMEOUT;
 783:Drivers/STM32L4xx_HAL_Driver/Src/stm32l4xx_hal_rcc.c ****         }
 784:Drivers/STM32L4xx_HAL_Driver/Src/stm32l4xx_hal_rcc.c ****       }
 785:Drivers/STM32L4xx_HAL_Driver/Src/stm32l4xx_hal_rcc.c ****     }
 786:Drivers/STM32L4xx_HAL_Driver/Src/stm32l4xx_hal_rcc.c ****   }
 787:Drivers/STM32L4xx_HAL_Driver/Src/stm32l4xx_hal_rcc.c **** #endif /* RCC_HSI48_SUPPORT */
 788:Drivers/STM32L4xx_HAL_Driver/Src/stm32l4xx_hal_rcc.c ****   /*-------------------------------- PLL Configuration -----------------------*/
 789:Drivers/STM32L4xx_HAL_Driver/Src/stm32l4xx_hal_rcc.c ****   /* Check the parameters */
 790:Drivers/STM32L4xx_HAL_Driver/Src/stm32l4xx_hal_rcc.c ****   assert_param(IS_RCC_PLL(RCC_OscInitStruct->PLL.PLLState));
 791:Drivers/STM32L4xx_HAL_Driver/Src/stm32l4xx_hal_rcc.c **** 
 792:Drivers/STM32L4xx_HAL_Driver/Src/stm32l4xx_hal_rcc.c ****   if(RCC_OscInitStruct->PLL.PLLState != RCC_PLL_NONE)
 793:Drivers/STM32L4xx_HAL_Driver/Src/stm32l4xx_hal_rcc.c ****   {
 794:Drivers/STM32L4xx_HAL_Driver/Src/stm32l4xx_hal_rcc.c ****     /* Check if the PLL is used as system clock or not */
 795:Drivers/STM32L4xx_HAL_Driver/Src/stm32l4xx_hal_rcc.c ****     if(__HAL_RCC_GET_SYSCLK_SOURCE() != RCC_CFGR_SWS_PLL)
 796:Drivers/STM32L4xx_HAL_Driver/Src/stm32l4xx_hal_rcc.c ****     {
 797:Drivers/STM32L4xx_HAL_Driver/Src/stm32l4xx_hal_rcc.c ****       if(RCC_OscInitStruct->PLL.PLLState == RCC_PLL_ON)
 798:Drivers/STM32L4xx_HAL_Driver/Src/stm32l4xx_hal_rcc.c ****       {
 799:Drivers/STM32L4xx_HAL_Driver/Src/stm32l4xx_hal_rcc.c ****         /* Check the parameters */
 800:Drivers/STM32L4xx_HAL_Driver/Src/stm32l4xx_hal_rcc.c ****         assert_param(IS_RCC_PLLSOURCE(RCC_OscInitStruct->PLL.PLLSource));
 801:Drivers/STM32L4xx_HAL_Driver/Src/stm32l4xx_hal_rcc.c ****         assert_param(IS_RCC_PLLM_VALUE(RCC_OscInitStruct->PLL.PLLM));
 802:Drivers/STM32L4xx_HAL_Driver/Src/stm32l4xx_hal_rcc.c ****         assert_param(IS_RCC_PLLN_VALUE(RCC_OscInitStruct->PLL.PLLN));
 803:Drivers/STM32L4xx_HAL_Driver/Src/stm32l4xx_hal_rcc.c ****         assert_param(IS_RCC_PLLP_VALUE(RCC_OscInitStruct->PLL.PLLP));
 804:Drivers/STM32L4xx_HAL_Driver/Src/stm32l4xx_hal_rcc.c ****         assert_param(IS_RCC_PLLQ_VALUE(RCC_OscInitStruct->PLL.PLLQ));
 805:Drivers/STM32L4xx_HAL_Driver/Src/stm32l4xx_hal_rcc.c ****         assert_param(IS_RCC_PLLR_VALUE(RCC_OscInitStruct->PLL.PLLR));
 806:Drivers/STM32L4xx_HAL_Driver/Src/stm32l4xx_hal_rcc.c **** 
 807:Drivers/STM32L4xx_HAL_Driver/Src/stm32l4xx_hal_rcc.c ****         /* Disable the main PLL. */
 808:Drivers/STM32L4xx_HAL_Driver/Src/stm32l4xx_hal_rcc.c ****         __HAL_RCC_PLL_DISABLE();
 809:Drivers/STM32L4xx_HAL_Driver/Src/stm32l4xx_hal_rcc.c **** 
 810:Drivers/STM32L4xx_HAL_Driver/Src/stm32l4xx_hal_rcc.c ****         /* Get Start Tick*/
 811:Drivers/STM32L4xx_HAL_Driver/Src/stm32l4xx_hal_rcc.c ****         tickstart = HAL_GetTick();
 812:Drivers/STM32L4xx_HAL_Driver/Src/stm32l4xx_hal_rcc.c **** 
 813:Drivers/STM32L4xx_HAL_Driver/Src/stm32l4xx_hal_rcc.c ****         /* Wait till PLL is ready */
 814:Drivers/STM32L4xx_HAL_Driver/Src/stm32l4xx_hal_rcc.c ****         while(READ_BIT(RCC->CR, RCC_CR_PLLRDY) != RESET)
 815:Drivers/STM32L4xx_HAL_Driver/Src/stm32l4xx_hal_rcc.c ****         {
 816:Drivers/STM32L4xx_HAL_Driver/Src/stm32l4xx_hal_rcc.c ****           if((HAL_GetTick() - tickstart) > PLL_TIMEOUT_VALUE)
 817:Drivers/STM32L4xx_HAL_Driver/Src/stm32l4xx_hal_rcc.c ****           {
 818:Drivers/STM32L4xx_HAL_Driver/Src/stm32l4xx_hal_rcc.c ****             return HAL_TIMEOUT;
 819:Drivers/STM32L4xx_HAL_Driver/Src/stm32l4xx_hal_rcc.c ****           }
 820:Drivers/STM32L4xx_HAL_Driver/Src/stm32l4xx_hal_rcc.c ****         }
 821:Drivers/STM32L4xx_HAL_Driver/Src/stm32l4xx_hal_rcc.c **** 
 822:Drivers/STM32L4xx_HAL_Driver/Src/stm32l4xx_hal_rcc.c ****         /* Configure the main PLL clock source, multiplication and division factors. */
 823:Drivers/STM32L4xx_HAL_Driver/Src/stm32l4xx_hal_rcc.c ****         __HAL_RCC_PLL_CONFIG(RCC_OscInitStruct->PLL.PLLSource,
 824:Drivers/STM32L4xx_HAL_Driver/Src/stm32l4xx_hal_rcc.c ****                              RCC_OscInitStruct->PLL.PLLM,
 825:Drivers/STM32L4xx_HAL_Driver/Src/stm32l4xx_hal_rcc.c ****                              RCC_OscInitStruct->PLL.PLLN,
 826:Drivers/STM32L4xx_HAL_Driver/Src/stm32l4xx_hal_rcc.c ****                              RCC_OscInitStruct->PLL.PLLP,
 827:Drivers/STM32L4xx_HAL_Driver/Src/stm32l4xx_hal_rcc.c ****                              RCC_OscInitStruct->PLL.PLLQ,
 828:Drivers/STM32L4xx_HAL_Driver/Src/stm32l4xx_hal_rcc.c ****                              RCC_OscInitStruct->PLL.PLLR);
 829:Drivers/STM32L4xx_HAL_Driver/Src/stm32l4xx_hal_rcc.c **** 
ARM GAS  /var/folders/bq/zy6zjhwd1qn4sn8dk3jpjcq80000gn/T//cc47l0uG.s 			page 16


 830:Drivers/STM32L4xx_HAL_Driver/Src/stm32l4xx_hal_rcc.c ****         /* Enable the main PLL. */
 831:Drivers/STM32L4xx_HAL_Driver/Src/stm32l4xx_hal_rcc.c ****         __HAL_RCC_PLL_ENABLE();
 832:Drivers/STM32L4xx_HAL_Driver/Src/stm32l4xx_hal_rcc.c **** 
 833:Drivers/STM32L4xx_HAL_Driver/Src/stm32l4xx_hal_rcc.c ****         /* Enable PLL System Clock output. */
 834:Drivers/STM32L4xx_HAL_Driver/Src/stm32l4xx_hal_rcc.c ****          __HAL_RCC_PLLCLKOUT_ENABLE(RCC_PLL_SYSCLK);
 835:Drivers/STM32L4xx_HAL_Driver/Src/stm32l4xx_hal_rcc.c **** 
 836:Drivers/STM32L4xx_HAL_Driver/Src/stm32l4xx_hal_rcc.c ****         /* Get Start Tick*/
 837:Drivers/STM32L4xx_HAL_Driver/Src/stm32l4xx_hal_rcc.c ****         tickstart = HAL_GetTick();
 838:Drivers/STM32L4xx_HAL_Driver/Src/stm32l4xx_hal_rcc.c **** 
 839:Drivers/STM32L4xx_HAL_Driver/Src/stm32l4xx_hal_rcc.c ****         /* Wait till PLL is ready */
 840:Drivers/STM32L4xx_HAL_Driver/Src/stm32l4xx_hal_rcc.c ****         while(READ_BIT(RCC->CR, RCC_CR_PLLRDY) == RESET)
 841:Drivers/STM32L4xx_HAL_Driver/Src/stm32l4xx_hal_rcc.c ****         {
 842:Drivers/STM32L4xx_HAL_Driver/Src/stm32l4xx_hal_rcc.c ****           if((HAL_GetTick() - tickstart) > PLL_TIMEOUT_VALUE)
 843:Drivers/STM32L4xx_HAL_Driver/Src/stm32l4xx_hal_rcc.c ****           {
 844:Drivers/STM32L4xx_HAL_Driver/Src/stm32l4xx_hal_rcc.c ****             return HAL_TIMEOUT;
 845:Drivers/STM32L4xx_HAL_Driver/Src/stm32l4xx_hal_rcc.c ****           }
 846:Drivers/STM32L4xx_HAL_Driver/Src/stm32l4xx_hal_rcc.c ****         }
 847:Drivers/STM32L4xx_HAL_Driver/Src/stm32l4xx_hal_rcc.c ****       }
 848:Drivers/STM32L4xx_HAL_Driver/Src/stm32l4xx_hal_rcc.c ****       else
 849:Drivers/STM32L4xx_HAL_Driver/Src/stm32l4xx_hal_rcc.c ****       {
 850:Drivers/STM32L4xx_HAL_Driver/Src/stm32l4xx_hal_rcc.c ****         /* Disable the main PLL. */
 851:Drivers/STM32L4xx_HAL_Driver/Src/stm32l4xx_hal_rcc.c ****         __HAL_RCC_PLL_DISABLE();
 852:Drivers/STM32L4xx_HAL_Driver/Src/stm32l4xx_hal_rcc.c **** 
 853:Drivers/STM32L4xx_HAL_Driver/Src/stm32l4xx_hal_rcc.c ****         /* Disable all PLL outputs to save power if no PLLs on */
 854:Drivers/STM32L4xx_HAL_Driver/Src/stm32l4xx_hal_rcc.c ****         if((READ_BIT(RCC->CR, RCC_CR_PLLSAI1RDY) == RESET)
 855:Drivers/STM32L4xx_HAL_Driver/Src/stm32l4xx_hal_rcc.c **** #if defined(RCC_PLLSAI2_SUPPORT)
 856:Drivers/STM32L4xx_HAL_Driver/Src/stm32l4xx_hal_rcc.c ****            &&
 857:Drivers/STM32L4xx_HAL_Driver/Src/stm32l4xx_hal_rcc.c ****            (READ_BIT(RCC->CR, RCC_CR_PLLSAI2RDY) == RESET)
 858:Drivers/STM32L4xx_HAL_Driver/Src/stm32l4xx_hal_rcc.c **** #endif /* RCC_PLLSAI2_SUPPORT */
 859:Drivers/STM32L4xx_HAL_Driver/Src/stm32l4xx_hal_rcc.c ****           )
 860:Drivers/STM32L4xx_HAL_Driver/Src/stm32l4xx_hal_rcc.c ****         {
 861:Drivers/STM32L4xx_HAL_Driver/Src/stm32l4xx_hal_rcc.c ****           MODIFY_REG(RCC->PLLCFGR, RCC_PLLCFGR_PLLSRC, RCC_PLLSOURCE_NONE);
 862:Drivers/STM32L4xx_HAL_Driver/Src/stm32l4xx_hal_rcc.c ****         }
 863:Drivers/STM32L4xx_HAL_Driver/Src/stm32l4xx_hal_rcc.c **** 
 864:Drivers/STM32L4xx_HAL_Driver/Src/stm32l4xx_hal_rcc.c **** #if defined(RCC_PLLSAI2_SUPPORT)
 865:Drivers/STM32L4xx_HAL_Driver/Src/stm32l4xx_hal_rcc.c ****         __HAL_RCC_PLLCLKOUT_DISABLE(RCC_PLL_SYSCLK | RCC_PLL_48M1CLK | RCC_PLL_SAI3CLK);
 866:Drivers/STM32L4xx_HAL_Driver/Src/stm32l4xx_hal_rcc.c **** #else
 867:Drivers/STM32L4xx_HAL_Driver/Src/stm32l4xx_hal_rcc.c ****         __HAL_RCC_PLLCLKOUT_DISABLE(RCC_PLL_SYSCLK | RCC_PLL_48M1CLK | RCC_PLL_SAI2CLK);
 868:Drivers/STM32L4xx_HAL_Driver/Src/stm32l4xx_hal_rcc.c **** #endif /* RCC_PLLSAI2_SUPPORT */
 869:Drivers/STM32L4xx_HAL_Driver/Src/stm32l4xx_hal_rcc.c **** 
 870:Drivers/STM32L4xx_HAL_Driver/Src/stm32l4xx_hal_rcc.c ****         /* Get Start Tick*/
 871:Drivers/STM32L4xx_HAL_Driver/Src/stm32l4xx_hal_rcc.c ****         tickstart = HAL_GetTick();
 872:Drivers/STM32L4xx_HAL_Driver/Src/stm32l4xx_hal_rcc.c **** 
 873:Drivers/STM32L4xx_HAL_Driver/Src/stm32l4xx_hal_rcc.c ****         /* Wait till PLL is disabled */
 874:Drivers/STM32L4xx_HAL_Driver/Src/stm32l4xx_hal_rcc.c ****         while(READ_BIT(RCC->CR, RCC_CR_PLLRDY) != RESET)
 875:Drivers/STM32L4xx_HAL_Driver/Src/stm32l4xx_hal_rcc.c ****         {
 876:Drivers/STM32L4xx_HAL_Driver/Src/stm32l4xx_hal_rcc.c ****           if((HAL_GetTick() - tickstart) > PLL_TIMEOUT_VALUE)
 877:Drivers/STM32L4xx_HAL_Driver/Src/stm32l4xx_hal_rcc.c ****           {
 878:Drivers/STM32L4xx_HAL_Driver/Src/stm32l4xx_hal_rcc.c ****             return HAL_TIMEOUT;
 879:Drivers/STM32L4xx_HAL_Driver/Src/stm32l4xx_hal_rcc.c ****           }
 880:Drivers/STM32L4xx_HAL_Driver/Src/stm32l4xx_hal_rcc.c ****         }
 881:Drivers/STM32L4xx_HAL_Driver/Src/stm32l4xx_hal_rcc.c ****       }
 882:Drivers/STM32L4xx_HAL_Driver/Src/stm32l4xx_hal_rcc.c ****     }
 883:Drivers/STM32L4xx_HAL_Driver/Src/stm32l4xx_hal_rcc.c ****     else
 884:Drivers/STM32L4xx_HAL_Driver/Src/stm32l4xx_hal_rcc.c ****     {
 885:Drivers/STM32L4xx_HAL_Driver/Src/stm32l4xx_hal_rcc.c ****       return HAL_ERROR;
 886:Drivers/STM32L4xx_HAL_Driver/Src/stm32l4xx_hal_rcc.c ****     }
ARM GAS  /var/folders/bq/zy6zjhwd1qn4sn8dk3jpjcq80000gn/T//cc47l0uG.s 			page 17


 887:Drivers/STM32L4xx_HAL_Driver/Src/stm32l4xx_hal_rcc.c ****   }
 888:Drivers/STM32L4xx_HAL_Driver/Src/stm32l4xx_hal_rcc.c ****   return HAL_OK;
 889:Drivers/STM32L4xx_HAL_Driver/Src/stm32l4xx_hal_rcc.c **** }
 890:Drivers/STM32L4xx_HAL_Driver/Src/stm32l4xx_hal_rcc.c **** 
 891:Drivers/STM32L4xx_HAL_Driver/Src/stm32l4xx_hal_rcc.c **** /**
 892:Drivers/STM32L4xx_HAL_Driver/Src/stm32l4xx_hal_rcc.c ****   * @brief  Initialize the CPU, AHB and APB busses clocks according to the specified
 893:Drivers/STM32L4xx_HAL_Driver/Src/stm32l4xx_hal_rcc.c ****   *         parameters in the RCC_ClkInitStruct.
 894:Drivers/STM32L4xx_HAL_Driver/Src/stm32l4xx_hal_rcc.c ****   * @param  RCC_ClkInitStruct  pointer to an RCC_OscInitTypeDef structure that
 895:Drivers/STM32L4xx_HAL_Driver/Src/stm32l4xx_hal_rcc.c ****   *         contains the configuration information for the RCC peripheral.
 896:Drivers/STM32L4xx_HAL_Driver/Src/stm32l4xx_hal_rcc.c ****   * @param  FLatency  FLASH Latency
 897:Drivers/STM32L4xx_HAL_Driver/Src/stm32l4xx_hal_rcc.c ****   *          This parameter can be one of the following values:
 898:Drivers/STM32L4xx_HAL_Driver/Src/stm32l4xx_hal_rcc.c ****   *            @arg FLASH_LATENCY_0   FLASH 0 Latency cycle
 899:Drivers/STM32L4xx_HAL_Driver/Src/stm32l4xx_hal_rcc.c ****   *            @arg FLASH_LATENCY_1   FLASH 1 Latency cycle
 900:Drivers/STM32L4xx_HAL_Driver/Src/stm32l4xx_hal_rcc.c ****   *            @arg FLASH_LATENCY_2   FLASH 2 Latency cycles
 901:Drivers/STM32L4xx_HAL_Driver/Src/stm32l4xx_hal_rcc.c ****   *            @arg FLASH_LATENCY_3   FLASH 3 Latency cycles
 902:Drivers/STM32L4xx_HAL_Driver/Src/stm32l4xx_hal_rcc.c ****   *            @arg FLASH_LATENCY_4   FLASH 4 Latency cycles
 903:Drivers/STM32L4xx_HAL_Driver/Src/stm32l4xx_hal_rcc.c ****   @if STM32L4S9xx
 904:Drivers/STM32L4xx_HAL_Driver/Src/stm32l4xx_hal_rcc.c ****   *            @arg FLASH_LATENCY_5   FLASH 5 Latency cycles
 905:Drivers/STM32L4xx_HAL_Driver/Src/stm32l4xx_hal_rcc.c ****   *            @arg FLASH_LATENCY_6   FLASH 6 Latency cycles
 906:Drivers/STM32L4xx_HAL_Driver/Src/stm32l4xx_hal_rcc.c ****   *            @arg FLASH_LATENCY_7   FLASH 7 Latency cycles
 907:Drivers/STM32L4xx_HAL_Driver/Src/stm32l4xx_hal_rcc.c ****   *            @arg FLASH_LATENCY_8   FLASH 8 Latency cycles
 908:Drivers/STM32L4xx_HAL_Driver/Src/stm32l4xx_hal_rcc.c ****   *            @arg FLASH_LATENCY_9   FLASH 9 Latency cycles
 909:Drivers/STM32L4xx_HAL_Driver/Src/stm32l4xx_hal_rcc.c ****   *            @arg FLASH_LATENCY_10  FLASH 10 Latency cycles
 910:Drivers/STM32L4xx_HAL_Driver/Src/stm32l4xx_hal_rcc.c ****   *            @arg FLASH_LATENCY_11  FLASH 11 Latency cycles
 911:Drivers/STM32L4xx_HAL_Driver/Src/stm32l4xx_hal_rcc.c ****   *            @arg FLASH_LATENCY_12  FLASH 12 Latency cycles
 912:Drivers/STM32L4xx_HAL_Driver/Src/stm32l4xx_hal_rcc.c ****   *            @arg FLASH_LATENCY_13  FLASH 13 Latency cycles
 913:Drivers/STM32L4xx_HAL_Driver/Src/stm32l4xx_hal_rcc.c ****   *            @arg FLASH_LATENCY_14  FLASH 14 Latency cycles
 914:Drivers/STM32L4xx_HAL_Driver/Src/stm32l4xx_hal_rcc.c ****   *            @arg FLASH_LATENCY_15  FLASH 15 Latency cycles
 915:Drivers/STM32L4xx_HAL_Driver/Src/stm32l4xx_hal_rcc.c ****   @endif
 916:Drivers/STM32L4xx_HAL_Driver/Src/stm32l4xx_hal_rcc.c ****   *
 917:Drivers/STM32L4xx_HAL_Driver/Src/stm32l4xx_hal_rcc.c ****   * @note   The SystemCoreClock CMSIS variable is used to store System Clock Frequency
 918:Drivers/STM32L4xx_HAL_Driver/Src/stm32l4xx_hal_rcc.c ****   *         and updated by HAL_RCC_GetHCLKFreq() function called within this function
 919:Drivers/STM32L4xx_HAL_Driver/Src/stm32l4xx_hal_rcc.c ****   *
 920:Drivers/STM32L4xx_HAL_Driver/Src/stm32l4xx_hal_rcc.c ****   * @note   The MSI is used by default as system clock source after
 921:Drivers/STM32L4xx_HAL_Driver/Src/stm32l4xx_hal_rcc.c ****   *         startup from Reset, wake-up from STANDBY mode. After restart from Reset,
 922:Drivers/STM32L4xx_HAL_Driver/Src/stm32l4xx_hal_rcc.c ****   *         the MSI frequency is set to its default value 4 MHz.
 923:Drivers/STM32L4xx_HAL_Driver/Src/stm32l4xx_hal_rcc.c ****   *
 924:Drivers/STM32L4xx_HAL_Driver/Src/stm32l4xx_hal_rcc.c ****   * @note   The HSI can be selected as system clock source after
 925:Drivers/STM32L4xx_HAL_Driver/Src/stm32l4xx_hal_rcc.c ****   *         from STOP modes or in case of failure of the HSE used directly or indirectly
 926:Drivers/STM32L4xx_HAL_Driver/Src/stm32l4xx_hal_rcc.c ****   *         as system clock (if the Clock Security System CSS is enabled).
 927:Drivers/STM32L4xx_HAL_Driver/Src/stm32l4xx_hal_rcc.c ****   *
 928:Drivers/STM32L4xx_HAL_Driver/Src/stm32l4xx_hal_rcc.c ****   * @note   A switch from one clock source to another occurs only if the target
 929:Drivers/STM32L4xx_HAL_Driver/Src/stm32l4xx_hal_rcc.c ****   *         clock source is ready (clock stable after startup delay or PLL locked).
 930:Drivers/STM32L4xx_HAL_Driver/Src/stm32l4xx_hal_rcc.c ****   *         If a clock source which is not yet ready is selected, the switch will
 931:Drivers/STM32L4xx_HAL_Driver/Src/stm32l4xx_hal_rcc.c ****   *         occur when the clock source is ready.
 932:Drivers/STM32L4xx_HAL_Driver/Src/stm32l4xx_hal_rcc.c ****   *
 933:Drivers/STM32L4xx_HAL_Driver/Src/stm32l4xx_hal_rcc.c ****   * @note   You can use HAL_RCC_GetClockConfig() function to know which clock is
 934:Drivers/STM32L4xx_HAL_Driver/Src/stm32l4xx_hal_rcc.c ****   *         currently used as system clock source.
 935:Drivers/STM32L4xx_HAL_Driver/Src/stm32l4xx_hal_rcc.c ****   *
 936:Drivers/STM32L4xx_HAL_Driver/Src/stm32l4xx_hal_rcc.c ****   * @note   Depending on the device voltage range, the software has to set correctly
 937:Drivers/STM32L4xx_HAL_Driver/Src/stm32l4xx_hal_rcc.c ****   *         HPRE[3:0] bits to ensure that HCLK not exceed the maximum allowed frequency
 938:Drivers/STM32L4xx_HAL_Driver/Src/stm32l4xx_hal_rcc.c ****   *         (for more details refer to section above "Initialization/de-initialization functions")
 939:Drivers/STM32L4xx_HAL_Driver/Src/stm32l4xx_hal_rcc.c ****   * @retval None
 940:Drivers/STM32L4xx_HAL_Driver/Src/stm32l4xx_hal_rcc.c ****   */
 941:Drivers/STM32L4xx_HAL_Driver/Src/stm32l4xx_hal_rcc.c **** HAL_StatusTypeDef HAL_RCC_ClockConfig(RCC_ClkInitTypeDef  *RCC_ClkInitStruct, uint32_t FLatency)
 942:Drivers/STM32L4xx_HAL_Driver/Src/stm32l4xx_hal_rcc.c **** {
 943:Drivers/STM32L4xx_HAL_Driver/Src/stm32l4xx_hal_rcc.c ****   uint32_t tickstart;
ARM GAS  /var/folders/bq/zy6zjhwd1qn4sn8dk3jpjcq80000gn/T//cc47l0uG.s 			page 18


 944:Drivers/STM32L4xx_HAL_Driver/Src/stm32l4xx_hal_rcc.c **** #if defined(STM32L4R5xx) || defined(STM32L4R7xx) || defined(STM32L4R9xx) || defined(STM32L4S5xx) ||
 945:Drivers/STM32L4xx_HAL_Driver/Src/stm32l4xx_hal_rcc.c ****   uint32_t pllfreq = 0;
 946:Drivers/STM32L4xx_HAL_Driver/Src/stm32l4xx_hal_rcc.c ****   uint32_t hpre = RCC_SYSCLK_DIV1;
 947:Drivers/STM32L4xx_HAL_Driver/Src/stm32l4xx_hal_rcc.c **** #endif
 948:Drivers/STM32L4xx_HAL_Driver/Src/stm32l4xx_hal_rcc.c **** 
 949:Drivers/STM32L4xx_HAL_Driver/Src/stm32l4xx_hal_rcc.c ****   /* Check Null pointer */
 950:Drivers/STM32L4xx_HAL_Driver/Src/stm32l4xx_hal_rcc.c ****   if(RCC_ClkInitStruct == NULL)
 951:Drivers/STM32L4xx_HAL_Driver/Src/stm32l4xx_hal_rcc.c ****   {
 952:Drivers/STM32L4xx_HAL_Driver/Src/stm32l4xx_hal_rcc.c ****     return HAL_ERROR;
 953:Drivers/STM32L4xx_HAL_Driver/Src/stm32l4xx_hal_rcc.c ****   }
 954:Drivers/STM32L4xx_HAL_Driver/Src/stm32l4xx_hal_rcc.c **** 
 955:Drivers/STM32L4xx_HAL_Driver/Src/stm32l4xx_hal_rcc.c ****   /* Check the parameters */
 956:Drivers/STM32L4xx_HAL_Driver/Src/stm32l4xx_hal_rcc.c ****   assert_param(IS_RCC_CLOCKTYPE(RCC_ClkInitStruct->ClockType));
 957:Drivers/STM32L4xx_HAL_Driver/Src/stm32l4xx_hal_rcc.c ****   assert_param(IS_FLASH_LATENCY(FLatency));
 958:Drivers/STM32L4xx_HAL_Driver/Src/stm32l4xx_hal_rcc.c **** 
 959:Drivers/STM32L4xx_HAL_Driver/Src/stm32l4xx_hal_rcc.c ****   /* To correctly read data from FLASH memory, the number of wait states (LATENCY)
 960:Drivers/STM32L4xx_HAL_Driver/Src/stm32l4xx_hal_rcc.c ****     must be correctly programmed according to the frequency of the CPU clock
 961:Drivers/STM32L4xx_HAL_Driver/Src/stm32l4xx_hal_rcc.c ****     (HCLK) and the supply voltage of the device. */
 962:Drivers/STM32L4xx_HAL_Driver/Src/stm32l4xx_hal_rcc.c **** 
 963:Drivers/STM32L4xx_HAL_Driver/Src/stm32l4xx_hal_rcc.c ****   /* Increasing the number of wait states because of higher CPU frequency */
 964:Drivers/STM32L4xx_HAL_Driver/Src/stm32l4xx_hal_rcc.c ****   if(FLatency > __HAL_FLASH_GET_LATENCY())
 965:Drivers/STM32L4xx_HAL_Driver/Src/stm32l4xx_hal_rcc.c ****   {
 966:Drivers/STM32L4xx_HAL_Driver/Src/stm32l4xx_hal_rcc.c ****     /* Program the new number of wait states to the LATENCY bits in the FLASH_ACR register */
 967:Drivers/STM32L4xx_HAL_Driver/Src/stm32l4xx_hal_rcc.c ****     __HAL_FLASH_SET_LATENCY(FLatency);
 968:Drivers/STM32L4xx_HAL_Driver/Src/stm32l4xx_hal_rcc.c **** 
 969:Drivers/STM32L4xx_HAL_Driver/Src/stm32l4xx_hal_rcc.c ****     /* Check that the new number of wait states is taken into account to access the Flash
 970:Drivers/STM32L4xx_HAL_Driver/Src/stm32l4xx_hal_rcc.c ****     memory by reading the FLASH_ACR register */
 971:Drivers/STM32L4xx_HAL_Driver/Src/stm32l4xx_hal_rcc.c ****     if(__HAL_FLASH_GET_LATENCY() != FLatency)
 972:Drivers/STM32L4xx_HAL_Driver/Src/stm32l4xx_hal_rcc.c ****     {
 973:Drivers/STM32L4xx_HAL_Driver/Src/stm32l4xx_hal_rcc.c ****       return HAL_ERROR;
 974:Drivers/STM32L4xx_HAL_Driver/Src/stm32l4xx_hal_rcc.c ****     }
 975:Drivers/STM32L4xx_HAL_Driver/Src/stm32l4xx_hal_rcc.c ****   }
 976:Drivers/STM32L4xx_HAL_Driver/Src/stm32l4xx_hal_rcc.c **** 
 977:Drivers/STM32L4xx_HAL_Driver/Src/stm32l4xx_hal_rcc.c ****   /*------------------------- SYSCLK Configuration ---------------------------*/
 978:Drivers/STM32L4xx_HAL_Driver/Src/stm32l4xx_hal_rcc.c ****   if(((RCC_ClkInitStruct->ClockType) & RCC_CLOCKTYPE_SYSCLK) == RCC_CLOCKTYPE_SYSCLK)
 979:Drivers/STM32L4xx_HAL_Driver/Src/stm32l4xx_hal_rcc.c ****   {
 980:Drivers/STM32L4xx_HAL_Driver/Src/stm32l4xx_hal_rcc.c ****     assert_param(IS_RCC_SYSCLKSOURCE(RCC_ClkInitStruct->SYSCLKSource));
 981:Drivers/STM32L4xx_HAL_Driver/Src/stm32l4xx_hal_rcc.c **** 
 982:Drivers/STM32L4xx_HAL_Driver/Src/stm32l4xx_hal_rcc.c ****     /* PLL is selected as System Clock Source */
 983:Drivers/STM32L4xx_HAL_Driver/Src/stm32l4xx_hal_rcc.c ****     if(RCC_ClkInitStruct->SYSCLKSource == RCC_SYSCLKSOURCE_PLLCLK)
 984:Drivers/STM32L4xx_HAL_Driver/Src/stm32l4xx_hal_rcc.c ****     {
 985:Drivers/STM32L4xx_HAL_Driver/Src/stm32l4xx_hal_rcc.c ****       /* Check the PLL ready flag */
 986:Drivers/STM32L4xx_HAL_Driver/Src/stm32l4xx_hal_rcc.c ****       if(READ_BIT(RCC->CR, RCC_CR_PLLRDY) == RESET)
 987:Drivers/STM32L4xx_HAL_Driver/Src/stm32l4xx_hal_rcc.c ****       {
 988:Drivers/STM32L4xx_HAL_Driver/Src/stm32l4xx_hal_rcc.c ****         return HAL_ERROR;
 989:Drivers/STM32L4xx_HAL_Driver/Src/stm32l4xx_hal_rcc.c ****       }
 990:Drivers/STM32L4xx_HAL_Driver/Src/stm32l4xx_hal_rcc.c **** #if defined(STM32L4R5xx) || defined(STM32L4R7xx) || defined(STM32L4R9xx) || defined(STM32L4S5xx) ||
 991:Drivers/STM32L4xx_HAL_Driver/Src/stm32l4xx_hal_rcc.c ****       /* Undershoot management when selection PLL as SYSCLK source and frequency above 80Mhz */
 992:Drivers/STM32L4xx_HAL_Driver/Src/stm32l4xx_hal_rcc.c ****       /* Compute target PLL output frequency */
 993:Drivers/STM32L4xx_HAL_Driver/Src/stm32l4xx_hal_rcc.c ****       pllfreq = RCC_GetSysClockFreqFromPLLSource();
 994:Drivers/STM32L4xx_HAL_Driver/Src/stm32l4xx_hal_rcc.c **** 
 995:Drivers/STM32L4xx_HAL_Driver/Src/stm32l4xx_hal_rcc.c ****       /* Intermediate step with HCLK prescaler 2 necessary before to go over 80Mhz */
 996:Drivers/STM32L4xx_HAL_Driver/Src/stm32l4xx_hal_rcc.c ****       if((pllfreq > 80000000U) &&
 997:Drivers/STM32L4xx_HAL_Driver/Src/stm32l4xx_hal_rcc.c ****          (((((RCC_ClkInitStruct->ClockType) & RCC_CLOCKTYPE_HCLK) == RCC_CLOCKTYPE_HCLK) && (RCC_Cl
 998:Drivers/STM32L4xx_HAL_Driver/Src/stm32l4xx_hal_rcc.c ****           ||
 999:Drivers/STM32L4xx_HAL_Driver/Src/stm32l4xx_hal_rcc.c ****           ((READ_BIT(RCC->CFGR, RCC_CFGR_HPRE) == RCC_SYSCLK_DIV1))))
1000:Drivers/STM32L4xx_HAL_Driver/Src/stm32l4xx_hal_rcc.c ****       {
ARM GAS  /var/folders/bq/zy6zjhwd1qn4sn8dk3jpjcq80000gn/T//cc47l0uG.s 			page 19


1001:Drivers/STM32L4xx_HAL_Driver/Src/stm32l4xx_hal_rcc.c ****         MODIFY_REG(RCC->CFGR, RCC_CFGR_HPRE, RCC_SYSCLK_DIV2);
1002:Drivers/STM32L4xx_HAL_Driver/Src/stm32l4xx_hal_rcc.c ****         hpre = RCC_SYSCLK_DIV2;
1003:Drivers/STM32L4xx_HAL_Driver/Src/stm32l4xx_hal_rcc.c ****       }
1004:Drivers/STM32L4xx_HAL_Driver/Src/stm32l4xx_hal_rcc.c **** #endif
1005:Drivers/STM32L4xx_HAL_Driver/Src/stm32l4xx_hal_rcc.c ****     }
1006:Drivers/STM32L4xx_HAL_Driver/Src/stm32l4xx_hal_rcc.c ****     else
1007:Drivers/STM32L4xx_HAL_Driver/Src/stm32l4xx_hal_rcc.c ****     {
1008:Drivers/STM32L4xx_HAL_Driver/Src/stm32l4xx_hal_rcc.c ****       /* HSE is selected as System Clock Source */
1009:Drivers/STM32L4xx_HAL_Driver/Src/stm32l4xx_hal_rcc.c ****       if(RCC_ClkInitStruct->SYSCLKSource == RCC_SYSCLKSOURCE_HSE)
1010:Drivers/STM32L4xx_HAL_Driver/Src/stm32l4xx_hal_rcc.c ****       {
1011:Drivers/STM32L4xx_HAL_Driver/Src/stm32l4xx_hal_rcc.c ****         /* Check the HSE ready flag */
1012:Drivers/STM32L4xx_HAL_Driver/Src/stm32l4xx_hal_rcc.c ****         if(READ_BIT(RCC->CR, RCC_CR_HSERDY) == RESET)
1013:Drivers/STM32L4xx_HAL_Driver/Src/stm32l4xx_hal_rcc.c ****         {
1014:Drivers/STM32L4xx_HAL_Driver/Src/stm32l4xx_hal_rcc.c ****           return HAL_ERROR;
1015:Drivers/STM32L4xx_HAL_Driver/Src/stm32l4xx_hal_rcc.c ****         }
1016:Drivers/STM32L4xx_HAL_Driver/Src/stm32l4xx_hal_rcc.c ****       }
1017:Drivers/STM32L4xx_HAL_Driver/Src/stm32l4xx_hal_rcc.c ****       /* MSI is selected as System Clock Source */
1018:Drivers/STM32L4xx_HAL_Driver/Src/stm32l4xx_hal_rcc.c ****       else if(RCC_ClkInitStruct->SYSCLKSource == RCC_SYSCLKSOURCE_MSI)
1019:Drivers/STM32L4xx_HAL_Driver/Src/stm32l4xx_hal_rcc.c ****       {
1020:Drivers/STM32L4xx_HAL_Driver/Src/stm32l4xx_hal_rcc.c ****         /* Check the MSI ready flag */
1021:Drivers/STM32L4xx_HAL_Driver/Src/stm32l4xx_hal_rcc.c ****         if(READ_BIT(RCC->CR, RCC_CR_MSIRDY) == RESET)
1022:Drivers/STM32L4xx_HAL_Driver/Src/stm32l4xx_hal_rcc.c ****         {
1023:Drivers/STM32L4xx_HAL_Driver/Src/stm32l4xx_hal_rcc.c ****           return HAL_ERROR;
1024:Drivers/STM32L4xx_HAL_Driver/Src/stm32l4xx_hal_rcc.c ****         }
1025:Drivers/STM32L4xx_HAL_Driver/Src/stm32l4xx_hal_rcc.c ****       }
1026:Drivers/STM32L4xx_HAL_Driver/Src/stm32l4xx_hal_rcc.c ****       /* HSI is selected as System Clock Source */
1027:Drivers/STM32L4xx_HAL_Driver/Src/stm32l4xx_hal_rcc.c ****       else
1028:Drivers/STM32L4xx_HAL_Driver/Src/stm32l4xx_hal_rcc.c ****       {
1029:Drivers/STM32L4xx_HAL_Driver/Src/stm32l4xx_hal_rcc.c ****         /* Check the HSI ready flag */
1030:Drivers/STM32L4xx_HAL_Driver/Src/stm32l4xx_hal_rcc.c ****         if(READ_BIT(RCC->CR, RCC_CR_HSIRDY) == RESET)
1031:Drivers/STM32L4xx_HAL_Driver/Src/stm32l4xx_hal_rcc.c ****         {
1032:Drivers/STM32L4xx_HAL_Driver/Src/stm32l4xx_hal_rcc.c ****           return HAL_ERROR;
1033:Drivers/STM32L4xx_HAL_Driver/Src/stm32l4xx_hal_rcc.c ****         }
1034:Drivers/STM32L4xx_HAL_Driver/Src/stm32l4xx_hal_rcc.c ****       }
1035:Drivers/STM32L4xx_HAL_Driver/Src/stm32l4xx_hal_rcc.c **** #if defined(STM32L4R5xx) || defined(STM32L4R7xx) || defined(STM32L4R9xx) || defined(STM32L4S5xx) ||
1036:Drivers/STM32L4xx_HAL_Driver/Src/stm32l4xx_hal_rcc.c ****       /* Overshoot management when going down from PLL as SYSCLK source and frequency above 80Mhz *
1037:Drivers/STM32L4xx_HAL_Driver/Src/stm32l4xx_hal_rcc.c ****       pllfreq = HAL_RCC_GetSysClockFreq();
1038:Drivers/STM32L4xx_HAL_Driver/Src/stm32l4xx_hal_rcc.c **** 
1039:Drivers/STM32L4xx_HAL_Driver/Src/stm32l4xx_hal_rcc.c ****       /* Intermediate step with HCLK prescaler 2 necessary before to go under 80Mhz */
1040:Drivers/STM32L4xx_HAL_Driver/Src/stm32l4xx_hal_rcc.c ****       if(pllfreq > 80000000U)
1041:Drivers/STM32L4xx_HAL_Driver/Src/stm32l4xx_hal_rcc.c ****       {
1042:Drivers/STM32L4xx_HAL_Driver/Src/stm32l4xx_hal_rcc.c ****         MODIFY_REG(RCC->CFGR, RCC_CFGR_HPRE, RCC_SYSCLK_DIV2);
1043:Drivers/STM32L4xx_HAL_Driver/Src/stm32l4xx_hal_rcc.c ****         hpre = RCC_SYSCLK_DIV2;
1044:Drivers/STM32L4xx_HAL_Driver/Src/stm32l4xx_hal_rcc.c ****       }
1045:Drivers/STM32L4xx_HAL_Driver/Src/stm32l4xx_hal_rcc.c **** #endif
1046:Drivers/STM32L4xx_HAL_Driver/Src/stm32l4xx_hal_rcc.c **** 
1047:Drivers/STM32L4xx_HAL_Driver/Src/stm32l4xx_hal_rcc.c ****     }
1048:Drivers/STM32L4xx_HAL_Driver/Src/stm32l4xx_hal_rcc.c **** 
1049:Drivers/STM32L4xx_HAL_Driver/Src/stm32l4xx_hal_rcc.c ****     MODIFY_REG(RCC->CFGR, RCC_CFGR_SW, RCC_ClkInitStruct->SYSCLKSource);
1050:Drivers/STM32L4xx_HAL_Driver/Src/stm32l4xx_hal_rcc.c **** 
1051:Drivers/STM32L4xx_HAL_Driver/Src/stm32l4xx_hal_rcc.c ****     /* Get Start Tick*/
1052:Drivers/STM32L4xx_HAL_Driver/Src/stm32l4xx_hal_rcc.c ****     tickstart = HAL_GetTick();
1053:Drivers/STM32L4xx_HAL_Driver/Src/stm32l4xx_hal_rcc.c **** 
1054:Drivers/STM32L4xx_HAL_Driver/Src/stm32l4xx_hal_rcc.c ****     while(__HAL_RCC_GET_SYSCLK_SOURCE() != (RCC_ClkInitStruct->SYSCLKSource << RCC_CFGR_SWS_Pos))
1055:Drivers/STM32L4xx_HAL_Driver/Src/stm32l4xx_hal_rcc.c ****     {
1056:Drivers/STM32L4xx_HAL_Driver/Src/stm32l4xx_hal_rcc.c ****       if((HAL_GetTick() - tickstart) > CLOCKSWITCH_TIMEOUT_VALUE)
1057:Drivers/STM32L4xx_HAL_Driver/Src/stm32l4xx_hal_rcc.c ****       {
ARM GAS  /var/folders/bq/zy6zjhwd1qn4sn8dk3jpjcq80000gn/T//cc47l0uG.s 			page 20


1058:Drivers/STM32L4xx_HAL_Driver/Src/stm32l4xx_hal_rcc.c ****         return HAL_TIMEOUT;
1059:Drivers/STM32L4xx_HAL_Driver/Src/stm32l4xx_hal_rcc.c ****       }
1060:Drivers/STM32L4xx_HAL_Driver/Src/stm32l4xx_hal_rcc.c ****     }
1061:Drivers/STM32L4xx_HAL_Driver/Src/stm32l4xx_hal_rcc.c ****   }
1062:Drivers/STM32L4xx_HAL_Driver/Src/stm32l4xx_hal_rcc.c **** 
1063:Drivers/STM32L4xx_HAL_Driver/Src/stm32l4xx_hal_rcc.c ****   /*-------------------------- HCLK Configuration --------------------------*/
1064:Drivers/STM32L4xx_HAL_Driver/Src/stm32l4xx_hal_rcc.c ****   if(((RCC_ClkInitStruct->ClockType) & RCC_CLOCKTYPE_HCLK) == RCC_CLOCKTYPE_HCLK)
1065:Drivers/STM32L4xx_HAL_Driver/Src/stm32l4xx_hal_rcc.c ****   {
1066:Drivers/STM32L4xx_HAL_Driver/Src/stm32l4xx_hal_rcc.c ****     assert_param(IS_RCC_HCLK(RCC_ClkInitStruct->AHBCLKDivider));
1067:Drivers/STM32L4xx_HAL_Driver/Src/stm32l4xx_hal_rcc.c ****     MODIFY_REG(RCC->CFGR, RCC_CFGR_HPRE, RCC_ClkInitStruct->AHBCLKDivider);
1068:Drivers/STM32L4xx_HAL_Driver/Src/stm32l4xx_hal_rcc.c ****   }
1069:Drivers/STM32L4xx_HAL_Driver/Src/stm32l4xx_hal_rcc.c **** #if defined(STM32L4R5xx) || defined(STM32L4R7xx) || defined(STM32L4R9xx) || defined(STM32L4S5xx) ||
1070:Drivers/STM32L4xx_HAL_Driver/Src/stm32l4xx_hal_rcc.c ****   else
1071:Drivers/STM32L4xx_HAL_Driver/Src/stm32l4xx_hal_rcc.c ****   {
1072:Drivers/STM32L4xx_HAL_Driver/Src/stm32l4xx_hal_rcc.c ****     /* Is intermediate HCLK prescaler 2 applied internally, complete with HCLK prescaler 1 */
1073:Drivers/STM32L4xx_HAL_Driver/Src/stm32l4xx_hal_rcc.c ****     if(hpre == RCC_SYSCLK_DIV2)
1074:Drivers/STM32L4xx_HAL_Driver/Src/stm32l4xx_hal_rcc.c ****     {
1075:Drivers/STM32L4xx_HAL_Driver/Src/stm32l4xx_hal_rcc.c ****       MODIFY_REG(RCC->CFGR, RCC_CFGR_HPRE, RCC_SYSCLK_DIV1);
1076:Drivers/STM32L4xx_HAL_Driver/Src/stm32l4xx_hal_rcc.c ****     }
1077:Drivers/STM32L4xx_HAL_Driver/Src/stm32l4xx_hal_rcc.c ****   }
1078:Drivers/STM32L4xx_HAL_Driver/Src/stm32l4xx_hal_rcc.c **** #endif
1079:Drivers/STM32L4xx_HAL_Driver/Src/stm32l4xx_hal_rcc.c **** 
1080:Drivers/STM32L4xx_HAL_Driver/Src/stm32l4xx_hal_rcc.c ****   /* Decreasing the number of wait states because of lower CPU frequency */
1081:Drivers/STM32L4xx_HAL_Driver/Src/stm32l4xx_hal_rcc.c ****   if(FLatency < __HAL_FLASH_GET_LATENCY())
1082:Drivers/STM32L4xx_HAL_Driver/Src/stm32l4xx_hal_rcc.c ****   {
1083:Drivers/STM32L4xx_HAL_Driver/Src/stm32l4xx_hal_rcc.c ****     /* Program the new number of wait states to the LATENCY bits in the FLASH_ACR register */
1084:Drivers/STM32L4xx_HAL_Driver/Src/stm32l4xx_hal_rcc.c ****     __HAL_FLASH_SET_LATENCY(FLatency);
1085:Drivers/STM32L4xx_HAL_Driver/Src/stm32l4xx_hal_rcc.c **** 
1086:Drivers/STM32L4xx_HAL_Driver/Src/stm32l4xx_hal_rcc.c ****     /* Check that the new number of wait states is taken into account to access the Flash
1087:Drivers/STM32L4xx_HAL_Driver/Src/stm32l4xx_hal_rcc.c ****     memory by reading the FLASH_ACR register */
1088:Drivers/STM32L4xx_HAL_Driver/Src/stm32l4xx_hal_rcc.c ****     if(__HAL_FLASH_GET_LATENCY() != FLatency)
1089:Drivers/STM32L4xx_HAL_Driver/Src/stm32l4xx_hal_rcc.c ****     {
1090:Drivers/STM32L4xx_HAL_Driver/Src/stm32l4xx_hal_rcc.c ****       return HAL_ERROR;
1091:Drivers/STM32L4xx_HAL_Driver/Src/stm32l4xx_hal_rcc.c ****     }
1092:Drivers/STM32L4xx_HAL_Driver/Src/stm32l4xx_hal_rcc.c ****   }
1093:Drivers/STM32L4xx_HAL_Driver/Src/stm32l4xx_hal_rcc.c **** 
1094:Drivers/STM32L4xx_HAL_Driver/Src/stm32l4xx_hal_rcc.c ****   /*-------------------------- PCLK1 Configuration ---------------------------*/
1095:Drivers/STM32L4xx_HAL_Driver/Src/stm32l4xx_hal_rcc.c ****   if(((RCC_ClkInitStruct->ClockType) & RCC_CLOCKTYPE_PCLK1) == RCC_CLOCKTYPE_PCLK1)
1096:Drivers/STM32L4xx_HAL_Driver/Src/stm32l4xx_hal_rcc.c ****   {
1097:Drivers/STM32L4xx_HAL_Driver/Src/stm32l4xx_hal_rcc.c ****     assert_param(IS_RCC_PCLK(RCC_ClkInitStruct->APB1CLKDivider));
1098:Drivers/STM32L4xx_HAL_Driver/Src/stm32l4xx_hal_rcc.c ****     MODIFY_REG(RCC->CFGR, RCC_CFGR_PPRE1, RCC_ClkInitStruct->APB1CLKDivider);
1099:Drivers/STM32L4xx_HAL_Driver/Src/stm32l4xx_hal_rcc.c ****   }
1100:Drivers/STM32L4xx_HAL_Driver/Src/stm32l4xx_hal_rcc.c **** 
1101:Drivers/STM32L4xx_HAL_Driver/Src/stm32l4xx_hal_rcc.c ****   /*-------------------------- PCLK2 Configuration ---------------------------*/
1102:Drivers/STM32L4xx_HAL_Driver/Src/stm32l4xx_hal_rcc.c ****   if(((RCC_ClkInitStruct->ClockType) & RCC_CLOCKTYPE_PCLK2) == RCC_CLOCKTYPE_PCLK2)
1103:Drivers/STM32L4xx_HAL_Driver/Src/stm32l4xx_hal_rcc.c ****   {
1104:Drivers/STM32L4xx_HAL_Driver/Src/stm32l4xx_hal_rcc.c ****     assert_param(IS_RCC_PCLK(RCC_ClkInitStruct->APB2CLKDivider));
1105:Drivers/STM32L4xx_HAL_Driver/Src/stm32l4xx_hal_rcc.c ****     MODIFY_REG(RCC->CFGR, RCC_CFGR_PPRE2, ((RCC_ClkInitStruct->APB2CLKDivider) << 3U));
1106:Drivers/STM32L4xx_HAL_Driver/Src/stm32l4xx_hal_rcc.c ****   }
1107:Drivers/STM32L4xx_HAL_Driver/Src/stm32l4xx_hal_rcc.c **** 
1108:Drivers/STM32L4xx_HAL_Driver/Src/stm32l4xx_hal_rcc.c ****   /* Update the SystemCoreClock global variable */
1109:Drivers/STM32L4xx_HAL_Driver/Src/stm32l4xx_hal_rcc.c ****   SystemCoreClock = HAL_RCC_GetSysClockFreq() >> AHBPrescTable[READ_BIT(RCC->CFGR, RCC_CFGR_HPRE) >
1110:Drivers/STM32L4xx_HAL_Driver/Src/stm32l4xx_hal_rcc.c **** 
1111:Drivers/STM32L4xx_HAL_Driver/Src/stm32l4xx_hal_rcc.c ****   /* Configure the source of time base considering new system clocks settings*/
1112:Drivers/STM32L4xx_HAL_Driver/Src/stm32l4xx_hal_rcc.c ****   HAL_InitTick (TICK_INT_PRIORITY);
1113:Drivers/STM32L4xx_HAL_Driver/Src/stm32l4xx_hal_rcc.c **** 
1114:Drivers/STM32L4xx_HAL_Driver/Src/stm32l4xx_hal_rcc.c ****   return HAL_OK;
ARM GAS  /var/folders/bq/zy6zjhwd1qn4sn8dk3jpjcq80000gn/T//cc47l0uG.s 			page 21


1115:Drivers/STM32L4xx_HAL_Driver/Src/stm32l4xx_hal_rcc.c **** }
1116:Drivers/STM32L4xx_HAL_Driver/Src/stm32l4xx_hal_rcc.c **** 
1117:Drivers/STM32L4xx_HAL_Driver/Src/stm32l4xx_hal_rcc.c **** /**
1118:Drivers/STM32L4xx_HAL_Driver/Src/stm32l4xx_hal_rcc.c ****   * @}
1119:Drivers/STM32L4xx_HAL_Driver/Src/stm32l4xx_hal_rcc.c ****   */
1120:Drivers/STM32L4xx_HAL_Driver/Src/stm32l4xx_hal_rcc.c **** 
1121:Drivers/STM32L4xx_HAL_Driver/Src/stm32l4xx_hal_rcc.c **** /** @defgroup RCC_Exported_Functions_Group2 Peripheral Control functions
1122:Drivers/STM32L4xx_HAL_Driver/Src/stm32l4xx_hal_rcc.c ****  *  @brief   RCC clocks control functions
1123:Drivers/STM32L4xx_HAL_Driver/Src/stm32l4xx_hal_rcc.c ****  *
1124:Drivers/STM32L4xx_HAL_Driver/Src/stm32l4xx_hal_rcc.c **** @verbatim
1125:Drivers/STM32L4xx_HAL_Driver/Src/stm32l4xx_hal_rcc.c ****  ===============================================================================
1126:Drivers/STM32L4xx_HAL_Driver/Src/stm32l4xx_hal_rcc.c ****                       ##### Peripheral Control functions #####
1127:Drivers/STM32L4xx_HAL_Driver/Src/stm32l4xx_hal_rcc.c ****  ===============================================================================
1128:Drivers/STM32L4xx_HAL_Driver/Src/stm32l4xx_hal_rcc.c ****     [..]
1129:Drivers/STM32L4xx_HAL_Driver/Src/stm32l4xx_hal_rcc.c ****     This subsection provides a set of functions allowing to:
1130:Drivers/STM32L4xx_HAL_Driver/Src/stm32l4xx_hal_rcc.c **** 
1131:Drivers/STM32L4xx_HAL_Driver/Src/stm32l4xx_hal_rcc.c ****     (+) Ouput clock to MCO pin.
1132:Drivers/STM32L4xx_HAL_Driver/Src/stm32l4xx_hal_rcc.c ****     (+) Retrieve current clock frequencies.
1133:Drivers/STM32L4xx_HAL_Driver/Src/stm32l4xx_hal_rcc.c ****     (+) Enable the Clock Security System.
1134:Drivers/STM32L4xx_HAL_Driver/Src/stm32l4xx_hal_rcc.c **** 
1135:Drivers/STM32L4xx_HAL_Driver/Src/stm32l4xx_hal_rcc.c **** @endverbatim
1136:Drivers/STM32L4xx_HAL_Driver/Src/stm32l4xx_hal_rcc.c ****   * @{
1137:Drivers/STM32L4xx_HAL_Driver/Src/stm32l4xx_hal_rcc.c ****   */
1138:Drivers/STM32L4xx_HAL_Driver/Src/stm32l4xx_hal_rcc.c **** 
1139:Drivers/STM32L4xx_HAL_Driver/Src/stm32l4xx_hal_rcc.c **** /**
1140:Drivers/STM32L4xx_HAL_Driver/Src/stm32l4xx_hal_rcc.c ****   * @brief  Select the clock source to output on MCO pin(PA8).
1141:Drivers/STM32L4xx_HAL_Driver/Src/stm32l4xx_hal_rcc.c ****   * @note   PA8 should be configured in alternate function mode.
1142:Drivers/STM32L4xx_HAL_Driver/Src/stm32l4xx_hal_rcc.c ****   * @param  RCC_MCOx  specifies the output direction for the clock source.
1143:Drivers/STM32L4xx_HAL_Driver/Src/stm32l4xx_hal_rcc.c ****   *          For STM32L4xx family this parameter can have only one value:
1144:Drivers/STM32L4xx_HAL_Driver/Src/stm32l4xx_hal_rcc.c ****   *            @arg @ref RCC_MCO1  Clock source to output on MCO1 pin(PA8).
1145:Drivers/STM32L4xx_HAL_Driver/Src/stm32l4xx_hal_rcc.c ****   * @param  RCC_MCOSource  specifies the clock source to output.
1146:Drivers/STM32L4xx_HAL_Driver/Src/stm32l4xx_hal_rcc.c ****   *          This parameter can be one of the following values:
1147:Drivers/STM32L4xx_HAL_Driver/Src/stm32l4xx_hal_rcc.c ****   *            @arg @ref RCC_MCO1SOURCE_NOCLOCK  MCO output disabled, no clock on MCO
1148:Drivers/STM32L4xx_HAL_Driver/Src/stm32l4xx_hal_rcc.c ****   *            @arg @ref RCC_MCO1SOURCE_SYSCLK  system  clock selected as MCO source
1149:Drivers/STM32L4xx_HAL_Driver/Src/stm32l4xx_hal_rcc.c ****   *            @arg @ref RCC_MCO1SOURCE_MSI  MSI clock selected as MCO source
1150:Drivers/STM32L4xx_HAL_Driver/Src/stm32l4xx_hal_rcc.c ****   *            @arg @ref RCC_MCO1SOURCE_HSI  HSI clock selected as MCO source
1151:Drivers/STM32L4xx_HAL_Driver/Src/stm32l4xx_hal_rcc.c ****   *            @arg @ref RCC_MCO1SOURCE_HSE  HSE clock selected as MCO sourcee
1152:Drivers/STM32L4xx_HAL_Driver/Src/stm32l4xx_hal_rcc.c ****   *            @arg @ref RCC_MCO1SOURCE_PLLCLK  main PLL clock selected as MCO source
1153:Drivers/STM32L4xx_HAL_Driver/Src/stm32l4xx_hal_rcc.c ****   *            @arg @ref RCC_MCO1SOURCE_LSI  LSI clock selected as MCO source
1154:Drivers/STM32L4xx_HAL_Driver/Src/stm32l4xx_hal_rcc.c ****   *            @arg @ref RCC_MCO1SOURCE_LSE  LSE clock selected as MCO source
1155:Drivers/STM32L4xx_HAL_Driver/Src/stm32l4xx_hal_rcc.c ****   @if STM32L443xx
1156:Drivers/STM32L4xx_HAL_Driver/Src/stm32l4xx_hal_rcc.c ****   *            @arg @ref RCC_MCO1SOURCE_HSI48  HSI48 clock selected as MCO source for devices with 
1157:Drivers/STM32L4xx_HAL_Driver/Src/stm32l4xx_hal_rcc.c ****   @endif
1158:Drivers/STM32L4xx_HAL_Driver/Src/stm32l4xx_hal_rcc.c ****   * @param  RCC_MCODiv  specifies the MCO prescaler.
1159:Drivers/STM32L4xx_HAL_Driver/Src/stm32l4xx_hal_rcc.c ****   *          This parameter can be one of the following values:
1160:Drivers/STM32L4xx_HAL_Driver/Src/stm32l4xx_hal_rcc.c ****   *            @arg @ref RCC_MCODIV_1  no division applied to MCO clock
1161:Drivers/STM32L4xx_HAL_Driver/Src/stm32l4xx_hal_rcc.c ****   *            @arg @ref RCC_MCODIV_2  division by 2 applied to MCO clock
1162:Drivers/STM32L4xx_HAL_Driver/Src/stm32l4xx_hal_rcc.c ****   *            @arg @ref RCC_MCODIV_4  division by 4 applied to MCO clock
1163:Drivers/STM32L4xx_HAL_Driver/Src/stm32l4xx_hal_rcc.c ****   *            @arg @ref RCC_MCODIV_8  division by 8 applied to MCO clock
1164:Drivers/STM32L4xx_HAL_Driver/Src/stm32l4xx_hal_rcc.c ****   *            @arg @ref RCC_MCODIV_16  division by 16 applied to MCO clock
1165:Drivers/STM32L4xx_HAL_Driver/Src/stm32l4xx_hal_rcc.c ****   * @retval None
1166:Drivers/STM32L4xx_HAL_Driver/Src/stm32l4xx_hal_rcc.c ****   */
1167:Drivers/STM32L4xx_HAL_Driver/Src/stm32l4xx_hal_rcc.c **** void HAL_RCC_MCOConfig( uint32_t RCC_MCOx, uint32_t RCC_MCOSource, uint32_t RCC_MCODiv)
1168:Drivers/STM32L4xx_HAL_Driver/Src/stm32l4xx_hal_rcc.c **** {
1169:Drivers/STM32L4xx_HAL_Driver/Src/stm32l4xx_hal_rcc.c ****   GPIO_InitTypeDef GPIO_InitStruct;
1170:Drivers/STM32L4xx_HAL_Driver/Src/stm32l4xx_hal_rcc.c **** 
1171:Drivers/STM32L4xx_HAL_Driver/Src/stm32l4xx_hal_rcc.c ****   /* Check the parameters */
ARM GAS  /var/folders/bq/zy6zjhwd1qn4sn8dk3jpjcq80000gn/T//cc47l0uG.s 			page 22


1172:Drivers/STM32L4xx_HAL_Driver/Src/stm32l4xx_hal_rcc.c ****   assert_param(IS_RCC_MCO(RCC_MCOx));
1173:Drivers/STM32L4xx_HAL_Driver/Src/stm32l4xx_hal_rcc.c ****   assert_param(IS_RCC_MCODIV(RCC_MCODiv));
1174:Drivers/STM32L4xx_HAL_Driver/Src/stm32l4xx_hal_rcc.c ****   assert_param(IS_RCC_MCO1SOURCE(RCC_MCOSource));
1175:Drivers/STM32L4xx_HAL_Driver/Src/stm32l4xx_hal_rcc.c **** 
1176:Drivers/STM32L4xx_HAL_Driver/Src/stm32l4xx_hal_rcc.c ****   /* Prevent unused argument(s) compilation warning if no assert_param check */
1177:Drivers/STM32L4xx_HAL_Driver/Src/stm32l4xx_hal_rcc.c ****   UNUSED(RCC_MCOx);
1178:Drivers/STM32L4xx_HAL_Driver/Src/stm32l4xx_hal_rcc.c **** 
1179:Drivers/STM32L4xx_HAL_Driver/Src/stm32l4xx_hal_rcc.c ****   /* MCO Clock Enable */
1180:Drivers/STM32L4xx_HAL_Driver/Src/stm32l4xx_hal_rcc.c ****   __MCO1_CLK_ENABLE();
1181:Drivers/STM32L4xx_HAL_Driver/Src/stm32l4xx_hal_rcc.c **** 
1182:Drivers/STM32L4xx_HAL_Driver/Src/stm32l4xx_hal_rcc.c ****   /* Configue the MCO1 pin in alternate function mode */
1183:Drivers/STM32L4xx_HAL_Driver/Src/stm32l4xx_hal_rcc.c ****   GPIO_InitStruct.Pin = MCO1_PIN;
1184:Drivers/STM32L4xx_HAL_Driver/Src/stm32l4xx_hal_rcc.c ****   GPIO_InitStruct.Mode = GPIO_MODE_AF_PP;
1185:Drivers/STM32L4xx_HAL_Driver/Src/stm32l4xx_hal_rcc.c ****   GPIO_InitStruct.Speed = GPIO_SPEED_FREQ_HIGH;
1186:Drivers/STM32L4xx_HAL_Driver/Src/stm32l4xx_hal_rcc.c ****   GPIO_InitStruct.Pull = GPIO_NOPULL;
1187:Drivers/STM32L4xx_HAL_Driver/Src/stm32l4xx_hal_rcc.c ****   GPIO_InitStruct.Alternate = GPIO_AF0_MCO;
1188:Drivers/STM32L4xx_HAL_Driver/Src/stm32l4xx_hal_rcc.c ****   HAL_GPIO_Init(MCO1_GPIO_PORT, &GPIO_InitStruct);
1189:Drivers/STM32L4xx_HAL_Driver/Src/stm32l4xx_hal_rcc.c **** 
1190:Drivers/STM32L4xx_HAL_Driver/Src/stm32l4xx_hal_rcc.c ****   /* Mask MCOSEL[] and MCOPRE[] bits then set MCO1 clock source and prescaler */
1191:Drivers/STM32L4xx_HAL_Driver/Src/stm32l4xx_hal_rcc.c ****   MODIFY_REG(RCC->CFGR, (RCC_CFGR_MCOSEL | RCC_CFGR_MCOPRE), (RCC_MCOSource | RCC_MCODiv ));
1192:Drivers/STM32L4xx_HAL_Driver/Src/stm32l4xx_hal_rcc.c **** }
1193:Drivers/STM32L4xx_HAL_Driver/Src/stm32l4xx_hal_rcc.c **** 
1194:Drivers/STM32L4xx_HAL_Driver/Src/stm32l4xx_hal_rcc.c **** /**
1195:Drivers/STM32L4xx_HAL_Driver/Src/stm32l4xx_hal_rcc.c ****   * @brief  Return the SYSCLK frequency.
1196:Drivers/STM32L4xx_HAL_Driver/Src/stm32l4xx_hal_rcc.c ****   *
1197:Drivers/STM32L4xx_HAL_Driver/Src/stm32l4xx_hal_rcc.c ****   * @note   The system frequency computed by this function is not the real
1198:Drivers/STM32L4xx_HAL_Driver/Src/stm32l4xx_hal_rcc.c ****   *         frequency in the chip. It is calculated based on the predefined
1199:Drivers/STM32L4xx_HAL_Driver/Src/stm32l4xx_hal_rcc.c ****   *         constant and the selected clock source:
1200:Drivers/STM32L4xx_HAL_Driver/Src/stm32l4xx_hal_rcc.c ****   * @note     If SYSCLK source is MSI, function returns values based on MSI
1201:Drivers/STM32L4xx_HAL_Driver/Src/stm32l4xx_hal_rcc.c ****   *             Value as defined by the MSI range.
1202:Drivers/STM32L4xx_HAL_Driver/Src/stm32l4xx_hal_rcc.c ****   * @note     If SYSCLK source is HSI, function returns values based on HSI_VALUE(*)
1203:Drivers/STM32L4xx_HAL_Driver/Src/stm32l4xx_hal_rcc.c ****   * @note     If SYSCLK source is HSE, function returns values based on HSE_VALUE(**)
1204:Drivers/STM32L4xx_HAL_Driver/Src/stm32l4xx_hal_rcc.c ****   * @note     If SYSCLK source is PLL, function returns values based on HSE_VALUE(**),
1205:Drivers/STM32L4xx_HAL_Driver/Src/stm32l4xx_hal_rcc.c ****   *           HSI_VALUE(*) or MSI Value multiplied/divided by the PLL factors.
1206:Drivers/STM32L4xx_HAL_Driver/Src/stm32l4xx_hal_rcc.c ****   * @note     (*) HSI_VALUE is a constant defined in stm32l4xx_hal_conf.h file (default value
1207:Drivers/STM32L4xx_HAL_Driver/Src/stm32l4xx_hal_rcc.c ****   *               16 MHz) but the real value may vary depending on the variations
1208:Drivers/STM32L4xx_HAL_Driver/Src/stm32l4xx_hal_rcc.c ****   *               in voltage and temperature.
1209:Drivers/STM32L4xx_HAL_Driver/Src/stm32l4xx_hal_rcc.c ****   * @note     (**) HSE_VALUE is a constant defined in stm32l4xx_hal_conf.h file (default value
1210:Drivers/STM32L4xx_HAL_Driver/Src/stm32l4xx_hal_rcc.c ****   *                8 MHz), user has to ensure that HSE_VALUE is same as the real
1211:Drivers/STM32L4xx_HAL_Driver/Src/stm32l4xx_hal_rcc.c ****   *                frequency of the crystal used. Otherwise, this function may
1212:Drivers/STM32L4xx_HAL_Driver/Src/stm32l4xx_hal_rcc.c ****   *                have wrong result.
1213:Drivers/STM32L4xx_HAL_Driver/Src/stm32l4xx_hal_rcc.c ****   *
1214:Drivers/STM32L4xx_HAL_Driver/Src/stm32l4xx_hal_rcc.c ****   * @note   The result of this function could be not correct when using fractional
1215:Drivers/STM32L4xx_HAL_Driver/Src/stm32l4xx_hal_rcc.c ****   *         value for HSE crystal.
1216:Drivers/STM32L4xx_HAL_Driver/Src/stm32l4xx_hal_rcc.c ****   *
1217:Drivers/STM32L4xx_HAL_Driver/Src/stm32l4xx_hal_rcc.c ****   * @note   This function can be used by the user application to compute the
1218:Drivers/STM32L4xx_HAL_Driver/Src/stm32l4xx_hal_rcc.c ****   *         baudrate for the communication peripherals or configure other parameters.
1219:Drivers/STM32L4xx_HAL_Driver/Src/stm32l4xx_hal_rcc.c ****   *
1220:Drivers/STM32L4xx_HAL_Driver/Src/stm32l4xx_hal_rcc.c ****   * @note   Each time SYSCLK changes, this function must be called to update the
1221:Drivers/STM32L4xx_HAL_Driver/Src/stm32l4xx_hal_rcc.c ****   *         right SYSCLK value. Otherwise, any configuration based on this function will be incorre
1222:Drivers/STM32L4xx_HAL_Driver/Src/stm32l4xx_hal_rcc.c ****   *
1223:Drivers/STM32L4xx_HAL_Driver/Src/stm32l4xx_hal_rcc.c ****   *
1224:Drivers/STM32L4xx_HAL_Driver/Src/stm32l4xx_hal_rcc.c ****   * @retval SYSCLK frequency
1225:Drivers/STM32L4xx_HAL_Driver/Src/stm32l4xx_hal_rcc.c ****   */
1226:Drivers/STM32L4xx_HAL_Driver/Src/stm32l4xx_hal_rcc.c **** uint32_t HAL_RCC_GetSysClockFreq(void)
1227:Drivers/STM32L4xx_HAL_Driver/Src/stm32l4xx_hal_rcc.c **** {
1228:Drivers/STM32L4xx_HAL_Driver/Src/stm32l4xx_hal_rcc.c ****   uint32_t msirange = 0U, pllvco = 0U, pllsource = 0U, pllr = 2U, pllm = 2U;
ARM GAS  /var/folders/bq/zy6zjhwd1qn4sn8dk3jpjcq80000gn/T//cc47l0uG.s 			page 23


1229:Drivers/STM32L4xx_HAL_Driver/Src/stm32l4xx_hal_rcc.c ****   uint32_t sysclockfreq = 0U;
1230:Drivers/STM32L4xx_HAL_Driver/Src/stm32l4xx_hal_rcc.c **** 
1231:Drivers/STM32L4xx_HAL_Driver/Src/stm32l4xx_hal_rcc.c ****   if((__HAL_RCC_GET_SYSCLK_SOURCE() == RCC_CFGR_SWS_MSI) ||
1232:Drivers/STM32L4xx_HAL_Driver/Src/stm32l4xx_hal_rcc.c ****      ((__HAL_RCC_GET_SYSCLK_SOURCE() == RCC_CFGR_SWS_PLL) && (__HAL_RCC_GET_PLL_OSCSOURCE() == RCC_
1233:Drivers/STM32L4xx_HAL_Driver/Src/stm32l4xx_hal_rcc.c ****   {
1234:Drivers/STM32L4xx_HAL_Driver/Src/stm32l4xx_hal_rcc.c ****     /* MSI or PLL with MSI source used as system clock source */
1235:Drivers/STM32L4xx_HAL_Driver/Src/stm32l4xx_hal_rcc.c **** 
1236:Drivers/STM32L4xx_HAL_Driver/Src/stm32l4xx_hal_rcc.c ****     /* Get SYSCLK source */
1237:Drivers/STM32L4xx_HAL_Driver/Src/stm32l4xx_hal_rcc.c ****     if(READ_BIT(RCC->CR, RCC_CR_MSIRGSEL) == RESET)
1238:Drivers/STM32L4xx_HAL_Driver/Src/stm32l4xx_hal_rcc.c ****     { /* MSISRANGE from RCC_CSR applies */
1239:Drivers/STM32L4xx_HAL_Driver/Src/stm32l4xx_hal_rcc.c ****       msirange = READ_BIT(RCC->CSR, RCC_CSR_MSISRANGE) >> RCC_CSR_MSISRANGE_Pos;
1240:Drivers/STM32L4xx_HAL_Driver/Src/stm32l4xx_hal_rcc.c ****     }
1241:Drivers/STM32L4xx_HAL_Driver/Src/stm32l4xx_hal_rcc.c ****     else
1242:Drivers/STM32L4xx_HAL_Driver/Src/stm32l4xx_hal_rcc.c ****     { /* MSIRANGE from RCC_CR applies */
1243:Drivers/STM32L4xx_HAL_Driver/Src/stm32l4xx_hal_rcc.c ****       msirange = READ_BIT(RCC->CR, RCC_CR_MSIRANGE) >> RCC_CR_MSIRANGE_Pos;
1244:Drivers/STM32L4xx_HAL_Driver/Src/stm32l4xx_hal_rcc.c ****     }
1245:Drivers/STM32L4xx_HAL_Driver/Src/stm32l4xx_hal_rcc.c ****     /*MSI frequency range in HZ*/
1246:Drivers/STM32L4xx_HAL_Driver/Src/stm32l4xx_hal_rcc.c ****     msirange = MSIRangeTable[msirange];
1247:Drivers/STM32L4xx_HAL_Driver/Src/stm32l4xx_hal_rcc.c **** 
1248:Drivers/STM32L4xx_HAL_Driver/Src/stm32l4xx_hal_rcc.c ****     if(__HAL_RCC_GET_SYSCLK_SOURCE() == RCC_CFGR_SWS_MSI)
1249:Drivers/STM32L4xx_HAL_Driver/Src/stm32l4xx_hal_rcc.c ****     {
1250:Drivers/STM32L4xx_HAL_Driver/Src/stm32l4xx_hal_rcc.c ****       /* MSI used as system clock source */
1251:Drivers/STM32L4xx_HAL_Driver/Src/stm32l4xx_hal_rcc.c ****       sysclockfreq = msirange;
1252:Drivers/STM32L4xx_HAL_Driver/Src/stm32l4xx_hal_rcc.c ****     }
1253:Drivers/STM32L4xx_HAL_Driver/Src/stm32l4xx_hal_rcc.c ****   }
1254:Drivers/STM32L4xx_HAL_Driver/Src/stm32l4xx_hal_rcc.c ****   else if(__HAL_RCC_GET_SYSCLK_SOURCE() == RCC_CFGR_SWS_HSI)
1255:Drivers/STM32L4xx_HAL_Driver/Src/stm32l4xx_hal_rcc.c ****   {
1256:Drivers/STM32L4xx_HAL_Driver/Src/stm32l4xx_hal_rcc.c ****     /* HSI used as system clock source */
1257:Drivers/STM32L4xx_HAL_Driver/Src/stm32l4xx_hal_rcc.c ****     sysclockfreq = HSI_VALUE;
1258:Drivers/STM32L4xx_HAL_Driver/Src/stm32l4xx_hal_rcc.c ****   }
1259:Drivers/STM32L4xx_HAL_Driver/Src/stm32l4xx_hal_rcc.c ****   else if(__HAL_RCC_GET_SYSCLK_SOURCE() == RCC_CFGR_SWS_HSE)
1260:Drivers/STM32L4xx_HAL_Driver/Src/stm32l4xx_hal_rcc.c ****   {
1261:Drivers/STM32L4xx_HAL_Driver/Src/stm32l4xx_hal_rcc.c ****     /* HSE used as system clock source */
1262:Drivers/STM32L4xx_HAL_Driver/Src/stm32l4xx_hal_rcc.c ****     sysclockfreq = HSE_VALUE;
1263:Drivers/STM32L4xx_HAL_Driver/Src/stm32l4xx_hal_rcc.c ****   }
1264:Drivers/STM32L4xx_HAL_Driver/Src/stm32l4xx_hal_rcc.c **** 
1265:Drivers/STM32L4xx_HAL_Driver/Src/stm32l4xx_hal_rcc.c ****   if(__HAL_RCC_GET_SYSCLK_SOURCE() == RCC_CFGR_SWS_PLL)
1266:Drivers/STM32L4xx_HAL_Driver/Src/stm32l4xx_hal_rcc.c ****   {
1267:Drivers/STM32L4xx_HAL_Driver/Src/stm32l4xx_hal_rcc.c ****     /* PLL used as system clock  source */
1268:Drivers/STM32L4xx_HAL_Driver/Src/stm32l4xx_hal_rcc.c **** 
1269:Drivers/STM32L4xx_HAL_Driver/Src/stm32l4xx_hal_rcc.c ****     /* PLL_VCO = (HSE_VALUE or HSI_VALUE or MSI_VALUE/ PLLM) * PLLN
1270:Drivers/STM32L4xx_HAL_Driver/Src/stm32l4xx_hal_rcc.c ****     SYSCLK = PLL_VCO / PLLR
1271:Drivers/STM32L4xx_HAL_Driver/Src/stm32l4xx_hal_rcc.c ****     */
1272:Drivers/STM32L4xx_HAL_Driver/Src/stm32l4xx_hal_rcc.c ****     pllsource = READ_BIT(RCC->PLLCFGR, RCC_PLLCFGR_PLLSRC);
1273:Drivers/STM32L4xx_HAL_Driver/Src/stm32l4xx_hal_rcc.c ****     pllm = (READ_BIT(RCC->PLLCFGR, RCC_PLLCFGR_PLLM) >> RCC_PLLCFGR_PLLM_Pos) + 1U ;
1274:Drivers/STM32L4xx_HAL_Driver/Src/stm32l4xx_hal_rcc.c **** 
1275:Drivers/STM32L4xx_HAL_Driver/Src/stm32l4xx_hal_rcc.c ****     switch (pllsource)
1276:Drivers/STM32L4xx_HAL_Driver/Src/stm32l4xx_hal_rcc.c ****     {
1277:Drivers/STM32L4xx_HAL_Driver/Src/stm32l4xx_hal_rcc.c ****     case RCC_PLLSOURCE_HSI:  /* HSI used as PLL clock source */
1278:Drivers/STM32L4xx_HAL_Driver/Src/stm32l4xx_hal_rcc.c ****       pllvco = (HSI_VALUE / pllm) * (READ_BIT(RCC->PLLCFGR, RCC_PLLCFGR_PLLN) >> RCC_PLLCFGR_PLLN_P
1279:Drivers/STM32L4xx_HAL_Driver/Src/stm32l4xx_hal_rcc.c ****       break;
1280:Drivers/STM32L4xx_HAL_Driver/Src/stm32l4xx_hal_rcc.c **** 
1281:Drivers/STM32L4xx_HAL_Driver/Src/stm32l4xx_hal_rcc.c ****     case RCC_PLLSOURCE_HSE:  /* HSE used as PLL clock source */
1282:Drivers/STM32L4xx_HAL_Driver/Src/stm32l4xx_hal_rcc.c ****       pllvco = (HSE_VALUE / pllm) * (READ_BIT(RCC->PLLCFGR, RCC_PLLCFGR_PLLN) >> RCC_PLLCFGR_PLLN_P
1283:Drivers/STM32L4xx_HAL_Driver/Src/stm32l4xx_hal_rcc.c ****       break;
1284:Drivers/STM32L4xx_HAL_Driver/Src/stm32l4xx_hal_rcc.c **** 
1285:Drivers/STM32L4xx_HAL_Driver/Src/stm32l4xx_hal_rcc.c ****     case RCC_PLLSOURCE_MSI:  /* MSI used as PLL clock source */
ARM GAS  /var/folders/bq/zy6zjhwd1qn4sn8dk3jpjcq80000gn/T//cc47l0uG.s 			page 24


1286:Drivers/STM32L4xx_HAL_Driver/Src/stm32l4xx_hal_rcc.c ****     default:
1287:Drivers/STM32L4xx_HAL_Driver/Src/stm32l4xx_hal_rcc.c ****       pllvco = (msirange / pllm) * (READ_BIT(RCC->PLLCFGR, RCC_PLLCFGR_PLLN) >> RCC_PLLCFGR_PLLN_Po
1288:Drivers/STM32L4xx_HAL_Driver/Src/stm32l4xx_hal_rcc.c ****       break;
1289:Drivers/STM32L4xx_HAL_Driver/Src/stm32l4xx_hal_rcc.c ****     }
1290:Drivers/STM32L4xx_HAL_Driver/Src/stm32l4xx_hal_rcc.c ****     pllr = ((READ_BIT(RCC->PLLCFGR, RCC_PLLCFGR_PLLR) >> RCC_PLLCFGR_PLLR_Pos) + 1U ) * 2U;
1291:Drivers/STM32L4xx_HAL_Driver/Src/stm32l4xx_hal_rcc.c ****     sysclockfreq = pllvco/pllr;
1292:Drivers/STM32L4xx_HAL_Driver/Src/stm32l4xx_hal_rcc.c ****   }
1293:Drivers/STM32L4xx_HAL_Driver/Src/stm32l4xx_hal_rcc.c **** 
1294:Drivers/STM32L4xx_HAL_Driver/Src/stm32l4xx_hal_rcc.c ****   return sysclockfreq;
1295:Drivers/STM32L4xx_HAL_Driver/Src/stm32l4xx_hal_rcc.c **** }
1296:Drivers/STM32L4xx_HAL_Driver/Src/stm32l4xx_hal_rcc.c **** 
1297:Drivers/STM32L4xx_HAL_Driver/Src/stm32l4xx_hal_rcc.c **** /**
1298:Drivers/STM32L4xx_HAL_Driver/Src/stm32l4xx_hal_rcc.c ****   * @brief  Return the HCLK frequency.
1299:Drivers/STM32L4xx_HAL_Driver/Src/stm32l4xx_hal_rcc.c ****   * @note   Each time HCLK changes, this function must be called to update the
1300:Drivers/STM32L4xx_HAL_Driver/Src/stm32l4xx_hal_rcc.c ****   *         right HCLK value. Otherwise, any configuration based on this function will be incorrect
1301:Drivers/STM32L4xx_HAL_Driver/Src/stm32l4xx_hal_rcc.c ****   *
1302:Drivers/STM32L4xx_HAL_Driver/Src/stm32l4xx_hal_rcc.c ****   * @note   The SystemCoreClock CMSIS variable is used to store System Clock Frequency.
1303:Drivers/STM32L4xx_HAL_Driver/Src/stm32l4xx_hal_rcc.c ****   * @retval HCLK frequency in Hz
1304:Drivers/STM32L4xx_HAL_Driver/Src/stm32l4xx_hal_rcc.c ****   */
1305:Drivers/STM32L4xx_HAL_Driver/Src/stm32l4xx_hal_rcc.c **** uint32_t HAL_RCC_GetHCLKFreq(void)
1306:Drivers/STM32L4xx_HAL_Driver/Src/stm32l4xx_hal_rcc.c **** {
1307:Drivers/STM32L4xx_HAL_Driver/Src/stm32l4xx_hal_rcc.c ****   return SystemCoreClock;
1308:Drivers/STM32L4xx_HAL_Driver/Src/stm32l4xx_hal_rcc.c **** }
1309:Drivers/STM32L4xx_HAL_Driver/Src/stm32l4xx_hal_rcc.c **** 
1310:Drivers/STM32L4xx_HAL_Driver/Src/stm32l4xx_hal_rcc.c **** /**
1311:Drivers/STM32L4xx_HAL_Driver/Src/stm32l4xx_hal_rcc.c ****   * @brief  Return the PCLK1 frequency.
1312:Drivers/STM32L4xx_HAL_Driver/Src/stm32l4xx_hal_rcc.c ****   * @note   Each time PCLK1 changes, this function must be called to update the
1313:Drivers/STM32L4xx_HAL_Driver/Src/stm32l4xx_hal_rcc.c ****   *         right PCLK1 value. Otherwise, any configuration based on this function will be incorrec
1314:Drivers/STM32L4xx_HAL_Driver/Src/stm32l4xx_hal_rcc.c ****   * @retval PCLK1 frequency in Hz
1315:Drivers/STM32L4xx_HAL_Driver/Src/stm32l4xx_hal_rcc.c ****   */
1316:Drivers/STM32L4xx_HAL_Driver/Src/stm32l4xx_hal_rcc.c **** uint32_t HAL_RCC_GetPCLK1Freq(void)
1317:Drivers/STM32L4xx_HAL_Driver/Src/stm32l4xx_hal_rcc.c **** {
1318:Drivers/STM32L4xx_HAL_Driver/Src/stm32l4xx_hal_rcc.c ****   /* Get HCLK source and Compute PCLK1 frequency ---------------------------*/
1319:Drivers/STM32L4xx_HAL_Driver/Src/stm32l4xx_hal_rcc.c ****   return (HAL_RCC_GetHCLKFreq() >> APBPrescTable[READ_BIT(RCC->CFGR, RCC_CFGR_PPRE1) >> RCC_CFGR_PP
1320:Drivers/STM32L4xx_HAL_Driver/Src/stm32l4xx_hal_rcc.c **** }
1321:Drivers/STM32L4xx_HAL_Driver/Src/stm32l4xx_hal_rcc.c **** 
1322:Drivers/STM32L4xx_HAL_Driver/Src/stm32l4xx_hal_rcc.c **** /**
1323:Drivers/STM32L4xx_HAL_Driver/Src/stm32l4xx_hal_rcc.c ****   * @brief  Return the PCLK2 frequency.
1324:Drivers/STM32L4xx_HAL_Driver/Src/stm32l4xx_hal_rcc.c ****   * @note   Each time PCLK2 changes, this function must be called to update the
1325:Drivers/STM32L4xx_HAL_Driver/Src/stm32l4xx_hal_rcc.c ****   *         right PCLK2 value. Otherwise, any configuration based on this function will be incorrec
1326:Drivers/STM32L4xx_HAL_Driver/Src/stm32l4xx_hal_rcc.c ****   * @retval PCLK2 frequency in Hz
1327:Drivers/STM32L4xx_HAL_Driver/Src/stm32l4xx_hal_rcc.c ****   */
1328:Drivers/STM32L4xx_HAL_Driver/Src/stm32l4xx_hal_rcc.c **** uint32_t HAL_RCC_GetPCLK2Freq(void)
1329:Drivers/STM32L4xx_HAL_Driver/Src/stm32l4xx_hal_rcc.c **** {
1330:Drivers/STM32L4xx_HAL_Driver/Src/stm32l4xx_hal_rcc.c ****   /* Get HCLK source and Compute PCLK2 frequency ---------------------------*/
1331:Drivers/STM32L4xx_HAL_Driver/Src/stm32l4xx_hal_rcc.c ****   return (HAL_RCC_GetHCLKFreq()>> APBPrescTable[READ_BIT(RCC->CFGR, RCC_CFGR_PPRE2) >> RCC_CFGR_PPR
1332:Drivers/STM32L4xx_HAL_Driver/Src/stm32l4xx_hal_rcc.c **** }
1333:Drivers/STM32L4xx_HAL_Driver/Src/stm32l4xx_hal_rcc.c **** 
1334:Drivers/STM32L4xx_HAL_Driver/Src/stm32l4xx_hal_rcc.c **** /**
1335:Drivers/STM32L4xx_HAL_Driver/Src/stm32l4xx_hal_rcc.c ****   * @brief  Configure the RCC_OscInitStruct according to the internal
1336:Drivers/STM32L4xx_HAL_Driver/Src/stm32l4xx_hal_rcc.c ****   *         RCC configuration registers.
1337:Drivers/STM32L4xx_HAL_Driver/Src/stm32l4xx_hal_rcc.c ****   * @param  RCC_OscInitStruct  pointer to an RCC_OscInitTypeDef structure that
1338:Drivers/STM32L4xx_HAL_Driver/Src/stm32l4xx_hal_rcc.c ****   *         will be configured.
1339:Drivers/STM32L4xx_HAL_Driver/Src/stm32l4xx_hal_rcc.c ****   * @retval None
1340:Drivers/STM32L4xx_HAL_Driver/Src/stm32l4xx_hal_rcc.c ****   */
1341:Drivers/STM32L4xx_HAL_Driver/Src/stm32l4xx_hal_rcc.c **** void HAL_RCC_GetOscConfig(RCC_OscInitTypeDef  *RCC_OscInitStruct)
1342:Drivers/STM32L4xx_HAL_Driver/Src/stm32l4xx_hal_rcc.c **** {
ARM GAS  /var/folders/bq/zy6zjhwd1qn4sn8dk3jpjcq80000gn/T//cc47l0uG.s 			page 25


1343:Drivers/STM32L4xx_HAL_Driver/Src/stm32l4xx_hal_rcc.c ****   /* Check the parameters */
1344:Drivers/STM32L4xx_HAL_Driver/Src/stm32l4xx_hal_rcc.c ****   assert_param(RCC_OscInitStruct != NULL);
1345:Drivers/STM32L4xx_HAL_Driver/Src/stm32l4xx_hal_rcc.c **** 
1346:Drivers/STM32L4xx_HAL_Driver/Src/stm32l4xx_hal_rcc.c ****   /* Set all possible values for the Oscillator type parameter ---------------*/
1347:Drivers/STM32L4xx_HAL_Driver/Src/stm32l4xx_hal_rcc.c **** #if defined(RCC_HSI48_SUPPORT)
1348:Drivers/STM32L4xx_HAL_Driver/Src/stm32l4xx_hal_rcc.c ****   RCC_OscInitStruct->OscillatorType = RCC_OSCILLATORTYPE_HSE | RCC_OSCILLATORTYPE_HSI | RCC_OSCILLA
1349:Drivers/STM32L4xx_HAL_Driver/Src/stm32l4xx_hal_rcc.c ****                                       RCC_OSCILLATORTYPE_LSE | RCC_OSCILLATORTYPE_LSI | RCC_OSCILLA
1350:Drivers/STM32L4xx_HAL_Driver/Src/stm32l4xx_hal_rcc.c **** #else
1351:Drivers/STM32L4xx_HAL_Driver/Src/stm32l4xx_hal_rcc.c ****   RCC_OscInitStruct->OscillatorType = RCC_OSCILLATORTYPE_HSE | RCC_OSCILLATORTYPE_HSI | RCC_OSCILLA
1352:Drivers/STM32L4xx_HAL_Driver/Src/stm32l4xx_hal_rcc.c ****                                       RCC_OSCILLATORTYPE_LSE | RCC_OSCILLATORTYPE_LSI;
1353:Drivers/STM32L4xx_HAL_Driver/Src/stm32l4xx_hal_rcc.c **** #endif /* RCC_HSI48_SUPPORT */
1354:Drivers/STM32L4xx_HAL_Driver/Src/stm32l4xx_hal_rcc.c **** 
1355:Drivers/STM32L4xx_HAL_Driver/Src/stm32l4xx_hal_rcc.c ****   /* Get the HSE configuration -----------------------------------------------*/
1356:Drivers/STM32L4xx_HAL_Driver/Src/stm32l4xx_hal_rcc.c ****   if(READ_BIT(RCC->CR, RCC_CR_HSEBYP) == RCC_CR_HSEBYP)
1357:Drivers/STM32L4xx_HAL_Driver/Src/stm32l4xx_hal_rcc.c ****   {
1358:Drivers/STM32L4xx_HAL_Driver/Src/stm32l4xx_hal_rcc.c ****     RCC_OscInitStruct->HSEState = RCC_HSE_BYPASS;
1359:Drivers/STM32L4xx_HAL_Driver/Src/stm32l4xx_hal_rcc.c ****   }
1360:Drivers/STM32L4xx_HAL_Driver/Src/stm32l4xx_hal_rcc.c ****   else if(READ_BIT(RCC->CR, RCC_CR_HSEON) == RCC_CR_HSEON)
1361:Drivers/STM32L4xx_HAL_Driver/Src/stm32l4xx_hal_rcc.c ****   {
1362:Drivers/STM32L4xx_HAL_Driver/Src/stm32l4xx_hal_rcc.c ****     RCC_OscInitStruct->HSEState = RCC_HSE_ON;
1363:Drivers/STM32L4xx_HAL_Driver/Src/stm32l4xx_hal_rcc.c ****   }
1364:Drivers/STM32L4xx_HAL_Driver/Src/stm32l4xx_hal_rcc.c ****   else
1365:Drivers/STM32L4xx_HAL_Driver/Src/stm32l4xx_hal_rcc.c ****   {
1366:Drivers/STM32L4xx_HAL_Driver/Src/stm32l4xx_hal_rcc.c ****     RCC_OscInitStruct->HSEState = RCC_HSE_OFF;
1367:Drivers/STM32L4xx_HAL_Driver/Src/stm32l4xx_hal_rcc.c ****   }
1368:Drivers/STM32L4xx_HAL_Driver/Src/stm32l4xx_hal_rcc.c **** 
1369:Drivers/STM32L4xx_HAL_Driver/Src/stm32l4xx_hal_rcc.c ****    /* Get the MSI configuration -----------------------------------------------*/
1370:Drivers/STM32L4xx_HAL_Driver/Src/stm32l4xx_hal_rcc.c ****   if(READ_BIT(RCC->CR, RCC_CR_MSION) == RCC_CR_MSION)
1371:Drivers/STM32L4xx_HAL_Driver/Src/stm32l4xx_hal_rcc.c ****   {
1372:Drivers/STM32L4xx_HAL_Driver/Src/stm32l4xx_hal_rcc.c ****     RCC_OscInitStruct->MSIState = RCC_MSI_ON;
1373:Drivers/STM32L4xx_HAL_Driver/Src/stm32l4xx_hal_rcc.c ****   }
1374:Drivers/STM32L4xx_HAL_Driver/Src/stm32l4xx_hal_rcc.c ****   else
1375:Drivers/STM32L4xx_HAL_Driver/Src/stm32l4xx_hal_rcc.c ****   {
1376:Drivers/STM32L4xx_HAL_Driver/Src/stm32l4xx_hal_rcc.c ****     RCC_OscInitStruct->MSIState = RCC_MSI_OFF;
1377:Drivers/STM32L4xx_HAL_Driver/Src/stm32l4xx_hal_rcc.c ****   }
1378:Drivers/STM32L4xx_HAL_Driver/Src/stm32l4xx_hal_rcc.c **** 
1379:Drivers/STM32L4xx_HAL_Driver/Src/stm32l4xx_hal_rcc.c ****   RCC_OscInitStruct->MSICalibrationValue = READ_BIT(RCC->ICSCR, RCC_ICSCR_MSITRIM) >> RCC_ICSCR_MSI
1380:Drivers/STM32L4xx_HAL_Driver/Src/stm32l4xx_hal_rcc.c ****   RCC_OscInitStruct->MSIClockRange = READ_BIT(RCC->CR, RCC_CR_MSIRANGE);
1381:Drivers/STM32L4xx_HAL_Driver/Src/stm32l4xx_hal_rcc.c **** 
1382:Drivers/STM32L4xx_HAL_Driver/Src/stm32l4xx_hal_rcc.c ****   /* Get the HSI configuration -----------------------------------------------*/
1383:Drivers/STM32L4xx_HAL_Driver/Src/stm32l4xx_hal_rcc.c ****   if(READ_BIT(RCC->CR, RCC_CR_HSION) == RCC_CR_HSION)
1384:Drivers/STM32L4xx_HAL_Driver/Src/stm32l4xx_hal_rcc.c ****   {
1385:Drivers/STM32L4xx_HAL_Driver/Src/stm32l4xx_hal_rcc.c ****     RCC_OscInitStruct->HSIState = RCC_HSI_ON;
1386:Drivers/STM32L4xx_HAL_Driver/Src/stm32l4xx_hal_rcc.c ****   }
1387:Drivers/STM32L4xx_HAL_Driver/Src/stm32l4xx_hal_rcc.c ****   else
1388:Drivers/STM32L4xx_HAL_Driver/Src/stm32l4xx_hal_rcc.c ****   {
1389:Drivers/STM32L4xx_HAL_Driver/Src/stm32l4xx_hal_rcc.c ****     RCC_OscInitStruct->HSIState = RCC_HSI_OFF;
1390:Drivers/STM32L4xx_HAL_Driver/Src/stm32l4xx_hal_rcc.c ****   }
1391:Drivers/STM32L4xx_HAL_Driver/Src/stm32l4xx_hal_rcc.c **** 
1392:Drivers/STM32L4xx_HAL_Driver/Src/stm32l4xx_hal_rcc.c ****   RCC_OscInitStruct->HSICalibrationValue = READ_BIT(RCC->ICSCR, RCC_ICSCR_HSITRIM) >> RCC_ICSCR_HSI
1393:Drivers/STM32L4xx_HAL_Driver/Src/stm32l4xx_hal_rcc.c **** 
1394:Drivers/STM32L4xx_HAL_Driver/Src/stm32l4xx_hal_rcc.c ****   /* Get the LSE configuration -----------------------------------------------*/
1395:Drivers/STM32L4xx_HAL_Driver/Src/stm32l4xx_hal_rcc.c ****   if(READ_BIT(RCC->BDCR, RCC_BDCR_LSEBYP) == RCC_BDCR_LSEBYP)
1396:Drivers/STM32L4xx_HAL_Driver/Src/stm32l4xx_hal_rcc.c ****   {
1397:Drivers/STM32L4xx_HAL_Driver/Src/stm32l4xx_hal_rcc.c ****     RCC_OscInitStruct->LSEState = RCC_LSE_BYPASS;
1398:Drivers/STM32L4xx_HAL_Driver/Src/stm32l4xx_hal_rcc.c ****   }
1399:Drivers/STM32L4xx_HAL_Driver/Src/stm32l4xx_hal_rcc.c ****   else if(READ_BIT(RCC->BDCR, RCC_BDCR_LSEON) == RCC_BDCR_LSEON)
ARM GAS  /var/folders/bq/zy6zjhwd1qn4sn8dk3jpjcq80000gn/T//cc47l0uG.s 			page 26


1400:Drivers/STM32L4xx_HAL_Driver/Src/stm32l4xx_hal_rcc.c ****   {
1401:Drivers/STM32L4xx_HAL_Driver/Src/stm32l4xx_hal_rcc.c ****     RCC_OscInitStruct->LSEState = RCC_LSE_ON;
1402:Drivers/STM32L4xx_HAL_Driver/Src/stm32l4xx_hal_rcc.c ****   }
1403:Drivers/STM32L4xx_HAL_Driver/Src/stm32l4xx_hal_rcc.c ****   else
1404:Drivers/STM32L4xx_HAL_Driver/Src/stm32l4xx_hal_rcc.c ****   {
1405:Drivers/STM32L4xx_HAL_Driver/Src/stm32l4xx_hal_rcc.c ****     RCC_OscInitStruct->LSEState = RCC_LSE_OFF;
1406:Drivers/STM32L4xx_HAL_Driver/Src/stm32l4xx_hal_rcc.c ****   }
1407:Drivers/STM32L4xx_HAL_Driver/Src/stm32l4xx_hal_rcc.c **** 
1408:Drivers/STM32L4xx_HAL_Driver/Src/stm32l4xx_hal_rcc.c ****   /* Get the LSI configuration -----------------------------------------------*/
1409:Drivers/STM32L4xx_HAL_Driver/Src/stm32l4xx_hal_rcc.c ****   if(READ_BIT(RCC->CSR, RCC_CSR_LSION) == RCC_CSR_LSION)
1410:Drivers/STM32L4xx_HAL_Driver/Src/stm32l4xx_hal_rcc.c ****   {
1411:Drivers/STM32L4xx_HAL_Driver/Src/stm32l4xx_hal_rcc.c ****     RCC_OscInitStruct->LSIState = RCC_LSI_ON;
1412:Drivers/STM32L4xx_HAL_Driver/Src/stm32l4xx_hal_rcc.c ****   }
1413:Drivers/STM32L4xx_HAL_Driver/Src/stm32l4xx_hal_rcc.c ****   else
1414:Drivers/STM32L4xx_HAL_Driver/Src/stm32l4xx_hal_rcc.c ****   {
1415:Drivers/STM32L4xx_HAL_Driver/Src/stm32l4xx_hal_rcc.c ****     RCC_OscInitStruct->LSIState = RCC_LSI_OFF;
1416:Drivers/STM32L4xx_HAL_Driver/Src/stm32l4xx_hal_rcc.c ****   }
1417:Drivers/STM32L4xx_HAL_Driver/Src/stm32l4xx_hal_rcc.c **** 
1418:Drivers/STM32L4xx_HAL_Driver/Src/stm32l4xx_hal_rcc.c **** #if defined(RCC_HSI48_SUPPORT)
1419:Drivers/STM32L4xx_HAL_Driver/Src/stm32l4xx_hal_rcc.c ****   /* Get the HSI48 configuration ---------------------------------------------*/
1420:Drivers/STM32L4xx_HAL_Driver/Src/stm32l4xx_hal_rcc.c ****   if(READ_BIT(RCC->CRRCR, RCC_CRRCR_HSI48ON) == RCC_CRRCR_HSI48ON)
1421:Drivers/STM32L4xx_HAL_Driver/Src/stm32l4xx_hal_rcc.c ****   {
1422:Drivers/STM32L4xx_HAL_Driver/Src/stm32l4xx_hal_rcc.c ****     RCC_OscInitStruct->HSI48State = RCC_HSI48_ON;
1423:Drivers/STM32L4xx_HAL_Driver/Src/stm32l4xx_hal_rcc.c ****   }
1424:Drivers/STM32L4xx_HAL_Driver/Src/stm32l4xx_hal_rcc.c ****   else
1425:Drivers/STM32L4xx_HAL_Driver/Src/stm32l4xx_hal_rcc.c ****   {
1426:Drivers/STM32L4xx_HAL_Driver/Src/stm32l4xx_hal_rcc.c ****     RCC_OscInitStruct->HSI48State = RCC_HSI48_OFF;
1427:Drivers/STM32L4xx_HAL_Driver/Src/stm32l4xx_hal_rcc.c ****   }
1428:Drivers/STM32L4xx_HAL_Driver/Src/stm32l4xx_hal_rcc.c **** #else
1429:Drivers/STM32L4xx_HAL_Driver/Src/stm32l4xx_hal_rcc.c ****   RCC_OscInitStruct->HSI48State = RCC_HSI48_OFF;
1430:Drivers/STM32L4xx_HAL_Driver/Src/stm32l4xx_hal_rcc.c **** #endif /* RCC_HSI48_SUPPORT */
1431:Drivers/STM32L4xx_HAL_Driver/Src/stm32l4xx_hal_rcc.c **** 
1432:Drivers/STM32L4xx_HAL_Driver/Src/stm32l4xx_hal_rcc.c ****   /* Get the PLL configuration -----------------------------------------------*/
1433:Drivers/STM32L4xx_HAL_Driver/Src/stm32l4xx_hal_rcc.c ****   if(READ_BIT(RCC->CR, RCC_CR_PLLON) == RCC_CR_PLLON)
1434:Drivers/STM32L4xx_HAL_Driver/Src/stm32l4xx_hal_rcc.c ****   {
1435:Drivers/STM32L4xx_HAL_Driver/Src/stm32l4xx_hal_rcc.c ****     RCC_OscInitStruct->PLL.PLLState = RCC_PLL_ON;
1436:Drivers/STM32L4xx_HAL_Driver/Src/stm32l4xx_hal_rcc.c ****   }
1437:Drivers/STM32L4xx_HAL_Driver/Src/stm32l4xx_hal_rcc.c ****   else
1438:Drivers/STM32L4xx_HAL_Driver/Src/stm32l4xx_hal_rcc.c ****   {
1439:Drivers/STM32L4xx_HAL_Driver/Src/stm32l4xx_hal_rcc.c ****     RCC_OscInitStruct->PLL.PLLState = RCC_PLL_OFF;
1440:Drivers/STM32L4xx_HAL_Driver/Src/stm32l4xx_hal_rcc.c ****   }
1441:Drivers/STM32L4xx_HAL_Driver/Src/stm32l4xx_hal_rcc.c ****   RCC_OscInitStruct->PLL.PLLSource = READ_BIT(RCC->PLLCFGR, RCC_PLLCFGR_PLLSRC);
1442:Drivers/STM32L4xx_HAL_Driver/Src/stm32l4xx_hal_rcc.c ****   RCC_OscInitStruct->PLL.PLLM = (READ_BIT(RCC->PLLCFGR, RCC_PLLCFGR_PLLM) >> RCC_PLLCFGR_PLLM_Pos) 
1443:Drivers/STM32L4xx_HAL_Driver/Src/stm32l4xx_hal_rcc.c ****   RCC_OscInitStruct->PLL.PLLN = READ_BIT(RCC->PLLCFGR, RCC_PLLCFGR_PLLN) >> RCC_PLLCFGR_PLLN_Pos;
1444:Drivers/STM32L4xx_HAL_Driver/Src/stm32l4xx_hal_rcc.c ****   RCC_OscInitStruct->PLL.PLLQ = (((READ_BIT(RCC->PLLCFGR, RCC_PLLCFGR_PLLQ) >> RCC_PLLCFGR_PLLQ_Pos
1445:Drivers/STM32L4xx_HAL_Driver/Src/stm32l4xx_hal_rcc.c ****   RCC_OscInitStruct->PLL.PLLR = (((READ_BIT(RCC->PLLCFGR, RCC_PLLCFGR_PLLR) >> RCC_PLLCFGR_PLLR_Pos
1446:Drivers/STM32L4xx_HAL_Driver/Src/stm32l4xx_hal_rcc.c **** #if defined(RCC_PLLP_DIV_2_31_SUPPORT)
1447:Drivers/STM32L4xx_HAL_Driver/Src/stm32l4xx_hal_rcc.c ****   RCC_OscInitStruct->PLL.PLLP = READ_BIT(RCC->PLLCFGR, RCC_PLLCFGR_PLLPDIV) >> RCC_PLLCFGR_PLLPDIV_
1448:Drivers/STM32L4xx_HAL_Driver/Src/stm32l4xx_hal_rcc.c **** #else
1449:Drivers/STM32L4xx_HAL_Driver/Src/stm32l4xx_hal_rcc.c ****   if(READ_BIT(RCC->PLLCFGR, RCC_PLLCFGR_PLLP) != RESET)
1450:Drivers/STM32L4xx_HAL_Driver/Src/stm32l4xx_hal_rcc.c ****   {
1451:Drivers/STM32L4xx_HAL_Driver/Src/stm32l4xx_hal_rcc.c ****     RCC_OscInitStruct->PLL.PLLP = RCC_PLLP_DIV17;
1452:Drivers/STM32L4xx_HAL_Driver/Src/stm32l4xx_hal_rcc.c ****   }
1453:Drivers/STM32L4xx_HAL_Driver/Src/stm32l4xx_hal_rcc.c ****   else
1454:Drivers/STM32L4xx_HAL_Driver/Src/stm32l4xx_hal_rcc.c ****   {
1455:Drivers/STM32L4xx_HAL_Driver/Src/stm32l4xx_hal_rcc.c ****     RCC_OscInitStruct->PLL.PLLP = RCC_PLLP_DIV7;
1456:Drivers/STM32L4xx_HAL_Driver/Src/stm32l4xx_hal_rcc.c ****   }
ARM GAS  /var/folders/bq/zy6zjhwd1qn4sn8dk3jpjcq80000gn/T//cc47l0uG.s 			page 27


1457:Drivers/STM32L4xx_HAL_Driver/Src/stm32l4xx_hal_rcc.c **** #endif /* RCC_PLLP_DIV_2_31_SUPPORT */
1458:Drivers/STM32L4xx_HAL_Driver/Src/stm32l4xx_hal_rcc.c **** }
1459:Drivers/STM32L4xx_HAL_Driver/Src/stm32l4xx_hal_rcc.c **** 
1460:Drivers/STM32L4xx_HAL_Driver/Src/stm32l4xx_hal_rcc.c **** /**
1461:Drivers/STM32L4xx_HAL_Driver/Src/stm32l4xx_hal_rcc.c ****   * @brief  Configure the RCC_ClkInitStruct according to the internal
1462:Drivers/STM32L4xx_HAL_Driver/Src/stm32l4xx_hal_rcc.c ****   *         RCC configuration registers.
1463:Drivers/STM32L4xx_HAL_Driver/Src/stm32l4xx_hal_rcc.c ****   * @param  RCC_ClkInitStruct  pointer to an RCC_ClkInitTypeDef structure that
1464:Drivers/STM32L4xx_HAL_Driver/Src/stm32l4xx_hal_rcc.c ****   *         will be configured.
1465:Drivers/STM32L4xx_HAL_Driver/Src/stm32l4xx_hal_rcc.c ****   * @param  pFLatency  Pointer on the Flash Latency.
1466:Drivers/STM32L4xx_HAL_Driver/Src/stm32l4xx_hal_rcc.c ****   * @retval None
1467:Drivers/STM32L4xx_HAL_Driver/Src/stm32l4xx_hal_rcc.c ****   */
1468:Drivers/STM32L4xx_HAL_Driver/Src/stm32l4xx_hal_rcc.c **** void HAL_RCC_GetClockConfig(RCC_ClkInitTypeDef  *RCC_ClkInitStruct, uint32_t *pFLatency)
1469:Drivers/STM32L4xx_HAL_Driver/Src/stm32l4xx_hal_rcc.c **** {
1470:Drivers/STM32L4xx_HAL_Driver/Src/stm32l4xx_hal_rcc.c ****   /* Check the parameters */
1471:Drivers/STM32L4xx_HAL_Driver/Src/stm32l4xx_hal_rcc.c ****   assert_param(RCC_ClkInitStruct != NULL);
1472:Drivers/STM32L4xx_HAL_Driver/Src/stm32l4xx_hal_rcc.c ****   assert_param(pFLatency != NULL);
1473:Drivers/STM32L4xx_HAL_Driver/Src/stm32l4xx_hal_rcc.c **** 
1474:Drivers/STM32L4xx_HAL_Driver/Src/stm32l4xx_hal_rcc.c ****   /* Set all possible values for the Clock type parameter --------------------*/
1475:Drivers/STM32L4xx_HAL_Driver/Src/stm32l4xx_hal_rcc.c ****   RCC_ClkInitStruct->ClockType = RCC_CLOCKTYPE_SYSCLK | RCC_CLOCKTYPE_HCLK | RCC_CLOCKTYPE_PCLK1 | 
1476:Drivers/STM32L4xx_HAL_Driver/Src/stm32l4xx_hal_rcc.c **** 
1477:Drivers/STM32L4xx_HAL_Driver/Src/stm32l4xx_hal_rcc.c ****   /* Get the SYSCLK configuration --------------------------------------------*/
1478:Drivers/STM32L4xx_HAL_Driver/Src/stm32l4xx_hal_rcc.c ****   RCC_ClkInitStruct->SYSCLKSource = READ_BIT(RCC->CFGR, RCC_CFGR_SW);
1479:Drivers/STM32L4xx_HAL_Driver/Src/stm32l4xx_hal_rcc.c **** 
1480:Drivers/STM32L4xx_HAL_Driver/Src/stm32l4xx_hal_rcc.c ****   /* Get the HCLK configuration ----------------------------------------------*/
1481:Drivers/STM32L4xx_HAL_Driver/Src/stm32l4xx_hal_rcc.c ****   RCC_ClkInitStruct->AHBCLKDivider = READ_BIT(RCC->CFGR, RCC_CFGR_HPRE);
1482:Drivers/STM32L4xx_HAL_Driver/Src/stm32l4xx_hal_rcc.c **** 
1483:Drivers/STM32L4xx_HAL_Driver/Src/stm32l4xx_hal_rcc.c ****   /* Get the APB1 configuration ----------------------------------------------*/
1484:Drivers/STM32L4xx_HAL_Driver/Src/stm32l4xx_hal_rcc.c ****   RCC_ClkInitStruct->APB1CLKDivider = READ_BIT(RCC->CFGR, RCC_CFGR_PPRE1);
1485:Drivers/STM32L4xx_HAL_Driver/Src/stm32l4xx_hal_rcc.c **** 
1486:Drivers/STM32L4xx_HAL_Driver/Src/stm32l4xx_hal_rcc.c ****   /* Get the APB2 configuration ----------------------------------------------*/
1487:Drivers/STM32L4xx_HAL_Driver/Src/stm32l4xx_hal_rcc.c ****   RCC_ClkInitStruct->APB2CLKDivider = (READ_BIT(RCC->CFGR, RCC_CFGR_PPRE2) >> 3U);
1488:Drivers/STM32L4xx_HAL_Driver/Src/stm32l4xx_hal_rcc.c **** 
1489:Drivers/STM32L4xx_HAL_Driver/Src/stm32l4xx_hal_rcc.c ****   /* Get the Flash Wait State (Latency) configuration ------------------------*/
1490:Drivers/STM32L4xx_HAL_Driver/Src/stm32l4xx_hal_rcc.c ****   *pFLatency = __HAL_FLASH_GET_LATENCY();
1491:Drivers/STM32L4xx_HAL_Driver/Src/stm32l4xx_hal_rcc.c **** }
1492:Drivers/STM32L4xx_HAL_Driver/Src/stm32l4xx_hal_rcc.c **** 
1493:Drivers/STM32L4xx_HAL_Driver/Src/stm32l4xx_hal_rcc.c **** /**
1494:Drivers/STM32L4xx_HAL_Driver/Src/stm32l4xx_hal_rcc.c ****   * @brief  Enable the Clock Security System.
1495:Drivers/STM32L4xx_HAL_Driver/Src/stm32l4xx_hal_rcc.c ****   * @note   If a failure is detected on the HSE oscillator clock, this oscillator
1496:Drivers/STM32L4xx_HAL_Driver/Src/stm32l4xx_hal_rcc.c ****   *         is automatically disabled and an interrupt is generated to inform the
1497:Drivers/STM32L4xx_HAL_Driver/Src/stm32l4xx_hal_rcc.c ****   *         software about the failure (Clock Security System Interrupt, CSSI),
1498:Drivers/STM32L4xx_HAL_Driver/Src/stm32l4xx_hal_rcc.c ****   *         allowing the MCU to perform rescue operations. The CSSI is linked to
1499:Drivers/STM32L4xx_HAL_Driver/Src/stm32l4xx_hal_rcc.c ****   *         the Cortex-M4 NMI (Non-Maskable Interrupt) exception vector.
1500:Drivers/STM32L4xx_HAL_Driver/Src/stm32l4xx_hal_rcc.c ****   * @note   The Clock Security System can only be cleared by reset.
1501:Drivers/STM32L4xx_HAL_Driver/Src/stm32l4xx_hal_rcc.c ****   * @retval None
1502:Drivers/STM32L4xx_HAL_Driver/Src/stm32l4xx_hal_rcc.c ****   */
1503:Drivers/STM32L4xx_HAL_Driver/Src/stm32l4xx_hal_rcc.c **** void HAL_RCC_EnableCSS(void)
1504:Drivers/STM32L4xx_HAL_Driver/Src/stm32l4xx_hal_rcc.c **** {
1505:Drivers/STM32L4xx_HAL_Driver/Src/stm32l4xx_hal_rcc.c ****   SET_BIT(RCC->CR, RCC_CR_CSSON) ;
1506:Drivers/STM32L4xx_HAL_Driver/Src/stm32l4xx_hal_rcc.c **** }
1507:Drivers/STM32L4xx_HAL_Driver/Src/stm32l4xx_hal_rcc.c **** 
1508:Drivers/STM32L4xx_HAL_Driver/Src/stm32l4xx_hal_rcc.c **** /**
1509:Drivers/STM32L4xx_HAL_Driver/Src/stm32l4xx_hal_rcc.c ****   * @brief Handle the RCC Clock Security System interrupt request.
1510:Drivers/STM32L4xx_HAL_Driver/Src/stm32l4xx_hal_rcc.c ****   * @note This API should be called under the NMI_Handler().
1511:Drivers/STM32L4xx_HAL_Driver/Src/stm32l4xx_hal_rcc.c ****   * @retval None
1512:Drivers/STM32L4xx_HAL_Driver/Src/stm32l4xx_hal_rcc.c ****   */
1513:Drivers/STM32L4xx_HAL_Driver/Src/stm32l4xx_hal_rcc.c **** void HAL_RCC_NMI_IRQHandler(void)
ARM GAS  /var/folders/bq/zy6zjhwd1qn4sn8dk3jpjcq80000gn/T//cc47l0uG.s 			page 28


1514:Drivers/STM32L4xx_HAL_Driver/Src/stm32l4xx_hal_rcc.c **** {
1515:Drivers/STM32L4xx_HAL_Driver/Src/stm32l4xx_hal_rcc.c ****   /* Check RCC CSSF interrupt flag  */
1516:Drivers/STM32L4xx_HAL_Driver/Src/stm32l4xx_hal_rcc.c ****   if(__HAL_RCC_GET_IT(RCC_IT_CSS))
1517:Drivers/STM32L4xx_HAL_Driver/Src/stm32l4xx_hal_rcc.c ****   {
1518:Drivers/STM32L4xx_HAL_Driver/Src/stm32l4xx_hal_rcc.c ****     /* RCC Clock Security System interrupt user callback */
1519:Drivers/STM32L4xx_HAL_Driver/Src/stm32l4xx_hal_rcc.c ****     HAL_RCC_CSSCallback();
1520:Drivers/STM32L4xx_HAL_Driver/Src/stm32l4xx_hal_rcc.c **** 
1521:Drivers/STM32L4xx_HAL_Driver/Src/stm32l4xx_hal_rcc.c ****     /* Clear RCC CSS pending bit */
1522:Drivers/STM32L4xx_HAL_Driver/Src/stm32l4xx_hal_rcc.c ****     __HAL_RCC_CLEAR_IT(RCC_IT_CSS);
1523:Drivers/STM32L4xx_HAL_Driver/Src/stm32l4xx_hal_rcc.c ****   }
1524:Drivers/STM32L4xx_HAL_Driver/Src/stm32l4xx_hal_rcc.c **** }
1525:Drivers/STM32L4xx_HAL_Driver/Src/stm32l4xx_hal_rcc.c **** 
1526:Drivers/STM32L4xx_HAL_Driver/Src/stm32l4xx_hal_rcc.c **** /**
1527:Drivers/STM32L4xx_HAL_Driver/Src/stm32l4xx_hal_rcc.c ****   * @brief  RCC Clock Security System interrupt callback.
1528:Drivers/STM32L4xx_HAL_Driver/Src/stm32l4xx_hal_rcc.c ****   * @retval none
1529:Drivers/STM32L4xx_HAL_Driver/Src/stm32l4xx_hal_rcc.c ****   */
1530:Drivers/STM32L4xx_HAL_Driver/Src/stm32l4xx_hal_rcc.c **** __weak void HAL_RCC_CSSCallback(void)
1531:Drivers/STM32L4xx_HAL_Driver/Src/stm32l4xx_hal_rcc.c **** {
1532:Drivers/STM32L4xx_HAL_Driver/Src/stm32l4xx_hal_rcc.c ****   /* NOTE : This function should not be modified, when the callback is needed,
1533:Drivers/STM32L4xx_HAL_Driver/Src/stm32l4xx_hal_rcc.c ****             the HAL_RCC_CSSCallback should be implemented in the user file
1534:Drivers/STM32L4xx_HAL_Driver/Src/stm32l4xx_hal_rcc.c ****    */
1535:Drivers/STM32L4xx_HAL_Driver/Src/stm32l4xx_hal_rcc.c **** }
1536:Drivers/STM32L4xx_HAL_Driver/Src/stm32l4xx_hal_rcc.c **** 
1537:Drivers/STM32L4xx_HAL_Driver/Src/stm32l4xx_hal_rcc.c **** /**
1538:Drivers/STM32L4xx_HAL_Driver/Src/stm32l4xx_hal_rcc.c ****   * @}
1539:Drivers/STM32L4xx_HAL_Driver/Src/stm32l4xx_hal_rcc.c ****   */
1540:Drivers/STM32L4xx_HAL_Driver/Src/stm32l4xx_hal_rcc.c **** 
1541:Drivers/STM32L4xx_HAL_Driver/Src/stm32l4xx_hal_rcc.c **** /**
1542:Drivers/STM32L4xx_HAL_Driver/Src/stm32l4xx_hal_rcc.c ****   * @}
1543:Drivers/STM32L4xx_HAL_Driver/Src/stm32l4xx_hal_rcc.c ****   */
1544:Drivers/STM32L4xx_HAL_Driver/Src/stm32l4xx_hal_rcc.c **** 
1545:Drivers/STM32L4xx_HAL_Driver/Src/stm32l4xx_hal_rcc.c **** /* Private function prototypes -----------------------------------------------*/
1546:Drivers/STM32L4xx_HAL_Driver/Src/stm32l4xx_hal_rcc.c **** /** @addtogroup RCC_Private_Functions
1547:Drivers/STM32L4xx_HAL_Driver/Src/stm32l4xx_hal_rcc.c ****   * @{
1548:Drivers/STM32L4xx_HAL_Driver/Src/stm32l4xx_hal_rcc.c ****   */
1549:Drivers/STM32L4xx_HAL_Driver/Src/stm32l4xx_hal_rcc.c **** /**
1550:Drivers/STM32L4xx_HAL_Driver/Src/stm32l4xx_hal_rcc.c ****   * @brief  Update number of Flash wait states in line with MSI range and current
1551:Drivers/STM32L4xx_HAL_Driver/Src/stm32l4xx_hal_rcc.c ****             voltage range.
1552:Drivers/STM32L4xx_HAL_Driver/Src/stm32l4xx_hal_rcc.c ****   * @param  msirange  MSI range value from RCC_MSIRANGE_0 to RCC_MSIRANGE_11
1553:Drivers/STM32L4xx_HAL_Driver/Src/stm32l4xx_hal_rcc.c ****   * @retval HAL status
1554:Drivers/STM32L4xx_HAL_Driver/Src/stm32l4xx_hal_rcc.c ****   */
1555:Drivers/STM32L4xx_HAL_Driver/Src/stm32l4xx_hal_rcc.c **** static HAL_StatusTypeDef RCC_SetFlashLatencyFromMSIRange(uint32_t msirange)
1556:Drivers/STM32L4xx_HAL_Driver/Src/stm32l4xx_hal_rcc.c **** {
  28              		.loc 1 1556 0
  29              		.cfi_startproc
  30              		@ args = 0, pretend = 0, frame = 8
  31              		@ frame_needed = 0, uses_anonymous_args = 0
  32              	.LVL0:
  33 0000 30B5     		push	{r4, r5, lr}
  34              	.LCFI0:
  35              		.cfi_def_cfa_offset 12
  36              		.cfi_offset 4, -12
  37              		.cfi_offset 5, -8
  38              		.cfi_offset 14, -4
  39 0002 83B0     		sub	sp, sp, #12
  40              	.LCFI1:
  41              		.cfi_def_cfa_offset 24
ARM GAS  /var/folders/bq/zy6zjhwd1qn4sn8dk3jpjcq80000gn/T//cc47l0uG.s 			page 29


  42 0004 0546     		mov	r5, r0
  43              	.LVL1:
1557:Drivers/STM32L4xx_HAL_Driver/Src/stm32l4xx_hal_rcc.c ****   uint32_t vos = 0;
1558:Drivers/STM32L4xx_HAL_Driver/Src/stm32l4xx_hal_rcc.c ****   uint32_t latency = FLASH_LATENCY_0;  /* default value 0WS */
1559:Drivers/STM32L4xx_HAL_Driver/Src/stm32l4xx_hal_rcc.c **** 
1560:Drivers/STM32L4xx_HAL_Driver/Src/stm32l4xx_hal_rcc.c ****   if(__HAL_RCC_PWR_IS_CLK_ENABLED())
  44              		.loc 1 1560 0
  45 0006 204B     		ldr	r3, .L14
  46 0008 9B6D     		ldr	r3, [r3, #88]
  47 000a 13F0805F 		tst	r3, #268435456
  48 000e 02D0     		beq	.L2
1561:Drivers/STM32L4xx_HAL_Driver/Src/stm32l4xx_hal_rcc.c ****   {
1562:Drivers/STM32L4xx_HAL_Driver/Src/stm32l4xx_hal_rcc.c ****     vos = HAL_PWREx_GetVoltageRange();
  49              		.loc 1 1562 0
  50 0010 FFF7FEFF 		bl	HAL_PWREx_GetVoltageRange
  51              	.LVL2:
  52 0014 0FE0     		b	.L3
  53              	.LVL3:
  54              	.L2:
  55              	.LBB2:
1563:Drivers/STM32L4xx_HAL_Driver/Src/stm32l4xx_hal_rcc.c ****   }
1564:Drivers/STM32L4xx_HAL_Driver/Src/stm32l4xx_hal_rcc.c ****   else
1565:Drivers/STM32L4xx_HAL_Driver/Src/stm32l4xx_hal_rcc.c ****   {
1566:Drivers/STM32L4xx_HAL_Driver/Src/stm32l4xx_hal_rcc.c ****     __HAL_RCC_PWR_CLK_ENABLE();
  56              		.loc 1 1566 0
  57 0016 1C4C     		ldr	r4, .L14
  58 0018 A36D     		ldr	r3, [r4, #88]
  59 001a 43F08053 		orr	r3, r3, #268435456
  60 001e A365     		str	r3, [r4, #88]
  61 0020 A36D     		ldr	r3, [r4, #88]
  62 0022 03F08053 		and	r3, r3, #268435456
  63 0026 0193     		str	r3, [sp, #4]
  64 0028 019B     		ldr	r3, [sp, #4]
  65              	.LBE2:
1567:Drivers/STM32L4xx_HAL_Driver/Src/stm32l4xx_hal_rcc.c ****     vos = HAL_PWREx_GetVoltageRange();
  66              		.loc 1 1567 0
  67 002a FFF7FEFF 		bl	HAL_PWREx_GetVoltageRange
  68              	.LVL4:
1568:Drivers/STM32L4xx_HAL_Driver/Src/stm32l4xx_hal_rcc.c ****     __HAL_RCC_PWR_CLK_DISABLE();
  69              		.loc 1 1568 0
  70 002e A36D     		ldr	r3, [r4, #88]
  71 0030 23F08053 		bic	r3, r3, #268435456
  72 0034 A365     		str	r3, [r4, #88]
  73              	.L3:
1569:Drivers/STM32L4xx_HAL_Driver/Src/stm32l4xx_hal_rcc.c ****   }
1570:Drivers/STM32L4xx_HAL_Driver/Src/stm32l4xx_hal_rcc.c **** 
1571:Drivers/STM32L4xx_HAL_Driver/Src/stm32l4xx_hal_rcc.c ****   if(vos == PWR_REGULATOR_VOLTAGE_SCALE1)
  74              		.loc 1 1571 0
  75 0036 B0F5007F 		cmp	r0, #512
  76 003a 05D1     		bne	.L4
1572:Drivers/STM32L4xx_HAL_Driver/Src/stm32l4xx_hal_rcc.c ****   {
1573:Drivers/STM32L4xx_HAL_Driver/Src/stm32l4xx_hal_rcc.c ****     if(msirange > RCC_MSIRANGE_8)
  77              		.loc 1 1573 0
  78 003c 802D     		cmp	r5, #128
  79 003e 0AD9     		bls	.L7
1574:Drivers/STM32L4xx_HAL_Driver/Src/stm32l4xx_hal_rcc.c ****     {
1575:Drivers/STM32L4xx_HAL_Driver/Src/stm32l4xx_hal_rcc.c ****       /* MSI > 16Mhz */
ARM GAS  /var/folders/bq/zy6zjhwd1qn4sn8dk3jpjcq80000gn/T//cc47l0uG.s 			page 30


1576:Drivers/STM32L4xx_HAL_Driver/Src/stm32l4xx_hal_rcc.c ****       if(msirange > RCC_MSIRANGE_10)
  80              		.loc 1 1576 0
  81 0040 A02D     		cmp	r5, #160
  82 0042 0AD9     		bls	.L8
1577:Drivers/STM32L4xx_HAL_Driver/Src/stm32l4xx_hal_rcc.c ****       {
1578:Drivers/STM32L4xx_HAL_Driver/Src/stm32l4xx_hal_rcc.c ****         /* MSI 48Mhz */
1579:Drivers/STM32L4xx_HAL_Driver/Src/stm32l4xx_hal_rcc.c ****         latency = FLASH_LATENCY_2; /* 2WS */
  83              		.loc 1 1579 0
  84 0044 0221     		movs	r1, #2
  85 0046 0FE0     		b	.L5
  86              	.L4:
1580:Drivers/STM32L4xx_HAL_Driver/Src/stm32l4xx_hal_rcc.c ****       }
1581:Drivers/STM32L4xx_HAL_Driver/Src/stm32l4xx_hal_rcc.c ****       else
1582:Drivers/STM32L4xx_HAL_Driver/Src/stm32l4xx_hal_rcc.c ****       {
1583:Drivers/STM32L4xx_HAL_Driver/Src/stm32l4xx_hal_rcc.c ****         /* MSI 24Mhz or 32Mhz */
1584:Drivers/STM32L4xx_HAL_Driver/Src/stm32l4xx_hal_rcc.c ****         latency = FLASH_LATENCY_1; /* 1WS */
1585:Drivers/STM32L4xx_HAL_Driver/Src/stm32l4xx_hal_rcc.c ****       }
1586:Drivers/STM32L4xx_HAL_Driver/Src/stm32l4xx_hal_rcc.c ****     }
1587:Drivers/STM32L4xx_HAL_Driver/Src/stm32l4xx_hal_rcc.c ****     /* else MSI <= 16Mhz default FLASH_LATENCY_0 0WS */
1588:Drivers/STM32L4xx_HAL_Driver/Src/stm32l4xx_hal_rcc.c ****   }
1589:Drivers/STM32L4xx_HAL_Driver/Src/stm32l4xx_hal_rcc.c ****   else
1590:Drivers/STM32L4xx_HAL_Driver/Src/stm32l4xx_hal_rcc.c ****   {
1591:Drivers/STM32L4xx_HAL_Driver/Src/stm32l4xx_hal_rcc.c **** #if defined(STM32L4R5xx) || defined(STM32L4R7xx) || defined(STM32L4R9xx) || defined(STM32L4S5xx) ||
1592:Drivers/STM32L4xx_HAL_Driver/Src/stm32l4xx_hal_rcc.c ****     if(msirange >= RCC_MSIRANGE_8)
1593:Drivers/STM32L4xx_HAL_Driver/Src/stm32l4xx_hal_rcc.c ****     {
1594:Drivers/STM32L4xx_HAL_Driver/Src/stm32l4xx_hal_rcc.c ****       /* MSI >= 16Mhz */
1595:Drivers/STM32L4xx_HAL_Driver/Src/stm32l4xx_hal_rcc.c ****       latency = FLASH_LATENCY_2; /* 2WS */
1596:Drivers/STM32L4xx_HAL_Driver/Src/stm32l4xx_hal_rcc.c ****     }
1597:Drivers/STM32L4xx_HAL_Driver/Src/stm32l4xx_hal_rcc.c ****     else
1598:Drivers/STM32L4xx_HAL_Driver/Src/stm32l4xx_hal_rcc.c ****     {
1599:Drivers/STM32L4xx_HAL_Driver/Src/stm32l4xx_hal_rcc.c ****       if(msirange == RCC_MSIRANGE_7)
1600:Drivers/STM32L4xx_HAL_Driver/Src/stm32l4xx_hal_rcc.c ****       {
1601:Drivers/STM32L4xx_HAL_Driver/Src/stm32l4xx_hal_rcc.c ****         /* MSI 8Mhz */
1602:Drivers/STM32L4xx_HAL_Driver/Src/stm32l4xx_hal_rcc.c ****         latency = FLASH_LATENCY_1; /* 1WS */
1603:Drivers/STM32L4xx_HAL_Driver/Src/stm32l4xx_hal_rcc.c ****       }
1604:Drivers/STM32L4xx_HAL_Driver/Src/stm32l4xx_hal_rcc.c ****       /* else MSI < 8Mhz default FLASH_LATENCY_0 0WS */
1605:Drivers/STM32L4xx_HAL_Driver/Src/stm32l4xx_hal_rcc.c ****     }
1606:Drivers/STM32L4xx_HAL_Driver/Src/stm32l4xx_hal_rcc.c **** #else
1607:Drivers/STM32L4xx_HAL_Driver/Src/stm32l4xx_hal_rcc.c ****     if(msirange > RCC_MSIRANGE_8)
  87              		.loc 1 1607 0
  88 0048 802D     		cmp	r5, #128
  89 004a 08D8     		bhi	.L9
1608:Drivers/STM32L4xx_HAL_Driver/Src/stm32l4xx_hal_rcc.c ****     {
1609:Drivers/STM32L4xx_HAL_Driver/Src/stm32l4xx_hal_rcc.c ****       /* MSI > 16Mhz */
1610:Drivers/STM32L4xx_HAL_Driver/Src/stm32l4xx_hal_rcc.c ****       latency = FLASH_LATENCY_3; /* 3WS */
1611:Drivers/STM32L4xx_HAL_Driver/Src/stm32l4xx_hal_rcc.c ****     }
1612:Drivers/STM32L4xx_HAL_Driver/Src/stm32l4xx_hal_rcc.c ****     else
1613:Drivers/STM32L4xx_HAL_Driver/Src/stm32l4xx_hal_rcc.c ****     {
1614:Drivers/STM32L4xx_HAL_Driver/Src/stm32l4xx_hal_rcc.c ****       if(msirange == RCC_MSIRANGE_8)
  90              		.loc 1 1614 0
  91 004c 09D0     		beq	.L10
1615:Drivers/STM32L4xx_HAL_Driver/Src/stm32l4xx_hal_rcc.c ****       {
1616:Drivers/STM32L4xx_HAL_Driver/Src/stm32l4xx_hal_rcc.c ****         /* MSI 16Mhz */
1617:Drivers/STM32L4xx_HAL_Driver/Src/stm32l4xx_hal_rcc.c ****         latency = FLASH_LATENCY_2; /* 2WS */
1618:Drivers/STM32L4xx_HAL_Driver/Src/stm32l4xx_hal_rcc.c ****       }
1619:Drivers/STM32L4xx_HAL_Driver/Src/stm32l4xx_hal_rcc.c ****       else if(msirange == RCC_MSIRANGE_7)
  92              		.loc 1 1619 0
ARM GAS  /var/folders/bq/zy6zjhwd1qn4sn8dk3jpjcq80000gn/T//cc47l0uG.s 			page 31


  93 004e 702D     		cmp	r5, #112
  94 0050 09D0     		beq	.L11
1558:Drivers/STM32L4xx_HAL_Driver/Src/stm32l4xx_hal_rcc.c **** 
  95              		.loc 1 1558 0
  96 0052 0021     		movs	r1, #0
  97 0054 08E0     		b	.L5
  98              	.L7:
  99 0056 0021     		movs	r1, #0
 100 0058 06E0     		b	.L5
 101              	.L8:
1584:Drivers/STM32L4xx_HAL_Driver/Src/stm32l4xx_hal_rcc.c ****       }
 102              		.loc 1 1584 0
 103 005a 0121     		movs	r1, #1
 104 005c 04E0     		b	.L5
 105              	.L9:
1610:Drivers/STM32L4xx_HAL_Driver/Src/stm32l4xx_hal_rcc.c ****     }
 106              		.loc 1 1610 0
 107 005e 0321     		movs	r1, #3
 108 0060 02E0     		b	.L5
 109              	.L10:
1617:Drivers/STM32L4xx_HAL_Driver/Src/stm32l4xx_hal_rcc.c ****       }
 110              		.loc 1 1617 0
 111 0062 0221     		movs	r1, #2
 112 0064 00E0     		b	.L5
 113              	.L11:
1620:Drivers/STM32L4xx_HAL_Driver/Src/stm32l4xx_hal_rcc.c ****       {
1621:Drivers/STM32L4xx_HAL_Driver/Src/stm32l4xx_hal_rcc.c ****         /* MSI 8Mhz */
1622:Drivers/STM32L4xx_HAL_Driver/Src/stm32l4xx_hal_rcc.c ****         latency = FLASH_LATENCY_1; /* 1WS */
 114              		.loc 1 1622 0
 115 0066 0121     		movs	r1, #1
 116              	.L5:
 117              	.LVL5:
1623:Drivers/STM32L4xx_HAL_Driver/Src/stm32l4xx_hal_rcc.c ****       }
1624:Drivers/STM32L4xx_HAL_Driver/Src/stm32l4xx_hal_rcc.c ****       /* else MSI < 8Mhz default FLASH_LATENCY_0 0WS */
1625:Drivers/STM32L4xx_HAL_Driver/Src/stm32l4xx_hal_rcc.c ****     }
1626:Drivers/STM32L4xx_HAL_Driver/Src/stm32l4xx_hal_rcc.c **** #endif
1627:Drivers/STM32L4xx_HAL_Driver/Src/stm32l4xx_hal_rcc.c ****   }
1628:Drivers/STM32L4xx_HAL_Driver/Src/stm32l4xx_hal_rcc.c **** 
1629:Drivers/STM32L4xx_HAL_Driver/Src/stm32l4xx_hal_rcc.c ****   __HAL_FLASH_SET_LATENCY(latency);
 118              		.loc 1 1629 0
 119 0068 084A     		ldr	r2, .L14+4
 120 006a 1368     		ldr	r3, [r2]
 121 006c 23F00703 		bic	r3, r3, #7
 122 0070 0B43     		orrs	r3, r3, r1
 123 0072 1360     		str	r3, [r2]
1630:Drivers/STM32L4xx_HAL_Driver/Src/stm32l4xx_hal_rcc.c **** 
1631:Drivers/STM32L4xx_HAL_Driver/Src/stm32l4xx_hal_rcc.c ****   /* Check that the new number of wait states is taken into account to access the Flash
1632:Drivers/STM32L4xx_HAL_Driver/Src/stm32l4xx_hal_rcc.c ****      memory by reading the FLASH_ACR register */
1633:Drivers/STM32L4xx_HAL_Driver/Src/stm32l4xx_hal_rcc.c ****   if(__HAL_FLASH_GET_LATENCY() != latency)
 124              		.loc 1 1633 0
 125 0074 1368     		ldr	r3, [r2]
 126 0076 03F00703 		and	r3, r3, #7
 127 007a 8B42     		cmp	r3, r1
 128 007c 01D0     		beq	.L12
1634:Drivers/STM32L4xx_HAL_Driver/Src/stm32l4xx_hal_rcc.c ****   {
1635:Drivers/STM32L4xx_HAL_Driver/Src/stm32l4xx_hal_rcc.c ****     return HAL_ERROR;
 129              		.loc 1 1635 0
ARM GAS  /var/folders/bq/zy6zjhwd1qn4sn8dk3jpjcq80000gn/T//cc47l0uG.s 			page 32


 130 007e 0120     		movs	r0, #1
 131              	.LVL6:
 132 0080 00E0     		b	.L6
 133              	.LVL7:
 134              	.L12:
1636:Drivers/STM32L4xx_HAL_Driver/Src/stm32l4xx_hal_rcc.c ****   }
1637:Drivers/STM32L4xx_HAL_Driver/Src/stm32l4xx_hal_rcc.c **** 
1638:Drivers/STM32L4xx_HAL_Driver/Src/stm32l4xx_hal_rcc.c ****   return HAL_OK;
 135              		.loc 1 1638 0
 136 0082 0020     		movs	r0, #0
 137              	.LVL8:
 138              	.L6:
1639:Drivers/STM32L4xx_HAL_Driver/Src/stm32l4xx_hal_rcc.c **** }
 139              		.loc 1 1639 0
 140 0084 03B0     		add	sp, sp, #12
 141              	.LCFI2:
 142              		.cfi_def_cfa_offset 12
 143              		@ sp needed
 144 0086 30BD     		pop	{r4, r5, pc}
 145              	.LVL9:
 146              	.L15:
 147              		.align	2
 148              	.L14:
 149 0088 00100240 		.word	1073876992
 150 008c 00200240 		.word	1073881088
 151              		.cfi_endproc
 152              	.LFE319:
 154              		.section	.text.HAL_RCC_DeInit,"ax",%progbits
 155              		.align	2
 156              		.global	HAL_RCC_DeInit
 157              		.thumb
 158              		.thumb_func
 160              	HAL_RCC_DeInit:
 161              	.LFB306:
 277:Drivers/STM32L4xx_HAL_Driver/Src/stm32l4xx_hal_rcc.c ****   uint32_t tickstart = 0;
 162              		.loc 1 277 0
 163              		.cfi_startproc
 164              		@ args = 0, pretend = 0, frame = 0
 165              		@ frame_needed = 0, uses_anonymous_args = 0
 166 0000 38B5     		push	{r3, r4, r5, lr}
 167              	.LCFI3:
 168              		.cfi_def_cfa_offset 16
 169              		.cfi_offset 3, -16
 170              		.cfi_offset 4, -12
 171              		.cfi_offset 5, -8
 172              		.cfi_offset 14, -4
 173              	.LVL10:
 281:Drivers/STM32L4xx_HAL_Driver/Src/stm32l4xx_hal_rcc.c **** 
 174              		.loc 1 281 0
 175 0002 384A     		ldr	r2, .L29
 176 0004 1368     		ldr	r3, [r2]
 177 0006 43F00103 		orr	r3, r3, #1
 178 000a 1360     		str	r3, [r2]
 285:Drivers/STM32L4xx_HAL_Driver/Src/stm32l4xx_hal_rcc.c **** 
 179              		.loc 1 285 0
 180 000c FFF7FEFF 		bl	HAL_GetTick
 181              	.LVL11:
ARM GAS  /var/folders/bq/zy6zjhwd1qn4sn8dk3jpjcq80000gn/T//cc47l0uG.s 			page 33


 182 0010 0446     		mov	r4, r0
 183              	.LVL12:
 288:Drivers/STM32L4xx_HAL_Driver/Src/stm32l4xx_hal_rcc.c ****   {
 184              		.loc 1 288 0
 185 0012 04E0     		b	.L17
 186              	.LVL13:
 187              	.L19:
 290:Drivers/STM32L4xx_HAL_Driver/Src/stm32l4xx_hal_rcc.c ****     {
 188              		.loc 1 290 0
 189 0014 FFF7FEFF 		bl	HAL_GetTick
 190              	.LVL14:
 191 0018 001B     		subs	r0, r0, r4
 192 001a 0228     		cmp	r0, #2
 193 001c 58D8     		bhi	.L24
 194              	.L17:
 288:Drivers/STM32L4xx_HAL_Driver/Src/stm32l4xx_hal_rcc.c ****   {
 195              		.loc 1 288 0
 196 001e 314B     		ldr	r3, .L29
 197 0020 1B68     		ldr	r3, [r3]
 198 0022 13F0020F 		tst	r3, #2
 199 0026 F5D0     		beq	.L19
 297:Drivers/STM32L4xx_HAL_Driver/Src/stm32l4xx_hal_rcc.c **** 
 200              		.loc 1 297 0
 201 0028 2E4A     		ldr	r2, .L29
 202 002a 1368     		ldr	r3, [r2]
 203 002c 23F0F003 		bic	r3, r3, #240
 204 0030 43F06003 		orr	r3, r3, #96
 205 0034 1360     		str	r3, [r2]
 300:Drivers/STM32L4xx_HAL_Driver/Src/stm32l4xx_hal_rcc.c **** 
 206              		.loc 1 300 0
 207 0036 0020     		movs	r0, #0
 208 0038 9060     		str	r0, [r2, #8]
 303:Drivers/STM32L4xx_HAL_Driver/Src/stm32l4xx_hal_rcc.c **** 
 209              		.loc 1 303 0
 210 003a 2B4A     		ldr	r2, .L29+4
 211 003c 2B4B     		ldr	r3, .L29+8
 212 003e 1A60     		str	r2, [r3]
 306:Drivers/STM32L4xx_HAL_Driver/Src/stm32l4xx_hal_rcc.c ****   {
 213              		.loc 1 306 0
 214 0040 FFF7FEFF 		bl	HAL_InitTick
 215              	.LVL15:
 216 0044 0446     		mov	r4, r0
 217              	.LVL16:
 218 0046 0028     		cmp	r0, #0
 219 0048 44D1     		bne	.L25
 313:Drivers/STM32L4xx_HAL_Driver/Src/stm32l4xx_hal_rcc.c **** 
 220              		.loc 1 313 0
 221 004a FFF7FEFF 		bl	HAL_GetTick
 222              	.LVL17:
 223 004e 0546     		mov	r5, r0
 224              	.LVL18:
 316:Drivers/STM32L4xx_HAL_Driver/Src/stm32l4xx_hal_rcc.c ****   {
 225              		.loc 1 316 0
 226 0050 06E0     		b	.L20
 227              	.LVL19:
 228              	.L21:
 318:Drivers/STM32L4xx_HAL_Driver/Src/stm32l4xx_hal_rcc.c ****     {
ARM GAS  /var/folders/bq/zy6zjhwd1qn4sn8dk3jpjcq80000gn/T//cc47l0uG.s 			page 34


 229              		.loc 1 318 0
 230 0052 FFF7FEFF 		bl	HAL_GetTick
 231              	.LVL20:
 232 0056 401B     		subs	r0, r0, r5
 233 0058 41F28833 		movw	r3, #5000
 234 005c 9842     		cmp	r0, r3
 235 005e 3BD8     		bhi	.L26
 236              	.L20:
 316:Drivers/STM32L4xx_HAL_Driver/Src/stm32l4xx_hal_rcc.c ****   {
 237              		.loc 1 316 0
 238 0060 204B     		ldr	r3, .L29
 239 0062 9B68     		ldr	r3, [r3, #8]
 240 0064 13F00C0F 		tst	r3, #12
 241 0068 F3D1     		bne	.L21
 327:Drivers/STM32L4xx_HAL_Driver/Src/stm32l4xx_hal_rcc.c **** 
 242              		.loc 1 327 0
 243 006a 1E4A     		ldr	r2, .L29
 244 006c 1168     		ldr	r1, [r2]
 245 006e 204B     		ldr	r3, .L29+12
 246 0070 0B40     		ands	r3, r3, r1
 247 0072 1360     		str	r3, [r2]
 337:Drivers/STM32L4xx_HAL_Driver/Src/stm32l4xx_hal_rcc.c **** 
 248              		.loc 1 337 0
 249 0074 FFF7FEFF 		bl	HAL_GetTick
 250              	.LVL21:
 251 0078 0546     		mov	r5, r0
 252              	.LVL22:
 341:Drivers/STM32L4xx_HAL_Driver/Src/stm32l4xx_hal_rcc.c **** 
 253              		.loc 1 341 0
 254 007a 04E0     		b	.L22
 255              	.LVL23:
 256              	.L23:
 349:Drivers/STM32L4xx_HAL_Driver/Src/stm32l4xx_hal_rcc.c ****     {
 257              		.loc 1 349 0
 258 007c FFF7FEFF 		bl	HAL_GetTick
 259              	.LVL24:
 260 0080 401B     		subs	r0, r0, r5
 261 0082 0228     		cmp	r0, #2
 262 0084 2AD8     		bhi	.L27
 263              	.L22:
 341:Drivers/STM32L4xx_HAL_Driver/Src/stm32l4xx_hal_rcc.c **** 
 264              		.loc 1 341 0
 265 0086 174B     		ldr	r3, .L29
 266 0088 1B68     		ldr	r3, [r3]
 267 008a 13F0285F 		tst	r3, #704643072
 268 008e F5D1     		bne	.L23
 356:Drivers/STM32L4xx_HAL_Driver/Src/stm32l4xx_hal_rcc.c ****   SET_BIT(RCC->PLLCFGR, RCC_PLLCFGR_PLLN_4 );
 269              		.loc 1 356 0
 270 0090 144B     		ldr	r3, .L29
 271 0092 0022     		movs	r2, #0
 272 0094 DA60     		str	r2, [r3, #12]
 357:Drivers/STM32L4xx_HAL_Driver/Src/stm32l4xx_hal_rcc.c **** 
 273              		.loc 1 357 0
 274 0096 D968     		ldr	r1, [r3, #12]
 275 0098 41F48051 		orr	r1, r1, #4096
 276 009c D960     		str	r1, [r3, #12]
 360:Drivers/STM32L4xx_HAL_Driver/Src/stm32l4xx_hal_rcc.c ****   SET_BIT(RCC->PLLSAI1CFGR,  RCC_PLLSAI1CFGR_PLLSAI1N_4 );
ARM GAS  /var/folders/bq/zy6zjhwd1qn4sn8dk3jpjcq80000gn/T//cc47l0uG.s 			page 35


 277              		.loc 1 360 0
 278 009e 1A61     		str	r2, [r3, #16]
 361:Drivers/STM32L4xx_HAL_Driver/Src/stm32l4xx_hal_rcc.c **** 
 279              		.loc 1 361 0
 280 00a0 1969     		ldr	r1, [r3, #16]
 281 00a2 41F48051 		orr	r1, r1, #4096
 282 00a6 1961     		str	r1, [r3, #16]
 366:Drivers/STM32L4xx_HAL_Driver/Src/stm32l4xx_hal_rcc.c ****   SET_BIT(RCC->PLLSAI2CFGR,  RCC_PLLSAI2CFGR_PLLSAI2N_4 );
 283              		.loc 1 366 0
 284 00a8 5A61     		str	r2, [r3, #20]
 367:Drivers/STM32L4xx_HAL_Driver/Src/stm32l4xx_hal_rcc.c **** 
 285              		.loc 1 367 0
 286 00aa 5969     		ldr	r1, [r3, #20]
 287 00ac 41F48051 		orr	r1, r1, #4096
 288 00b0 5961     		str	r1, [r3, #20]
 372:Drivers/STM32L4xx_HAL_Driver/Src/stm32l4xx_hal_rcc.c **** 
 289              		.loc 1 372 0
 290 00b2 1968     		ldr	r1, [r3]
 291 00b4 21F48021 		bic	r1, r1, #262144
 292 00b8 1960     		str	r1, [r3]
 375:Drivers/STM32L4xx_HAL_Driver/Src/stm32l4xx_hal_rcc.c **** 
 293              		.loc 1 375 0
 294 00ba 9A61     		str	r2, [r3, #24]
 378:Drivers/STM32L4xx_HAL_Driver/Src/stm32l4xx_hal_rcc.c **** 
 295              		.loc 1 378 0
 296 00bc 4FF0FF32 		mov	r2, #-1
 297 00c0 1A62     		str	r2, [r3, #32]
 381:Drivers/STM32L4xx_HAL_Driver/Src/stm32l4xx_hal_rcc.c **** 
 298              		.loc 1 381 0
 299 00c2 D3F89420 		ldr	r2, [r3, #148]
 300 00c6 42F40002 		orr	r2, r2, #8388608
 301 00ca C3F89420 		str	r2, [r3, #148]
 383:Drivers/STM32L4xx_HAL_Driver/Src/stm32l4xx_hal_rcc.c **** }
 302              		.loc 1 383 0
 303 00ce 06E0     		b	.L18
 304              	.LVL25:
 305              	.L24:
 292:Drivers/STM32L4xx_HAL_Driver/Src/stm32l4xx_hal_rcc.c ****     }
 306              		.loc 1 292 0
 307 00d0 0324     		movs	r4, #3
 308              	.LVL26:
 309 00d2 04E0     		b	.L18
 310              	.L25:
 308:Drivers/STM32L4xx_HAL_Driver/Src/stm32l4xx_hal_rcc.c ****   }
 311              		.loc 1 308 0
 312 00d4 0124     		movs	r4, #1
 313 00d6 02E0     		b	.L18
 314              	.LVL27:
 315              	.L26:
 320:Drivers/STM32L4xx_HAL_Driver/Src/stm32l4xx_hal_rcc.c ****     }
 316              		.loc 1 320 0
 317 00d8 0324     		movs	r4, #3
 318 00da 00E0     		b	.L18
 319              	.L27:
 351:Drivers/STM32L4xx_HAL_Driver/Src/stm32l4xx_hal_rcc.c ****     }
 320              		.loc 1 351 0
 321 00dc 0324     		movs	r4, #3
ARM GAS  /var/folders/bq/zy6zjhwd1qn4sn8dk3jpjcq80000gn/T//cc47l0uG.s 			page 36


 322              	.LVL28:
 323              	.L18:
 384:Drivers/STM32L4xx_HAL_Driver/Src/stm32l4xx_hal_rcc.c **** 
 324              		.loc 1 384 0
 325 00de 2046     		mov	r0, r4
 326 00e0 38BD     		pop	{r3, r4, r5, pc}
 327              	.L30:
 328 00e2 00BF     		.align	2
 329              	.L29:
 330 00e4 00100240 		.word	1073876992
 331 00e8 00093D00 		.word	4000000
 332 00ec 00000000 		.word	SystemCoreClock
 333 00f0 FFF4FEEA 		.word	-352389889
 334              		.cfi_endproc
 335              	.LFE306:
 337              		.section	.text.HAL_RCC_MCOConfig,"ax",%progbits
 338              		.align	2
 339              		.global	HAL_RCC_MCOConfig
 340              		.thumb
 341              		.thumb_func
 343              	HAL_RCC_MCOConfig:
 344              	.LFB309:
1168:Drivers/STM32L4xx_HAL_Driver/Src/stm32l4xx_hal_rcc.c ****   GPIO_InitTypeDef GPIO_InitStruct;
 345              		.loc 1 1168 0
 346              		.cfi_startproc
 347              		@ args = 0, pretend = 0, frame = 24
 348              		@ frame_needed = 0, uses_anonymous_args = 0
 349              	.LVL29:
 350 0000 70B5     		push	{r4, r5, r6, lr}
 351              	.LCFI4:
 352              		.cfi_def_cfa_offset 16
 353              		.cfi_offset 4, -16
 354              		.cfi_offset 5, -12
 355              		.cfi_offset 6, -8
 356              		.cfi_offset 14, -4
 357 0002 86B0     		sub	sp, sp, #24
 358              	.LCFI5:
 359              		.cfi_def_cfa_offset 40
 360 0004 0E46     		mov	r6, r1
 361 0006 1546     		mov	r5, r2
 362              	.LBB3:
1180:Drivers/STM32L4xx_HAL_Driver/Src/stm32l4xx_hal_rcc.c **** 
 363              		.loc 1 1180 0
 364 0008 0F4C     		ldr	r4, .L33
 365 000a E36C     		ldr	r3, [r4, #76]
 366 000c 43F00103 		orr	r3, r3, #1
 367 0010 E364     		str	r3, [r4, #76]
 368 0012 E36C     		ldr	r3, [r4, #76]
 369 0014 03F00103 		and	r3, r3, #1
 370 0018 0093     		str	r3, [sp]
 371 001a 009B     		ldr	r3, [sp]
 372              	.LBE3:
1183:Drivers/STM32L4xx_HAL_Driver/Src/stm32l4xx_hal_rcc.c ****   GPIO_InitStruct.Mode = GPIO_MODE_AF_PP;
 373              		.loc 1 1183 0
 374 001c 4FF48073 		mov	r3, #256
 375 0020 0193     		str	r3, [sp, #4]
1184:Drivers/STM32L4xx_HAL_Driver/Src/stm32l4xx_hal_rcc.c ****   GPIO_InitStruct.Speed = GPIO_SPEED_FREQ_HIGH;
ARM GAS  /var/folders/bq/zy6zjhwd1qn4sn8dk3jpjcq80000gn/T//cc47l0uG.s 			page 37


 376              		.loc 1 1184 0
 377 0022 0223     		movs	r3, #2
 378 0024 0293     		str	r3, [sp, #8]
1185:Drivers/STM32L4xx_HAL_Driver/Src/stm32l4xx_hal_rcc.c ****   GPIO_InitStruct.Pull = GPIO_NOPULL;
 379              		.loc 1 1185 0
 380 0026 0493     		str	r3, [sp, #16]
1186:Drivers/STM32L4xx_HAL_Driver/Src/stm32l4xx_hal_rcc.c ****   GPIO_InitStruct.Alternate = GPIO_AF0_MCO;
 381              		.loc 1 1186 0
 382 0028 0023     		movs	r3, #0
 383 002a 0393     		str	r3, [sp, #12]
1187:Drivers/STM32L4xx_HAL_Driver/Src/stm32l4xx_hal_rcc.c ****   HAL_GPIO_Init(MCO1_GPIO_PORT, &GPIO_InitStruct);
 384              		.loc 1 1187 0
 385 002c 0593     		str	r3, [sp, #20]
1188:Drivers/STM32L4xx_HAL_Driver/Src/stm32l4xx_hal_rcc.c **** 
 386              		.loc 1 1188 0
 387 002e 4FF09040 		mov	r0, #1207959552
 388              	.LVL30:
 389 0032 01A9     		add	r1, sp, #4
 390              	.LVL31:
 391 0034 FFF7FEFF 		bl	HAL_GPIO_Init
 392              	.LVL32:
1191:Drivers/STM32L4xx_HAL_Driver/Src/stm32l4xx_hal_rcc.c **** }
 393              		.loc 1 1191 0
 394 0038 A368     		ldr	r3, [r4, #8]
 395 003a 23F0EE43 		bic	r3, r3, #1996488704
 396 003e 3543     		orrs	r5, r5, r6
 397              	.LVL33:
 398 0040 1D43     		orrs	r5, r5, r3
 399 0042 A560     		str	r5, [r4, #8]
1192:Drivers/STM32L4xx_HAL_Driver/Src/stm32l4xx_hal_rcc.c **** 
 400              		.loc 1 1192 0
 401 0044 06B0     		add	sp, sp, #24
 402              	.LCFI6:
 403              		.cfi_def_cfa_offset 16
 404              		@ sp needed
 405 0046 70BD     		pop	{r4, r5, r6, pc}
 406              	.LVL34:
 407              	.L34:
 408              		.align	2
 409              	.L33:
 410 0048 00100240 		.word	1073876992
 411              		.cfi_endproc
 412              	.LFE309:
 414              		.section	.text.HAL_RCC_GetSysClockFreq,"ax",%progbits
 415              		.align	2
 416              		.global	HAL_RCC_GetSysClockFreq
 417              		.thumb
 418              		.thumb_func
 420              	HAL_RCC_GetSysClockFreq:
 421              	.LFB310:
1227:Drivers/STM32L4xx_HAL_Driver/Src/stm32l4xx_hal_rcc.c ****   uint32_t msirange = 0U, pllvco = 0U, pllsource = 0U, pllr = 2U, pllm = 2U;
 422              		.loc 1 1227 0
 423              		.cfi_startproc
 424              		@ args = 0, pretend = 0, frame = 0
 425              		@ frame_needed = 0, uses_anonymous_args = 0
 426              		@ link register save eliminated.
 427              	.LVL35:
ARM GAS  /var/folders/bq/zy6zjhwd1qn4sn8dk3jpjcq80000gn/T//cc47l0uG.s 			page 38


1231:Drivers/STM32L4xx_HAL_Driver/Src/stm32l4xx_hal_rcc.c ****      ((__HAL_RCC_GET_SYSCLK_SOURCE() == RCC_CFGR_SWS_PLL) && (__HAL_RCC_GET_PLL_OSCSOURCE() == RCC_
 428              		.loc 1 1231 0
 429 0000 3B4B     		ldr	r3, .L50
 430 0002 9B68     		ldr	r3, [r3, #8]
 431 0004 13F00C0F 		tst	r3, #12
 432 0008 0BD0     		beq	.L36
1232:Drivers/STM32L4xx_HAL_Driver/Src/stm32l4xx_hal_rcc.c ****   {
 433              		.loc 1 1232 0 discriminator 1
 434 000a 394B     		ldr	r3, .L50
 435 000c 9B68     		ldr	r3, [r3, #8]
 436 000e 03F00C03 		and	r3, r3, #12
1231:Drivers/STM32L4xx_HAL_Driver/Src/stm32l4xx_hal_rcc.c ****      ((__HAL_RCC_GET_SYSCLK_SOURCE() == RCC_CFGR_SWS_PLL) && (__HAL_RCC_GET_PLL_OSCSOURCE() == RCC_
 437              		.loc 1 1231 0 discriminator 1
 438 0012 0C2B     		cmp	r3, #12
 439 0014 1ED1     		bne	.L37
1232:Drivers/STM32L4xx_HAL_Driver/Src/stm32l4xx_hal_rcc.c ****   {
 440              		.loc 1 1232 0
 441 0016 364B     		ldr	r3, .L50
 442 0018 DB68     		ldr	r3, [r3, #12]
 443 001a 03F00303 		and	r3, r3, #3
 444 001e 012B     		cmp	r3, #1
 445 0020 18D1     		bne	.L37
 446              	.L36:
1237:Drivers/STM32L4xx_HAL_Driver/Src/stm32l4xx_hal_rcc.c ****     { /* MSISRANGE from RCC_CSR applies */
 447              		.loc 1 1237 0
 448 0022 334B     		ldr	r3, .L50
 449 0024 1B68     		ldr	r3, [r3]
 450 0026 13F0080F 		tst	r3, #8
 451 002a 05D1     		bne	.L38
1239:Drivers/STM32L4xx_HAL_Driver/Src/stm32l4xx_hal_rcc.c ****     }
 452              		.loc 1 1239 0
 453 002c 304B     		ldr	r3, .L50
 454 002e D3F89430 		ldr	r3, [r3, #148]
 455 0032 C3F30323 		ubfx	r3, r3, #8, #4
 456              	.LVL36:
 457 0036 03E0     		b	.L39
 458              	.LVL37:
 459              	.L38:
1243:Drivers/STM32L4xx_HAL_Driver/Src/stm32l4xx_hal_rcc.c ****     }
 460              		.loc 1 1243 0
 461 0038 2D4B     		ldr	r3, .L50
 462 003a 1B68     		ldr	r3, [r3]
 463 003c C3F30313 		ubfx	r3, r3, #4, #4
 464              	.LVL38:
 465              	.L39:
1246:Drivers/STM32L4xx_HAL_Driver/Src/stm32l4xx_hal_rcc.c **** 
 466              		.loc 1 1246 0
 467 0040 2C4A     		ldr	r2, .L50+4
 468 0042 52F82310 		ldr	r1, [r2, r3, lsl #2]
 469              	.LVL39:
1248:Drivers/STM32L4xx_HAL_Driver/Src/stm32l4xx_hal_rcc.c ****     {
 470              		.loc 1 1248 0
 471 0046 2A4B     		ldr	r3, .L50
 472 0048 9B68     		ldr	r3, [r3, #8]
 473 004a 13F00C0F 		tst	r3, #12
 474 004e 10D0     		beq	.L46
1229:Drivers/STM32L4xx_HAL_Driver/Src/stm32l4xx_hal_rcc.c **** 
ARM GAS  /var/folders/bq/zy6zjhwd1qn4sn8dk3jpjcq80000gn/T//cc47l0uG.s 			page 39


 475              		.loc 1 1229 0
 476 0050 0020     		movs	r0, #0
 477 0052 15E0     		b	.L40
 478              	.LVL40:
 479              	.L37:
1254:Drivers/STM32L4xx_HAL_Driver/Src/stm32l4xx_hal_rcc.c ****   {
 480              		.loc 1 1254 0
 481 0054 264B     		ldr	r3, .L50
 482 0056 9B68     		ldr	r3, [r3, #8]
 483 0058 03F00C03 		and	r3, r3, #12
 484 005c 042B     		cmp	r3, #4
 485 005e 0AD0     		beq	.L47
1259:Drivers/STM32L4xx_HAL_Driver/Src/stm32l4xx_hal_rcc.c ****   {
 486              		.loc 1 1259 0
 487 0060 234B     		ldr	r3, .L50
 488 0062 9B68     		ldr	r3, [r3, #8]
 489 0064 03F00C03 		and	r3, r3, #12
 490 0068 082B     		cmp	r3, #8
 491 006a 07D0     		beq	.L48
1229:Drivers/STM32L4xx_HAL_Driver/Src/stm32l4xx_hal_rcc.c **** 
 492              		.loc 1 1229 0
 493 006c 0020     		movs	r0, #0
1228:Drivers/STM32L4xx_HAL_Driver/Src/stm32l4xx_hal_rcc.c ****   uint32_t sysclockfreq = 0U;
 494              		.loc 1 1228 0
 495 006e 0146     		mov	r1, r0
 496 0070 06E0     		b	.L40
 497              	.LVL41:
 498              	.L46:
1251:Drivers/STM32L4xx_HAL_Driver/Src/stm32l4xx_hal_rcc.c ****     }
 499              		.loc 1 1251 0
 500 0072 0846     		mov	r0, r1
 501 0074 04E0     		b	.L40
 502              	.LVL42:
 503              	.L47:
1257:Drivers/STM32L4xx_HAL_Driver/Src/stm32l4xx_hal_rcc.c ****   }
 504              		.loc 1 1257 0
 505 0076 2048     		ldr	r0, .L50+8
1228:Drivers/STM32L4xx_HAL_Driver/Src/stm32l4xx_hal_rcc.c ****   uint32_t sysclockfreq = 0U;
 506              		.loc 1 1228 0
 507 0078 0021     		movs	r1, #0
 508 007a 01E0     		b	.L40
 509              	.L48:
1262:Drivers/STM32L4xx_HAL_Driver/Src/stm32l4xx_hal_rcc.c ****   }
 510              		.loc 1 1262 0
 511 007c 1F48     		ldr	r0, .L50+12
1228:Drivers/STM32L4xx_HAL_Driver/Src/stm32l4xx_hal_rcc.c ****   uint32_t sysclockfreq = 0U;
 512              		.loc 1 1228 0
 513 007e 0021     		movs	r1, #0
 514              	.LVL43:
 515              	.L40:
1265:Drivers/STM32L4xx_HAL_Driver/Src/stm32l4xx_hal_rcc.c ****   {
 516              		.loc 1 1265 0
 517 0080 1B4A     		ldr	r2, .L50
 518 0082 9268     		ldr	r2, [r2, #8]
 519 0084 02F00C02 		and	r2, r2, #12
 520 0088 0C2A     		cmp	r2, #12
 521 008a 30D1     		bne	.L41
ARM GAS  /var/folders/bq/zy6zjhwd1qn4sn8dk3jpjcq80000gn/T//cc47l0uG.s 			page 40


1272:Drivers/STM32L4xx_HAL_Driver/Src/stm32l4xx_hal_rcc.c ****     pllm = (READ_BIT(RCC->PLLCFGR, RCC_PLLCFGR_PLLM) >> RCC_PLLCFGR_PLLM_Pos) + 1U ;
 522              		.loc 1 1272 0
 523 008c 184B     		ldr	r3, .L50
 524 008e DA68     		ldr	r2, [r3, #12]
 525 0090 02F00302 		and	r2, r2, #3
 526              	.LVL44:
1273:Drivers/STM32L4xx_HAL_Driver/Src/stm32l4xx_hal_rcc.c **** 
 527              		.loc 1 1273 0
 528 0094 DB68     		ldr	r3, [r3, #12]
 529 0096 C3F30213 		ubfx	r3, r3, #4, #3
 530 009a 0133     		adds	r3, r3, #1
 531              	.LVL45:
1275:Drivers/STM32L4xx_HAL_Driver/Src/stm32l4xx_hal_rcc.c ****     {
 532              		.loc 1 1275 0
 533 009c 022A     		cmp	r2, #2
 534 009e 02D0     		beq	.L43
 535 00a0 032A     		cmp	r2, #3
 536 00a2 0AD0     		beq	.L44
 537 00a4 13E0     		b	.L49
 538              	.L43:
1278:Drivers/STM32L4xx_HAL_Driver/Src/stm32l4xx_hal_rcc.c ****       break;
 539              		.loc 1 1278 0
 540 00a6 1448     		ldr	r0, .L50+8
 541              	.LVL46:
 542 00a8 B0FBF3F0 		udiv	r0, r0, r3
 543 00ac 104B     		ldr	r3, .L50
 544              	.LVL47:
 545 00ae DB68     		ldr	r3, [r3, #12]
 546 00b0 C3F30623 		ubfx	r3, r3, #8, #7
 547 00b4 03FB00F3 		mul	r3, r3, r0
 548              	.LVL48:
1279:Drivers/STM32L4xx_HAL_Driver/Src/stm32l4xx_hal_rcc.c **** 
 549              		.loc 1 1279 0
 550 00b8 11E0     		b	.L45
 551              	.LVL49:
 552              	.L44:
1282:Drivers/STM32L4xx_HAL_Driver/Src/stm32l4xx_hal_rcc.c ****       break;
 553              		.loc 1 1282 0
 554 00ba 1048     		ldr	r0, .L50+12
 555              	.LVL50:
 556 00bc B0FBF3F3 		udiv	r3, r0, r3
 557              	.LVL51:
 558 00c0 0B4A     		ldr	r2, .L50
 559              	.LVL52:
 560 00c2 D268     		ldr	r2, [r2, #12]
 561 00c4 C2F30622 		ubfx	r2, r2, #8, #7
 562 00c8 02FB03F3 		mul	r3, r2, r3
 563              	.LVL53:
1283:Drivers/STM32L4xx_HAL_Driver/Src/stm32l4xx_hal_rcc.c **** 
 564              		.loc 1 1283 0
 565 00cc 07E0     		b	.L45
 566              	.LVL54:
 567              	.L49:
1287:Drivers/STM32L4xx_HAL_Driver/Src/stm32l4xx_hal_rcc.c ****       break;
 568              		.loc 1 1287 0
 569 00ce B1FBF3F3 		udiv	r3, r1, r3
 570              	.LVL55:
ARM GAS  /var/folders/bq/zy6zjhwd1qn4sn8dk3jpjcq80000gn/T//cc47l0uG.s 			page 41


 571 00d2 074A     		ldr	r2, .L50
 572              	.LVL56:
 573 00d4 D268     		ldr	r2, [r2, #12]
 574 00d6 C2F30622 		ubfx	r2, r2, #8, #7
 575 00da 02FB03F3 		mul	r3, r2, r3
 576              	.LVL57:
 577              	.L45:
1290:Drivers/STM32L4xx_HAL_Driver/Src/stm32l4xx_hal_rcc.c ****     sysclockfreq = pllvco/pllr;
 578              		.loc 1 1290 0
 579 00de 044A     		ldr	r2, .L50
 580 00e0 D068     		ldr	r0, [r2, #12]
 581 00e2 C0F34160 		ubfx	r0, r0, #25, #2
 582 00e6 0130     		adds	r0, r0, #1
 583 00e8 4000     		lsls	r0, r0, #1
 584              	.LVL58:
1291:Drivers/STM32L4xx_HAL_Driver/Src/stm32l4xx_hal_rcc.c ****   }
 585              		.loc 1 1291 0
 586 00ea B3FBF0F0 		udiv	r0, r3, r0
 587              	.LVL59:
 588              	.L41:
1295:Drivers/STM32L4xx_HAL_Driver/Src/stm32l4xx_hal_rcc.c **** 
 589              		.loc 1 1295 0
 590 00ee 7047     		bx	lr
 591              	.L51:
 592              		.align	2
 593              	.L50:
 594 00f0 00100240 		.word	1073876992
 595 00f4 00000000 		.word	MSIRangeTable
 596 00f8 0024F400 		.word	16000000
 597 00fc 00127A00 		.word	8000000
 598              		.cfi_endproc
 599              	.LFE310:
 601              		.section	.text.HAL_RCC_OscConfig,"ax",%progbits
 602              		.align	2
 603              		.global	HAL_RCC_OscConfig
 604              		.thumb
 605              		.thumb_func
 607              	HAL_RCC_OscConfig:
 608              	.LFB307:
 401:Drivers/STM32L4xx_HAL_Driver/Src/stm32l4xx_hal_rcc.c ****   uint32_t tickstart;
 609              		.loc 1 401 0
 610              		.cfi_startproc
 611              		@ args = 0, pretend = 0, frame = 8
 612              		@ frame_needed = 0, uses_anonymous_args = 0
 613              	.LVL60:
 405:Drivers/STM32L4xx_HAL_Driver/Src/stm32l4xx_hal_rcc.c ****   {
 614              		.loc 1 405 0
 615 0000 0028     		cmp	r0, #0
 616 0002 00F09E82 		beq	.L114
 401:Drivers/STM32L4xx_HAL_Driver/Src/stm32l4xx_hal_rcc.c ****   uint32_t tickstart;
 617              		.loc 1 401 0
 618 0006 70B5     		push	{r4, r5, r6, lr}
 619              	.LCFI7:
 620              		.cfi_def_cfa_offset 16
 621              		.cfi_offset 4, -16
 622              		.cfi_offset 5, -12
 623              		.cfi_offset 6, -8
ARM GAS  /var/folders/bq/zy6zjhwd1qn4sn8dk3jpjcq80000gn/T//cc47l0uG.s 			page 42


 624              		.cfi_offset 14, -4
 625 0008 82B0     		sub	sp, sp, #8
 626              	.LCFI8:
 627              		.cfi_def_cfa_offset 24
 628 000a 0446     		mov	r4, r0
 414:Drivers/STM32L4xx_HAL_Driver/Src/stm32l4xx_hal_rcc.c ****   {
 629              		.loc 1 414 0
 630 000c 0368     		ldr	r3, [r0]
 631 000e 13F0100F 		tst	r3, #16
 632 0012 00F09D80 		beq	.L54
 422:Drivers/STM32L4xx_HAL_Driver/Src/stm32l4xx_hal_rcc.c ****     {
 633              		.loc 1 422 0
 634 0016 A84B     		ldr	r3, .L138
 635 0018 9B68     		ldr	r3, [r3, #8]
 636 001a 13F00C0F 		tst	r3, #12
 637 001e 5AD1     		bne	.L55
 424:Drivers/STM32L4xx_HAL_Driver/Src/stm32l4xx_hal_rcc.c ****       {
 638              		.loc 1 424 0
 639 0020 A54B     		ldr	r3, .L138
 640 0022 1B68     		ldr	r3, [r3]
 641 0024 13F0020F 		tst	r3, #2
 642 0028 03D0     		beq	.L56
 424:Drivers/STM32L4xx_HAL_Driver/Src/stm32l4xx_hal_rcc.c ****       {
 643              		.loc 1 424 0 is_stmt 0 discriminator 1
 644 002a 8369     		ldr	r3, [r0, #24]
 645 002c 002B     		cmp	r3, #0
 646 002e 00F08A82 		beq	.L115
 647              	.L56:
 435:Drivers/STM32L4xx_HAL_Driver/Src/stm32l4xx_hal_rcc.c ****         {
 648              		.loc 1 435 0 is_stmt 1
 649 0032 206A     		ldr	r0, [r4, #32]
 650              	.LVL61:
 651 0034 A04B     		ldr	r3, .L138
 652 0036 1B68     		ldr	r3, [r3]
 653 0038 13F0080F 		tst	r3, #8
 654 003c 04D0     		beq	.L57
 435:Drivers/STM32L4xx_HAL_Driver/Src/stm32l4xx_hal_rcc.c ****         {
 655              		.loc 1 435 0 is_stmt 0 discriminator 1
 656 003e 9E4B     		ldr	r3, .L138
 657 0040 1B68     		ldr	r3, [r3]
 658 0042 03F0F003 		and	r3, r3, #240
 659 0046 05E0     		b	.L58
 660              	.L57:
 435:Drivers/STM32L4xx_HAL_Driver/Src/stm32l4xx_hal_rcc.c ****         {
 661              		.loc 1 435 0 discriminator 2
 662 0048 9B4B     		ldr	r3, .L138
 663 004a D3F89430 		ldr	r3, [r3, #148]
 664 004e 03F47063 		and	r3, r3, #3840
 665 0052 1B09     		lsrs	r3, r3, #4
 666              	.L58:
 435:Drivers/STM32L4xx_HAL_Driver/Src/stm32l4xx_hal_rcc.c ****         {
 667              		.loc 1 435 0 discriminator 4
 668 0054 9842     		cmp	r0, r3
 669 0056 17D9     		bls	.L59
 438:Drivers/STM32L4xx_HAL_Driver/Src/stm32l4xx_hal_rcc.c ****           {
 670              		.loc 1 438 0 is_stmt 1
 671 0058 FFF7FEFF 		bl	RCC_SetFlashLatencyFromMSIRange
ARM GAS  /var/folders/bq/zy6zjhwd1qn4sn8dk3jpjcq80000gn/T//cc47l0uG.s 			page 43


 672              	.LVL62:
 673 005c 0028     		cmp	r0, #0
 674 005e 40F07482 		bne	.L116
 444:Drivers/STM32L4xx_HAL_Driver/Src/stm32l4xx_hal_rcc.c ****           /* Adjusts the Multiple Speed oscillator (MSI) calibration value.*/
 675              		.loc 1 444 0
 676 0062 954B     		ldr	r3, .L138
 677 0064 1A68     		ldr	r2, [r3]
 678 0066 42F00802 		orr	r2, r2, #8
 679 006a 1A60     		str	r2, [r3]
 680 006c 1A68     		ldr	r2, [r3]
 681 006e 22F0F001 		bic	r1, r2, #240
 682 0072 226A     		ldr	r2, [r4, #32]
 683 0074 0A43     		orrs	r2, r2, r1
 684 0076 1A60     		str	r2, [r3]
 446:Drivers/STM32L4xx_HAL_Driver/Src/stm32l4xx_hal_rcc.c ****         }
 685              		.loc 1 446 0
 686 0078 5A68     		ldr	r2, [r3, #4]
 687 007a 22F47F42 		bic	r2, r2, #65280
 688 007e E169     		ldr	r1, [r4, #28]
 689 0080 42EA0122 		orr	r2, r2, r1, lsl #8
 690 0084 5A60     		str	r2, [r3, #4]
 691 0086 17E0     		b	.L60
 692              	.L59:
 452:Drivers/STM32L4xx_HAL_Driver/Src/stm32l4xx_hal_rcc.c ****           /* Adjusts the Multiple Speed oscillator (MSI) calibration value.*/
 693              		.loc 1 452 0
 694 0088 8B4B     		ldr	r3, .L138
 695 008a 1A68     		ldr	r2, [r3]
 696 008c 42F00802 		orr	r2, r2, #8
 697 0090 1A60     		str	r2, [r3]
 698 0092 1A68     		ldr	r2, [r3]
 699 0094 22F0F001 		bic	r1, r2, #240
 700 0098 226A     		ldr	r2, [r4, #32]
 701 009a 0A43     		orrs	r2, r2, r1
 702 009c 1A60     		str	r2, [r3]
 454:Drivers/STM32L4xx_HAL_Driver/Src/stm32l4xx_hal_rcc.c **** 
 703              		.loc 1 454 0
 704 009e 5A68     		ldr	r2, [r3, #4]
 705 00a0 22F47F42 		bic	r2, r2, #65280
 706 00a4 E169     		ldr	r1, [r4, #28]
 707 00a6 42EA0122 		orr	r2, r2, r1, lsl #8
 708 00aa 5A60     		str	r2, [r3, #4]
 457:Drivers/STM32L4xx_HAL_Driver/Src/stm32l4xx_hal_rcc.c ****           {
 709              		.loc 1 457 0
 710 00ac 206A     		ldr	r0, [r4, #32]
 711 00ae FFF7FEFF 		bl	RCC_SetFlashLatencyFromMSIRange
 712              	.LVL63:
 713 00b2 0028     		cmp	r0, #0
 714 00b4 40F04B82 		bne	.L117
 715              	.L60:
 464:Drivers/STM32L4xx_HAL_Driver/Src/stm32l4xx_hal_rcc.c **** 
 716              		.loc 1 464 0
 717 00b8 FFF7FEFF 		bl	HAL_RCC_GetSysClockFreq
 718              	.LVL64:
 719 00bc 7E4B     		ldr	r3, .L138
 720 00be 9B68     		ldr	r3, [r3, #8]
 721 00c0 C3F30313 		ubfx	r3, r3, #4, #4
 722 00c4 7D4A     		ldr	r2, .L138+4
ARM GAS  /var/folders/bq/zy6zjhwd1qn4sn8dk3jpjcq80000gn/T//cc47l0uG.s 			page 44


 723 00c6 D35C     		ldrb	r3, [r2, r3]	@ zero_extendqisi2
 724 00c8 D840     		lsrs	r0, r0, r3
 725 00ca 7D4B     		ldr	r3, .L138+8
 726 00cc 1860     		str	r0, [r3]
 467:Drivers/STM32L4xx_HAL_Driver/Src/stm32l4xx_hal_rcc.c ****       }
 727              		.loc 1 467 0
 728 00ce 0020     		movs	r0, #0
 729 00d0 FFF7FEFF 		bl	HAL_InitTick
 730              	.LVL65:
 731 00d4 3CE0     		b	.L54
 732              	.LVL66:
 733              	.L55:
 473:Drivers/STM32L4xx_HAL_Driver/Src/stm32l4xx_hal_rcc.c ****       {
 734              		.loc 1 473 0
 735 00d6 8369     		ldr	r3, [r0, #24]
 736 00d8 33B3     		cbz	r3, .L61
 476:Drivers/STM32L4xx_HAL_Driver/Src/stm32l4xx_hal_rcc.c **** 
 737              		.loc 1 476 0
 738 00da 774A     		ldr	r2, .L138
 739 00dc 1368     		ldr	r3, [r2]
 740 00de 43F00103 		orr	r3, r3, #1
 741 00e2 1360     		str	r3, [r2]
 479:Drivers/STM32L4xx_HAL_Driver/Src/stm32l4xx_hal_rcc.c **** 
 742              		.loc 1 479 0
 743 00e4 FFF7FEFF 		bl	HAL_GetTick
 744              	.LVL67:
 745 00e8 0546     		mov	r5, r0
 746              	.LVL68:
 482:Drivers/STM32L4xx_HAL_Driver/Src/stm32l4xx_hal_rcc.c ****         {
 747              		.loc 1 482 0
 748 00ea 05E0     		b	.L62
 749              	.LVL69:
 750              	.L63:
 484:Drivers/STM32L4xx_HAL_Driver/Src/stm32l4xx_hal_rcc.c ****           {
 751              		.loc 1 484 0
 752 00ec FFF7FEFF 		bl	HAL_GetTick
 753              	.LVL70:
 754 00f0 401B     		subs	r0, r0, r5
 755 00f2 0228     		cmp	r0, #2
 756 00f4 00F22D82 		bhi	.L118
 757              	.L62:
 482:Drivers/STM32L4xx_HAL_Driver/Src/stm32l4xx_hal_rcc.c ****         {
 758              		.loc 1 482 0
 759 00f8 6F4B     		ldr	r3, .L138
 760 00fa 1B68     		ldr	r3, [r3]
 761 00fc 13F0020F 		tst	r3, #2
 762 0100 F4D0     		beq	.L63
 490:Drivers/STM32L4xx_HAL_Driver/Src/stm32l4xx_hal_rcc.c ****          /* Adjusts the Multiple Speed oscillator (MSI) calibration value.*/
 763              		.loc 1 490 0
 764 0102 6D4B     		ldr	r3, .L138
 765 0104 1A68     		ldr	r2, [r3]
 766 0106 42F00802 		orr	r2, r2, #8
 767 010a 1A60     		str	r2, [r3]
 768 010c 1A68     		ldr	r2, [r3]
 769 010e 22F0F001 		bic	r1, r2, #240
 770 0112 226A     		ldr	r2, [r4, #32]
 771 0114 0A43     		orrs	r2, r2, r1
ARM GAS  /var/folders/bq/zy6zjhwd1qn4sn8dk3jpjcq80000gn/T//cc47l0uG.s 			page 45


 772 0116 1A60     		str	r2, [r3]
 492:Drivers/STM32L4xx_HAL_Driver/Src/stm32l4xx_hal_rcc.c **** 
 773              		.loc 1 492 0
 774 0118 5A68     		ldr	r2, [r3, #4]
 775 011a 22F47F42 		bic	r2, r2, #65280
 776 011e E169     		ldr	r1, [r4, #28]
 777 0120 42EA0122 		orr	r2, r2, r1, lsl #8
 778 0124 5A60     		str	r2, [r3, #4]
 779 0126 13E0     		b	.L54
 780              	.LVL71:
 781              	.L61:
 498:Drivers/STM32L4xx_HAL_Driver/Src/stm32l4xx_hal_rcc.c **** 
 782              		.loc 1 498 0
 783 0128 634A     		ldr	r2, .L138
 784 012a 1368     		ldr	r3, [r2]
 785 012c 23F00103 		bic	r3, r3, #1
 786 0130 1360     		str	r3, [r2]
 501:Drivers/STM32L4xx_HAL_Driver/Src/stm32l4xx_hal_rcc.c **** 
 787              		.loc 1 501 0
 788 0132 FFF7FEFF 		bl	HAL_GetTick
 789              	.LVL72:
 790 0136 0546     		mov	r5, r0
 791              	.LVL73:
 504:Drivers/STM32L4xx_HAL_Driver/Src/stm32l4xx_hal_rcc.c ****         {
 792              		.loc 1 504 0
 793 0138 05E0     		b	.L64
 794              	.LVL74:
 795              	.L65:
 506:Drivers/STM32L4xx_HAL_Driver/Src/stm32l4xx_hal_rcc.c ****           {
 796              		.loc 1 506 0
 797 013a FFF7FEFF 		bl	HAL_GetTick
 798              	.LVL75:
 799 013e 401B     		subs	r0, r0, r5
 800 0140 0228     		cmp	r0, #2
 801 0142 00F20882 		bhi	.L119
 802              	.L64:
 504:Drivers/STM32L4xx_HAL_Driver/Src/stm32l4xx_hal_rcc.c ****         {
 803              		.loc 1 504 0
 804 0146 5C4B     		ldr	r3, .L138
 805 0148 1B68     		ldr	r3, [r3]
 806 014a 13F0020F 		tst	r3, #2
 807 014e F4D1     		bne	.L65
 808              	.LVL76:
 809              	.L54:
 515:Drivers/STM32L4xx_HAL_Driver/Src/stm32l4xx_hal_rcc.c ****   {
 810              		.loc 1 515 0
 811 0150 2368     		ldr	r3, [r4]
 812 0152 13F0010F 		tst	r3, #1
 813 0156 5ED0     		beq	.L66
 521:Drivers/STM32L4xx_HAL_Driver/Src/stm32l4xx_hal_rcc.c ****        ((__HAL_RCC_GET_SYSCLK_SOURCE() == RCC_CFGR_SWS_PLL) && (__HAL_RCC_GET_PLL_OSCSOURCE() == RC
 814              		.loc 1 521 0
 815 0158 574B     		ldr	r3, .L138
 816 015a 9B68     		ldr	r3, [r3, #8]
 817 015c 03F00C03 		and	r3, r3, #12
 818 0160 082B     		cmp	r3, #8
 819 0162 0BD0     		beq	.L67
 522:Drivers/STM32L4xx_HAL_Driver/Src/stm32l4xx_hal_rcc.c ****     {
ARM GAS  /var/folders/bq/zy6zjhwd1qn4sn8dk3jpjcq80000gn/T//cc47l0uG.s 			page 46


 820              		.loc 1 522 0 discriminator 1
 821 0164 544B     		ldr	r3, .L138
 822 0166 9B68     		ldr	r3, [r3, #8]
 823 0168 03F00C03 		and	r3, r3, #12
 521:Drivers/STM32L4xx_HAL_Driver/Src/stm32l4xx_hal_rcc.c ****        ((__HAL_RCC_GET_SYSCLK_SOURCE() == RCC_CFGR_SWS_PLL) && (__HAL_RCC_GET_PLL_OSCSOURCE() == RC
 824              		.loc 1 521 0 discriminator 1
 825 016c 0C2B     		cmp	r3, #12
 826 016e 0ED1     		bne	.L68
 522:Drivers/STM32L4xx_HAL_Driver/Src/stm32l4xx_hal_rcc.c ****     {
 827              		.loc 1 522 0
 828 0170 514B     		ldr	r3, .L138
 829 0172 DB68     		ldr	r3, [r3, #12]
 830 0174 03F00303 		and	r3, r3, #3
 831 0178 032B     		cmp	r3, #3
 832 017a 08D1     		bne	.L68
 833              	.L67:
 524:Drivers/STM32L4xx_HAL_Driver/Src/stm32l4xx_hal_rcc.c ****       {
 834              		.loc 1 524 0
 835 017c 4E4B     		ldr	r3, .L138
 836 017e 1B68     		ldr	r3, [r3]
 837 0180 13F4003F 		tst	r3, #131072
 838 0184 47D0     		beq	.L66
 524:Drivers/STM32L4xx_HAL_Driver/Src/stm32l4xx_hal_rcc.c ****       {
 839              		.loc 1 524 0 is_stmt 0 discriminator 1
 840 0186 6368     		ldr	r3, [r4, #4]
 841 0188 002B     		cmp	r3, #0
 842 018a 44D1     		bne	.L66
 843 018c E5E1     		b	.L120
 844              	.L68:
 532:Drivers/STM32L4xx_HAL_Driver/Src/stm32l4xx_hal_rcc.c **** 
 845              		.loc 1 532 0 is_stmt 1
 846 018e 6368     		ldr	r3, [r4, #4]
 847 0190 B3F5803F 		cmp	r3, #65536
 848 0194 05D1     		bne	.L69
 532:Drivers/STM32L4xx_HAL_Driver/Src/stm32l4xx_hal_rcc.c **** 
 849              		.loc 1 532 0 is_stmt 0 discriminator 1
 850 0196 484A     		ldr	r2, .L138
 851 0198 1368     		ldr	r3, [r2]
 852 019a 43F48033 		orr	r3, r3, #65536
 853 019e 1360     		str	r3, [r2]
 854 01a0 18E0     		b	.L70
 855              	.L69:
 532:Drivers/STM32L4xx_HAL_Driver/Src/stm32l4xx_hal_rcc.c **** 
 856              		.loc 1 532 0 discriminator 2
 857 01a2 B3F5A02F 		cmp	r3, #327680
 858 01a6 0CD1     		bne	.L71
 532:Drivers/STM32L4xx_HAL_Driver/Src/stm32l4xx_hal_rcc.c **** 
 859              		.loc 1 532 0 discriminator 3
 860 01a8 03F18043 		add	r3, r3, #1073741824
 861 01ac A3F53C33 		sub	r3, r3, #192512
 862 01b0 1A68     		ldr	r2, [r3]
 863 01b2 42F48022 		orr	r2, r2, #262144
 864 01b6 1A60     		str	r2, [r3]
 865 01b8 1A68     		ldr	r2, [r3]
 866 01ba 42F48032 		orr	r2, r2, #65536
 867 01be 1A60     		str	r2, [r3]
 868 01c0 08E0     		b	.L70
ARM GAS  /var/folders/bq/zy6zjhwd1qn4sn8dk3jpjcq80000gn/T//cc47l0uG.s 			page 47


 869              	.L71:
 532:Drivers/STM32L4xx_HAL_Driver/Src/stm32l4xx_hal_rcc.c **** 
 870              		.loc 1 532 0 discriminator 4
 871 01c2 3D4B     		ldr	r3, .L138
 872 01c4 1A68     		ldr	r2, [r3]
 873 01c6 22F48032 		bic	r2, r2, #65536
 874 01ca 1A60     		str	r2, [r3]
 875 01cc 1A68     		ldr	r2, [r3]
 876 01ce 22F48022 		bic	r2, r2, #262144
 877 01d2 1A60     		str	r2, [r3]
 878              	.L70:
 535:Drivers/STM32L4xx_HAL_Driver/Src/stm32l4xx_hal_rcc.c ****       {
 879              		.loc 1 535 0 is_stmt 1
 880 01d4 6368     		ldr	r3, [r4, #4]
 881 01d6 7BB1     		cbz	r3, .L72
 538:Drivers/STM32L4xx_HAL_Driver/Src/stm32l4xx_hal_rcc.c **** 
 882              		.loc 1 538 0
 883 01d8 FFF7FEFF 		bl	HAL_GetTick
 884              	.LVL77:
 885 01dc 0546     		mov	r5, r0
 886              	.LVL78:
 541:Drivers/STM32L4xx_HAL_Driver/Src/stm32l4xx_hal_rcc.c ****         {
 887              		.loc 1 541 0
 888 01de 05E0     		b	.L73
 889              	.LVL79:
 890              	.L74:
 543:Drivers/STM32L4xx_HAL_Driver/Src/stm32l4xx_hal_rcc.c ****           {
 891              		.loc 1 543 0
 892 01e0 FFF7FEFF 		bl	HAL_GetTick
 893              	.LVL80:
 894 01e4 401B     		subs	r0, r0, r5
 895 01e6 6428     		cmp	r0, #100
 896 01e8 00F2B981 		bhi	.L121
 897              	.L73:
 541:Drivers/STM32L4xx_HAL_Driver/Src/stm32l4xx_hal_rcc.c ****         {
 898              		.loc 1 541 0
 899 01ec 324B     		ldr	r3, .L138
 900 01ee 1B68     		ldr	r3, [r3]
 901 01f0 13F4003F 		tst	r3, #131072
 902 01f4 F4D0     		beq	.L74
 903 01f6 0EE0     		b	.L66
 904              	.LVL81:
 905              	.L72:
 552:Drivers/STM32L4xx_HAL_Driver/Src/stm32l4xx_hal_rcc.c **** 
 906              		.loc 1 552 0
 907 01f8 FFF7FEFF 		bl	HAL_GetTick
 908              	.LVL82:
 909 01fc 0546     		mov	r5, r0
 910              	.LVL83:
 555:Drivers/STM32L4xx_HAL_Driver/Src/stm32l4xx_hal_rcc.c ****         {
 911              		.loc 1 555 0
 912 01fe 05E0     		b	.L75
 913              	.LVL84:
 914              	.L76:
 557:Drivers/STM32L4xx_HAL_Driver/Src/stm32l4xx_hal_rcc.c ****           {
 915              		.loc 1 557 0
 916 0200 FFF7FEFF 		bl	HAL_GetTick
ARM GAS  /var/folders/bq/zy6zjhwd1qn4sn8dk3jpjcq80000gn/T//cc47l0uG.s 			page 48


 917              	.LVL85:
 918 0204 401B     		subs	r0, r0, r5
 919 0206 6428     		cmp	r0, #100
 920 0208 00F2AB81 		bhi	.L122
 921              	.L75:
 555:Drivers/STM32L4xx_HAL_Driver/Src/stm32l4xx_hal_rcc.c ****         {
 922              		.loc 1 555 0
 923 020c 2A4B     		ldr	r3, .L138
 924 020e 1B68     		ldr	r3, [r3]
 925 0210 13F4003F 		tst	r3, #131072
 926 0214 F4D1     		bne	.L76
 927              	.LVL86:
 928              	.L66:
 566:Drivers/STM32L4xx_HAL_Driver/Src/stm32l4xx_hal_rcc.c ****   {
 929              		.loc 1 566 0
 930 0216 2368     		ldr	r3, [r4]
 931 0218 13F0020F 		tst	r3, #2
 932 021c 5DD0     		beq	.L77
 573:Drivers/STM32L4xx_HAL_Driver/Src/stm32l4xx_hal_rcc.c ****        ((__HAL_RCC_GET_SYSCLK_SOURCE() == RCC_CFGR_SWS_PLL) && (__HAL_RCC_GET_PLL_OSCSOURCE() == RC
 933              		.loc 1 573 0
 934 021e 264B     		ldr	r3, .L138
 935 0220 9B68     		ldr	r3, [r3, #8]
 936 0222 03F00C03 		and	r3, r3, #12
 937 0226 042B     		cmp	r3, #4
 938 0228 0BD0     		beq	.L78
 574:Drivers/STM32L4xx_HAL_Driver/Src/stm32l4xx_hal_rcc.c ****     {
 939              		.loc 1 574 0 discriminator 1
 940 022a 234B     		ldr	r3, .L138
 941 022c 9B68     		ldr	r3, [r3, #8]
 942 022e 03F00C03 		and	r3, r3, #12
 573:Drivers/STM32L4xx_HAL_Driver/Src/stm32l4xx_hal_rcc.c ****        ((__HAL_RCC_GET_SYSCLK_SOURCE() == RCC_CFGR_SWS_PLL) && (__HAL_RCC_GET_PLL_OSCSOURCE() == RC
 943              		.loc 1 573 0 discriminator 1
 944 0232 0C2B     		cmp	r3, #12
 945 0234 17D1     		bne	.L79
 574:Drivers/STM32L4xx_HAL_Driver/Src/stm32l4xx_hal_rcc.c ****     {
 946              		.loc 1 574 0
 947 0236 204B     		ldr	r3, .L138
 948 0238 DB68     		ldr	r3, [r3, #12]
 949 023a 03F00303 		and	r3, r3, #3
 950 023e 022B     		cmp	r3, #2
 951 0240 11D1     		bne	.L79
 952              	.L78:
 577:Drivers/STM32L4xx_HAL_Driver/Src/stm32l4xx_hal_rcc.c ****       {
 953              		.loc 1 577 0
 954 0242 1D4B     		ldr	r3, .L138
 955 0244 1B68     		ldr	r3, [r3]
 956 0246 13F4806F 		tst	r3, #1024
 957 024a 03D0     		beq	.L80
 577:Drivers/STM32L4xx_HAL_Driver/Src/stm32l4xx_hal_rcc.c ****       {
 958              		.loc 1 577 0 is_stmt 0 discriminator 1
 959 024c E368     		ldr	r3, [r4, #12]
 960 024e 002B     		cmp	r3, #0
 961 0250 00F08981 		beq	.L123
 962              	.L80:
 585:Drivers/STM32L4xx_HAL_Driver/Src/stm32l4xx_hal_rcc.c ****       }
 963              		.loc 1 585 0 is_stmt 1
 964 0254 184A     		ldr	r2, .L138
ARM GAS  /var/folders/bq/zy6zjhwd1qn4sn8dk3jpjcq80000gn/T//cc47l0uG.s 			page 49


 965 0256 5368     		ldr	r3, [r2, #4]
 966 0258 23F0F853 		bic	r3, r3, #520093696
 967 025c 2169     		ldr	r1, [r4, #16]
 968 025e 43EA0163 		orr	r3, r3, r1, lsl #24
 969 0262 5360     		str	r3, [r2, #4]
 577:Drivers/STM32L4xx_HAL_Driver/Src/stm32l4xx_hal_rcc.c ****       {
 970              		.loc 1 577 0
 971 0264 39E0     		b	.L77
 972              	.L79:
 591:Drivers/STM32L4xx_HAL_Driver/Src/stm32l4xx_hal_rcc.c ****       {
 973              		.loc 1 591 0
 974 0266 E368     		ldr	r3, [r4, #12]
 975 0268 E3B1     		cbz	r3, .L81
 594:Drivers/STM32L4xx_HAL_Driver/Src/stm32l4xx_hal_rcc.c **** 
 976              		.loc 1 594 0
 977 026a 134A     		ldr	r2, .L138
 978 026c 1368     		ldr	r3, [r2]
 979 026e 43F48073 		orr	r3, r3, #256
 980 0272 1360     		str	r3, [r2]
 597:Drivers/STM32L4xx_HAL_Driver/Src/stm32l4xx_hal_rcc.c **** 
 981              		.loc 1 597 0
 982 0274 FFF7FEFF 		bl	HAL_GetTick
 983              	.LVL87:
 984 0278 0546     		mov	r5, r0
 985              	.LVL88:
 600:Drivers/STM32L4xx_HAL_Driver/Src/stm32l4xx_hal_rcc.c ****         {
 986              		.loc 1 600 0
 987 027a 05E0     		b	.L82
 988              	.LVL89:
 989              	.L83:
 602:Drivers/STM32L4xx_HAL_Driver/Src/stm32l4xx_hal_rcc.c ****           {
 990              		.loc 1 602 0
 991 027c FFF7FEFF 		bl	HAL_GetTick
 992              	.LVL90:
 993 0280 401B     		subs	r0, r0, r5
 994 0282 0228     		cmp	r0, #2
 995 0284 00F27181 		bhi	.L124
 996              	.L82:
 600:Drivers/STM32L4xx_HAL_Driver/Src/stm32l4xx_hal_rcc.c ****         {
 997              		.loc 1 600 0
 998 0288 0B4B     		ldr	r3, .L138
 999 028a 1B68     		ldr	r3, [r3]
 1000 028c 13F4806F 		tst	r3, #1024
 1001 0290 F4D0     		beq	.L83
 609:Drivers/STM32L4xx_HAL_Driver/Src/stm32l4xx_hal_rcc.c ****       }
 1002              		.loc 1 609 0
 1003 0292 094A     		ldr	r2, .L138
 1004 0294 5368     		ldr	r3, [r2, #4]
 1005 0296 23F0F853 		bic	r3, r3, #520093696
 1006 029a 2169     		ldr	r1, [r4, #16]
 1007 029c 43EA0163 		orr	r3, r3, r1, lsl #24
 1008 02a0 5360     		str	r3, [r2, #4]
 1009 02a2 1AE0     		b	.L77
 1010              	.LVL91:
 1011              	.L81:
 614:Drivers/STM32L4xx_HAL_Driver/Src/stm32l4xx_hal_rcc.c **** 
 1012              		.loc 1 614 0
ARM GAS  /var/folders/bq/zy6zjhwd1qn4sn8dk3jpjcq80000gn/T//cc47l0uG.s 			page 50


 1013 02a4 044A     		ldr	r2, .L138
 1014 02a6 1368     		ldr	r3, [r2]
 1015 02a8 23F48073 		bic	r3, r3, #256
 1016 02ac 1360     		str	r3, [r2]
 617:Drivers/STM32L4xx_HAL_Driver/Src/stm32l4xx_hal_rcc.c **** 
 1017              		.loc 1 617 0
 1018 02ae FFF7FEFF 		bl	HAL_GetTick
 1019              	.LVL92:
 1020 02b2 0546     		mov	r5, r0
 1021              	.LVL93:
 620:Drivers/STM32L4xx_HAL_Driver/Src/stm32l4xx_hal_rcc.c ****         {
 1022              		.loc 1 620 0
 1023 02b4 0CE0     		b	.L84
 1024              	.L139:
 1025 02b6 00BF     		.align	2
 1026              	.L138:
 1027 02b8 00100240 		.word	1073876992
 1028 02bc 00000000 		.word	AHBPrescTable
 1029 02c0 00000000 		.word	SystemCoreClock
 1030              	.LVL94:
 1031              	.L85:
 622:Drivers/STM32L4xx_HAL_Driver/Src/stm32l4xx_hal_rcc.c ****           {
 1032              		.loc 1 622 0
 1033 02c4 FFF7FEFF 		bl	HAL_GetTick
 1034              	.LVL95:
 1035 02c8 401B     		subs	r0, r0, r5
 1036 02ca 0228     		cmp	r0, #2
 1037 02cc 00F24F81 		bhi	.L125
 1038              	.L84:
 620:Drivers/STM32L4xx_HAL_Driver/Src/stm32l4xx_hal_rcc.c ****         {
 1039              		.loc 1 620 0
 1040 02d0 B24B     		ldr	r3, .L140
 1041 02d2 1B68     		ldr	r3, [r3]
 1042 02d4 13F4806F 		tst	r3, #1024
 1043 02d8 F4D1     		bne	.L85
 1044              	.LVL96:
 1045              	.L77:
 631:Drivers/STM32L4xx_HAL_Driver/Src/stm32l4xx_hal_rcc.c ****   {
 1046              		.loc 1 631 0
 1047 02da 2368     		ldr	r3, [r4]
 1048 02dc 13F0080F 		tst	r3, #8
 1049 02e0 30D0     		beq	.L86
 637:Drivers/STM32L4xx_HAL_Driver/Src/stm32l4xx_hal_rcc.c ****     {
 1050              		.loc 1 637 0
 1051 02e2 6369     		ldr	r3, [r4, #20]
 1052 02e4 BBB1     		cbz	r3, .L87
 640:Drivers/STM32L4xx_HAL_Driver/Src/stm32l4xx_hal_rcc.c **** 
 1053              		.loc 1 640 0
 1054 02e6 AD4A     		ldr	r2, .L140
 1055 02e8 D2F89430 		ldr	r3, [r2, #148]
 1056 02ec 43F00103 		orr	r3, r3, #1
 1057 02f0 C2F89430 		str	r3, [r2, #148]
 643:Drivers/STM32L4xx_HAL_Driver/Src/stm32l4xx_hal_rcc.c **** 
 1058              		.loc 1 643 0
 1059 02f4 FFF7FEFF 		bl	HAL_GetTick
 1060              	.LVL97:
 1061 02f8 0546     		mov	r5, r0
ARM GAS  /var/folders/bq/zy6zjhwd1qn4sn8dk3jpjcq80000gn/T//cc47l0uG.s 			page 51


 1062              	.LVL98:
 646:Drivers/STM32L4xx_HAL_Driver/Src/stm32l4xx_hal_rcc.c ****       {
 1063              		.loc 1 646 0
 1064 02fa 05E0     		b	.L88
 1065              	.LVL99:
 1066              	.L89:
 648:Drivers/STM32L4xx_HAL_Driver/Src/stm32l4xx_hal_rcc.c ****         {
 1067              		.loc 1 648 0
 1068 02fc FFF7FEFF 		bl	HAL_GetTick
 1069              	.LVL100:
 1070 0300 401B     		subs	r0, r0, r5
 1071 0302 0228     		cmp	r0, #2
 1072 0304 00F23581 		bhi	.L126
 1073              	.L88:
 646:Drivers/STM32L4xx_HAL_Driver/Src/stm32l4xx_hal_rcc.c ****       {
 1074              		.loc 1 646 0
 1075 0308 A44B     		ldr	r3, .L140
 1076 030a D3F89430 		ldr	r3, [r3, #148]
 1077 030e 13F0020F 		tst	r3, #2
 1078 0312 F3D0     		beq	.L89
 1079 0314 16E0     		b	.L86
 1080              	.LVL101:
 1081              	.L87:
 657:Drivers/STM32L4xx_HAL_Driver/Src/stm32l4xx_hal_rcc.c **** 
 1082              		.loc 1 657 0
 1083 0316 A14A     		ldr	r2, .L140
 1084 0318 D2F89430 		ldr	r3, [r2, #148]
 1085 031c 23F00103 		bic	r3, r3, #1
 1086 0320 C2F89430 		str	r3, [r2, #148]
 660:Drivers/STM32L4xx_HAL_Driver/Src/stm32l4xx_hal_rcc.c **** 
 1087              		.loc 1 660 0
 1088 0324 FFF7FEFF 		bl	HAL_GetTick
 1089              	.LVL102:
 1090 0328 0546     		mov	r5, r0
 1091              	.LVL103:
 663:Drivers/STM32L4xx_HAL_Driver/Src/stm32l4xx_hal_rcc.c ****       {
 1092              		.loc 1 663 0
 1093 032a 05E0     		b	.L90
 1094              	.LVL104:
 1095              	.L91:
 665:Drivers/STM32L4xx_HAL_Driver/Src/stm32l4xx_hal_rcc.c ****         {
 1096              		.loc 1 665 0
 1097 032c FFF7FEFF 		bl	HAL_GetTick
 1098              	.LVL105:
 1099 0330 401B     		subs	r0, r0, r5
 1100 0332 0228     		cmp	r0, #2
 1101 0334 00F21F81 		bhi	.L127
 1102              	.L90:
 663:Drivers/STM32L4xx_HAL_Driver/Src/stm32l4xx_hal_rcc.c ****       {
 1103              		.loc 1 663 0
 1104 0338 984B     		ldr	r3, .L140
 1105 033a D3F89430 		ldr	r3, [r3, #148]
 1106 033e 13F0020F 		tst	r3, #2
 1107 0342 F3D1     		bne	.L91
 1108              	.LVL106:
 1109              	.L86:
 673:Drivers/STM32L4xx_HAL_Driver/Src/stm32l4xx_hal_rcc.c ****   {
ARM GAS  /var/folders/bq/zy6zjhwd1qn4sn8dk3jpjcq80000gn/T//cc47l0uG.s 			page 52


 1110              		.loc 1 673 0
 1111 0344 2368     		ldr	r3, [r4]
 1112 0346 13F0040F 		tst	r3, #4
 1113 034a 7FD0     		beq	.L92
 1114              	.LVL107:
 1115              	.LBB4:
 682:Drivers/STM32L4xx_HAL_Driver/Src/stm32l4xx_hal_rcc.c ****     {
 1116              		.loc 1 682 0
 1117 034c 934B     		ldr	r3, .L140
 1118 034e 9B6D     		ldr	r3, [r3, #88]
 1119 0350 13F0805F 		tst	r3, #268435456
 1120 0354 0BD1     		bne	.L128
 1121              	.LBB5:
 684:Drivers/STM32L4xx_HAL_Driver/Src/stm32l4xx_hal_rcc.c ****       pwrclkchanged = SET;
 1122              		.loc 1 684 0
 1123 0356 914B     		ldr	r3, .L140
 1124 0358 9A6D     		ldr	r2, [r3, #88]
 1125 035a 42F08052 		orr	r2, r2, #268435456
 1126 035e 9A65     		str	r2, [r3, #88]
 1127 0360 9B6D     		ldr	r3, [r3, #88]
 1128 0362 03F08053 		and	r3, r3, #268435456
 1129 0366 0193     		str	r3, [sp, #4]
 1130 0368 019B     		ldr	r3, [sp, #4]
 1131              	.LVL108:
 1132              	.LBE5:
 685:Drivers/STM32L4xx_HAL_Driver/Src/stm32l4xx_hal_rcc.c ****     }
 1133              		.loc 1 685 0
 1134 036a 0125     		movs	r5, #1
 1135 036c 00E0     		b	.L93
 1136              	.LVL109:
 1137              	.L128:
 675:Drivers/STM32L4xx_HAL_Driver/Src/stm32l4xx_hal_rcc.c **** 
 1138              		.loc 1 675 0
 1139 036e 0025     		movs	r5, #0
 1140              	.LVL110:
 1141              	.L93:
 688:Drivers/STM32L4xx_HAL_Driver/Src/stm32l4xx_hal_rcc.c ****     {
 1142              		.loc 1 688 0
 1143 0370 8B4B     		ldr	r3, .L140+4
 1144 0372 1B68     		ldr	r3, [r3]
 1145 0374 13F4807F 		tst	r3, #256
 1146 0378 13D1     		bne	.L94
 691:Drivers/STM32L4xx_HAL_Driver/Src/stm32l4xx_hal_rcc.c **** 
 1147              		.loc 1 691 0
 1148 037a 894A     		ldr	r2, .L140+4
 1149 037c 1368     		ldr	r3, [r2]
 1150 037e 43F48073 		orr	r3, r3, #256
 1151 0382 1360     		str	r3, [r2]
 694:Drivers/STM32L4xx_HAL_Driver/Src/stm32l4xx_hal_rcc.c **** 
 1152              		.loc 1 694 0
 1153 0384 FFF7FEFF 		bl	HAL_GetTick
 1154              	.LVL111:
 1155 0388 0646     		mov	r6, r0
 1156              	.LVL112:
 696:Drivers/STM32L4xx_HAL_Driver/Src/stm32l4xx_hal_rcc.c ****       {
 1157              		.loc 1 696 0
 1158 038a 05E0     		b	.L95
ARM GAS  /var/folders/bq/zy6zjhwd1qn4sn8dk3jpjcq80000gn/T//cc47l0uG.s 			page 53


 1159              	.LVL113:
 1160              	.L96:
 698:Drivers/STM32L4xx_HAL_Driver/Src/stm32l4xx_hal_rcc.c ****         {
 1161              		.loc 1 698 0
 1162 038c FFF7FEFF 		bl	HAL_GetTick
 1163              	.LVL114:
 1164 0390 801B     		subs	r0, r0, r6
 1165 0392 0228     		cmp	r0, #2
 1166 0394 00F2F180 		bhi	.L129
 1167              	.L95:
 696:Drivers/STM32L4xx_HAL_Driver/Src/stm32l4xx_hal_rcc.c ****       {
 1168              		.loc 1 696 0
 1169 0398 814B     		ldr	r3, .L140+4
 1170 039a 1B68     		ldr	r3, [r3]
 1171 039c 13F4807F 		tst	r3, #256
 1172 03a0 F4D0     		beq	.L96
 1173              	.LVL115:
 1174              	.L94:
 706:Drivers/STM32L4xx_HAL_Driver/Src/stm32l4xx_hal_rcc.c **** 
 1175              		.loc 1 706 0
 1176 03a2 A368     		ldr	r3, [r4, #8]
 1177 03a4 012B     		cmp	r3, #1
 1178 03a6 07D1     		bne	.L97
 706:Drivers/STM32L4xx_HAL_Driver/Src/stm32l4xx_hal_rcc.c **** 
 1179              		.loc 1 706 0 is_stmt 0 discriminator 1
 1180 03a8 7C4A     		ldr	r2, .L140
 1181 03aa D2F89030 		ldr	r3, [r2, #144]
 1182 03ae 43F00103 		orr	r3, r3, #1
 1183 03b2 C2F89030 		str	r3, [r2, #144]
 1184 03b6 1CE0     		b	.L98
 1185              	.L97:
 706:Drivers/STM32L4xx_HAL_Driver/Src/stm32l4xx_hal_rcc.c **** 
 1186              		.loc 1 706 0 discriminator 2
 1187 03b8 052B     		cmp	r3, #5
 1188 03ba 0DD1     		bne	.L99
 706:Drivers/STM32L4xx_HAL_Driver/Src/stm32l4xx_hal_rcc.c **** 
 1189              		.loc 1 706 0 discriminator 3
 1190 03bc 774B     		ldr	r3, .L140
 1191 03be D3F89020 		ldr	r2, [r3, #144]
 1192 03c2 42F00402 		orr	r2, r2, #4
 1193 03c6 C3F89020 		str	r2, [r3, #144]
 1194 03ca D3F89020 		ldr	r2, [r3, #144]
 1195 03ce 42F00102 		orr	r2, r2, #1
 1196 03d2 C3F89020 		str	r2, [r3, #144]
 1197 03d6 0CE0     		b	.L98
 1198              	.L99:
 706:Drivers/STM32L4xx_HAL_Driver/Src/stm32l4xx_hal_rcc.c **** 
 1199              		.loc 1 706 0 discriminator 4
 1200 03d8 704B     		ldr	r3, .L140
 1201 03da D3F89020 		ldr	r2, [r3, #144]
 1202 03de 22F00102 		bic	r2, r2, #1
 1203 03e2 C3F89020 		str	r2, [r3, #144]
 1204 03e6 D3F89020 		ldr	r2, [r3, #144]
 1205 03ea 22F00402 		bic	r2, r2, #4
 1206 03ee C3F89020 		str	r2, [r3, #144]
 1207              	.L98:
 709:Drivers/STM32L4xx_HAL_Driver/Src/stm32l4xx_hal_rcc.c ****     {
ARM GAS  /var/folders/bq/zy6zjhwd1qn4sn8dk3jpjcq80000gn/T//cc47l0uG.s 			page 54


 1208              		.loc 1 709 0 is_stmt 1
 1209 03f2 A368     		ldr	r3, [r4, #8]
 1210 03f4 93B1     		cbz	r3, .L100
 712:Drivers/STM32L4xx_HAL_Driver/Src/stm32l4xx_hal_rcc.c **** 
 1211              		.loc 1 712 0
 1212 03f6 FFF7FEFF 		bl	HAL_GetTick
 1213              	.LVL116:
 1214 03fa 0646     		mov	r6, r0
 1215              	.LVL117:
 715:Drivers/STM32L4xx_HAL_Driver/Src/stm32l4xx_hal_rcc.c ****       {
 1216              		.loc 1 715 0
 1217 03fc 07E0     		b	.L101
 1218              	.LVL118:
 1219              	.L102:
 717:Drivers/STM32L4xx_HAL_Driver/Src/stm32l4xx_hal_rcc.c ****         {
 1220              		.loc 1 717 0
 1221 03fe FFF7FEFF 		bl	HAL_GetTick
 1222              	.LVL119:
 1223 0402 801B     		subs	r0, r0, r6
 1224 0404 41F28833 		movw	r3, #5000
 1225 0408 9842     		cmp	r0, r3
 1226 040a 00F2B880 		bhi	.L130
 1227              	.L101:
 715:Drivers/STM32L4xx_HAL_Driver/Src/stm32l4xx_hal_rcc.c ****       {
 1228              		.loc 1 715 0
 1229 040e 634B     		ldr	r3, .L140
 1230 0410 D3F89030 		ldr	r3, [r3, #144]
 1231 0414 13F0020F 		tst	r3, #2
 1232 0418 F1D0     		beq	.L102
 1233 041a 11E0     		b	.L103
 1234              	.LVL120:
 1235              	.L100:
 726:Drivers/STM32L4xx_HAL_Driver/Src/stm32l4xx_hal_rcc.c **** 
 1236              		.loc 1 726 0
 1237 041c FFF7FEFF 		bl	HAL_GetTick
 1238              	.LVL121:
 1239 0420 0646     		mov	r6, r0
 1240              	.LVL122:
 729:Drivers/STM32L4xx_HAL_Driver/Src/stm32l4xx_hal_rcc.c ****       {
 1241              		.loc 1 729 0
 1242 0422 07E0     		b	.L104
 1243              	.LVL123:
 1244              	.L105:
 731:Drivers/STM32L4xx_HAL_Driver/Src/stm32l4xx_hal_rcc.c ****         {
 1245              		.loc 1 731 0
 1246 0424 FFF7FEFF 		bl	HAL_GetTick
 1247              	.LVL124:
 1248 0428 801B     		subs	r0, r0, r6
 1249 042a 41F28833 		movw	r3, #5000
 1250 042e 9842     		cmp	r0, r3
 1251 0430 00F2A780 		bhi	.L131
 1252              	.L104:
 729:Drivers/STM32L4xx_HAL_Driver/Src/stm32l4xx_hal_rcc.c ****       {
 1253              		.loc 1 729 0
 1254 0434 594B     		ldr	r3, .L140
 1255 0436 D3F89030 		ldr	r3, [r3, #144]
 1256 043a 13F0020F 		tst	r3, #2
ARM GAS  /var/folders/bq/zy6zjhwd1qn4sn8dk3jpjcq80000gn/T//cc47l0uG.s 			page 55


 1257 043e F1D1     		bne	.L105
 1258              	.L103:
 739:Drivers/STM32L4xx_HAL_Driver/Src/stm32l4xx_hal_rcc.c ****     {
 1259              		.loc 1 739 0
 1260 0440 25B1     		cbz	r5, .L92
 741:Drivers/STM32L4xx_HAL_Driver/Src/stm32l4xx_hal_rcc.c ****     }
 1261              		.loc 1 741 0
 1262 0442 564A     		ldr	r2, .L140
 1263 0444 936D     		ldr	r3, [r2, #88]
 1264 0446 23F08053 		bic	r3, r3, #268435456
 1265 044a 9365     		str	r3, [r2, #88]
 1266              	.LVL125:
 1267              	.L92:
 1268              	.LBE4:
 792:Drivers/STM32L4xx_HAL_Driver/Src/stm32l4xx_hal_rcc.c ****   {
 1269              		.loc 1 792 0
 1270 044c A36A     		ldr	r3, [r4, #40]
 1271 044e 002B     		cmp	r3, #0
 1272 0450 00F09980 		beq	.L132
 795:Drivers/STM32L4xx_HAL_Driver/Src/stm32l4xx_hal_rcc.c ****     {
 1273              		.loc 1 795 0
 1274 0454 514A     		ldr	r2, .L140
 1275 0456 9268     		ldr	r2, [r2, #8]
 1276 0458 02F00C02 		and	r2, r2, #12
 1277 045c 0C2A     		cmp	r2, #12
 1278 045e 00F09480 		beq	.L133
 797:Drivers/STM32L4xx_HAL_Driver/Src/stm32l4xx_hal_rcc.c ****       {
 1279              		.loc 1 797 0
 1280 0462 022B     		cmp	r3, #2
 1281 0464 43D1     		bne	.L106
 808:Drivers/STM32L4xx_HAL_Driver/Src/stm32l4xx_hal_rcc.c **** 
 1282              		.loc 1 808 0
 1283 0466 4D4A     		ldr	r2, .L140
 1284 0468 1368     		ldr	r3, [r2]
 1285 046a 23F08073 		bic	r3, r3, #16777216
 1286 046e 1360     		str	r3, [r2]
 811:Drivers/STM32L4xx_HAL_Driver/Src/stm32l4xx_hal_rcc.c **** 
 1287              		.loc 1 811 0
 1288 0470 FFF7FEFF 		bl	HAL_GetTick
 1289              	.LVL126:
 1290 0474 0546     		mov	r5, r0
 1291              	.LVL127:
 814:Drivers/STM32L4xx_HAL_Driver/Src/stm32l4xx_hal_rcc.c ****         {
 1292              		.loc 1 814 0
 1293 0476 05E0     		b	.L107
 1294              	.LVL128:
 1295              	.L108:
 816:Drivers/STM32L4xx_HAL_Driver/Src/stm32l4xx_hal_rcc.c ****           {
 1296              		.loc 1 816 0
 1297 0478 FFF7FEFF 		bl	HAL_GetTick
 1298              	.LVL129:
 1299 047c 401B     		subs	r0, r0, r5
 1300 047e 0228     		cmp	r0, #2
 1301 0480 00F28580 		bhi	.L134
 1302              	.L107:
 814:Drivers/STM32L4xx_HAL_Driver/Src/stm32l4xx_hal_rcc.c ****         {
 1303              		.loc 1 814 0
ARM GAS  /var/folders/bq/zy6zjhwd1qn4sn8dk3jpjcq80000gn/T//cc47l0uG.s 			page 56


 1304 0484 454B     		ldr	r3, .L140
 1305 0486 1B68     		ldr	r3, [r3]
 1306 0488 13F0007F 		tst	r3, #33554432
 1307 048c F4D1     		bne	.L108
 823:Drivers/STM32L4xx_HAL_Driver/Src/stm32l4xx_hal_rcc.c ****                              RCC_OscInitStruct->PLL.PLLM,
 1308              		.loc 1 823 0
 1309 048e 236B     		ldr	r3, [r4, #48]
 1310 0490 5A1E     		subs	r2, r3, #1
 1311 0492 636B     		ldr	r3, [r4, #52]
 1312 0494 1B02     		lsls	r3, r3, #8
 1313 0496 43EA0213 		orr	r3, r3, r2, lsl #4
 1314 049a A26B     		ldr	r2, [r4, #56]
 1315 049c 1209     		lsrs	r2, r2, #4
 1316 049e 43EA4242 		orr	r2, r3, r2, lsl #17
 1317 04a2 E36A     		ldr	r3, [r4, #44]
 1318 04a4 1343     		orrs	r3, r3, r2
 1319 04a6 E26B     		ldr	r2, [r4, #60]
 1320 04a8 5208     		lsrs	r2, r2, #1
 1321 04aa 013A     		subs	r2, r2, #1
 1322 04ac 43EA4253 		orr	r3, r3, r2, lsl #21
 1323 04b0 226C     		ldr	r2, [r4, #64]
 1324 04b2 5208     		lsrs	r2, r2, #1
 1325 04b4 013A     		subs	r2, r2, #1
 1326 04b6 43EA4263 		orr	r3, r3, r2, lsl #25
 1327 04ba 384A     		ldr	r2, .L140
 1328 04bc D360     		str	r3, [r2, #12]
 831:Drivers/STM32L4xx_HAL_Driver/Src/stm32l4xx_hal_rcc.c **** 
 1329              		.loc 1 831 0
 1330 04be 1368     		ldr	r3, [r2]
 1331 04c0 43F08073 		orr	r3, r3, #16777216
 1332 04c4 1360     		str	r3, [r2]
 834:Drivers/STM32L4xx_HAL_Driver/Src/stm32l4xx_hal_rcc.c **** 
 1333              		.loc 1 834 0
 1334 04c6 D368     		ldr	r3, [r2, #12]
 1335 04c8 43F08073 		orr	r3, r3, #16777216
 1336 04cc D360     		str	r3, [r2, #12]
 837:Drivers/STM32L4xx_HAL_Driver/Src/stm32l4xx_hal_rcc.c **** 
 1337              		.loc 1 837 0
 1338 04ce FFF7FEFF 		bl	HAL_GetTick
 1339              	.LVL130:
 1340 04d2 0446     		mov	r4, r0
 1341              	.LVL131:
 840:Drivers/STM32L4xx_HAL_Driver/Src/stm32l4xx_hal_rcc.c ****         {
 1342              		.loc 1 840 0
 1343 04d4 04E0     		b	.L109
 1344              	.LVL132:
 1345              	.L110:
 842:Drivers/STM32L4xx_HAL_Driver/Src/stm32l4xx_hal_rcc.c ****           {
 1346              		.loc 1 842 0
 1347 04d6 FFF7FEFF 		bl	HAL_GetTick
 1348              	.LVL133:
 1349 04da 001B     		subs	r0, r0, r4
 1350 04dc 0228     		cmp	r0, #2
 1351 04de 58D8     		bhi	.L135
 1352              	.L109:
 840:Drivers/STM32L4xx_HAL_Driver/Src/stm32l4xx_hal_rcc.c ****         {
 1353              		.loc 1 840 0
ARM GAS  /var/folders/bq/zy6zjhwd1qn4sn8dk3jpjcq80000gn/T//cc47l0uG.s 			page 57


 1354 04e0 2E4B     		ldr	r3, .L140
 1355 04e2 1B68     		ldr	r3, [r3]
 1356 04e4 13F0007F 		tst	r3, #33554432
 1357 04e8 F5D0     		beq	.L110
 888:Drivers/STM32L4xx_HAL_Driver/Src/stm32l4xx_hal_rcc.c **** }
 1358              		.loc 1 888 0
 1359 04ea 0020     		movs	r0, #0
 1360 04ec 54E0     		b	.L53
 1361              	.LVL134:
 1362              	.L106:
 851:Drivers/STM32L4xx_HAL_Driver/Src/stm32l4xx_hal_rcc.c **** 
 1363              		.loc 1 851 0
 1364 04ee 2B4B     		ldr	r3, .L140
 1365 04f0 1A68     		ldr	r2, [r3]
 1366 04f2 22F08072 		bic	r2, r2, #16777216
 1367 04f6 1A60     		str	r2, [r3]
 854:Drivers/STM32L4xx_HAL_Driver/Src/stm32l4xx_hal_rcc.c **** #if defined(RCC_PLLSAI2_SUPPORT)
 1368              		.loc 1 854 0
 1369 04f8 1B68     		ldr	r3, [r3]
 1370 04fa 13F0006F 		tst	r3, #134217728
 1371 04fe 09D1     		bne	.L111
 857:Drivers/STM32L4xx_HAL_Driver/Src/stm32l4xx_hal_rcc.c **** #endif /* RCC_PLLSAI2_SUPPORT */
 1372              		.loc 1 857 0
 1373 0500 264B     		ldr	r3, .L140
 1374 0502 1B68     		ldr	r3, [r3]
 856:Drivers/STM32L4xx_HAL_Driver/Src/stm32l4xx_hal_rcc.c ****            (READ_BIT(RCC->CR, RCC_CR_PLLSAI2RDY) == RESET)
 1375              		.loc 1 856 0
 1376 0504 13F0005F 		tst	r3, #536870912
 1377 0508 04D1     		bne	.L111
 861:Drivers/STM32L4xx_HAL_Driver/Src/stm32l4xx_hal_rcc.c ****         }
 1378              		.loc 1 861 0
 1379 050a 244A     		ldr	r2, .L140
 1380 050c D368     		ldr	r3, [r2, #12]
 1381 050e 23F00303 		bic	r3, r3, #3
 1382 0512 D360     		str	r3, [r2, #12]
 1383              	.L111:
 865:Drivers/STM32L4xx_HAL_Driver/Src/stm32l4xx_hal_rcc.c **** #else
 1384              		.loc 1 865 0
 1385 0514 214A     		ldr	r2, .L140
 1386 0516 D368     		ldr	r3, [r2, #12]
 1387 0518 23F08873 		bic	r3, r3, #17825792
 1388 051c 23F48033 		bic	r3, r3, #65536
 1389 0520 D360     		str	r3, [r2, #12]
 871:Drivers/STM32L4xx_HAL_Driver/Src/stm32l4xx_hal_rcc.c **** 
 1390              		.loc 1 871 0
 1391 0522 FFF7FEFF 		bl	HAL_GetTick
 1392              	.LVL135:
 1393 0526 0446     		mov	r4, r0
 1394              	.LVL136:
 874:Drivers/STM32L4xx_HAL_Driver/Src/stm32l4xx_hal_rcc.c ****         {
 1395              		.loc 1 874 0
 1396 0528 04E0     		b	.L112
 1397              	.LVL137:
 1398              	.L113:
 876:Drivers/STM32L4xx_HAL_Driver/Src/stm32l4xx_hal_rcc.c ****           {
 1399              		.loc 1 876 0
 1400 052a FFF7FEFF 		bl	HAL_GetTick
ARM GAS  /var/folders/bq/zy6zjhwd1qn4sn8dk3jpjcq80000gn/T//cc47l0uG.s 			page 58


 1401              	.LVL138:
 1402 052e 001B     		subs	r0, r0, r4
 1403 0530 0228     		cmp	r0, #2
 1404 0532 30D8     		bhi	.L136
 1405              	.L112:
 874:Drivers/STM32L4xx_HAL_Driver/Src/stm32l4xx_hal_rcc.c ****         {
 1406              		.loc 1 874 0
 1407 0534 194B     		ldr	r3, .L140
 1408 0536 1B68     		ldr	r3, [r3]
 1409 0538 13F0007F 		tst	r3, #33554432
 1410 053c F5D1     		bne	.L113
 888:Drivers/STM32L4xx_HAL_Driver/Src/stm32l4xx_hal_rcc.c **** }
 1411              		.loc 1 888 0
 1412 053e 0020     		movs	r0, #0
 1413 0540 2AE0     		b	.L53
 1414              	.LVL139:
 1415              	.L114:
 1416              	.LCFI9:
 1417              		.cfi_def_cfa_offset 0
 1418              		.cfi_restore 4
 1419              		.cfi_restore 5
 1420              		.cfi_restore 6
 1421              		.cfi_restore 14
 407:Drivers/STM32L4xx_HAL_Driver/Src/stm32l4xx_hal_rcc.c ****   }
 1422              		.loc 1 407 0
 1423 0542 0120     		movs	r0, #1
 1424              	.LVL140:
 889:Drivers/STM32L4xx_HAL_Driver/Src/stm32l4xx_hal_rcc.c **** 
 1425              		.loc 1 889 0
 1426 0544 7047     		bx	lr
 1427              	.LVL141:
 1428              	.L115:
 1429              	.LCFI10:
 1430              		.cfi_def_cfa_offset 24
 1431              		.cfi_offset 4, -16
 1432              		.cfi_offset 5, -12
 1433              		.cfi_offset 6, -8
 1434              		.cfi_offset 14, -4
 426:Drivers/STM32L4xx_HAL_Driver/Src/stm32l4xx_hal_rcc.c ****       }
 1435              		.loc 1 426 0
 1436 0546 0120     		movs	r0, #1
 1437              	.LVL142:
 1438 0548 26E0     		b	.L53
 1439              	.L116:
 440:Drivers/STM32L4xx_HAL_Driver/Src/stm32l4xx_hal_rcc.c ****           }
 1440              		.loc 1 440 0
 1441 054a 0120     		movs	r0, #1
 1442 054c 24E0     		b	.L53
 1443              	.L117:
 459:Drivers/STM32L4xx_HAL_Driver/Src/stm32l4xx_hal_rcc.c ****           }
 1444              		.loc 1 459 0
 1445 054e 0120     		movs	r0, #1
 1446 0550 22E0     		b	.L53
 1447              	.LVL143:
 1448              	.L118:
 486:Drivers/STM32L4xx_HAL_Driver/Src/stm32l4xx_hal_rcc.c ****           }
 1449              		.loc 1 486 0
ARM GAS  /var/folders/bq/zy6zjhwd1qn4sn8dk3jpjcq80000gn/T//cc47l0uG.s 			page 59


 1450 0552 0320     		movs	r0, #3
 1451 0554 20E0     		b	.L53
 1452              	.L119:
 508:Drivers/STM32L4xx_HAL_Driver/Src/stm32l4xx_hal_rcc.c ****           }
 1453              		.loc 1 508 0
 1454 0556 0320     		movs	r0, #3
 1455 0558 1EE0     		b	.L53
 1456              	.LVL144:
 1457              	.L120:
 526:Drivers/STM32L4xx_HAL_Driver/Src/stm32l4xx_hal_rcc.c ****       }
 1458              		.loc 1 526 0
 1459 055a 0120     		movs	r0, #1
 1460 055c 1CE0     		b	.L53
 1461              	.LVL145:
 1462              	.L121:
 545:Drivers/STM32L4xx_HAL_Driver/Src/stm32l4xx_hal_rcc.c ****           }
 1463              		.loc 1 545 0
 1464 055e 0320     		movs	r0, #3
 1465 0560 1AE0     		b	.L53
 1466              	.L122:
 559:Drivers/STM32L4xx_HAL_Driver/Src/stm32l4xx_hal_rcc.c ****           }
 1467              		.loc 1 559 0
 1468 0562 0320     		movs	r0, #3
 1469 0564 18E0     		b	.L53
 1470              	.LVL146:
 1471              	.L123:
 579:Drivers/STM32L4xx_HAL_Driver/Src/stm32l4xx_hal_rcc.c ****       }
 1472              		.loc 1 579 0
 1473 0566 0120     		movs	r0, #1
 1474 0568 16E0     		b	.L53
 1475              	.LVL147:
 1476              	.L124:
 604:Drivers/STM32L4xx_HAL_Driver/Src/stm32l4xx_hal_rcc.c ****           }
 1477              		.loc 1 604 0
 1478 056a 0320     		movs	r0, #3
 1479 056c 14E0     		b	.L53
 1480              	.L125:
 624:Drivers/STM32L4xx_HAL_Driver/Src/stm32l4xx_hal_rcc.c ****           }
 1481              		.loc 1 624 0
 1482 056e 0320     		movs	r0, #3
 1483 0570 12E0     		b	.L53
 1484              	.L126:
 650:Drivers/STM32L4xx_HAL_Driver/Src/stm32l4xx_hal_rcc.c ****         }
 1485              		.loc 1 650 0
 1486 0572 0320     		movs	r0, #3
 1487 0574 10E0     		b	.L53
 1488              	.L127:
 667:Drivers/STM32L4xx_HAL_Driver/Src/stm32l4xx_hal_rcc.c ****         }
 1489              		.loc 1 667 0
 1490 0576 0320     		movs	r0, #3
 1491 0578 0EE0     		b	.L53
 1492              	.LVL148:
 1493              	.L129:
 1494              	.LBB6:
 700:Drivers/STM32L4xx_HAL_Driver/Src/stm32l4xx_hal_rcc.c ****         }
 1495              		.loc 1 700 0
 1496 057a 0320     		movs	r0, #3
ARM GAS  /var/folders/bq/zy6zjhwd1qn4sn8dk3jpjcq80000gn/T//cc47l0uG.s 			page 60


 1497 057c 0CE0     		b	.L53
 1498              	.L130:
 719:Drivers/STM32L4xx_HAL_Driver/Src/stm32l4xx_hal_rcc.c ****         }
 1499              		.loc 1 719 0
 1500 057e 0320     		movs	r0, #3
 1501 0580 0AE0     		b	.L53
 1502              	.L131:
 733:Drivers/STM32L4xx_HAL_Driver/Src/stm32l4xx_hal_rcc.c ****         }
 1503              		.loc 1 733 0
 1504 0582 0320     		movs	r0, #3
 1505 0584 08E0     		b	.L53
 1506              	.LVL149:
 1507              	.L132:
 1508              	.LBE6:
 888:Drivers/STM32L4xx_HAL_Driver/Src/stm32l4xx_hal_rcc.c **** }
 1509              		.loc 1 888 0
 1510 0586 0020     		movs	r0, #0
 1511 0588 06E0     		b	.L53
 1512              	.L133:
 885:Drivers/STM32L4xx_HAL_Driver/Src/stm32l4xx_hal_rcc.c ****     }
 1513              		.loc 1 885 0
 1514 058a 0120     		movs	r0, #1
 1515 058c 04E0     		b	.L53
 1516              	.LVL150:
 1517              	.L134:
 818:Drivers/STM32L4xx_HAL_Driver/Src/stm32l4xx_hal_rcc.c ****           }
 1518              		.loc 1 818 0
 1519 058e 0320     		movs	r0, #3
 1520 0590 02E0     		b	.L53
 1521              	.LVL151:
 1522              	.L135:
 844:Drivers/STM32L4xx_HAL_Driver/Src/stm32l4xx_hal_rcc.c ****           }
 1523              		.loc 1 844 0
 1524 0592 0320     		movs	r0, #3
 1525 0594 00E0     		b	.L53
 1526              	.L136:
 878:Drivers/STM32L4xx_HAL_Driver/Src/stm32l4xx_hal_rcc.c ****           }
 1527              		.loc 1 878 0
 1528 0596 0320     		movs	r0, #3
 1529              	.LVL152:
 1530              	.L53:
 889:Drivers/STM32L4xx_HAL_Driver/Src/stm32l4xx_hal_rcc.c **** 
 1531              		.loc 1 889 0
 1532 0598 02B0     		add	sp, sp, #8
 1533              	.LCFI11:
 1534              		.cfi_def_cfa_offset 16
 1535              		@ sp needed
 1536 059a 70BD     		pop	{r4, r5, r6, pc}
 1537              	.L141:
 1538              		.align	2
 1539              	.L140:
 1540 059c 00100240 		.word	1073876992
 1541 05a0 00700040 		.word	1073770496
 1542              		.cfi_endproc
 1543              	.LFE307:
 1545              		.section	.text.HAL_RCC_ClockConfig,"ax",%progbits
 1546              		.align	2
ARM GAS  /var/folders/bq/zy6zjhwd1qn4sn8dk3jpjcq80000gn/T//cc47l0uG.s 			page 61


 1547              		.global	HAL_RCC_ClockConfig
 1548              		.thumb
 1549              		.thumb_func
 1551              	HAL_RCC_ClockConfig:
 1552              	.LFB308:
 942:Drivers/STM32L4xx_HAL_Driver/Src/stm32l4xx_hal_rcc.c ****   uint32_t tickstart;
 1553              		.loc 1 942 0
 1554              		.cfi_startproc
 1555              		@ args = 0, pretend = 0, frame = 0
 1556              		@ frame_needed = 0, uses_anonymous_args = 0
 1557              	.LVL153:
 950:Drivers/STM32L4xx_HAL_Driver/Src/stm32l4xx_hal_rcc.c ****   {
 1558              		.loc 1 950 0
 1559 0000 0028     		cmp	r0, #0
 1560 0002 00F09180 		beq	.L156
 942:Drivers/STM32L4xx_HAL_Driver/Src/stm32l4xx_hal_rcc.c ****   uint32_t tickstart;
 1561              		.loc 1 942 0
 1562 0006 70B5     		push	{r4, r5, r6, lr}
 1563              	.LCFI12:
 1564              		.cfi_def_cfa_offset 16
 1565              		.cfi_offset 4, -16
 1566              		.cfi_offset 5, -12
 1567              		.cfi_offset 6, -8
 1568              		.cfi_offset 14, -4
 1569 0008 0446     		mov	r4, r0
 964:Drivers/STM32L4xx_HAL_Driver/Src/stm32l4xx_hal_rcc.c ****   {
 1570              		.loc 1 964 0
 1571 000a 4F4B     		ldr	r3, .L165
 1572 000c 1B68     		ldr	r3, [r3]
 1573 000e 03F00703 		and	r3, r3, #7
 1574 0012 8B42     		cmp	r3, r1
 1575 0014 0AD2     		bcs	.L144
 967:Drivers/STM32L4xx_HAL_Driver/Src/stm32l4xx_hal_rcc.c **** 
 1576              		.loc 1 967 0
 1577 0016 4C4A     		ldr	r2, .L165
 1578 0018 1368     		ldr	r3, [r2]
 1579 001a 23F00703 		bic	r3, r3, #7
 1580 001e 0B43     		orrs	r3, r3, r1
 1581 0020 1360     		str	r3, [r2]
 971:Drivers/STM32L4xx_HAL_Driver/Src/stm32l4xx_hal_rcc.c ****     {
 1582              		.loc 1 971 0
 1583 0022 1368     		ldr	r3, [r2]
 1584 0024 03F00703 		and	r3, r3, #7
 1585 0028 8B42     		cmp	r3, r1
 1586 002a 7FD1     		bne	.L157
 1587              	.L144:
 1588 002c 0D46     		mov	r5, r1
 978:Drivers/STM32L4xx_HAL_Driver/Src/stm32l4xx_hal_rcc.c ****   {
 1589              		.loc 1 978 0
 1590 002e 2368     		ldr	r3, [r4]
 1591 0030 13F0010F 		tst	r3, #1
 1592 0034 35D0     		beq	.L145
 983:Drivers/STM32L4xx_HAL_Driver/Src/stm32l4xx_hal_rcc.c ****     {
 1593              		.loc 1 983 0
 1594 0036 6368     		ldr	r3, [r4, #4]
 1595 0038 032B     		cmp	r3, #3
 1596 003a 05D1     		bne	.L146
ARM GAS  /var/folders/bq/zy6zjhwd1qn4sn8dk3jpjcq80000gn/T//cc47l0uG.s 			page 62


 986:Drivers/STM32L4xx_HAL_Driver/Src/stm32l4xx_hal_rcc.c ****       {
 1597              		.loc 1 986 0
 1598 003c 434A     		ldr	r2, .L165+4
 1599 003e 1268     		ldr	r2, [r2]
 1600 0040 12F0007F 		tst	r2, #33554432
 1601 0044 14D1     		bne	.L147
 1602 0046 73E0     		b	.L158
 1603              	.L146:
1009:Drivers/STM32L4xx_HAL_Driver/Src/stm32l4xx_hal_rcc.c ****       {
 1604              		.loc 1 1009 0
 1605 0048 022B     		cmp	r3, #2
 1606 004a 05D1     		bne	.L148
1012:Drivers/STM32L4xx_HAL_Driver/Src/stm32l4xx_hal_rcc.c ****         {
 1607              		.loc 1 1012 0
 1608 004c 3F4A     		ldr	r2, .L165+4
 1609 004e 1268     		ldr	r2, [r2]
 1610 0050 12F4003F 		tst	r2, #131072
 1611 0054 0CD1     		bne	.L147
 1612 0056 6DE0     		b	.L159
 1613              	.L148:
1018:Drivers/STM32L4xx_HAL_Driver/Src/stm32l4xx_hal_rcc.c ****       {
 1614              		.loc 1 1018 0
 1615 0058 2BB9     		cbnz	r3, .L149
1021:Drivers/STM32L4xx_HAL_Driver/Src/stm32l4xx_hal_rcc.c ****         {
 1616              		.loc 1 1021 0
 1617 005a 3C4A     		ldr	r2, .L165+4
 1618 005c 1268     		ldr	r2, [r2]
 1619 005e 12F0020F 		tst	r2, #2
 1620 0062 05D1     		bne	.L147
 1621 0064 68E0     		b	.L160
 1622              	.L149:
1030:Drivers/STM32L4xx_HAL_Driver/Src/stm32l4xx_hal_rcc.c ****         {
 1623              		.loc 1 1030 0
 1624 0066 394A     		ldr	r2, .L165+4
 1625 0068 1268     		ldr	r2, [r2]
 1626 006a 12F4806F 		tst	r2, #1024
 1627 006e 65D0     		beq	.L161
 1628              	.L147:
1049:Drivers/STM32L4xx_HAL_Driver/Src/stm32l4xx_hal_rcc.c **** 
 1629              		.loc 1 1049 0
 1630 0070 3649     		ldr	r1, .L165+4
 1631              	.LVL154:
 1632 0072 8A68     		ldr	r2, [r1, #8]
 1633 0074 22F00302 		bic	r2, r2, #3
 1634 0078 1343     		orrs	r3, r3, r2
 1635 007a 8B60     		str	r3, [r1, #8]
1052:Drivers/STM32L4xx_HAL_Driver/Src/stm32l4xx_hal_rcc.c **** 
 1636              		.loc 1 1052 0
 1637 007c FFF7FEFF 		bl	HAL_GetTick
 1638              	.LVL155:
 1639 0080 0646     		mov	r6, r0
 1640              	.LVL156:
1054:Drivers/STM32L4xx_HAL_Driver/Src/stm32l4xx_hal_rcc.c ****     {
 1641              		.loc 1 1054 0
 1642 0082 06E0     		b	.L150
 1643              	.LVL157:
 1644              	.L151:
ARM GAS  /var/folders/bq/zy6zjhwd1qn4sn8dk3jpjcq80000gn/T//cc47l0uG.s 			page 63


1056:Drivers/STM32L4xx_HAL_Driver/Src/stm32l4xx_hal_rcc.c ****       {
 1645              		.loc 1 1056 0
 1646 0084 FFF7FEFF 		bl	HAL_GetTick
 1647              	.LVL158:
 1648 0088 801B     		subs	r0, r0, r6
 1649 008a 41F28833 		movw	r3, #5000
 1650 008e 9842     		cmp	r0, r3
 1651 0090 56D8     		bhi	.L162
 1652              	.L150:
1054:Drivers/STM32L4xx_HAL_Driver/Src/stm32l4xx_hal_rcc.c ****     {
 1653              		.loc 1 1054 0
 1654 0092 2E4B     		ldr	r3, .L165+4
 1655 0094 9B68     		ldr	r3, [r3, #8]
 1656 0096 03F00C03 		and	r3, r3, #12
 1657 009a 6268     		ldr	r2, [r4, #4]
 1658 009c B3EB820F 		cmp	r3, r2, lsl #2
 1659 00a0 F0D1     		bne	.L151
 1660              	.LVL159:
 1661              	.L145:
1064:Drivers/STM32L4xx_HAL_Driver/Src/stm32l4xx_hal_rcc.c ****   {
 1662              		.loc 1 1064 0
 1663 00a2 2368     		ldr	r3, [r4]
 1664 00a4 13F0020F 		tst	r3, #2
 1665 00a8 06D0     		beq	.L152
1067:Drivers/STM32L4xx_HAL_Driver/Src/stm32l4xx_hal_rcc.c ****   }
 1666              		.loc 1 1067 0
 1667 00aa 2849     		ldr	r1, .L165+4
 1668 00ac 8B68     		ldr	r3, [r1, #8]
 1669 00ae 23F0F002 		bic	r2, r3, #240
 1670 00b2 A368     		ldr	r3, [r4, #8]
 1671 00b4 1343     		orrs	r3, r3, r2
 1672 00b6 8B60     		str	r3, [r1, #8]
 1673              	.L152:
1081:Drivers/STM32L4xx_HAL_Driver/Src/stm32l4xx_hal_rcc.c ****   {
 1674              		.loc 1 1081 0
 1675 00b8 234B     		ldr	r3, .L165
 1676 00ba 1B68     		ldr	r3, [r3]
 1677 00bc 03F00703 		and	r3, r3, #7
 1678 00c0 AB42     		cmp	r3, r5
 1679 00c2 0AD9     		bls	.L153
1084:Drivers/STM32L4xx_HAL_Driver/Src/stm32l4xx_hal_rcc.c **** 
 1680              		.loc 1 1084 0
 1681 00c4 204A     		ldr	r2, .L165
 1682 00c6 1368     		ldr	r3, [r2]
 1683 00c8 23F00703 		bic	r3, r3, #7
 1684 00cc 2B43     		orrs	r3, r3, r5
 1685 00ce 1360     		str	r3, [r2]
1088:Drivers/STM32L4xx_HAL_Driver/Src/stm32l4xx_hal_rcc.c ****     {
 1686              		.loc 1 1088 0
 1687 00d0 1368     		ldr	r3, [r2]
 1688 00d2 03F00703 		and	r3, r3, #7
 1689 00d6 AB42     		cmp	r3, r5
 1690 00d8 34D1     		bne	.L163
 1691              	.L153:
1095:Drivers/STM32L4xx_HAL_Driver/Src/stm32l4xx_hal_rcc.c ****   {
 1692              		.loc 1 1095 0
 1693 00da 2368     		ldr	r3, [r4]
ARM GAS  /var/folders/bq/zy6zjhwd1qn4sn8dk3jpjcq80000gn/T//cc47l0uG.s 			page 64


 1694 00dc 13F0040F 		tst	r3, #4
 1695 00e0 06D0     		beq	.L154
1098:Drivers/STM32L4xx_HAL_Driver/Src/stm32l4xx_hal_rcc.c ****   }
 1696              		.loc 1 1098 0
 1697 00e2 1A49     		ldr	r1, .L165+4
 1698 00e4 8B68     		ldr	r3, [r1, #8]
 1699 00e6 23F4E062 		bic	r2, r3, #1792
 1700 00ea E368     		ldr	r3, [r4, #12]
 1701 00ec 1343     		orrs	r3, r3, r2
 1702 00ee 8B60     		str	r3, [r1, #8]
 1703              	.L154:
1102:Drivers/STM32L4xx_HAL_Driver/Src/stm32l4xx_hal_rcc.c ****   {
 1704              		.loc 1 1102 0
 1705 00f0 2368     		ldr	r3, [r4]
 1706 00f2 13F0080F 		tst	r3, #8
 1707 00f6 07D0     		beq	.L155
1105:Drivers/STM32L4xx_HAL_Driver/Src/stm32l4xx_hal_rcc.c ****   }
 1708              		.loc 1 1105 0
 1709 00f8 144A     		ldr	r2, .L165+4
 1710 00fa 9368     		ldr	r3, [r2, #8]
 1711 00fc 23F46053 		bic	r3, r3, #14336
 1712 0100 2169     		ldr	r1, [r4, #16]
 1713 0102 43EAC103 		orr	r3, r3, r1, lsl #3
 1714 0106 9360     		str	r3, [r2, #8]
 1715              	.L155:
1109:Drivers/STM32L4xx_HAL_Driver/Src/stm32l4xx_hal_rcc.c **** 
 1716              		.loc 1 1109 0
 1717 0108 FFF7FEFF 		bl	HAL_RCC_GetSysClockFreq
 1718              	.LVL160:
 1719 010c 0F4B     		ldr	r3, .L165+4
 1720 010e 9B68     		ldr	r3, [r3, #8]
 1721 0110 C3F30313 		ubfx	r3, r3, #4, #4
 1722 0114 0E4A     		ldr	r2, .L165+8
 1723 0116 D35C     		ldrb	r3, [r2, r3]	@ zero_extendqisi2
 1724 0118 D840     		lsrs	r0, r0, r3
 1725 011a 0E4B     		ldr	r3, .L165+12
 1726 011c 1860     		str	r0, [r3]
1112:Drivers/STM32L4xx_HAL_Driver/Src/stm32l4xx_hal_rcc.c **** 
 1727              		.loc 1 1112 0
 1728 011e 0020     		movs	r0, #0
 1729 0120 FFF7FEFF 		bl	HAL_InitTick
 1730              	.LVL161:
1114:Drivers/STM32L4xx_HAL_Driver/Src/stm32l4xx_hal_rcc.c **** }
 1731              		.loc 1 1114 0
 1732 0124 0020     		movs	r0, #0
 1733 0126 70BD     		pop	{r4, r5, r6, pc}
 1734              	.LVL162:
 1735              	.L156:
 1736              	.LCFI13:
 1737              		.cfi_def_cfa_offset 0
 1738              		.cfi_restore 4
 1739              		.cfi_restore 5
 1740              		.cfi_restore 6
 1741              		.cfi_restore 14
 952:Drivers/STM32L4xx_HAL_Driver/Src/stm32l4xx_hal_rcc.c ****   }
 1742              		.loc 1 952 0
 1743 0128 0120     		movs	r0, #1
ARM GAS  /var/folders/bq/zy6zjhwd1qn4sn8dk3jpjcq80000gn/T//cc47l0uG.s 			page 65


 1744              	.LVL163:
1115:Drivers/STM32L4xx_HAL_Driver/Src/stm32l4xx_hal_rcc.c **** 
 1745              		.loc 1 1115 0
 1746 012a 7047     		bx	lr
 1747              	.LVL164:
 1748              	.L157:
 1749              	.LCFI14:
 1750              		.cfi_def_cfa_offset 16
 1751              		.cfi_offset 4, -16
 1752              		.cfi_offset 5, -12
 1753              		.cfi_offset 6, -8
 1754              		.cfi_offset 14, -4
 973:Drivers/STM32L4xx_HAL_Driver/Src/stm32l4xx_hal_rcc.c ****     }
 1755              		.loc 1 973 0
 1756 012c 0120     		movs	r0, #1
 1757              	.LVL165:
 1758 012e 70BD     		pop	{r4, r5, r6, pc}
 1759              	.LVL166:
 1760              	.L158:
 988:Drivers/STM32L4xx_HAL_Driver/Src/stm32l4xx_hal_rcc.c ****       }
 1761              		.loc 1 988 0
 1762 0130 0120     		movs	r0, #1
 1763              	.LVL167:
 1764 0132 70BD     		pop	{r4, r5, r6, pc}
 1765              	.LVL168:
 1766              	.L159:
1014:Drivers/STM32L4xx_HAL_Driver/Src/stm32l4xx_hal_rcc.c ****         }
 1767              		.loc 1 1014 0
 1768 0134 0120     		movs	r0, #1
 1769              	.LVL169:
 1770 0136 70BD     		pop	{r4, r5, r6, pc}
 1771              	.LVL170:
 1772              	.L160:
1023:Drivers/STM32L4xx_HAL_Driver/Src/stm32l4xx_hal_rcc.c ****         }
 1773              		.loc 1 1023 0
 1774 0138 0120     		movs	r0, #1
 1775              	.LVL171:
 1776 013a 70BD     		pop	{r4, r5, r6, pc}
 1777              	.LVL172:
 1778              	.L161:
1032:Drivers/STM32L4xx_HAL_Driver/Src/stm32l4xx_hal_rcc.c ****         }
 1779              		.loc 1 1032 0
 1780 013c 0120     		movs	r0, #1
 1781              	.LVL173:
 1782 013e 70BD     		pop	{r4, r5, r6, pc}
 1783              	.LVL174:
 1784              	.L162:
1058:Drivers/STM32L4xx_HAL_Driver/Src/stm32l4xx_hal_rcc.c ****       }
 1785              		.loc 1 1058 0
 1786 0140 0320     		movs	r0, #3
 1787 0142 70BD     		pop	{r4, r5, r6, pc}
 1788              	.LVL175:
 1789              	.L163:
1090:Drivers/STM32L4xx_HAL_Driver/Src/stm32l4xx_hal_rcc.c ****     }
 1790              		.loc 1 1090 0
 1791 0144 0120     		movs	r0, #1
1115:Drivers/STM32L4xx_HAL_Driver/Src/stm32l4xx_hal_rcc.c **** 
ARM GAS  /var/folders/bq/zy6zjhwd1qn4sn8dk3jpjcq80000gn/T//cc47l0uG.s 			page 66


 1792              		.loc 1 1115 0
 1793 0146 70BD     		pop	{r4, r5, r6, pc}
 1794              	.LVL176:
 1795              	.L166:
 1796              		.align	2
 1797              	.L165:
 1798 0148 00200240 		.word	1073881088
 1799 014c 00100240 		.word	1073876992
 1800 0150 00000000 		.word	AHBPrescTable
 1801 0154 00000000 		.word	SystemCoreClock
 1802              		.cfi_endproc
 1803              	.LFE308:
 1805              		.section	.text.HAL_RCC_GetHCLKFreq,"ax",%progbits
 1806              		.align	2
 1807              		.global	HAL_RCC_GetHCLKFreq
 1808              		.thumb
 1809              		.thumb_func
 1811              	HAL_RCC_GetHCLKFreq:
 1812              	.LFB311:
1306:Drivers/STM32L4xx_HAL_Driver/Src/stm32l4xx_hal_rcc.c ****   return SystemCoreClock;
 1813              		.loc 1 1306 0
 1814              		.cfi_startproc
 1815              		@ args = 0, pretend = 0, frame = 0
 1816              		@ frame_needed = 0, uses_anonymous_args = 0
 1817              		@ link register save eliminated.
1308:Drivers/STM32L4xx_HAL_Driver/Src/stm32l4xx_hal_rcc.c **** 
 1818              		.loc 1 1308 0
 1819 0000 014B     		ldr	r3, .L168
 1820 0002 1868     		ldr	r0, [r3]
 1821 0004 7047     		bx	lr
 1822              	.L169:
 1823 0006 00BF     		.align	2
 1824              	.L168:
 1825 0008 00000000 		.word	SystemCoreClock
 1826              		.cfi_endproc
 1827              	.LFE311:
 1829              		.section	.text.HAL_RCC_GetPCLK1Freq,"ax",%progbits
 1830              		.align	2
 1831              		.global	HAL_RCC_GetPCLK1Freq
 1832              		.thumb
 1833              		.thumb_func
 1835              	HAL_RCC_GetPCLK1Freq:
 1836              	.LFB312:
1317:Drivers/STM32L4xx_HAL_Driver/Src/stm32l4xx_hal_rcc.c ****   /* Get HCLK source and Compute PCLK1 frequency ---------------------------*/
 1837              		.loc 1 1317 0
 1838              		.cfi_startproc
 1839              		@ args = 0, pretend = 0, frame = 0
 1840              		@ frame_needed = 0, uses_anonymous_args = 0
 1841 0000 08B5     		push	{r3, lr}
 1842              	.LCFI15:
 1843              		.cfi_def_cfa_offset 8
 1844              		.cfi_offset 3, -8
 1845              		.cfi_offset 14, -4
1319:Drivers/STM32L4xx_HAL_Driver/Src/stm32l4xx_hal_rcc.c **** }
 1846              		.loc 1 1319 0
 1847 0002 FFF7FEFF 		bl	HAL_RCC_GetHCLKFreq
 1848              	.LVL177:
ARM GAS  /var/folders/bq/zy6zjhwd1qn4sn8dk3jpjcq80000gn/T//cc47l0uG.s 			page 67


 1849 0006 044B     		ldr	r3, .L172
 1850 0008 9B68     		ldr	r3, [r3, #8]
 1851 000a C3F30223 		ubfx	r3, r3, #8, #3
 1852 000e 034A     		ldr	r2, .L172+4
 1853 0010 D35C     		ldrb	r3, [r2, r3]	@ zero_extendqisi2
1320:Drivers/STM32L4xx_HAL_Driver/Src/stm32l4xx_hal_rcc.c **** 
 1854              		.loc 1 1320 0
 1855 0012 D840     		lsrs	r0, r0, r3
 1856 0014 08BD     		pop	{r3, pc}
 1857              	.L173:
 1858 0016 00BF     		.align	2
 1859              	.L172:
 1860 0018 00100240 		.word	1073876992
 1861 001c 00000000 		.word	APBPrescTable
 1862              		.cfi_endproc
 1863              	.LFE312:
 1865              		.section	.text.HAL_RCC_GetPCLK2Freq,"ax",%progbits
 1866              		.align	2
 1867              		.global	HAL_RCC_GetPCLK2Freq
 1868              		.thumb
 1869              		.thumb_func
 1871              	HAL_RCC_GetPCLK2Freq:
 1872              	.LFB313:
1329:Drivers/STM32L4xx_HAL_Driver/Src/stm32l4xx_hal_rcc.c ****   /* Get HCLK source and Compute PCLK2 frequency ---------------------------*/
 1873              		.loc 1 1329 0
 1874              		.cfi_startproc
 1875              		@ args = 0, pretend = 0, frame = 0
 1876              		@ frame_needed = 0, uses_anonymous_args = 0
 1877 0000 08B5     		push	{r3, lr}
 1878              	.LCFI16:
 1879              		.cfi_def_cfa_offset 8
 1880              		.cfi_offset 3, -8
 1881              		.cfi_offset 14, -4
1331:Drivers/STM32L4xx_HAL_Driver/Src/stm32l4xx_hal_rcc.c **** }
 1882              		.loc 1 1331 0
 1883 0002 FFF7FEFF 		bl	HAL_RCC_GetHCLKFreq
 1884              	.LVL178:
 1885 0006 044B     		ldr	r3, .L176
 1886 0008 9B68     		ldr	r3, [r3, #8]
 1887 000a C3F3C223 		ubfx	r3, r3, #11, #3
 1888 000e 034A     		ldr	r2, .L176+4
 1889 0010 D35C     		ldrb	r3, [r2, r3]	@ zero_extendqisi2
1332:Drivers/STM32L4xx_HAL_Driver/Src/stm32l4xx_hal_rcc.c **** 
 1890              		.loc 1 1332 0
 1891 0012 D840     		lsrs	r0, r0, r3
 1892 0014 08BD     		pop	{r3, pc}
 1893              	.L177:
 1894 0016 00BF     		.align	2
 1895              	.L176:
 1896 0018 00100240 		.word	1073876992
 1897 001c 00000000 		.word	APBPrescTable
 1898              		.cfi_endproc
 1899              	.LFE313:
 1901              		.section	.text.HAL_RCC_GetOscConfig,"ax",%progbits
 1902              		.align	2
 1903              		.global	HAL_RCC_GetOscConfig
 1904              		.thumb
ARM GAS  /var/folders/bq/zy6zjhwd1qn4sn8dk3jpjcq80000gn/T//cc47l0uG.s 			page 68


 1905              		.thumb_func
 1907              	HAL_RCC_GetOscConfig:
 1908              	.LFB314:
1342:Drivers/STM32L4xx_HAL_Driver/Src/stm32l4xx_hal_rcc.c ****   /* Check the parameters */
 1909              		.loc 1 1342 0
 1910              		.cfi_startproc
 1911              		@ args = 0, pretend = 0, frame = 0
 1912              		@ frame_needed = 0, uses_anonymous_args = 0
 1913              		@ link register save eliminated.
 1914              	.LVL179:
1351:Drivers/STM32L4xx_HAL_Driver/Src/stm32l4xx_hal_rcc.c ****                                       RCC_OSCILLATORTYPE_LSE | RCC_OSCILLATORTYPE_LSI;
 1915              		.loc 1 1351 0
 1916 0000 1F23     		movs	r3, #31
 1917 0002 0360     		str	r3, [r0]
1356:Drivers/STM32L4xx_HAL_Driver/Src/stm32l4xx_hal_rcc.c ****   {
 1918              		.loc 1 1356 0
 1919 0004 434B     		ldr	r3, .L195
 1920 0006 1B68     		ldr	r3, [r3]
 1921 0008 13F4802F 		tst	r3, #262144
 1922 000c 03D0     		beq	.L179
1358:Drivers/STM32L4xx_HAL_Driver/Src/stm32l4xx_hal_rcc.c ****   }
 1923              		.loc 1 1358 0
 1924 000e 4FF4A023 		mov	r3, #327680
 1925 0012 4360     		str	r3, [r0, #4]
 1926 0014 0AE0     		b	.L180
 1927              	.L179:
1360:Drivers/STM32L4xx_HAL_Driver/Src/stm32l4xx_hal_rcc.c ****   {
 1928              		.loc 1 1360 0
 1929 0016 3F4B     		ldr	r3, .L195
 1930 0018 1B68     		ldr	r3, [r3]
 1931 001a 13F4803F 		tst	r3, #65536
 1932 001e 03D0     		beq	.L181
1362:Drivers/STM32L4xx_HAL_Driver/Src/stm32l4xx_hal_rcc.c ****   }
 1933              		.loc 1 1362 0
 1934 0020 4FF48033 		mov	r3, #65536
 1935 0024 4360     		str	r3, [r0, #4]
 1936 0026 01E0     		b	.L180
 1937              	.L181:
1366:Drivers/STM32L4xx_HAL_Driver/Src/stm32l4xx_hal_rcc.c ****   }
 1938              		.loc 1 1366 0
 1939 0028 0023     		movs	r3, #0
 1940 002a 4360     		str	r3, [r0, #4]
 1941              	.L180:
1370:Drivers/STM32L4xx_HAL_Driver/Src/stm32l4xx_hal_rcc.c ****   {
 1942              		.loc 1 1370 0
 1943 002c 394B     		ldr	r3, .L195
 1944 002e 1B68     		ldr	r3, [r3]
 1945 0030 13F0010F 		tst	r3, #1
 1946 0034 02D0     		beq	.L182
1372:Drivers/STM32L4xx_HAL_Driver/Src/stm32l4xx_hal_rcc.c ****   }
 1947              		.loc 1 1372 0
 1948 0036 0123     		movs	r3, #1
 1949 0038 8361     		str	r3, [r0, #24]
 1950 003a 01E0     		b	.L183
 1951              	.L182:
1376:Drivers/STM32L4xx_HAL_Driver/Src/stm32l4xx_hal_rcc.c ****   }
 1952              		.loc 1 1376 0
ARM GAS  /var/folders/bq/zy6zjhwd1qn4sn8dk3jpjcq80000gn/T//cc47l0uG.s 			page 69


 1953 003c 0023     		movs	r3, #0
 1954 003e 8361     		str	r3, [r0, #24]
 1955              	.L183:
1379:Drivers/STM32L4xx_HAL_Driver/Src/stm32l4xx_hal_rcc.c ****   RCC_OscInitStruct->MSIClockRange = READ_BIT(RCC->CR, RCC_CR_MSIRANGE);
 1956              		.loc 1 1379 0
 1957 0040 344B     		ldr	r3, .L195
 1958 0042 5A68     		ldr	r2, [r3, #4]
 1959 0044 C2F30722 		ubfx	r2, r2, #8, #8
 1960 0048 C261     		str	r2, [r0, #28]
1380:Drivers/STM32L4xx_HAL_Driver/Src/stm32l4xx_hal_rcc.c **** 
 1961              		.loc 1 1380 0
 1962 004a 1A68     		ldr	r2, [r3]
 1963 004c 02F0F002 		and	r2, r2, #240
 1964 0050 0262     		str	r2, [r0, #32]
1383:Drivers/STM32L4xx_HAL_Driver/Src/stm32l4xx_hal_rcc.c ****   {
 1965              		.loc 1 1383 0
 1966 0052 1B68     		ldr	r3, [r3]
 1967 0054 13F4807F 		tst	r3, #256
 1968 0058 03D0     		beq	.L184
1385:Drivers/STM32L4xx_HAL_Driver/Src/stm32l4xx_hal_rcc.c ****   }
 1969              		.loc 1 1385 0
 1970 005a 4FF48073 		mov	r3, #256
 1971 005e C360     		str	r3, [r0, #12]
 1972 0060 01E0     		b	.L185
 1973              	.L184:
1389:Drivers/STM32L4xx_HAL_Driver/Src/stm32l4xx_hal_rcc.c ****   }
 1974              		.loc 1 1389 0
 1975 0062 0023     		movs	r3, #0
 1976 0064 C360     		str	r3, [r0, #12]
 1977              	.L185:
1392:Drivers/STM32L4xx_HAL_Driver/Src/stm32l4xx_hal_rcc.c **** 
 1978              		.loc 1 1392 0
 1979 0066 2B4A     		ldr	r2, .L195
 1980 0068 5368     		ldr	r3, [r2, #4]
 1981 006a C3F30463 		ubfx	r3, r3, #24, #5
 1982 006e 0361     		str	r3, [r0, #16]
1395:Drivers/STM32L4xx_HAL_Driver/Src/stm32l4xx_hal_rcc.c ****   {
 1983              		.loc 1 1395 0
 1984 0070 D2F89030 		ldr	r3, [r2, #144]
 1985 0074 13F0040F 		tst	r3, #4
 1986 0078 02D0     		beq	.L186
1397:Drivers/STM32L4xx_HAL_Driver/Src/stm32l4xx_hal_rcc.c ****   }
 1987              		.loc 1 1397 0
 1988 007a 0523     		movs	r3, #5
 1989 007c 8360     		str	r3, [r0, #8]
 1990 007e 0AE0     		b	.L187
 1991              	.L186:
1399:Drivers/STM32L4xx_HAL_Driver/Src/stm32l4xx_hal_rcc.c ****   {
 1992              		.loc 1 1399 0
 1993 0080 244B     		ldr	r3, .L195
 1994 0082 D3F89030 		ldr	r3, [r3, #144]
 1995 0086 13F0010F 		tst	r3, #1
 1996 008a 02D0     		beq	.L188
1401:Drivers/STM32L4xx_HAL_Driver/Src/stm32l4xx_hal_rcc.c ****   }
 1997              		.loc 1 1401 0
 1998 008c 0123     		movs	r3, #1
 1999 008e 8360     		str	r3, [r0, #8]
ARM GAS  /var/folders/bq/zy6zjhwd1qn4sn8dk3jpjcq80000gn/T//cc47l0uG.s 			page 70


 2000 0090 01E0     		b	.L187
 2001              	.L188:
1405:Drivers/STM32L4xx_HAL_Driver/Src/stm32l4xx_hal_rcc.c ****   }
 2002              		.loc 1 1405 0
 2003 0092 0023     		movs	r3, #0
 2004 0094 8360     		str	r3, [r0, #8]
 2005              	.L187:
1409:Drivers/STM32L4xx_HAL_Driver/Src/stm32l4xx_hal_rcc.c ****   {
 2006              		.loc 1 1409 0
 2007 0096 1F4B     		ldr	r3, .L195
 2008 0098 D3F89430 		ldr	r3, [r3, #148]
 2009 009c 13F0010F 		tst	r3, #1
 2010 00a0 02D0     		beq	.L189
1411:Drivers/STM32L4xx_HAL_Driver/Src/stm32l4xx_hal_rcc.c ****   }
 2011              		.loc 1 1411 0
 2012 00a2 0123     		movs	r3, #1
 2013 00a4 4361     		str	r3, [r0, #20]
 2014 00a6 01E0     		b	.L190
 2015              	.L189:
1415:Drivers/STM32L4xx_HAL_Driver/Src/stm32l4xx_hal_rcc.c ****   }
 2016              		.loc 1 1415 0
 2017 00a8 0023     		movs	r3, #0
 2018 00aa 4361     		str	r3, [r0, #20]
 2019              	.L190:
1429:Drivers/STM32L4xx_HAL_Driver/Src/stm32l4xx_hal_rcc.c **** #endif /* RCC_HSI48_SUPPORT */
 2020              		.loc 1 1429 0
 2021 00ac 0023     		movs	r3, #0
 2022 00ae 4362     		str	r3, [r0, #36]
1433:Drivers/STM32L4xx_HAL_Driver/Src/stm32l4xx_hal_rcc.c ****   {
 2023              		.loc 1 1433 0
 2024 00b0 03F18043 		add	r3, r3, #1073741824
 2025 00b4 03F50433 		add	r3, r3, #135168
 2026 00b8 1B68     		ldr	r3, [r3]
 2027 00ba 13F0807F 		tst	r3, #16777216
 2028 00be 02D0     		beq	.L191
1435:Drivers/STM32L4xx_HAL_Driver/Src/stm32l4xx_hal_rcc.c ****   }
 2029              		.loc 1 1435 0
 2030 00c0 0223     		movs	r3, #2
 2031 00c2 8362     		str	r3, [r0, #40]
 2032 00c4 01E0     		b	.L192
 2033              	.L191:
1439:Drivers/STM32L4xx_HAL_Driver/Src/stm32l4xx_hal_rcc.c ****   }
 2034              		.loc 1 1439 0
 2035 00c6 0123     		movs	r3, #1
 2036 00c8 8362     		str	r3, [r0, #40]
 2037              	.L192:
1441:Drivers/STM32L4xx_HAL_Driver/Src/stm32l4xx_hal_rcc.c ****   RCC_OscInitStruct->PLL.PLLM = (READ_BIT(RCC->PLLCFGR, RCC_PLLCFGR_PLLM) >> RCC_PLLCFGR_PLLM_Pos) 
 2038              		.loc 1 1441 0
 2039 00ca 124A     		ldr	r2, .L195
 2040 00cc D368     		ldr	r3, [r2, #12]
 2041 00ce 03F00303 		and	r3, r3, #3
 2042 00d2 C362     		str	r3, [r0, #44]
1442:Drivers/STM32L4xx_HAL_Driver/Src/stm32l4xx_hal_rcc.c ****   RCC_OscInitStruct->PLL.PLLN = READ_BIT(RCC->PLLCFGR, RCC_PLLCFGR_PLLN) >> RCC_PLLCFGR_PLLN_Pos;
 2043              		.loc 1 1442 0
 2044 00d4 D368     		ldr	r3, [r2, #12]
 2045 00d6 C3F30213 		ubfx	r3, r3, #4, #3
 2046 00da 0133     		adds	r3, r3, #1
ARM GAS  /var/folders/bq/zy6zjhwd1qn4sn8dk3jpjcq80000gn/T//cc47l0uG.s 			page 71


 2047 00dc 0363     		str	r3, [r0, #48]
1443:Drivers/STM32L4xx_HAL_Driver/Src/stm32l4xx_hal_rcc.c ****   RCC_OscInitStruct->PLL.PLLQ = (((READ_BIT(RCC->PLLCFGR, RCC_PLLCFGR_PLLQ) >> RCC_PLLCFGR_PLLQ_Pos
 2048              		.loc 1 1443 0
 2049 00de D368     		ldr	r3, [r2, #12]
 2050 00e0 C3F30623 		ubfx	r3, r3, #8, #7
 2051 00e4 4363     		str	r3, [r0, #52]
1444:Drivers/STM32L4xx_HAL_Driver/Src/stm32l4xx_hal_rcc.c ****   RCC_OscInitStruct->PLL.PLLR = (((READ_BIT(RCC->PLLCFGR, RCC_PLLCFGR_PLLR) >> RCC_PLLCFGR_PLLR_Pos
 2052              		.loc 1 1444 0
 2053 00e6 D368     		ldr	r3, [r2, #12]
 2054 00e8 C3F34153 		ubfx	r3, r3, #21, #2
 2055 00ec 0133     		adds	r3, r3, #1
 2056 00ee 5B00     		lsls	r3, r3, #1
 2057 00f0 C363     		str	r3, [r0, #60]
1445:Drivers/STM32L4xx_HAL_Driver/Src/stm32l4xx_hal_rcc.c **** #if defined(RCC_PLLP_DIV_2_31_SUPPORT)
 2058              		.loc 1 1445 0
 2059 00f2 D368     		ldr	r3, [r2, #12]
 2060 00f4 C3F34163 		ubfx	r3, r3, #25, #2
 2061 00f8 0133     		adds	r3, r3, #1
 2062 00fa 5B00     		lsls	r3, r3, #1
 2063 00fc 0364     		str	r3, [r0, #64]
1449:Drivers/STM32L4xx_HAL_Driver/Src/stm32l4xx_hal_rcc.c ****   {
 2064              		.loc 1 1449 0
 2065 00fe D368     		ldr	r3, [r2, #12]
 2066 0100 13F4003F 		tst	r3, #131072
 2067 0104 02D0     		beq	.L193
1451:Drivers/STM32L4xx_HAL_Driver/Src/stm32l4xx_hal_rcc.c ****   }
 2068              		.loc 1 1451 0
 2069 0106 1123     		movs	r3, #17
 2070 0108 8363     		str	r3, [r0, #56]
 2071 010a 7047     		bx	lr
 2072              	.L193:
1455:Drivers/STM32L4xx_HAL_Driver/Src/stm32l4xx_hal_rcc.c ****   }
 2073              		.loc 1 1455 0
 2074 010c 0723     		movs	r3, #7
 2075 010e 8363     		str	r3, [r0, #56]
 2076 0110 7047     		bx	lr
 2077              	.L196:
 2078 0112 00BF     		.align	2
 2079              	.L195:
 2080 0114 00100240 		.word	1073876992
 2081              		.cfi_endproc
 2082              	.LFE314:
 2084              		.section	.text.HAL_RCC_GetClockConfig,"ax",%progbits
 2085              		.align	2
 2086              		.global	HAL_RCC_GetClockConfig
 2087              		.thumb
 2088              		.thumb_func
 2090              	HAL_RCC_GetClockConfig:
 2091              	.LFB315:
1469:Drivers/STM32L4xx_HAL_Driver/Src/stm32l4xx_hal_rcc.c ****   /* Check the parameters */
 2092              		.loc 1 1469 0
 2093              		.cfi_startproc
 2094              		@ args = 0, pretend = 0, frame = 0
 2095              		@ frame_needed = 0, uses_anonymous_args = 0
 2096              		@ link register save eliminated.
 2097              	.LVL180:
1475:Drivers/STM32L4xx_HAL_Driver/Src/stm32l4xx_hal_rcc.c **** 
ARM GAS  /var/folders/bq/zy6zjhwd1qn4sn8dk3jpjcq80000gn/T//cc47l0uG.s 			page 72


 2098              		.loc 1 1475 0
 2099 0000 0F23     		movs	r3, #15
 2100 0002 0360     		str	r3, [r0]
1478:Drivers/STM32L4xx_HAL_Driver/Src/stm32l4xx_hal_rcc.c **** 
 2101              		.loc 1 1478 0
 2102 0004 0B4B     		ldr	r3, .L198
 2103 0006 9A68     		ldr	r2, [r3, #8]
 2104 0008 02F00302 		and	r2, r2, #3
 2105 000c 4260     		str	r2, [r0, #4]
1481:Drivers/STM32L4xx_HAL_Driver/Src/stm32l4xx_hal_rcc.c **** 
 2106              		.loc 1 1481 0
 2107 000e 9A68     		ldr	r2, [r3, #8]
 2108 0010 02F0F002 		and	r2, r2, #240
 2109 0014 8260     		str	r2, [r0, #8]
1484:Drivers/STM32L4xx_HAL_Driver/Src/stm32l4xx_hal_rcc.c **** 
 2110              		.loc 1 1484 0
 2111 0016 9A68     		ldr	r2, [r3, #8]
 2112 0018 02F4E062 		and	r2, r2, #1792
 2113 001c C260     		str	r2, [r0, #12]
1487:Drivers/STM32L4xx_HAL_Driver/Src/stm32l4xx_hal_rcc.c **** 
 2114              		.loc 1 1487 0
 2115 001e 9B68     		ldr	r3, [r3, #8]
 2116 0020 03F46053 		and	r3, r3, #14336
 2117 0024 DB08     		lsrs	r3, r3, #3
 2118 0026 0361     		str	r3, [r0, #16]
1490:Drivers/STM32L4xx_HAL_Driver/Src/stm32l4xx_hal_rcc.c **** }
 2119              		.loc 1 1490 0
 2120 0028 034B     		ldr	r3, .L198+4
 2121 002a 1B68     		ldr	r3, [r3]
 2122 002c 03F00703 		and	r3, r3, #7
 2123 0030 0B60     		str	r3, [r1]
 2124 0032 7047     		bx	lr
 2125              	.L199:
 2126              		.align	2
 2127              	.L198:
 2128 0034 00100240 		.word	1073876992
 2129 0038 00200240 		.word	1073881088
 2130              		.cfi_endproc
 2131              	.LFE315:
 2133              		.section	.text.HAL_RCC_EnableCSS,"ax",%progbits
 2134              		.align	2
 2135              		.global	HAL_RCC_EnableCSS
 2136              		.thumb
 2137              		.thumb_func
 2139              	HAL_RCC_EnableCSS:
 2140              	.LFB316:
1504:Drivers/STM32L4xx_HAL_Driver/Src/stm32l4xx_hal_rcc.c ****   SET_BIT(RCC->CR, RCC_CR_CSSON) ;
 2141              		.loc 1 1504 0
 2142              		.cfi_startproc
 2143              		@ args = 0, pretend = 0, frame = 0
 2144              		@ frame_needed = 0, uses_anonymous_args = 0
 2145              		@ link register save eliminated.
1505:Drivers/STM32L4xx_HAL_Driver/Src/stm32l4xx_hal_rcc.c **** }
 2146              		.loc 1 1505 0
 2147 0000 024A     		ldr	r2, .L201
 2148 0002 1368     		ldr	r3, [r2]
 2149 0004 43F40023 		orr	r3, r3, #524288
ARM GAS  /var/folders/bq/zy6zjhwd1qn4sn8dk3jpjcq80000gn/T//cc47l0uG.s 			page 73


 2150 0008 1360     		str	r3, [r2]
 2151 000a 7047     		bx	lr
 2152              	.L202:
 2153              		.align	2
 2154              	.L201:
 2155 000c 00100240 		.word	1073876992
 2156              		.cfi_endproc
 2157              	.LFE316:
 2159              		.section	.text.HAL_RCC_CSSCallback,"ax",%progbits
 2160              		.align	2
 2161              		.weak	HAL_RCC_CSSCallback
 2162              		.thumb
 2163              		.thumb_func
 2165              	HAL_RCC_CSSCallback:
 2166              	.LFB318:
1531:Drivers/STM32L4xx_HAL_Driver/Src/stm32l4xx_hal_rcc.c ****   /* NOTE : This function should not be modified, when the callback is needed,
 2167              		.loc 1 1531 0
 2168              		.cfi_startproc
 2169              		@ args = 0, pretend = 0, frame = 0
 2170              		@ frame_needed = 0, uses_anonymous_args = 0
 2171              		@ link register save eliminated.
 2172 0000 7047     		bx	lr
 2173              		.cfi_endproc
 2174              	.LFE318:
 2176 0002 00BF     		.section	.text.HAL_RCC_NMI_IRQHandler,"ax",%progbits
 2177              		.align	2
 2178              		.global	HAL_RCC_NMI_IRQHandler
 2179              		.thumb
 2180              		.thumb_func
 2182              	HAL_RCC_NMI_IRQHandler:
 2183              	.LFB317:
1514:Drivers/STM32L4xx_HAL_Driver/Src/stm32l4xx_hal_rcc.c ****   /* Check RCC CSSF interrupt flag  */
 2184              		.loc 1 1514 0
 2185              		.cfi_startproc
 2186              		@ args = 0, pretend = 0, frame = 0
 2187              		@ frame_needed = 0, uses_anonymous_args = 0
1514:Drivers/STM32L4xx_HAL_Driver/Src/stm32l4xx_hal_rcc.c ****   /* Check RCC CSSF interrupt flag  */
 2188              		.loc 1 1514 0
 2189 0000 08B5     		push	{r3, lr}
 2190              	.LCFI17:
 2191              		.cfi_def_cfa_offset 8
 2192              		.cfi_offset 3, -8
 2193              		.cfi_offset 14, -4
1516:Drivers/STM32L4xx_HAL_Driver/Src/stm32l4xx_hal_rcc.c ****   {
 2194              		.loc 1 1516 0
 2195 0002 064B     		ldr	r3, .L207
 2196 0004 DB69     		ldr	r3, [r3, #28]
 2197 0006 13F4807F 		tst	r3, #256
 2198 000a 05D0     		beq	.L204
1519:Drivers/STM32L4xx_HAL_Driver/Src/stm32l4xx_hal_rcc.c **** 
 2199              		.loc 1 1519 0
 2200 000c FFF7FEFF 		bl	HAL_RCC_CSSCallback
 2201              	.LVL181:
1522:Drivers/STM32L4xx_HAL_Driver/Src/stm32l4xx_hal_rcc.c ****   }
 2202              		.loc 1 1522 0
 2203 0010 4FF48072 		mov	r2, #256
 2204 0014 014B     		ldr	r3, .L207
ARM GAS  /var/folders/bq/zy6zjhwd1qn4sn8dk3jpjcq80000gn/T//cc47l0uG.s 			page 74


 2205 0016 1A62     		str	r2, [r3, #32]
 2206              	.L204:
 2207 0018 08BD     		pop	{r3, pc}
 2208              	.L208:
 2209 001a 00BF     		.align	2
 2210              	.L207:
 2211 001c 00100240 		.word	1073876992
 2212              		.cfi_endproc
 2213              	.LFE317:
 2215              		.text
 2216              	.Letext0:
 2217              		.file 2 "/usr/local/Cellar/gcc-arm-none-eabi-49/20150925/arm-none-eabi/include/machine/_default_ty
 2218              		.file 3 "/usr/local/Cellar/gcc-arm-none-eabi-49/20150925/arm-none-eabi/include/sys/_stdint.h"
 2219              		.file 4 "Drivers/CMSIS/Device/ST/STM32L4xx/Include/stm32l476xx.h"
 2220              		.file 5 "Drivers/CMSIS/Device/ST/STM32L4xx/Include/stm32l4xx.h"
 2221              		.file 6 "Drivers/STM32L4xx_HAL_Driver/Inc/stm32l4xx_hal_def.h"
 2222              		.file 7 "Drivers/STM32L4xx_HAL_Driver/Inc/stm32l4xx_hal_rcc.h"
 2223              		.file 8 "Drivers/STM32L4xx_HAL_Driver/Inc/stm32l4xx_hal_gpio.h"
 2224              		.file 9 "Drivers/CMSIS/Include/core_cm4.h"
 2225              		.file 10 "Drivers/CMSIS/Device/ST/STM32L4xx/Include/system_stm32l4xx.h"
 2226              		.file 11 "Drivers/STM32L4xx_HAL_Driver/Inc/stm32l4xx_hal_pwr_ex.h"
 2227              		.file 12 "Drivers/STM32L4xx_HAL_Driver/Inc/stm32l4xx_hal.h"
ARM GAS  /var/folders/bq/zy6zjhwd1qn4sn8dk3jpjcq80000gn/T//cc47l0uG.s 			page 75


DEFINED SYMBOLS
                            *ABS*:0000000000000000 stm32l4xx_hal_rcc.c
/var/folders/bq/zy6zjhwd1qn4sn8dk3jpjcq80000gn/T//cc47l0uG.s:21     .text.RCC_SetFlashLatencyFromMSIRange:0000000000000000 $t
/var/folders/bq/zy6zjhwd1qn4sn8dk3jpjcq80000gn/T//cc47l0uG.s:25     .text.RCC_SetFlashLatencyFromMSIRange:0000000000000000 RCC_SetFlashLatencyFromMSIRange
/var/folders/bq/zy6zjhwd1qn4sn8dk3jpjcq80000gn/T//cc47l0uG.s:149    .text.RCC_SetFlashLatencyFromMSIRange:0000000000000088 $d
/var/folders/bq/zy6zjhwd1qn4sn8dk3jpjcq80000gn/T//cc47l0uG.s:155    .text.HAL_RCC_DeInit:0000000000000000 $t
/var/folders/bq/zy6zjhwd1qn4sn8dk3jpjcq80000gn/T//cc47l0uG.s:160    .text.HAL_RCC_DeInit:0000000000000000 HAL_RCC_DeInit
/var/folders/bq/zy6zjhwd1qn4sn8dk3jpjcq80000gn/T//cc47l0uG.s:330    .text.HAL_RCC_DeInit:00000000000000e4 $d
/var/folders/bq/zy6zjhwd1qn4sn8dk3jpjcq80000gn/T//cc47l0uG.s:338    .text.HAL_RCC_MCOConfig:0000000000000000 $t
/var/folders/bq/zy6zjhwd1qn4sn8dk3jpjcq80000gn/T//cc47l0uG.s:343    .text.HAL_RCC_MCOConfig:0000000000000000 HAL_RCC_MCOConfig
/var/folders/bq/zy6zjhwd1qn4sn8dk3jpjcq80000gn/T//cc47l0uG.s:410    .text.HAL_RCC_MCOConfig:0000000000000048 $d
/var/folders/bq/zy6zjhwd1qn4sn8dk3jpjcq80000gn/T//cc47l0uG.s:415    .text.HAL_RCC_GetSysClockFreq:0000000000000000 $t
/var/folders/bq/zy6zjhwd1qn4sn8dk3jpjcq80000gn/T//cc47l0uG.s:420    .text.HAL_RCC_GetSysClockFreq:0000000000000000 HAL_RCC_GetSysClockFreq
/var/folders/bq/zy6zjhwd1qn4sn8dk3jpjcq80000gn/T//cc47l0uG.s:594    .text.HAL_RCC_GetSysClockFreq:00000000000000f0 $d
/var/folders/bq/zy6zjhwd1qn4sn8dk3jpjcq80000gn/T//cc47l0uG.s:602    .text.HAL_RCC_OscConfig:0000000000000000 $t
/var/folders/bq/zy6zjhwd1qn4sn8dk3jpjcq80000gn/T//cc47l0uG.s:607    .text.HAL_RCC_OscConfig:0000000000000000 HAL_RCC_OscConfig
/var/folders/bq/zy6zjhwd1qn4sn8dk3jpjcq80000gn/T//cc47l0uG.s:1027   .text.HAL_RCC_OscConfig:00000000000002b8 $d
/var/folders/bq/zy6zjhwd1qn4sn8dk3jpjcq80000gn/T//cc47l0uG.s:1033   .text.HAL_RCC_OscConfig:00000000000002c4 $t
/var/folders/bq/zy6zjhwd1qn4sn8dk3jpjcq80000gn/T//cc47l0uG.s:1540   .text.HAL_RCC_OscConfig:000000000000059c $d
/var/folders/bq/zy6zjhwd1qn4sn8dk3jpjcq80000gn/T//cc47l0uG.s:1546   .text.HAL_RCC_ClockConfig:0000000000000000 $t
/var/folders/bq/zy6zjhwd1qn4sn8dk3jpjcq80000gn/T//cc47l0uG.s:1551   .text.HAL_RCC_ClockConfig:0000000000000000 HAL_RCC_ClockConfig
/var/folders/bq/zy6zjhwd1qn4sn8dk3jpjcq80000gn/T//cc47l0uG.s:1798   .text.HAL_RCC_ClockConfig:0000000000000148 $d
/var/folders/bq/zy6zjhwd1qn4sn8dk3jpjcq80000gn/T//cc47l0uG.s:1806   .text.HAL_RCC_GetHCLKFreq:0000000000000000 $t
/var/folders/bq/zy6zjhwd1qn4sn8dk3jpjcq80000gn/T//cc47l0uG.s:1811   .text.HAL_RCC_GetHCLKFreq:0000000000000000 HAL_RCC_GetHCLKFreq
/var/folders/bq/zy6zjhwd1qn4sn8dk3jpjcq80000gn/T//cc47l0uG.s:1825   .text.HAL_RCC_GetHCLKFreq:0000000000000008 $d
/var/folders/bq/zy6zjhwd1qn4sn8dk3jpjcq80000gn/T//cc47l0uG.s:1830   .text.HAL_RCC_GetPCLK1Freq:0000000000000000 $t
/var/folders/bq/zy6zjhwd1qn4sn8dk3jpjcq80000gn/T//cc47l0uG.s:1835   .text.HAL_RCC_GetPCLK1Freq:0000000000000000 HAL_RCC_GetPCLK1Freq
/var/folders/bq/zy6zjhwd1qn4sn8dk3jpjcq80000gn/T//cc47l0uG.s:1860   .text.HAL_RCC_GetPCLK1Freq:0000000000000018 $d
/var/folders/bq/zy6zjhwd1qn4sn8dk3jpjcq80000gn/T//cc47l0uG.s:1866   .text.HAL_RCC_GetPCLK2Freq:0000000000000000 $t
/var/folders/bq/zy6zjhwd1qn4sn8dk3jpjcq80000gn/T//cc47l0uG.s:1871   .text.HAL_RCC_GetPCLK2Freq:0000000000000000 HAL_RCC_GetPCLK2Freq
/var/folders/bq/zy6zjhwd1qn4sn8dk3jpjcq80000gn/T//cc47l0uG.s:1896   .text.HAL_RCC_GetPCLK2Freq:0000000000000018 $d
/var/folders/bq/zy6zjhwd1qn4sn8dk3jpjcq80000gn/T//cc47l0uG.s:1902   .text.HAL_RCC_GetOscConfig:0000000000000000 $t
/var/folders/bq/zy6zjhwd1qn4sn8dk3jpjcq80000gn/T//cc47l0uG.s:1907   .text.HAL_RCC_GetOscConfig:0000000000000000 HAL_RCC_GetOscConfig
/var/folders/bq/zy6zjhwd1qn4sn8dk3jpjcq80000gn/T//cc47l0uG.s:2080   .text.HAL_RCC_GetOscConfig:0000000000000114 $d
/var/folders/bq/zy6zjhwd1qn4sn8dk3jpjcq80000gn/T//cc47l0uG.s:2085   .text.HAL_RCC_GetClockConfig:0000000000000000 $t
/var/folders/bq/zy6zjhwd1qn4sn8dk3jpjcq80000gn/T//cc47l0uG.s:2090   .text.HAL_RCC_GetClockConfig:0000000000000000 HAL_RCC_GetClockConfig
/var/folders/bq/zy6zjhwd1qn4sn8dk3jpjcq80000gn/T//cc47l0uG.s:2128   .text.HAL_RCC_GetClockConfig:0000000000000034 $d
/var/folders/bq/zy6zjhwd1qn4sn8dk3jpjcq80000gn/T//cc47l0uG.s:2134   .text.HAL_RCC_EnableCSS:0000000000000000 $t
/var/folders/bq/zy6zjhwd1qn4sn8dk3jpjcq80000gn/T//cc47l0uG.s:2139   .text.HAL_RCC_EnableCSS:0000000000000000 HAL_RCC_EnableCSS
/var/folders/bq/zy6zjhwd1qn4sn8dk3jpjcq80000gn/T//cc47l0uG.s:2155   .text.HAL_RCC_EnableCSS:000000000000000c $d
/var/folders/bq/zy6zjhwd1qn4sn8dk3jpjcq80000gn/T//cc47l0uG.s:2160   .text.HAL_RCC_CSSCallback:0000000000000000 $t
/var/folders/bq/zy6zjhwd1qn4sn8dk3jpjcq80000gn/T//cc47l0uG.s:2165   .text.HAL_RCC_CSSCallback:0000000000000000 HAL_RCC_CSSCallback
/var/folders/bq/zy6zjhwd1qn4sn8dk3jpjcq80000gn/T//cc47l0uG.s:2177   .text.HAL_RCC_NMI_IRQHandler:0000000000000000 $t
/var/folders/bq/zy6zjhwd1qn4sn8dk3jpjcq80000gn/T//cc47l0uG.s:2182   .text.HAL_RCC_NMI_IRQHandler:0000000000000000 HAL_RCC_NMI_IRQHandler
/var/folders/bq/zy6zjhwd1qn4sn8dk3jpjcq80000gn/T//cc47l0uG.s:2211   .text.HAL_RCC_NMI_IRQHandler:000000000000001c $d
                     .debug_frame:0000000000000010 $d

UNDEFINED SYMBOLS
HAL_PWREx_GetVoltageRange
HAL_GetTick
HAL_InitTick
SystemCoreClock
HAL_GPIO_Init
MSIRangeTable
AHBPrescTable
APBPrescTable
