ARM GAS  /var/folders/bq/zy6zjhwd1qn4sn8dk3jpjcq80000gn/T//ccL3KoZ6.s 			page 1


   1              		.syntax unified
   2              		.cpu cortex-m4
   3              		.eabi_attribute 27, 1
   4              		.eabi_attribute 28, 1
   5              		.fpu fpv4-sp-d16
   6              		.eabi_attribute 20, 1
   7              		.eabi_attribute 21, 1
   8              		.eabi_attribute 23, 3
   9              		.eabi_attribute 24, 1
  10              		.eabi_attribute 25, 1
  11              		.eabi_attribute 26, 1
  12              		.eabi_attribute 30, 1
  13              		.eabi_attribute 34, 1
  14              		.eabi_attribute 18, 4
  15              		.thumb
  16              		.file	"tim.c"
  17              		.text
  18              	.Ltext0:
  19              		.cfi_sections	.debug_frame
  20              		.section	.text.MX_TIM4_Init,"ax",%progbits
  21              		.align	2
  22              		.global	MX_TIM4_Init
  23              		.thumb
  24              		.thumb_func
  26              	MX_TIM4_Init:
  27              	.LFB306:
  28              		.file 1 "Src/tim.c"
   1:Src/tim.c     **** /**
   2:Src/tim.c     ****   ******************************************************************************
   3:Src/tim.c     ****   * File Name          : TIM.c
   4:Src/tim.c     ****   * Description        : This file provides code for the configuration
   5:Src/tim.c     ****   *                      of the TIM instances.
   6:Src/tim.c     ****   ******************************************************************************
   7:Src/tim.c     ****   ** This notice applies to any and all portions of this file
   8:Src/tim.c     ****   * that are not between comment pairs USER CODE BEGIN and
   9:Src/tim.c     ****   * USER CODE END. Other portions of this file, whether
  10:Src/tim.c     ****   * inserted by the user or by software development tools
  11:Src/tim.c     ****   * are owned by their respective copyright owners.
  12:Src/tim.c     ****   *
  13:Src/tim.c     ****   * COPYRIGHT(c) 2018 STMicroelectronics
  14:Src/tim.c     ****   *
  15:Src/tim.c     ****   * Redistribution and use in source and binary forms, with or without modification,
  16:Src/tim.c     ****   * are permitted provided that the following conditions are met:
  17:Src/tim.c     ****   *   1. Redistributions of source code must retain the above copyright notice,
  18:Src/tim.c     ****   *      this list of conditions and the following disclaimer.
  19:Src/tim.c     ****   *   2. Redistributions in binary form must reproduce the above copyright notice,
  20:Src/tim.c     ****   *      this list of conditions and the following disclaimer in the documentation
  21:Src/tim.c     ****   *      and/or other materials provided with the distribution.
  22:Src/tim.c     ****   *   3. Neither the name of STMicroelectronics nor the names of its contributors
  23:Src/tim.c     ****   *      may be used to endorse or promote products derived from this software
  24:Src/tim.c     ****   *      without specific prior written permission.
  25:Src/tim.c     ****   *
  26:Src/tim.c     ****   * THIS SOFTWARE IS PROVIDED BY THE COPYRIGHT HOLDERS AND CONTRIBUTORS "AS IS"
  27:Src/tim.c     ****   * AND ANY EXPRESS OR IMPLIED WARRANTIES, INCLUDING, BUT NOT LIMITED TO, THE
  28:Src/tim.c     ****   * IMPLIED WARRANTIES OF MERCHANTABILITY AND FITNESS FOR A PARTICULAR PURPOSE ARE
  29:Src/tim.c     ****   * DISCLAIMED. IN NO EVENT SHALL THE COPYRIGHT HOLDER OR CONTRIBUTORS BE LIABLE
  30:Src/tim.c     ****   * FOR ANY DIRECT, INDIRECT, INCIDENTAL, SPECIAL, EXEMPLARY, OR CONSEQUENTIAL
ARM GAS  /var/folders/bq/zy6zjhwd1qn4sn8dk3jpjcq80000gn/T//ccL3KoZ6.s 			page 2


  31:Src/tim.c     ****   * DAMAGES (INCLUDING, BUT NOT LIMITED TO, PROCUREMENT OF SUBSTITUTE GOODS OR
  32:Src/tim.c     ****   * SERVICES; LOSS OF USE, DATA, OR PROFITS; OR BUSINESS INTERRUPTION) HOWEVER
  33:Src/tim.c     ****   * CAUSED AND ON ANY THEORY OF LIABILITY, WHETHER IN CONTRACT, STRICT LIABILITY,
  34:Src/tim.c     ****   * OR TORT (INCLUDING NEGLIGENCE OR OTHERWISE) ARISING IN ANY WAY OUT OF THE USE
  35:Src/tim.c     ****   * OF THIS SOFTWARE, EVEN IF ADVISED OF THE POSSIBILITY OF SUCH DAMAGE.
  36:Src/tim.c     ****   *
  37:Src/tim.c     ****   ******************************************************************************
  38:Src/tim.c     ****   */
  39:Src/tim.c     **** 
  40:Src/tim.c     **** /* Includes ------------------------------------------------------------------*/
  41:Src/tim.c     **** #include "tim.h"
  42:Src/tim.c     **** 
  43:Src/tim.c     **** /* USER CODE BEGIN 0 */
  44:Src/tim.c     **** 
  45:Src/tim.c     **** /* USER CODE END 0 */
  46:Src/tim.c     **** 
  47:Src/tim.c     **** TIM_HandleTypeDef htim4;
  48:Src/tim.c     **** 
  49:Src/tim.c     **** /* TIM4 init function */
  50:Src/tim.c     **** void MX_TIM4_Init(void)
  51:Src/tim.c     **** {
  29              		.loc 1 51 0
  30              		.cfi_startproc
  31              		@ args = 0, pretend = 0, frame = 16
  32              		@ frame_needed = 0, uses_anonymous_args = 0
  33 0000 00B5     		push	{lr}
  34              	.LCFI0:
  35              		.cfi_def_cfa_offset 4
  36              		.cfi_offset 14, -4
  37 0002 85B0     		sub	sp, sp, #20
  38              	.LCFI1:
  39              		.cfi_def_cfa_offset 24
  52:Src/tim.c     ****   TIM_MasterConfigTypeDef sMasterConfig;
  53:Src/tim.c     ****   TIM_OC_InitTypeDef sConfigOC;
  54:Src/tim.c     **** 
  55:Src/tim.c     ****   htim4.Instance = TIM4;
  40              		.loc 1 55 0
  41 0004 1048     		ldr	r0, .L5
  42 0006 114B     		ldr	r3, .L5+4
  43 0008 0360     		str	r3, [r0]
  56:Src/tim.c     ****   htim4.Init.Prescaler = 0;
  44              		.loc 1 56 0
  45 000a 0023     		movs	r3, #0
  46 000c 4360     		str	r3, [r0, #4]
  57:Src/tim.c     ****   htim4.Init.CounterMode = TIM_COUNTERMODE_UP;
  47              		.loc 1 57 0
  48 000e 8360     		str	r3, [r0, #8]
  58:Src/tim.c     ****   htim4.Init.Period = 8000;
  49              		.loc 1 58 0
  50 0010 4FF4FA52 		mov	r2, #8000
  51 0014 C260     		str	r2, [r0, #12]
  59:Src/tim.c     ****   htim4.Init.ClockDivision = TIM_CLOCKDIVISION_DIV1;
  52              		.loc 1 59 0
  53 0016 0361     		str	r3, [r0, #16]
  60:Src/tim.c     ****   if (HAL_TIM_OC_Init(&htim4) != HAL_OK)
  54              		.loc 1 60 0
  55 0018 FFF7FEFF 		bl	HAL_TIM_OC_Init
ARM GAS  /var/folders/bq/zy6zjhwd1qn4sn8dk3jpjcq80000gn/T//ccL3KoZ6.s 			page 3


  56              	.LVL0:
  57 001c 18B1     		cbz	r0, .L2
  61:Src/tim.c     ****   {
  62:Src/tim.c     ****     _Error_Handler(__FILE__, __LINE__);
  58              		.loc 1 62 0
  59 001e 0C48     		ldr	r0, .L5+8
  60 0020 3E21     		movs	r1, #62
  61 0022 FFF7FEFF 		bl	_Error_Handler
  62              	.LVL1:
  63              	.L2:
  63:Src/tim.c     ****   }
  64:Src/tim.c     **** 
  65:Src/tim.c     ****   sMasterConfig.MasterOutputTrigger = TIM_TRGO_UPDATE;
  64              		.loc 1 65 0
  65 0026 2023     		movs	r3, #32
  66 0028 0193     		str	r3, [sp, #4]
  66:Src/tim.c     ****   sMasterConfig.MasterSlaveMode = TIM_MASTERSLAVEMODE_DISABLE;
  67              		.loc 1 66 0
  68 002a 0023     		movs	r3, #0
  69 002c 0393     		str	r3, [sp, #12]
  67:Src/tim.c     ****   if (HAL_TIMEx_MasterConfigSynchronization(&htim4, &sMasterConfig) != HAL_OK)
  70              		.loc 1 67 0
  71 002e 0648     		ldr	r0, .L5
  72 0030 01A9     		add	r1, sp, #4
  73 0032 FFF7FEFF 		bl	HAL_TIMEx_MasterConfigSynchronization
  74              	.LVL2:
  75 0036 18B1     		cbz	r0, .L1
  68:Src/tim.c     ****   {
  69:Src/tim.c     ****     _Error_Handler(__FILE__, __LINE__);
  76              		.loc 1 69 0
  77 0038 0548     		ldr	r0, .L5+8
  78 003a 4521     		movs	r1, #69
  79 003c FFF7FEFF 		bl	_Error_Handler
  80              	.LVL3:
  81              	.L1:
  70:Src/tim.c     ****   }
  71:Src/tim.c     **** 
  72:Src/tim.c     **** 
  73:Src/tim.c     **** }
  82              		.loc 1 73 0
  83 0040 05B0     		add	sp, sp, #20
  84              	.LCFI2:
  85              		.cfi_def_cfa_offset 4
  86              		@ sp needed
  87 0042 5DF804FB 		ldr	pc, [sp], #4
  88              	.L6:
  89 0046 00BF     		.align	2
  90              	.L5:
  91 0048 00000000 		.word	htim4
  92 004c 00080040 		.word	1073743872
  93 0050 00000000 		.word	.LC0
  94              		.cfi_endproc
  95              	.LFE306:
  97              		.section	.text.HAL_TIM_OC_MspInit,"ax",%progbits
  98              		.align	2
  99              		.global	HAL_TIM_OC_MspInit
 100              		.thumb
ARM GAS  /var/folders/bq/zy6zjhwd1qn4sn8dk3jpjcq80000gn/T//ccL3KoZ6.s 			page 4


 101              		.thumb_func
 103              	HAL_TIM_OC_MspInit:
 104              	.LFB307:
  74:Src/tim.c     **** 
  75:Src/tim.c     **** void HAL_TIM_OC_MspInit(TIM_HandleTypeDef* tim_ocHandle)
  76:Src/tim.c     **** {
 105              		.loc 1 76 0
 106              		.cfi_startproc
 107              		@ args = 0, pretend = 0, frame = 8
 108              		@ frame_needed = 0, uses_anonymous_args = 0
 109              		@ link register save eliminated.
 110              	.LVL4:
  77:Src/tim.c     **** 
  78:Src/tim.c     ****   if(tim_ocHandle->Instance==TIM4)
 111              		.loc 1 78 0
 112 0000 0268     		ldr	r2, [r0]
 113 0002 084B     		ldr	r3, .L12
 114 0004 9A42     		cmp	r2, r3
 115 0006 0CD1     		bne	.L11
  76:Src/tim.c     **** 
 116              		.loc 1 76 0
 117 0008 82B0     		sub	sp, sp, #8
 118              	.LCFI3:
 119              		.cfi_def_cfa_offset 8
 120              	.LBB2:
  79:Src/tim.c     ****   {
  80:Src/tim.c     ****   /* USER CODE BEGIN TIM4_MspInit 0 */
  81:Src/tim.c     **** 
  82:Src/tim.c     ****   /* USER CODE END TIM4_MspInit 0 */
  83:Src/tim.c     ****     /* TIM4 clock enable */
  84:Src/tim.c     ****     __HAL_RCC_TIM4_CLK_ENABLE();
 121              		.loc 1 84 0
 122 000a 03F50233 		add	r3, r3, #133120
 123 000e 9A6D     		ldr	r2, [r3, #88]
 124 0010 42F00402 		orr	r2, r2, #4
 125 0014 9A65     		str	r2, [r3, #88]
 126 0016 9B6D     		ldr	r3, [r3, #88]
 127 0018 03F00403 		and	r3, r3, #4
 128 001c 0193     		str	r3, [sp, #4]
 129 001e 019B     		ldr	r3, [sp, #4]
 130              	.LBE2:
  85:Src/tim.c     ****   /* USER CODE BEGIN TIM4_MspInit 1 */
  86:Src/tim.c     **** 
  87:Src/tim.c     ****   /* USER CODE END TIM4_MspInit 1 */
  88:Src/tim.c     ****   }
  89:Src/tim.c     **** }
 131              		.loc 1 89 0
 132 0020 02B0     		add	sp, sp, #8
 133              	.LCFI4:
 134              		.cfi_def_cfa_offset 0
 135              		@ sp needed
 136              	.L11:
 137 0022 7047     		bx	lr
 138              	.L13:
 139              		.align	2
 140              	.L12:
 141 0024 00080040 		.word	1073743872
ARM GAS  /var/folders/bq/zy6zjhwd1qn4sn8dk3jpjcq80000gn/T//ccL3KoZ6.s 			page 5


 142              		.cfi_endproc
 143              	.LFE307:
 145              		.section	.text.HAL_TIM_OC_MspDeInit,"ax",%progbits
 146              		.align	2
 147              		.global	HAL_TIM_OC_MspDeInit
 148              		.thumb
 149              		.thumb_func
 151              	HAL_TIM_OC_MspDeInit:
 152              	.LFB308:
  90:Src/tim.c     **** 
  91:Src/tim.c     **** void HAL_TIM_OC_MspDeInit(TIM_HandleTypeDef* tim_ocHandle)
  92:Src/tim.c     **** {
 153              		.loc 1 92 0
 154              		.cfi_startproc
 155              		@ args = 0, pretend = 0, frame = 0
 156              		@ frame_needed = 0, uses_anonymous_args = 0
 157              		@ link register save eliminated.
 158              	.LVL5:
  93:Src/tim.c     **** 
  94:Src/tim.c     ****   if(tim_ocHandle->Instance==TIM4)
 159              		.loc 1 94 0
 160 0000 0268     		ldr	r2, [r0]
 161 0002 044B     		ldr	r3, .L16
 162 0004 9A42     		cmp	r2, r3
 163 0006 04D1     		bne	.L14
  95:Src/tim.c     ****   {
  96:Src/tim.c     ****   /* USER CODE BEGIN TIM4_MspDeInit 0 */
  97:Src/tim.c     **** 
  98:Src/tim.c     ****   /* USER CODE END TIM4_MspDeInit 0 */
  99:Src/tim.c     ****     /* Peripheral clock disable */
 100:Src/tim.c     ****     __HAL_RCC_TIM4_CLK_DISABLE();
 164              		.loc 1 100 0
 165 0008 034A     		ldr	r2, .L16+4
 166 000a 936D     		ldr	r3, [r2, #88]
 167 000c 23F00403 		bic	r3, r3, #4
 168 0010 9365     		str	r3, [r2, #88]
 169              	.L14:
 170 0012 7047     		bx	lr
 171              	.L17:
 172              		.align	2
 173              	.L16:
 174 0014 00080040 		.word	1073743872
 175 0018 00100240 		.word	1073876992
 176              		.cfi_endproc
 177              	.LFE308:
 179              		.comm	htim4,64,4
 180              		.section	.rodata.str1.4,"aMS",%progbits,1
 181              		.align	2
 182              	.LC0:
 183 0000 5372632F 		.ascii	"Src/tim.c\000"
 183      74696D2E 
 183      6300
 184              		.text
 185              	.Letext0:
 186              		.file 2 "/usr/local/Cellar/gcc-arm-none-eabi-49/20150925/arm-none-eabi/include/machine/_default_ty
 187              		.file 3 "/usr/local/Cellar/gcc-arm-none-eabi-49/20150925/arm-none-eabi/include/sys/_stdint.h"
 188              		.file 4 "Drivers/CMSIS/Device/ST/STM32L4xx/Include/stm32l476xx.h"
ARM GAS  /var/folders/bq/zy6zjhwd1qn4sn8dk3jpjcq80000gn/T//ccL3KoZ6.s 			page 6


 189              		.file 5 "Drivers/STM32L4xx_HAL_Driver/Inc/stm32l4xx_hal_def.h"
 190              		.file 6 "Drivers/STM32L4xx_HAL_Driver/Inc/stm32l4xx_hal_dma.h"
 191              		.file 7 "Drivers/STM32L4xx_HAL_Driver/Inc/stm32l4xx_hal_tim.h"
 192              		.file 8 "Drivers/CMSIS/Include/core_cm4.h"
 193              		.file 9 "Drivers/STM32L4xx_HAL_Driver/Inc/stm32l4xx_hal_tim_ex.h"
 194              		.file 10 "Inc/tim.h"
ARM GAS  /var/folders/bq/zy6zjhwd1qn4sn8dk3jpjcq80000gn/T//ccL3KoZ6.s 			page 7


DEFINED SYMBOLS
                            *ABS*:0000000000000000 tim.c
/var/folders/bq/zy6zjhwd1qn4sn8dk3jpjcq80000gn/T//ccL3KoZ6.s:21     .text.MX_TIM4_Init:0000000000000000 $t
/var/folders/bq/zy6zjhwd1qn4sn8dk3jpjcq80000gn/T//ccL3KoZ6.s:26     .text.MX_TIM4_Init:0000000000000000 MX_TIM4_Init
/var/folders/bq/zy6zjhwd1qn4sn8dk3jpjcq80000gn/T//ccL3KoZ6.s:91     .text.MX_TIM4_Init:0000000000000048 $d
                            *COM*:0000000000000040 htim4
/var/folders/bq/zy6zjhwd1qn4sn8dk3jpjcq80000gn/T//ccL3KoZ6.s:98     .text.HAL_TIM_OC_MspInit:0000000000000000 $t
/var/folders/bq/zy6zjhwd1qn4sn8dk3jpjcq80000gn/T//ccL3KoZ6.s:103    .text.HAL_TIM_OC_MspInit:0000000000000000 HAL_TIM_OC_MspInit
/var/folders/bq/zy6zjhwd1qn4sn8dk3jpjcq80000gn/T//ccL3KoZ6.s:141    .text.HAL_TIM_OC_MspInit:0000000000000024 $d
/var/folders/bq/zy6zjhwd1qn4sn8dk3jpjcq80000gn/T//ccL3KoZ6.s:146    .text.HAL_TIM_OC_MspDeInit:0000000000000000 $t
/var/folders/bq/zy6zjhwd1qn4sn8dk3jpjcq80000gn/T//ccL3KoZ6.s:151    .text.HAL_TIM_OC_MspDeInit:0000000000000000 HAL_TIM_OC_MspDeInit
/var/folders/bq/zy6zjhwd1qn4sn8dk3jpjcq80000gn/T//ccL3KoZ6.s:174    .text.HAL_TIM_OC_MspDeInit:0000000000000014 $d
/var/folders/bq/zy6zjhwd1qn4sn8dk3jpjcq80000gn/T//ccL3KoZ6.s:181    .rodata.str1.4:0000000000000000 $d
                     .debug_frame:0000000000000010 $d

UNDEFINED SYMBOLS
HAL_TIM_OC_Init
_Error_Handler
HAL_TIMEx_MasterConfigSynchronization
